; generated by ARM C/C++ Compiler, 4.1 [Build 894]
; commandline ArmCC [--list --split_sections --debug -c --asm --interleave -o..\Output\c_dc.o --asm_dir=..\Listing\ --list_dir=..\Listing\ --depend=..\Output\c_dc.d --cpu=Cortex-M4.fp --apcs=interwork -O1 --diag_suppress=870 -I..\APP -I..\drive -I..\Include -I..\Libraries\CMSIS\inc -I..\Libraries\CMSIS\src -I..\Libraries\FWlib\inc -I..\Libraries\FWlib\src -I..\Listing -I..\Output -I..\Project -I..\STemWinLibrary522\Config -I..\STemWinLibrary522\emWinTask -I..\STemWinLibrary522\GUILib -I..\STemWinLibrary522\inc -I..\User -I..\USB\STM32_USB_HOST_Library\Class\HID\inc -I..\USB\STM32_USB_HOST_Library\Class\MSC\src -I..\USB\STM32_USB_HOST_Library\Core\src -I..\USB\USB_APP -I..\USB\STM32_USB_HOST_Library\Class\HID\src -I..\USB\STM32_USB_HOST_Library\Class\MSC\inc -I..\USB\STM32_USB_HOST_Library\Core\inc -I..\USB\STM32_USB_OTG_Driver\inc -I..\FATFS\exfuns -I..\FATFS\src\option -I..\FATFS\src -I..\MALLOC -ID:\Keil\ARM\RV31\Inc -ID:\Keil\ARM\CMSIS\Include -ID:\Keil\ARM\Inc\ST\STM32F4xx -DUSE_STDPERIPH_DRIVER -DSTM32F40XX -DUSE_USB_OTG_FS -DUSE_EMBEDDED_PHY -DUSE_USB_OTG_HS -DSTM32F40XX --omf_browse=..\Output\c_dc.crf ..\APP\c_dc.c]
                          THUMB

                          AREA ||i.CDC_OP_DOWN||, CODE, READONLY, ALIGN=2

                  CDC_OP_DOWN PROC
;;;1080   void CDC_OP_DOWN(void);
;;;1081   void CDC_OP_DOWN(void)
000000  e92d5ff0          PUSH     {r4-r12,lr}
;;;1082   {
;;;1083       switch(set_sw)
000004  4d7c              LDR      r5,|L1.504|
000006  7829              LDRB     r1,[r5,#0]  ; set_sw
;;;1084       {
;;;1085           case set_26:
;;;1086           {
;;;1087               WM_HWIN hItem;
;;;1088   //            WM_InvalidateWindow(hWincdc);
;;;1089               hItem = WM_GetDialogItem(hWincdc, ID_TEXT_50);
000008  487c              LDR      r0,|L1.508|
;;;1090               TEXT_SetBkColor(hItem,GUI_INVALID_COLOR);//选项背景色设为透明
00000a  f06f4670          MVN      r6,#0xf0000000
00000e  3919              SUBS     r1,r1,#0x19           ;1083
;;;1091               TEXT_SetTextColor(hItem, GUI_WHITE);
000010  1137              ASRS     r7,r6,#4
000012  6982              LDR      r2,[r0,#0x18]         ;1083
000014  f640046f          MOV      r4,#0x86f             ;1089
;;;1092                  
;;;1093               hItem = WM_GetDialogItem(hWincdc, ID_TEXT_51);
000018  f44f6807          MOV      r8,#0x870
;;;1094               TEXT_SetBkColor(hItem,0x00BFFFFF);//选项背景色设为米色
;;;1095               TEXT_SetTextColor(hItem, GUI_BLACK);
;;;1096               
;;;1097               
;;;1098               set_sw = set_27;
;;;1099               break;
;;;1100           }
;;;1101           case set_27:
;;;1102           {
;;;1103               WM_HWIN hItem;
;;;1104   //            WM_InvalidateWindow(hWincdc);
;;;1105               hItem = WM_GetDialogItem(hWincdc, ID_TEXT_51);
;;;1106               TEXT_SetBkColor(hItem,GUI_INVALID_COLOR);//选项背景色设为透明
;;;1107               TEXT_SetTextColor(hItem, GUI_WHITE);
;;;1108                  
;;;1109               hItem = WM_GetDialogItem(hWincdc, ID_TEXT_58);
00001c  f6400977          MOV      r9,#0x877
;;;1110               TEXT_SetBkColor(hItem,0x00BFFFFF);//选项背景色设为米色
;;;1111               TEXT_SetTextColor(hItem, GUI_BLACK);
;;;1112   
;;;1113               set_sw = set_28;
;;;1114               break;
;;;1115           }
;;;1116           case set_28:
;;;1117           {
;;;1118               WM_HWIN hItem;
;;;1119   //            WM_InvalidateWindow(hWincdc);
;;;1120               hItem = WM_GetDialogItem(hWincdc, ID_TEXT_58);
;;;1121               TEXT_SetBkColor(hItem,GUI_INVALID_COLOR);//选项背景色设为透明
;;;1122               TEXT_SetTextColor(hItem, GUI_WHITE);
;;;1123                  
;;;1124               hItem = WM_GetDialogItem(hWincdc, ID_TEXT_59);
000020  f6400a78          MOV      r10,#0x878
;;;1125               TEXT_SetBkColor(hItem,0x00BFFFFF);//选项背景色设为米色
;;;1126               TEXT_SetTextColor(hItem, GUI_BLACK);
;;;1127   
;;;1128               set_sw = set_29;
;;;1129               break;
;;;1130           }
;;;1131           case set_29:
;;;1132           {
;;;1133               WM_HWIN hItem;
;;;1134   //            WM_InvalidateWindow(hWincdc);
;;;1135               hItem = WM_GetDialogItem(hWincdc, ID_TEXT_59);
;;;1136               TEXT_SetBkColor(hItem,GUI_INVALID_COLOR);//选项背景色设为透明
;;;1137               TEXT_SetTextColor(hItem, GUI_WHITE);
;;;1138                  
;;;1139               hItem = WM_GetDialogItem(hWincdc, ID_TEXT_52);
000024  f6400b71          MOV      r11,#0x871
000028  290c              CMP      r1,#0xc               ;1083
00002a  d225              BCS      |L1.120|
00002c  e8dff001          TBB      [pc,r1]               ;1083
000030  06264564          DCB      0x06,0x26,0x45,0x64
000034  24242424          DCB      0x24,0x24,0x24,0x24
000038  83a324c4          DCB      0x83,0xa3,0x24,0xc4
00003c  4681              MOV      r9,r0                 ;1089
00003e  4621              MOV      r1,r4                 ;1089
000040  4610              MOV      r0,r2                 ;1089
000042  f7fffffe          BL       WM_GetDialogItem
000046  4604              MOV      r4,r0                 ;1089
000048  4631              MOV      r1,r6                 ;1090
00004a  4620              MOV      r0,r4                 ;1090
00004c  f7fffffe          BL       TEXT_SetBkColor
000050  4639              MOV      r1,r7                 ;1091
000052  4620              MOV      r0,r4                 ;1091
000054  f7fffffe          BL       TEXT_SetTextColor
000058  4641              MOV      r1,r8                 ;1093
00005a  f8d90018          LDR      r0,[r9,#0x18]         ;1093  ; hWincdc
00005e  f7fffffe          BL       WM_GetDialogItem
000062  4604              MOV      r4,r0                 ;1093
000064  4966              LDR      r1,|L1.512|
000066  4620              MOV      r0,r4                 ;1094
000068  f7fffffe          BL       TEXT_SetBkColor
00006c  2100              MOVS     r1,#0                 ;1095
00006e  4620              MOV      r0,r4                 ;1095
000070  f7fffffe          BL       TEXT_SetTextColor
000074  201a              MOVS     r0,#0x1a              ;1098
000076  7028              STRB     r0,[r5,#0]            ;1098
                  |L1.120|
;;;1140               TEXT_SetBkColor(hItem,0x00BFFFFF);//选项背景色设为米色
;;;1141               TEXT_SetTextColor(hItem, GUI_BLACK);
;;;1142   
;;;1143               set_sw = set_34;
;;;1144               break;
;;;1145           }
;;;1146           case set_34:
;;;1147           {
;;;1148               WM_HWIN hItem;
;;;1149   //            WM_InvalidateWindow(hWincdc);
;;;1150               hItem = WM_GetDialogItem(hWincdc, ID_TEXT_52);
;;;1151               TEXT_SetBkColor(hItem,GUI_INVALID_COLOR);//选项背景色设为透明
;;;1152               TEXT_SetTextColor(hItem, GUI_WHITE);
;;;1153                  
;;;1154               hItem = WM_GetDialogItem(hWincdc, ID_TEXT_60);
;;;1155               TEXT_SetBkColor(hItem,0x00BFFFFF);//选项背景色设为米色
;;;1156               TEXT_SetTextColor(hItem, GUI_BLACK);
;;;1157   
;;;1158               set_sw = set_35;
;;;1159               break;
;;;1160           }
;;;1161           case set_35:
;;;1162           {
;;;1163               WM_HWIN hItem;
;;;1164   //            WM_InvalidateWindow(hWincdc);
;;;1165               hItem = WM_GetDialogItem(hWincdc, ID_TEXT_60);
;;;1166               TEXT_SetBkColor(hItem,GUI_INVALID_COLOR);//选项背景色设为透明
;;;1167               TEXT_SetTextColor(hItem, GUI_WHITE);
;;;1168                  
;;;1169               hItem = WM_GetDialogItem(hWincdc, ID_TEXT_53);
;;;1170               TEXT_SetBkColor(hItem,0x00BFFFFF);//选项背景色设为米色
;;;1171               TEXT_SetTextColor(hItem, GUI_BLACK);
;;;1172   
;;;1173               set_sw = set_37;
;;;1174               break;
;;;1175           }
;;;1176   //         case set_36:
;;;1177   //         {
;;;1178   //             WM_HWIN hItem;
;;;1179   //             WM_InvalidateWindow(hWincdc);
;;;1180   //             hItem = WM_GetDialogItem(hWincdc, ID_TEXT_61);
;;;1181   //             TEXT_SetBkColor(hItem,GUI_INVALID_COLOR);//选项背景色设为透明
;;;1182   //                
;;;1183   //             hItem = WM_GetDialogItem(hWincdc, ID_TEXT_53);
;;;1184   //             TEXT_SetBkColor(hItem,0x00BFFFFF);//选项背景色设为米色
;;;1185   
;;;1186   //             set_sw = set_37;
;;;1187   //             break;
;;;1188   //         }
;;;1189           case set_37:
;;;1190           {
;;;1191               WM_HWIN hItem;
;;;1192   //            WM_InvalidateWindow(hWincdc);
;;;1193               hItem = WM_GetDialogItem(hWincdc, ID_TEXT_53);
;;;1194               TEXT_SetBkColor(hItem,GUI_INVALID_COLOR);//选项背景色设为透明
;;;1195               TEXT_SetTextColor(hItem, GUI_WHITE);
;;;1196                  
;;;1197               hItem = WM_GetDialogItem(hWincdc, ID_TEXT_50);
;;;1198               TEXT_SetBkColor(hItem,0x00BFFFFF);//选项背景色设为米色
;;;1199               TEXT_SetTextColor(hItem, GUI_BLACK);
;;;1200   
;;;1201               set_sw = set_26;
;;;1202               break;
;;;1203           }
;;;1204           default: break;
;;;1205       }
;;;1206   }
000078  e8bd9ff0          POP      {r4-r12,pc}
00007c  4641              MOV      r1,r8                 ;1105
00007e  4680              MOV      r8,r0                 ;1105
000080  4610              MOV      r0,r2                 ;1105
000082  f7fffffe          BL       WM_GetDialogItem
000086  4604              MOV      r4,r0                 ;1105
000088  4631              MOV      r1,r6                 ;1106
00008a  4620              MOV      r0,r4                 ;1106
00008c  f7fffffe          BL       TEXT_SetBkColor
000090  4639              MOV      r1,r7                 ;1107
000092  4620              MOV      r0,r4                 ;1107
000094  f7fffffe          BL       TEXT_SetTextColor
000098  4649              MOV      r1,r9                 ;1109
00009a  f8d80018          LDR      r0,[r8,#0x18]         ;1109  ; hWincdc
00009e  f7fffffe          BL       WM_GetDialogItem
0000a2  4604              MOV      r4,r0                 ;1109
0000a4  4956              LDR      r1,|L1.512|
0000a6  4620              MOV      r0,r4                 ;1110
0000a8  f7fffffe          BL       TEXT_SetBkColor
0000ac  2100              MOVS     r1,#0                 ;1111
0000ae  4620              MOV      r0,r4                 ;1111
0000b0  f7fffffe          BL       TEXT_SetTextColor
0000b4  201b              MOVS     r0,#0x1b              ;1113
0000b6  7028              STRB     r0,[r5,#0]            ;1113
0000b8  e7de              B        |L1.120|
0000ba  4680              MOV      r8,r0                 ;1120
0000bc  4649              MOV      r1,r9                 ;1120
0000be  4610              MOV      r0,r2                 ;1120
0000c0  f7fffffe          BL       WM_GetDialogItem
0000c4  4604              MOV      r4,r0                 ;1120
0000c6  4631              MOV      r1,r6                 ;1121
0000c8  4620              MOV      r0,r4                 ;1121
0000ca  f7fffffe          BL       TEXT_SetBkColor
0000ce  4639              MOV      r1,r7                 ;1122
0000d0  4620              MOV      r0,r4                 ;1122
0000d2  f7fffffe          BL       TEXT_SetTextColor
0000d6  4651              MOV      r1,r10                ;1124
0000d8  f8d80018          LDR      r0,[r8,#0x18]         ;1124  ; hWincdc
0000dc  f7fffffe          BL       WM_GetDialogItem
0000e0  4604              MOV      r4,r0                 ;1124
0000e2  4947              LDR      r1,|L1.512|
0000e4  4620              MOV      r0,r4                 ;1125
0000e6  f7fffffe          BL       TEXT_SetBkColor
0000ea  2100              MOVS     r1,#0                 ;1126
0000ec  4620              MOV      r0,r4                 ;1126
0000ee  f7fffffe          BL       TEXT_SetTextColor
0000f2  201c              MOVS     r0,#0x1c              ;1128
0000f4  7028              STRB     r0,[r5,#0]            ;1128
0000f6  e7bf              B        |L1.120|
0000f8  4680              MOV      r8,r0                 ;1135
0000fa  4651              MOV      r1,r10                ;1135
0000fc  4610              MOV      r0,r2                 ;1135
0000fe  f7fffffe          BL       WM_GetDialogItem
000102  4604              MOV      r4,r0                 ;1135
000104  4631              MOV      r1,r6                 ;1136
000106  4620              MOV      r0,r4                 ;1136
000108  f7fffffe          BL       TEXT_SetBkColor
00010c  4639              MOV      r1,r7                 ;1137
00010e  4620              MOV      r0,r4                 ;1137
000110  f7fffffe          BL       TEXT_SetTextColor
000114  4659              MOV      r1,r11                ;1139
000116  f8d80018          LDR      r0,[r8,#0x18]         ;1139  ; hWincdc
00011a  f7fffffe          BL       WM_GetDialogItem
00011e  4604              MOV      r4,r0                 ;1139
000120  4937              LDR      r1,|L1.512|
000122  4620              MOV      r0,r4                 ;1140
000124  f7fffffe          BL       TEXT_SetBkColor
000128  2100              MOVS     r1,#0                 ;1141
00012a  4620              MOV      r0,r4                 ;1141
00012c  f7fffffe          BL       TEXT_SetTextColor
000130  2021              MOVS     r0,#0x21              ;1143
000132  7028              STRB     r0,[r5,#0]            ;1143
000134  e7a0              B        |L1.120|
000136  4680              MOV      r8,r0                 ;1150
000138  4659              MOV      r1,r11                ;1150
00013a  4610              MOV      r0,r2                 ;1150
00013c  f7fffffe          BL       WM_GetDialogItem
000140  4604              MOV      r4,r0                 ;1150
000142  4631              MOV      r1,r6                 ;1151
000144  4620              MOV      r0,r4                 ;1151
000146  f7fffffe          BL       TEXT_SetBkColor
00014a  4639              MOV      r1,r7                 ;1152
00014c  4620              MOV      r0,r4                 ;1152
00014e  f7fffffe          BL       TEXT_SetTextColor
000152  f6400179          MOV      r1,#0x879             ;1154
000156  f8d80018          LDR      r0,[r8,#0x18]         ;1154  ; hWincdc
00015a  f7fffffe          BL       WM_GetDialogItem
00015e  4604              MOV      r4,r0                 ;1154
000160  4927              LDR      r1,|L1.512|
000162  4620              MOV      r0,r4                 ;1155
000164  f7fffffe          BL       TEXT_SetBkColor
000168  2100              MOVS     r1,#0                 ;1156
00016a  4620              MOV      r0,r4                 ;1156
00016c  f7fffffe          BL       TEXT_SetTextColor
000170  2022              MOVS     r0,#0x22              ;1158
000172  7028              STRB     r0,[r5,#0]            ;1158
000174  e780              B        |L1.120|
000176  4680              MOV      r8,r0                 ;1165
000178  f6400179          MOV      r1,#0x879             ;1165
00017c  4610              MOV      r0,r2                 ;1165
00017e  f7fffffe          BL       WM_GetDialogItem
000182  4604              MOV      r4,r0                 ;1165
000184  4631              MOV      r1,r6                 ;1166
000186  4620              MOV      r0,r4                 ;1166
000188  f7fffffe          BL       TEXT_SetBkColor
00018c  4639              MOV      r1,r7                 ;1167
00018e  4620              MOV      r0,r4                 ;1167
000190  f7fffffe          BL       TEXT_SetTextColor
000194  f6400172          MOV      r1,#0x872             ;1169
000198  f8d80018          LDR      r0,[r8,#0x18]         ;1169  ; hWincdc
00019c  f7fffffe          BL       WM_GetDialogItem
0001a0  4604              MOV      r4,r0                 ;1169
0001a2  4917              LDR      r1,|L1.512|
0001a4  4620              MOV      r0,r4                 ;1170
0001a6  f7fffffe          BL       TEXT_SetBkColor
0001aa  2100              MOVS     r1,#0                 ;1171
0001ac  4620              MOV      r0,r4                 ;1171
0001ae  f7fffffe          BL       TEXT_SetTextColor
0001b2  2024              MOVS     r0,#0x24              ;1173
0001b4  7028              STRB     r0,[r5,#0]            ;1173
0001b6  e75f              B        |L1.120|
0001b8  4681              MOV      r9,r0                 ;1193
0001ba  f6400172          MOV      r1,#0x872             ;1193
0001be  4610              MOV      r0,r2                 ;1193
0001c0  f7fffffe          BL       WM_GetDialogItem
0001c4  4680              MOV      r8,r0                 ;1193
0001c6  4631              MOV      r1,r6                 ;1194
0001c8  4640              MOV      r0,r8                 ;1194
0001ca  f7fffffe          BL       TEXT_SetBkColor
0001ce  4639              MOV      r1,r7                 ;1195
0001d0  4640              MOV      r0,r8                 ;1195
0001d2  f7fffffe          BL       TEXT_SetTextColor
0001d6  4621              MOV      r1,r4                 ;1197
0001d8  f8d90018          LDR      r0,[r9,#0x18]         ;1197  ; hWincdc
0001dc  f7fffffe          BL       WM_GetDialogItem
0001e0  4604              MOV      r4,r0                 ;1197
0001e2  4907              LDR      r1,|L1.512|
0001e4  4620              MOV      r0,r4                 ;1198
0001e6  f7fffffe          BL       TEXT_SetBkColor
0001ea  2100              MOVS     r1,#0                 ;1199
0001ec  4620              MOV      r0,r4                 ;1199
0001ee  f7fffffe          BL       TEXT_SetTextColor
0001f2  2019              MOVS     r0,#0x19              ;1201
0001f4  7028              STRB     r0,[r5,#0]            ;1201
0001f6  e73f              B        |L1.120|
;;;1207   
                          ENDP

                  |L1.504|
                          DCD      set_sw
                  |L1.508|
                          DCD      ||.data||
                  |L1.512|
                          DCD      0x00bfffff

                          AREA ||i.CDC_OP_LEFT||, CODE, READONLY, ALIGN=2

                          REQUIRE _printf_percent
                          REQUIRE _printf_widthprec
                          REQUIRE _printf_f
                          REQUIRE _printf_fp_dec
                  CDC_OP_LEFT PROC
;;;1335   void CDC_OP_LEFT(void);
;;;1336   void CDC_OP_LEFT(void)
000000  e92d43f0          PUSH     {r4-r9,lr}
;;;1337   {
000004  ed2d8b02          VPUSH    {d8}
000008  b083              SUB      sp,sp,#0xc
;;;1338       float buffer;
;;;1339       char buf[5];
;;;1340       WM_HWIN hItem;
;;;1341       switch(set_sw)
00000a  48fd              LDR      r0,|L2.1024|
00000c  7801              LDRB     r1,[r0,#0]  ; set_sw
;;;1342       {
;;;1343           case set_26:
;;;1344           {
;;;1345               
;;;1346               if(pow_step == step2)
;;;1347               {
;;;1348                   buffer = (float)opv1/100;
00000e  4afd              LDR      r2,|L2.1028|
000010  ed9f0afd          VLDR     s0,|L2.1032|
000014  f8df83f8          LDR      r8,|L2.1040|
;;;1349                   hItem = WM_GetDialogItem(hWincdc, ID_TEXT_50);
;;;1350                   if(lang == 0)
000018  4dfc              LDR      r5,|L2.1036|
;;;1351                   {
;;;1352                       TEXT_SetFont(hItem, &GUI_Fontset_font);
;;;1353                       TEXT_SetText(hItem,"输出电压1");
;;;1354                   }else{
;;;1355                       TEXT_SetFont(hItem, &GUI_Font20_ASCII);
;;;1356                       TEXT_SetText(hItem,"Output V1");
;;;1357                   }
;;;1358                   hItem = WM_GetDialogItem(hWincdc, ID_TEXT_54);
;;;1359                   sprintf(buf,"%.2f",buffer);
;;;1360                   TEXT_SetText(hItem,buf);
;;;1361                   pow_step = step1;
00001a  2700              MOVS     r7,#0
;;;1362               }else if(pow_step == step3){
;;;1363                   buffer = (float)opv2/100;
;;;1364                   hItem = WM_GetDialogItem(hWincdc, ID_TEXT_50);
;;;1365                   if(lang == 0)
;;;1366                   {
;;;1367                       TEXT_SetFont(hItem, &GUI_Fontset_font);
;;;1368                       TEXT_SetText(hItem,"输出电压2");
;;;1369                   }else{
;;;1370                       TEXT_SetFont(hItem, &GUI_Font20_ASCII);
;;;1371                       TEXT_SetText(hItem,"Output V2");
;;;1372                   }
;;;1373                   hItem = WM_GetDialogItem(hWincdc, ID_TEXT_54);
;;;1374                   sprintf(buf,"%.2f",buffer);
;;;1375                   TEXT_SetText(hItem,buf);
;;;1376                   pow_step = step2;
00001c  2601              MOVS     r6,#1
00001e  f8d80018          LDR      r0,[r8,#0x18]         ;1341
000022  2919              CMP      r1,#0x19              ;1341
000024  d047              BEQ      |L2.182|
;;;1377               }
;;;1378           }break;
;;;1379           case set_27:
;;;1380           {
;;;1381               if(cur_step == step3)
;;;1382               {
;;;1383                   buffer = (float)opc2/1000;
000026  eddf0afb          VLDR     s1,|L2.1044|
00002a  291a              CMP      r1,#0x1a              ;1341
00002c  d07d              BEQ      |L2.298|
;;;1384                   hItem = WM_GetDialogItem(hWincdc, ID_TEXT_51);
;;;1385                   if(lang == 0)
;;;1386                   {
;;;1387                       TEXT_SetFont(hItem, &GUI_Fontset_font);
;;;1388                       TEXT_SetText(hItem,"限制电流2");
;;;1389                   }else{
;;;1390                       TEXT_SetFont(hItem, &GUI_Font20_ASCII);
;;;1391                       TEXT_SetText(hItem,"Limiting C2");
;;;1392                   }
;;;1393                   
;;;1394                   hItem = WM_GetDialogItem(hWincdc, ID_TEXT_55);
;;;1395                   sprintf(buf,"%.2f",buffer);
;;;1396                   TEXT_SetText(hItem,buf);
;;;1397                   
;;;1398                   cur_step = step2;
;;;1399               }else if(cur_step == step2){
;;;1400                   buffer = (float)opc1/1000;
;;;1401                   hItem = WM_GetDialogItem(hWincdc, ID_TEXT_51);
;;;1402                   if(lang == 0)
;;;1403                   {
;;;1404                       TEXT_SetFont(hItem, &GUI_Fontset_font);
;;;1405                       TEXT_SetText(hItem,"限制电流1");
;;;1406                   }else{
;;;1407                       TEXT_SetFont(hItem, &GUI_Font20_ASCII);
;;;1408                       TEXT_SetText(hItem,"Limiting C1");
;;;1409                   }
;;;1410                   hItem = WM_GetDialogItem(hWincdc, ID_TEXT_55);
;;;1411                   sprintf(buf,"%.2f",buffer);
;;;1412                   TEXT_SetText(hItem,buf);
;;;1413                   cur_step = step1;
;;;1414               }
;;;1415           }break;
;;;1416           case set_28:
;;;1417           {
;;;1418               
;;;1419               if(coffv_step == step3)
;;;1420               {
;;;1421                   buffer = (float)cov2/100;
00002e  4afa              LDR      r2,|L2.1048|
000030  291b              CMP      r1,#0x1b              ;1341
000032  d07b              BEQ      |L2.300|
000034  291c              CMP      r1,#0x1c              ;1341
000036  d139              BNE      |L2.172|
;;;1422                   hItem = WM_GetDialogItem(hWincdc, ID_TEXT_58);
;;;1423                   
;;;1424                   if(lang == 0)
;;;1425                   {
;;;1426                       TEXT_SetFont(hItem, &GUI_Fontset_font);
;;;1427                       TEXT_SetText(hItem,"截止电压2");
;;;1428                   }else{
;;;1429                       TEXT_SetFont(hItem, &GUI_Font20_ASCII);
;;;1430                       TEXT_SetText(hItem,"Cutoff V2");
;;;1431                   }
;;;1432                   hItem = WM_GetDialogItem(hWincdc, ID_TEXT_62);
;;;1433                   sprintf(buf,"%.2f",buffer);
;;;1434                   TEXT_SetText(hItem,buf);
;;;1435                   coffv_step = step2;
;;;1436               }else if(coffv_step == step2){
;;;1437                   buffer = (float)cov1/100;
;;;1438                   hItem = WM_GetDialogItem(hWincdc, ID_TEXT_58);
;;;1439                   if(lang == 0)
;;;1440                   {
;;;1441                       TEXT_SetFont(hItem, &GUI_Fontset_font);
;;;1442                       TEXT_SetText(hItem,"截止电压1");
;;;1443                   }else{
;;;1444                       TEXT_SetFont(hItem, &GUI_Font20_ASCII);
;;;1445                       TEXT_SetText(hItem,"Cutoff V1");
;;;1446                   }
;;;1447                   hItem = WM_GetDialogItem(hWincdc, ID_TEXT_62);
;;;1448                   sprintf(buf,"%.2f",buffer);
;;;1449                   TEXT_SetText(hItem,buf);
;;;1450                   coffv_step = step1;
;;;1451               }
;;;1452           }break;
;;;1453           case set_29:
;;;1454           {
;;;1455               
;;;1456               if(coffc_step == step3)
000038  f898100e          LDRB     r1,[r8,#0xe]  ; coffc_step
;;;1457               {
;;;1458                   buffer = (float)coc2/1000;
;;;1459                   hItem = WM_GetDialogItem(hWincdc, ID_TEXT_59);
00003c  f6400378          MOV      r3,#0x878
;;;1460                   if(lang == 0)
;;;1461                   {
;;;1462                       TEXT_SetFont(hItem, &GUI_Fontset_font);
;;;1463                       TEXT_SetText(hItem,"截止电流2");
;;;1464                   }else{
;;;1465                       TEXT_SetFont(hItem, &GUI_Font20_ASCII);
;;;1466                       TEXT_SetText(hItem,"Cutoff C2");
;;;1467                   }
;;;1468                   
;;;1469                   hItem = WM_GetDialogItem(hWincdc, ID_TEXT_63);
000040  f640097c          MOV      r9,#0x87c
000044  2902              CMP      r1,#2                 ;1456
000046  d072              BEQ      |L2.302|
;;;1470                   sprintf(buf,"%.2f",buffer);
;;;1471                   TEXT_SetText(hItem,buf);
;;;1472                   coffc_step = step2;
;;;1473               }else if(coffc_step == step2){
000048  f898100e          LDRB     r1,[r8,#0xe]  ; coffc_step
00004c  2901              CMP      r1,#1
00004e  d12d              BNE      |L2.172|
;;;1474                   buffer = (float)coc1/1000;;
000050  88d1              LDRH     r1,[r2,#6]  ; coff
000052  ee001a10          VMOV     s0,r1
000056  eeb80a40          VCVT.F32.U32 s0,s0
00005a  ee808a20          VDIV.F32 s16,s0,s1
;;;1475                   hItem = WM_GetDialogItem(hWincdc, ID_TEXT_59);
00005e  4619              MOV      r1,r3
000060  f7fffffe          BL       WM_GetDialogItem
000064  4604              MOV      r4,r0
;;;1476                   if(lang == 0)
000066  7828              LDRB     r0,[r5,#0]  ; lang
000068  2800              CMP      r0,#0
00006a  d07d              BEQ      |L2.360|
;;;1477                   {
;;;1478                       TEXT_SetFont(hItem, &GUI_Fontset_font);
;;;1479                       TEXT_SetText(hItem,"截止电流1");
;;;1480                   }else{
;;;1481                       TEXT_SetFont(hItem, &GUI_Font20_ASCII);
00006c  49eb              LDR      r1,|L2.1052|
00006e  4620              MOV      r0,r4
000070  f7fffffe          BL       TEXT_SetFont
;;;1482                       TEXT_SetText(hItem,"Cutoff C1");
000074  a1ea              ADR      r1,|L2.1056|
000076  4620              MOV      r0,r4
000078  f7fffffe          BL       TEXT_SetText
                  |L2.124|
;;;1483                   }
;;;1484                   hItem = WM_GetDialogItem(hWincdc, ID_TEXT_63);
00007c  4649              MOV      r1,r9
00007e  f8d80018          LDR      r0,[r8,#0x18]  ; hWincdc
000082  f7fffffe          BL       WM_GetDialogItem
000086  4604              MOV      r4,r0
;;;1485                   sprintf(buf,"%.2f",buffer);
000088  ee180a10          VMOV     r0,s16
00008c  f7fffffe          BL       __aeabi_f2d
000090  ec410b10          VMOV     d0,r0,r1
000094  a1e5              ADR      r1,|L2.1068|
000096  ec532b10          VMOV     r2,r3,d0
00009a  a801              ADD      r0,sp,#4
00009c  f7fffffe          BL       __2sprintf
;;;1486                   TEXT_SetText(hItem,buf);
0000a0  a901              ADD      r1,sp,#4
0000a2  4620              MOV      r0,r4
0000a4  f7fffffe          BL       TEXT_SetText
;;;1487                   coffc_step = step1;
0000a8  f888700e          STRB     r7,[r8,#0xe]
                  |L2.172|
;;;1488               }
;;;1489           }break;
;;;1490       }
;;;1491   }
0000ac  b003              ADD      sp,sp,#0xc
0000ae  ecbd8b02          VPOP     {d8}
0000b2  e8bd83f0          POP      {r4-r9,pc}
                  |L2.182|
0000b6  f898100b          LDRB     r1,[r8,#0xb]          ;1346  ; pow_step
0000ba  f640036f          MOV      r3,#0x86f             ;1349
0000be  f6400973          MOV      r9,#0x873             ;1358
0000c2  2901              CMP      r1,#1                 ;1346
0000c4  d037              BEQ      |L2.310|
0000c6  f898100b          LDRB     r1,[r8,#0xb]          ;1362  ; pow_step
0000ca  2902              CMP      r1,#2                 ;1362
0000cc  d1ee              BNE      |L2.172|
0000ce  f8b21040          LDRH     r1,[r2,#0x40]         ;1363  ; Run_Control
0000d2  ee001a90          VMOV     s1,r1                 ;1363
0000d6  eef80a60          VCVT.F32.U32 s1,s1                 ;1363
0000da  ee808a80          VDIV.F32 s16,s1,s0             ;1363
0000de  4619              MOV      r1,r3                 ;1364
0000e0  f7fffffe          BL       WM_GetDialogItem
0000e4  4604              MOV      r4,r0                 ;1364
0000e6  7828              LDRB     r0,[r5,#0]            ;1365  ; lang
0000e8  2800              CMP      r0,#0                 ;1365
0000ea  d05d              BEQ      |L2.424|
0000ec  49cb              LDR      r1,|L2.1052|
0000ee  4620              MOV      r0,r4                 ;1370
0000f0  f7fffffe          BL       TEXT_SetFont
0000f4  a1cf              ADR      r1,|L2.1076|
0000f6  4620              MOV      r0,r4                 ;1371
0000f8  f7fffffe          BL       TEXT_SetText
                  |L2.252|
0000fc  4649              MOV      r1,r9                 ;1373
0000fe  f8d80018          LDR      r0,[r8,#0x18]         ;1373  ; hWincdc
000102  f7fffffe          BL       WM_GetDialogItem
000106  4604              MOV      r4,r0                 ;1373
000108  ee180a10          VMOV     r0,s16                ;1374
00010c  f7fffffe          BL       __aeabi_f2d
000110  ec410b10          VMOV     d0,r0,r1              ;1374
000114  a1c5              ADR      r1,|L2.1068|
000116  ec532b10          VMOV     r2,r3,d0              ;1374
00011a  a801              ADD      r0,sp,#4              ;1374
00011c  f7fffffe          BL       __2sprintf
000120  a901              ADD      r1,sp,#4              ;1375
000122  4620              MOV      r0,r4                 ;1375
000124  f7fffffe          BL       TEXT_SetText
000128  e002              B        |L2.304|
                  |L2.298|
00012a  e046              B        |L2.442|
                  |L2.300|
00012c  e0c2              B        |L2.692|
                  |L2.302|
00012e  e13a              B        |L2.934|
                  |L2.304|
000130  f888600b          STRB     r6,[r8,#0xb]          ;1376
                  |L2.308|
000134  e7ba              B        |L2.172|
                  |L2.310|
000136  8fd1              LDRH     r1,[r2,#0x3e]         ;1348  ; Run_Control
000138  ee001a90          VMOV     s1,r1                 ;1348
00013c  eef80a60          VCVT.F32.U32 s1,s1                 ;1348
000140  ee808a80          VDIV.F32 s16,s1,s0             ;1348
000144  4619              MOV      r1,r3                 ;1349
000146  f7fffffe          BL       WM_GetDialogItem
00014a  4604              MOV      r4,r0                 ;1349
00014c  7828              LDRB     r0,[r5,#0]            ;1350  ; lang
00014e  b310              CBZ      r0,|L2.406|
000150  49b2              LDR      r1,|L2.1052|
000152  4620              MOV      r0,r4                 ;1355
000154  f7fffffe          BL       TEXT_SetFont
000158  a1b9              ADR      r1,|L2.1088|
00015a  4620              MOV      r0,r4                 ;1356
00015c  f7fffffe          BL       TEXT_SetText
                  |L2.352|
000160  4649              MOV      r1,r9                 ;1358
000162  f8d80018          LDR      r0,[r8,#0x18]         ;1358  ; hWincdc
000166  e000              B        |L2.362|
                  |L2.360|
000168  e1cc              B        |L2.1284|
                  |L2.362|
00016a  f7fffffe          BL       WM_GetDialogItem
00016e  4604              MOV      r4,r0                 ;1358
000170  ee180a10          VMOV     r0,s16                ;1359
000174  f7fffffe          BL       __aeabi_f2d
000178  ec410b10          VMOV     d0,r0,r1              ;1359
00017c  a1ab              ADR      r1,|L2.1068|
00017e  ec532b10          VMOV     r2,r3,d0              ;1359
000182  a801              ADD      r0,sp,#4              ;1359
000184  f7fffffe          BL       __2sprintf
000188  a901              ADD      r1,sp,#4              ;1360
00018a  4620              MOV      r0,r4                 ;1360
00018c  f7fffffe          BL       TEXT_SetText
000190  f888700b          STRB     r7,[r8,#0xb]          ;1361
000194  e78a              B        |L2.172|
                  |L2.406|
000196  49ad              LDR      r1,|L2.1100|
000198  4620              MOV      r0,r4                 ;1352
00019a  f7fffffe          BL       TEXT_SetFont
00019e  a1ac              ADR      r1,|L2.1104|
0001a0  4620              MOV      r0,r4                 ;1353
0001a2  f7fffffe          BL       TEXT_SetText
0001a6  e7db              B        |L2.352|
                  |L2.424|
0001a8  49a8              LDR      r1,|L2.1100|
0001aa  4620              MOV      r0,r4                 ;1367
0001ac  f7fffffe          BL       TEXT_SetFont
0001b0  a1ab              ADR      r1,|L2.1120|
0001b2  4620              MOV      r0,r4                 ;1368
0001b4  f7fffffe          BL       TEXT_SetText
0001b8  e7a0              B        |L2.252|
                  |L2.442|
0001ba  f898100c          LDRB     r1,[r8,#0xc]          ;1381  ; cur_step
0001be  f44f6307          MOV      r3,#0x870             ;1384
0001c2  f6400974          MOV      r9,#0x874             ;1394
0001c6  2902              CMP      r1,#2                 ;1381
0001c8  d033              BEQ      |L2.562|
0001ca  f898100c          LDRB     r1,[r8,#0xc]          ;1399  ; cur_step
0001ce  2901              CMP      r1,#1                 ;1399
0001d0  d1b0              BNE      |L2.308|
0001d2  f8b21044          LDRH     r1,[r2,#0x44]         ;1400  ; Run_Control
0001d6  ee001a10          VMOV     s0,r1                 ;1400
0001da  eeb80a40          VCVT.F32.U32 s0,s0                 ;1400
0001de  ee808a20          VDIV.F32 s16,s0,s1             ;1400
0001e2  4619              MOV      r1,r3                 ;1401
0001e4  f7fffffe          BL       WM_GetDialogItem
0001e8  4604              MOV      r4,r0                 ;1401
0001ea  7828              LDRB     r0,[r5,#0]            ;1402  ; lang
0001ec  2800              CMP      r0,#0                 ;1402
0001ee  d058              BEQ      |L2.674|
0001f0  498a              LDR      r1,|L2.1052|
0001f2  4620              MOV      r0,r4                 ;1407
0001f4  f7fffffe          BL       TEXT_SetFont
0001f8  a19d              ADR      r1,|L2.1136|
0001fa  4620              MOV      r0,r4                 ;1408
0001fc  f7fffffe          BL       TEXT_SetText
                  |L2.512|
000200  4649              MOV      r1,r9                 ;1410
000202  f8d80018          LDR      r0,[r8,#0x18]         ;1410  ; hWincdc
000206  f7fffffe          BL       WM_GetDialogItem
00020a  4604              MOV      r4,r0                 ;1410
00020c  ee180a10          VMOV     r0,s16                ;1411
000210  f7fffffe          BL       __aeabi_f2d
000214  ec410b10          VMOV     d0,r0,r1              ;1411
000218  a184              ADR      r1,|L2.1068|
00021a  ec532b10          VMOV     r2,r3,d0              ;1411
00021e  a801              ADD      r0,sp,#4              ;1411
000220  f7fffffe          BL       __2sprintf
000224  a901              ADD      r1,sp,#4              ;1412
000226  4620              MOV      r0,r4                 ;1412
000228  f7fffffe          BL       TEXT_SetText
00022c  f888700c          STRB     r7,[r8,#0xc]          ;1413
                  |L2.560|
000230  e73c              B        |L2.172|
                  |L2.562|
000232  f8b21046          LDRH     r1,[r2,#0x46]         ;1383  ; Run_Control
000236  ee001a10          VMOV     s0,r1                 ;1383
00023a  eeb80a40          VCVT.F32.U32 s0,s0                 ;1383
00023e  ee808a20          VDIV.F32 s16,s0,s1             ;1383
000242  4619              MOV      r1,r3                 ;1384
000244  f7fffffe          BL       WM_GetDialogItem
000248  4604              MOV      r4,r0                 ;1384
00024a  7828              LDRB     r0,[r5,#0]            ;1385  ; lang
00024c  b300              CBZ      r0,|L2.656|
00024e  4973              LDR      r1,|L2.1052|
000250  4620              MOV      r0,r4                 ;1390
000252  f7fffffe          BL       TEXT_SetFont
000256  a189              ADR      r1,|L2.1148|
000258  4620              MOV      r0,r4                 ;1391
00025a  f7fffffe          BL       TEXT_SetText
                  |L2.606|
00025e  4649              MOV      r1,r9                 ;1394
000260  f8d80018          LDR      r0,[r8,#0x18]         ;1394  ; hWincdc
000264  f7fffffe          BL       WM_GetDialogItem
000268  4604              MOV      r4,r0                 ;1394
00026a  ee180a10          VMOV     r0,s16                ;1395
00026e  f7fffffe          BL       __aeabi_f2d
000272  ec410b10          VMOV     d0,r0,r1              ;1395
000276  a16d              ADR      r1,|L2.1068|
000278  ec532b10          VMOV     r2,r3,d0              ;1395
00027c  a801              ADD      r0,sp,#4              ;1395
00027e  f7fffffe          BL       __2sprintf
000282  a901              ADD      r1,sp,#4              ;1396
000284  4620              MOV      r0,r4                 ;1396
000286  f7fffffe          BL       TEXT_SetText
00028a  f888600c          STRB     r6,[r8,#0xc]          ;1398
00028e  e70d              B        |L2.172|
                  |L2.656|
000290  496e              LDR      r1,|L2.1100|
000292  4620              MOV      r0,r4                 ;1387
000294  f7fffffe          BL       TEXT_SetFont
000298  a17b              ADR      r1,|L2.1160|
00029a  4620              MOV      r0,r4                 ;1388
00029c  f7fffffe          BL       TEXT_SetText
0002a0  e7dd              B        |L2.606|
                  |L2.674|
0002a2  496a              LDR      r1,|L2.1100|
0002a4  4620              MOV      r0,r4                 ;1404
0002a6  f7fffffe          BL       TEXT_SetFont
0002aa  a17b              ADR      r1,|L2.1176|
0002ac  4620              MOV      r0,r4                 ;1405
0002ae  f7fffffe          BL       TEXT_SetText
0002b2  e7a5              B        |L2.512|
                  |L2.692|
0002b4  f898300d          LDRB     r3,[r8,#0xd]          ;1419  ; coffv_step
0002b8  f6400177          MOV      r1,#0x877             ;1422
0002bc  f640097b          MOV      r9,#0x87b             ;1432
0002c0  2b02              CMP      r3,#2                 ;1419
0002c2  d031              BEQ      |L2.808|
0002c4  f898300d          LDRB     r3,[r8,#0xd]          ;1436  ; coffv_step
0002c8  2b01              CMP      r3,#1                 ;1436
0002ca  d1b1              BNE      |L2.560|
0002cc  8812              LDRH     r2,[r2,#0]            ;1437  ; coff
0002ce  ee002a90          VMOV     s1,r2                 ;1437
0002d2  eef80a60          VCVT.F32.U32 s1,s1                 ;1437
0002d6  ee808a80          VDIV.F32 s16,s1,s0             ;1437
0002da  f7fffffe          BL       WM_GetDialogItem
0002de  4604              MOV      r4,r0                 ;1438
0002e0  7828              LDRB     r0,[r5,#0]            ;1439  ; lang
0002e2  2800              CMP      r0,#0                 ;1439
0002e4  d056              BEQ      |L2.916|
0002e6  494d              LDR      r1,|L2.1052|
0002e8  4620              MOV      r0,r4                 ;1444
0002ea  f7fffffe          BL       TEXT_SetFont
0002ee  a16e              ADR      r1,|L2.1192|
0002f0  4620              MOV      r0,r4                 ;1445
0002f2  f7fffffe          BL       TEXT_SetText
                  |L2.758|
0002f6  4649              MOV      r1,r9                 ;1447
0002f8  f8d80018          LDR      r0,[r8,#0x18]         ;1447  ; hWincdc
0002fc  f7fffffe          BL       WM_GetDialogItem
000300  4604              MOV      r4,r0                 ;1447
000302  ee180a10          VMOV     r0,s16                ;1448
000306  f7fffffe          BL       __aeabi_f2d
00030a  ec410b10          VMOV     d0,r0,r1              ;1448
00030e  a147              ADR      r1,|L2.1068|
000310  ec532b10          VMOV     r2,r3,d0              ;1448
000314  a801              ADD      r0,sp,#4              ;1448
000316  f7fffffe          BL       __2sprintf
00031a  a901              ADD      r1,sp,#4              ;1449
00031c  4620              MOV      r0,r4                 ;1449
00031e  f7fffffe          BL       TEXT_SetText
000322  f888700d          STRB     r7,[r8,#0xd]          ;1450
000326  e6c1              B        |L2.172|
                  |L2.808|
000328  8852              LDRH     r2,[r2,#2]            ;1421  ; coff
00032a  ee002a90          VMOV     s1,r2                 ;1421
00032e  eef80a60          VCVT.F32.U32 s1,s1                 ;1421
000332  ee808a80          VDIV.F32 s16,s1,s0             ;1421
000336  f7fffffe          BL       WM_GetDialogItem
00033a  4604              MOV      r4,r0                 ;1422
00033c  7828              LDRB     r0,[r5,#0]            ;1424  ; lang
00033e  b300              CBZ      r0,|L2.898|
000340  4936              LDR      r1,|L2.1052|
000342  4620              MOV      r0,r4                 ;1429
000344  f7fffffe          BL       TEXT_SetFont
000348  a15a              ADR      r1,|L2.1204|
00034a  4620              MOV      r0,r4                 ;1430
00034c  f7fffffe          BL       TEXT_SetText
                  |L2.848|
000350  4649              MOV      r1,r9                 ;1432
000352  f8d80018          LDR      r0,[r8,#0x18]         ;1432  ; hWincdc
000356  f7fffffe          BL       WM_GetDialogItem
00035a  4604              MOV      r4,r0                 ;1432
00035c  ee180a10          VMOV     r0,s16                ;1433
000360  f7fffffe          BL       __aeabi_f2d
000364  ec410b10          VMOV     d0,r0,r1              ;1433
000368  a130              ADR      r1,|L2.1068|
00036a  ec532b10          VMOV     r2,r3,d0              ;1433
00036e  a801              ADD      r0,sp,#4              ;1433
000370  f7fffffe          BL       __2sprintf
000374  a901              ADD      r1,sp,#4              ;1434
000376  4620              MOV      r0,r4                 ;1434
000378  f7fffffe          BL       TEXT_SetText
00037c  f888600d          STRB     r6,[r8,#0xd]          ;1435
000380  e694              B        |L2.172|
                  |L2.898|
000382  4932              LDR      r1,|L2.1100|
000384  4620              MOV      r0,r4                 ;1426
000386  f7fffffe          BL       TEXT_SetFont
00038a  a14d              ADR      r1,|L2.1216|
00038c  4620              MOV      r0,r4                 ;1427
00038e  f7fffffe          BL       TEXT_SetText
000392  e7dd              B        |L2.848|
                  |L2.916|
000394  492d              LDR      r1,|L2.1100|
000396  4620              MOV      r0,r4                 ;1441
000398  f7fffffe          BL       TEXT_SetFont
00039c  a14c              ADR      r1,|L2.1232|
00039e  4620              MOV      r0,r4                 ;1442
0003a0  f7fffffe          BL       TEXT_SetText
0003a4  e7a7              B        |L2.758|
                  |L2.934|
0003a6  8911              LDRH     r1,[r2,#8]            ;1458  ; coff
0003a8  ee001a10          VMOV     s0,r1                 ;1458
0003ac  eeb80a40          VCVT.F32.U32 s0,s0                 ;1458
0003b0  ee808a20          VDIV.F32 s16,s0,s1             ;1458
0003b4  4619              MOV      r1,r3                 ;1459
0003b6  f7fffffe          BL       WM_GetDialogItem
0003ba  4604              MOV      r4,r0                 ;1459
0003bc  7828              LDRB     r0,[r5,#0]            ;1460  ; lang
0003be  b1f0              CBZ      r0,|L2.1022|
0003c0  4916              LDR      r1,|L2.1052|
0003c2  4620              MOV      r0,r4                 ;1465
0003c4  f7fffffe          BL       TEXT_SetFont
0003c8  a145              ADR      r1,|L2.1248|
0003ca  4620              MOV      r0,r4                 ;1466
0003cc  f7fffffe          BL       TEXT_SetText
                  |L2.976|
0003d0  4649              MOV      r1,r9                 ;1469
0003d2  f8d80018          LDR      r0,[r8,#0x18]         ;1469  ; hWincdc
0003d6  f7fffffe          BL       WM_GetDialogItem
0003da  4604              MOV      r4,r0                 ;1469
0003dc  ee180a10          VMOV     r0,s16                ;1470
0003e0  f7fffffe          BL       __aeabi_f2d
0003e4  ec410b10          VMOV     d0,r0,r1              ;1470
0003e8  a110              ADR      r1,|L2.1068|
0003ea  ec532b10          VMOV     r2,r3,d0              ;1470
0003ee  a801              ADD      r0,sp,#4              ;1470
0003f0  f7fffffe          BL       __2sprintf
0003f4  a901              ADD      r1,sp,#4              ;1471
0003f6  4620              MOV      r0,r4                 ;1471
0003f8  f7fffffe          BL       TEXT_SetText
0003fc  e076              B        |L2.1260|
                  |L2.1022|
0003fe  e078              B        |L2.1266|
                  |L2.1024|
                          DCD      set_sw
                  |L2.1028|
                          DCD      Run_Control
                  |L2.1032|
000408  42c80000          DCFS     0x42c80000 ; 100
                  |L2.1036|
                          DCD      lang
                  |L2.1040|
                          DCD      ||.data||
                  |L2.1044|
000414  447a0000          DCFS     0x447a0000 ; 1000
                  |L2.1048|
                          DCD      ||.bss||
                  |L2.1052|
                          DCD      GUI_Font20_ASCII
                  |L2.1056|
000420  4375746f          DCB      "Cutoff C1",0
000424  66662043
000428  3100    
00042a  00                DCB      0
00042b  00                DCB      0
                  |L2.1068|
00042c  252e3266          DCB      "%.2f",0
000430  00      
000431  00                DCB      0
000432  00                DCB      0
000433  00                DCB      0
                  |L2.1076|
000434  4f757470          DCB      "Output V2",0
000438  75742056
00043c  3200    
00043e  00                DCB      0
00043f  00                DCB      0
                  |L2.1088|
000440  4f757470          DCB      "Output V1",0
000444  75742056
000448  3100    
00044a  00                DCB      0
00044b  00                DCB      0
                  |L2.1100|
                          DCD      GUI_Fontset_font
                  |L2.1104|
000450  e8be93e5          DCB      232,190,147,229,135,186,231,148,181,229,142,139,"1",0
000454  87bae794
000458  b5e58e8b
00045c  3100    
00045e  00                DCB      0
00045f  00                DCB      0
                  |L2.1120|
000460  e8be93e5          DCB      232,190,147,229,135,186,231,148,181,229,142,139,"2",0
000464  87bae794
000468  b5e58e8b
00046c  3200    
00046e  00                DCB      0
00046f  00                DCB      0
                  |L2.1136|
000470  4c696d69          DCB      "Limiting C1",0
000474  74696e67
000478  20433100
                  |L2.1148|
00047c  4c696d69          DCB      "Limiting C2",0
000480  74696e67
000484  20433200
                  |L2.1160|
000488  e99990e5          DCB      233,153,144,229,136,182,231,148,181,230,181,129,"2",0
00048c  88b6e794
000490  b5e6b581
000494  3200    
000496  00                DCB      0
000497  00                DCB      0
                  |L2.1176|
000498  e99990e5          DCB      233,153,144,229,136,182,231,148,181,230,181,129,"1",0
00049c  88b6e794
0004a0  b5e6b581
0004a4  3100    
0004a6  00                DCB      0
0004a7  00                DCB      0
                  |L2.1192|
0004a8  4375746f          DCB      "Cutoff V1",0
0004ac  66662056
0004b0  3100    
0004b2  00                DCB      0
0004b3  00                DCB      0
                  |L2.1204|
0004b4  4375746f          DCB      "Cutoff V2",0
0004b8  66662056
0004bc  3200    
0004be  00                DCB      0
0004bf  00                DCB      0
                  |L2.1216|
0004c0  e688aae6          DCB      230,136,170,230,173,162,231,148,181,229,142,139,"2",0
0004c4  ada2e794
0004c8  b5e58e8b
0004cc  3200    
0004ce  00                DCB      0
0004cf  00                DCB      0
                  |L2.1232|
0004d0  e688aae6          DCB      230,136,170,230,173,162,231,148,181,229,142,139,"1",0
0004d4  ada2e794
0004d8  b5e58e8b
0004dc  3100    
0004de  00                DCB      0
0004df  00                DCB      0
                  |L2.1248|
0004e0  4375746f          DCB      "Cutoff C2",0
0004e4  66662043
0004e8  3200    
0004ea  00                DCB      0
0004eb  00                DCB      0
                  |L2.1260|
0004ec  f888600e          STRB     r6,[r8,#0xe]          ;1472
0004f0  e5dc              B        |L2.172|
                  |L2.1266|
0004f2  4909              LDR      r1,|L2.1304|
0004f4  4620              MOV      r0,r4                 ;1462
0004f6  f7fffffe          BL       TEXT_SetFont
0004fa  a108              ADR      r1,|L2.1308|
0004fc  4620              MOV      r0,r4                 ;1463
0004fe  f7fffffe          BL       TEXT_SetText
000502  e765              B        |L2.976|
                  |L2.1284|
000504  4904              LDR      r1,|L2.1304|
000506  4620              MOV      r0,r4                 ;1478
000508  f7fffffe          BL       TEXT_SetFont
00050c  a107              ADR      r1,|L2.1324|
00050e  4620              MOV      r0,r4                 ;1479
000510  f7fffffe          BL       TEXT_SetText
000514  e5b2              B        |L2.124|
;;;1492   
                          ENDP

000516  0000              DCW      0x0000
                  |L2.1304|
                          DCD      GUI_Fontset_font
                  |L2.1308|
00051c  e688aae6          DCB      230,136,170,230,173,162,231,148,181,230,181,129,"2",0
000520  ada2e794
000524  b5e6b581
000528  3200    
00052a  00                DCB      0
00052b  00                DCB      0
                  |L2.1324|
00052c  e688aae6          DCB      230,136,170,230,173,162,231,148,181,230,181,129,"1",0
000530  ada2e794
000534  b5e6b581
000538  3100    
00053a  00                DCB      0
00053b  00                DCB      0

                          AREA ||i.CDC_OP_RIGHT||, CODE, READONLY, ALIGN=2

                          REQUIRE _printf_percent
                          REQUIRE _printf_widthprec
                          REQUIRE _printf_f
                          REQUIRE _printf_fp_dec
                  CDC_OP_RIGHT PROC
;;;1493   void CDC_OP_RIGHT(void);
;;;1494   void CDC_OP_RIGHT(void)
000000  e92d43f0          PUSH     {r4-r9,lr}
;;;1495   {
000004  ed2d8b02          VPUSH    {d8}
000008  b083              SUB      sp,sp,#0xc
;;;1496       float buffer;
;;;1497       char buf[5];
;;;1498       WM_HWIN hItem;
;;;1499       switch(set_sw)
00000a  48fd              LDR      r0,|L3.1024|
00000c  7801              LDRB     r1,[r0,#0]  ; set_sw
;;;1500       {
;;;1501           case set_26:
;;;1502           {
;;;1503               
;;;1504               if(pow_step == step1)
;;;1505               {
;;;1506                   buffer = (float)opv2/100;
00000e  4afd              LDR      r2,|L3.1028|
000010  ed9f0afd          VLDR     s0,|L3.1032|
000014  f8df83f8          LDR      r8,|L3.1040|
;;;1507                   hItem = WM_GetDialogItem(hWincdc, ID_TEXT_50);
;;;1508                   if(lang == 0)
000018  4dfc              LDR      r5,|L3.1036|
;;;1509                   {
;;;1510                       TEXT_SetFont(hItem, &GUI_Fontset_font);
;;;1511                       TEXT_SetText(hItem,"输出电压2");
;;;1512                   }else{
;;;1513                       TEXT_SetFont(hItem, &GUI_Font20_ASCII);
;;;1514                       TEXT_SetText(hItem,"Output V2");
;;;1515                   }
;;;1516                   hItem = WM_GetDialogItem(hWincdc, ID_TEXT_54);
;;;1517                   sprintf(buf,"%.2f",buffer);
;;;1518                   TEXT_SetText(hItem,buf);
;;;1519                   pow_step = step2;
00001a  2601              MOVS     r6,#1
;;;1520               }else if(pow_step == step2){
;;;1521                   buffer = (float)opv3/100;
;;;1522                   hItem = WM_GetDialogItem(hWincdc, ID_TEXT_50);
;;;1523                   if(lang == 0)
;;;1524                   {
;;;1525                       TEXT_SetFont(hItem, &GUI_Fontset_font);
;;;1526                       TEXT_SetText(hItem,"输出电压3");
;;;1527                   }else{
;;;1528                       TEXT_SetFont(hItem, &GUI_Font20_ASCII);
;;;1529                       TEXT_SetText(hItem,"Output V3");
;;;1530                   }
;;;1531                   hItem = WM_GetDialogItem(hWincdc, ID_TEXT_54);
;;;1532                   sprintf(buf,"%.2f",buffer);
;;;1533                   TEXT_SetText(hItem,buf);
;;;1534                   pow_step = step3;
00001c  2702              MOVS     r7,#2
00001e  f8d80018          LDR      r0,[r8,#0x18]         ;1499
000022  2919              CMP      r1,#0x19              ;1499
000024  d047              BEQ      |L3.182|
;;;1535               }
;;;1536           }break;
;;;1537           case set_27:
;;;1538           {
;;;1539               
;;;1540               if(cur_step == step1)
;;;1541               {
;;;1542                   buffer = (float)opc2/1000;
000026  eddf0afb          VLDR     s1,|L3.1044|
00002a  291a              CMP      r1,#0x1a              ;1499
00002c  d07e              BEQ      |L3.300|
;;;1543                   hItem = WM_GetDialogItem(hWincdc, ID_TEXT_51);
;;;1544                   if(lang == 0)
;;;1545                   {
;;;1546                       TEXT_SetFont(hItem, &GUI_Fontset_font);
;;;1547                       TEXT_SetText(hItem,"限制电流2");
;;;1548                   }else{
;;;1549                       TEXT_SetFont(hItem, &GUI_Font20_ASCII);
;;;1550                       TEXT_SetText(hItem,"Limiting C2");
;;;1551                   }
;;;1552                   hItem = WM_GetDialogItem(hWincdc, ID_TEXT_55);
;;;1553                   sprintf(buf,"%.2f",buffer);
;;;1554                   TEXT_SetText(hItem,buf);
;;;1555                   cur_step = step2;
;;;1556               }else if(cur_step == step2){
;;;1557                   buffer = (float)opc3/1000;
;;;1558                   hItem = WM_GetDialogItem(hWincdc, ID_TEXT_51);
;;;1559                   if(lang == 0)
;;;1560                   {
;;;1561                       TEXT_SetFont(hItem, &GUI_Fontset_font);
;;;1562                       TEXT_SetText(hItem,"限制电流3");
;;;1563                   }else{
;;;1564                       TEXT_SetFont(hItem, &GUI_Font20_ASCII);
;;;1565                       TEXT_SetText(hItem,"Limiting C3");
;;;1566                   }
;;;1567                   hItem = WM_GetDialogItem(hWincdc, ID_TEXT_55);
;;;1568                   sprintf(buf,"%.2f",buffer);
;;;1569                   TEXT_SetText(hItem,buf);
;;;1570                   cur_step = step3;
;;;1571               }
;;;1572           }break;
;;;1573           case set_28:
;;;1574           {
;;;1575               
;;;1576               if(coffv_step == step1)
;;;1577               {
;;;1578                   buffer = (float)cov2/100;
00002e  4afa              LDR      r2,|L3.1048|
000030  291b              CMP      r1,#0x1b              ;1499
000032  d07c              BEQ      |L3.302|
000034  291c              CMP      r1,#0x1c              ;1499
000036  d139              BNE      |L3.172|
;;;1579                   hItem = WM_GetDialogItem(hWincdc, ID_TEXT_58);
;;;1580                   if(lang == 0)
;;;1581                   {
;;;1582                       TEXT_SetFont(hItem, &GUI_Fontset_font);
;;;1583                       TEXT_SetText(hItem,"截止电压2");
;;;1584                   }else{
;;;1585                       TEXT_SetFont(hItem, &GUI_Font20_ASCII);
;;;1586                       TEXT_SetText(hItem,"Cutoff V2");
;;;1587                   }
;;;1588                   hItem = WM_GetDialogItem(hWincdc, ID_TEXT_62);
;;;1589                   sprintf(buf,"%.2f",buffer);
;;;1590                   TEXT_SetText(hItem,buf);
;;;1591                   coffv_step = step2;
;;;1592               }else if(coffv_step == step2){
;;;1593                   buffer = (float)cov3/100;
;;;1594                   hItem = WM_GetDialogItem(hWincdc, ID_TEXT_58);
;;;1595                   if(lang == 0)
;;;1596                   {
;;;1597                       TEXT_SetFont(hItem, &GUI_Fontset_font);
;;;1598                       TEXT_SetText(hItem,"截止电压3");
;;;1599                   }else{
;;;1600                       TEXT_SetFont(hItem, &GUI_Font20_ASCII);
;;;1601                       TEXT_SetText(hItem,"Cutoff V3");
;;;1602                   }
;;;1603                   hItem = WM_GetDialogItem(hWincdc, ID_TEXT_62);
;;;1604                   sprintf(buf,"%.2f",buffer);
;;;1605                   TEXT_SetText(hItem,buf);
;;;1606                   coffv_step = step3;
;;;1607               }
;;;1608           }break;
;;;1609           case set_29:
;;;1610           {
;;;1611               
;;;1612               if(coffc_step == step1)
000038  f898100e          LDRB     r1,[r8,#0xe]  ; coffc_step
;;;1613               {
;;;1614                   buffer = (float)coc2/1000;
;;;1615                   hItem = WM_GetDialogItem(hWincdc, ID_TEXT_59);
00003c  f6400378          MOV      r3,#0x878
;;;1616                   if(lang == 0)
;;;1617                   {
;;;1618                       TEXT_SetFont(hItem, &GUI_Fontset_font);
;;;1619                       TEXT_SetText(hItem,"截止电流2");
;;;1620                   }else{
;;;1621                       TEXT_SetFont(hItem, &GUI_Font20_ASCII);
;;;1622                       TEXT_SetText(hItem,"Cutoff C2");
;;;1623                   }
;;;1624                   hItem = WM_GetDialogItem(hWincdc, ID_TEXT_63);
000040  f640097c          MOV      r9,#0x87c
000044  2900              CMP      r1,#0                 ;1612
000046  d074              BEQ      |L3.306|
;;;1625                   sprintf(buf,"%.2f",buffer);
;;;1626                   TEXT_SetText(hItem,buf);
;;;1627                   coffc_step = step2;
;;;1628               }else if(coffc_step == step2){
000048  f898100e          LDRB     r1,[r8,#0xe]  ; coffc_step
00004c  2901              CMP      r1,#1
00004e  d12d              BNE      |L3.172|
;;;1629                   buffer = (float)coc3/1000;
000050  8951              LDRH     r1,[r2,#0xa]  ; coff
000052  ee001a10          VMOV     s0,r1
000056  eeb80a40          VCVT.F32.U32 s0,s0
00005a  ee808a20          VDIV.F32 s16,s0,s1
;;;1630                   hItem = WM_GetDialogItem(hWincdc, ID_TEXT_59);
00005e  4619              MOV      r1,r3
000060  f7fffffe          BL       WM_GetDialogItem
000064  4604              MOV      r4,r0
;;;1631                   if(lang == 0)
000066  7828              LDRB     r0,[r5,#0]  ; lang
000068  2800              CMP      r0,#0
00006a  d07d              BEQ      |L3.360|
;;;1632                   {
;;;1633                       TEXT_SetFont(hItem, &GUI_Fontset_font);
;;;1634                       TEXT_SetText(hItem,"截止电流3");
;;;1635                   }else{
;;;1636                       TEXT_SetFont(hItem, &GUI_Font20_ASCII);
00006c  49eb              LDR      r1,|L3.1052|
00006e  4620              MOV      r0,r4
000070  f7fffffe          BL       TEXT_SetFont
;;;1637                       TEXT_SetText(hItem,"Cutoff C3");
000074  a1ea              ADR      r1,|L3.1056|
000076  4620              MOV      r0,r4
000078  f7fffffe          BL       TEXT_SetText
                  |L3.124|
;;;1638                   }
;;;1639                   hItem = WM_GetDialogItem(hWincdc, ID_TEXT_63);
00007c  4649              MOV      r1,r9
00007e  f8d80018          LDR      r0,[r8,#0x18]  ; hWincdc
000082  f7fffffe          BL       WM_GetDialogItem
000086  4604              MOV      r4,r0
;;;1640                   sprintf(buf,"%.2f",buffer);
000088  ee180a10          VMOV     r0,s16
00008c  f7fffffe          BL       __aeabi_f2d
000090  ec410b10          VMOV     d0,r0,r1
000094  a1e5              ADR      r1,|L3.1068|
000096  ec532b10          VMOV     r2,r3,d0
00009a  a801              ADD      r0,sp,#4
00009c  f7fffffe          BL       __2sprintf
;;;1641                   TEXT_SetText(hItem,buf);
0000a0  a901              ADD      r1,sp,#4
0000a2  4620              MOV      r0,r4
0000a4  f7fffffe          BL       TEXT_SetText
;;;1642                   coffc_step = step3;
0000a8  f888700e          STRB     r7,[r8,#0xe]
                  |L3.172|
;;;1643               }
;;;1644           }break;
;;;1645       }
;;;1646   }
0000ac  b003              ADD      sp,sp,#0xc
0000ae  ecbd8b02          VPOP     {d8}
0000b2  e8bd83f0          POP      {r4-r9,pc}
                  |L3.182|
0000b6  f898100b          LDRB     r1,[r8,#0xb]          ;1504  ; pow_step
0000ba  f640036f          MOV      r3,#0x86f             ;1507
0000be  f6400973          MOV      r9,#0x873             ;1516
0000c2  b3a9              CBZ      r1,|L3.304|
0000c4  f898100b          LDRB     r1,[r8,#0xb]          ;1520  ; pow_step
0000c8  2901              CMP      r1,#1                 ;1520
0000ca  d1ef              BNE      |L3.172|
0000cc  f8b21042          LDRH     r1,[r2,#0x42]         ;1521  ; Run_Control
0000d0  ee001a90          VMOV     s1,r1                 ;1521
0000d4  eef80a60          VCVT.F32.U32 s1,s1                 ;1521
0000d8  ee808a80          VDIV.F32 s16,s1,s0             ;1521
0000dc  4619              MOV      r1,r3                 ;1522
0000de  f7fffffe          BL       WM_GetDialogItem
0000e2  4604              MOV      r4,r0                 ;1522
0000e4  7828              LDRB     r0,[r5,#0]            ;1523  ; lang
0000e6  2800              CMP      r0,#0                 ;1523
0000e8  d05e              BEQ      |L3.424|
0000ea  49cc              LDR      r1,|L3.1052|
0000ec  4620              MOV      r0,r4                 ;1528
0000ee  f7fffffe          BL       TEXT_SetFont
0000f2  a1d0              ADR      r1,|L3.1076|
0000f4  4620              MOV      r0,r4                 ;1529
0000f6  f7fffffe          BL       TEXT_SetText
                  |L3.250|
0000fa  4649              MOV      r1,r9                 ;1531
0000fc  f8d80018          LDR      r0,[r8,#0x18]         ;1531  ; hWincdc
000100  f7fffffe          BL       WM_GetDialogItem
000104  4604              MOV      r4,r0                 ;1531
000106  ee180a10          VMOV     r0,s16                ;1532
00010a  f7fffffe          BL       __aeabi_f2d
00010e  ec410b10          VMOV     d0,r0,r1              ;1532
000112  a1c6              ADR      r1,|L3.1068|
000114  ec532b10          VMOV     r2,r3,d0              ;1532
000118  a801              ADD      r0,sp,#4              ;1532
00011a  f7fffffe          BL       __2sprintf
00011e  a901              ADD      r1,sp,#4              ;1533
000120  4620              MOV      r0,r4                 ;1533
000122  f7fffffe          BL       TEXT_SetText
000126  f888700b          STRB     r7,[r8,#0xb]          ;1534
                  |L3.298|
00012a  e7bf              B        |L3.172|
                  |L3.300|
00012c  e045              B        |L3.442|
                  |L3.302|
00012e  e0c1              B        |L3.692|
                  |L3.304|
000130  e000              B        |L3.308|
                  |L3.306|
000132  e138              B        |L3.934|
                  |L3.308|
000134  f8b21040          LDRH     r1,[r2,#0x40]         ;1506  ; Run_Control
000138  ee001a90          VMOV     s1,r1                 ;1506
00013c  eef80a60          VCVT.F32.U32 s1,s1                 ;1506
000140  ee808a80          VDIV.F32 s16,s1,s0             ;1506
000144  4619              MOV      r1,r3                 ;1507
000146  f7fffffe          BL       WM_GetDialogItem
00014a  4604              MOV      r4,r0                 ;1507
00014c  7828              LDRB     r0,[r5,#0]            ;1508  ; lang
00014e  b310              CBZ      r0,|L3.406|
000150  49b2              LDR      r1,|L3.1052|
000152  4620              MOV      r0,r4                 ;1513
000154  f7fffffe          BL       TEXT_SetFont
000158  a1b9              ADR      r1,|L3.1088|
00015a  4620              MOV      r0,r4                 ;1514
00015c  f7fffffe          BL       TEXT_SetText
                  |L3.352|
000160  4649              MOV      r1,r9                 ;1516
000162  f8d80018          LDR      r0,[r8,#0x18]         ;1516  ; hWincdc
000166  e000              B        |L3.362|
                  |L3.360|
000168  e1cc              B        |L3.1284|
                  |L3.362|
00016a  f7fffffe          BL       WM_GetDialogItem
00016e  4604              MOV      r4,r0                 ;1516
000170  ee180a10          VMOV     r0,s16                ;1517
000174  f7fffffe          BL       __aeabi_f2d
000178  ec410b10          VMOV     d0,r0,r1              ;1517
00017c  a1ab              ADR      r1,|L3.1068|
00017e  ec532b10          VMOV     r2,r3,d0              ;1517
000182  a801              ADD      r0,sp,#4              ;1517
000184  f7fffffe          BL       __2sprintf
000188  a901              ADD      r1,sp,#4              ;1518
00018a  4620              MOV      r0,r4                 ;1518
00018c  f7fffffe          BL       TEXT_SetText
000190  f888600b          STRB     r6,[r8,#0xb]          ;1519
000194  e78a              B        |L3.172|
                  |L3.406|
000196  49ad              LDR      r1,|L3.1100|
000198  4620              MOV      r0,r4                 ;1510
00019a  f7fffffe          BL       TEXT_SetFont
00019e  a1ac              ADR      r1,|L3.1104|
0001a0  4620              MOV      r0,r4                 ;1511
0001a2  f7fffffe          BL       TEXT_SetText
0001a6  e7db              B        |L3.352|
                  |L3.424|
0001a8  49a8              LDR      r1,|L3.1100|
0001aa  4620              MOV      r0,r4                 ;1525
0001ac  f7fffffe          BL       TEXT_SetFont
0001b0  a1ab              ADR      r1,|L3.1120|
0001b2  4620              MOV      r0,r4                 ;1526
0001b4  f7fffffe          BL       TEXT_SetText
0001b8  e79f              B        |L3.250|
                  |L3.442|
0001ba  f898100c          LDRB     r1,[r8,#0xc]          ;1540  ; cur_step
0001be  f44f6307          MOV      r3,#0x870             ;1543
0001c2  f6400974          MOV      r9,#0x874             ;1552
0001c6  b399              CBZ      r1,|L3.560|
0001c8  f898100c          LDRB     r1,[r8,#0xc]          ;1556  ; cur_step
0001cc  2901              CMP      r1,#1                 ;1556
0001ce  d1ac              BNE      |L3.298|
0001d0  f8b21048          LDRH     r1,[r2,#0x48]         ;1557  ; Run_Control
0001d4  ee001a10          VMOV     s0,r1                 ;1557
0001d8  eeb80a40          VCVT.F32.U32 s0,s0                 ;1557
0001dc  ee808a20          VDIV.F32 s16,s0,s1             ;1557
0001e0  4619              MOV      r1,r3                 ;1558
0001e2  f7fffffe          BL       WM_GetDialogItem
0001e6  4604              MOV      r4,r0                 ;1558
0001e8  7828              LDRB     r0,[r5,#0]            ;1559  ; lang
0001ea  2800              CMP      r0,#0                 ;1559
0001ec  d059              BEQ      |L3.674|
0001ee  498b              LDR      r1,|L3.1052|
0001f0  4620              MOV      r0,r4                 ;1564
0001f2  f7fffffe          BL       TEXT_SetFont
0001f6  a19e              ADR      r1,|L3.1136|
0001f8  4620              MOV      r0,r4                 ;1565
0001fa  f7fffffe          BL       TEXT_SetText
                  |L3.510|
0001fe  4649              MOV      r1,r9                 ;1567
000200  f8d80018          LDR      r0,[r8,#0x18]         ;1567  ; hWincdc
000204  f7fffffe          BL       WM_GetDialogItem
000208  4604              MOV      r4,r0                 ;1567
00020a  ee180a10          VMOV     r0,s16                ;1568
00020e  f7fffffe          BL       __aeabi_f2d
000212  ec410b10          VMOV     d0,r0,r1              ;1568
000216  a185              ADR      r1,|L3.1068|
000218  ec532b10          VMOV     r2,r3,d0              ;1568
00021c  a801              ADD      r0,sp,#4              ;1568
00021e  f7fffffe          BL       __2sprintf
000222  a901              ADD      r1,sp,#4              ;1569
000224  4620              MOV      r0,r4                 ;1569
000226  f7fffffe          BL       TEXT_SetText
00022a  f888700c          STRB     r7,[r8,#0xc]          ;1570
                  |L3.558|
00022e  e73d              B        |L3.172|
                  |L3.560|
000230  e7ff              B        |L3.562|
                  |L3.562|
000232  f8b21046          LDRH     r1,[r2,#0x46]         ;1542  ; Run_Control
000236  ee001a10          VMOV     s0,r1                 ;1542
00023a  eeb80a40          VCVT.F32.U32 s0,s0                 ;1542
00023e  ee808a20          VDIV.F32 s16,s0,s1             ;1542
000242  4619              MOV      r1,r3                 ;1543
000244  f7fffffe          BL       WM_GetDialogItem
000248  4604              MOV      r4,r0                 ;1543
00024a  7828              LDRB     r0,[r5,#0]            ;1544  ; lang
00024c  b300              CBZ      r0,|L3.656|
00024e  4973              LDR      r1,|L3.1052|
000250  4620              MOV      r0,r4                 ;1549
000252  f7fffffe          BL       TEXT_SetFont
000256  a189              ADR      r1,|L3.1148|
000258  4620              MOV      r0,r4                 ;1550
00025a  f7fffffe          BL       TEXT_SetText
                  |L3.606|
00025e  4649              MOV      r1,r9                 ;1552
000260  f8d80018          LDR      r0,[r8,#0x18]         ;1552  ; hWincdc
000264  f7fffffe          BL       WM_GetDialogItem
000268  4604              MOV      r4,r0                 ;1552
00026a  ee180a10          VMOV     r0,s16                ;1553
00026e  f7fffffe          BL       __aeabi_f2d
000272  ec410b10          VMOV     d0,r0,r1              ;1553
000276  a16d              ADR      r1,|L3.1068|
000278  ec532b10          VMOV     r2,r3,d0              ;1553
00027c  a801              ADD      r0,sp,#4              ;1553
00027e  f7fffffe          BL       __2sprintf
000282  a901              ADD      r1,sp,#4              ;1554
000284  4620              MOV      r0,r4                 ;1554
000286  f7fffffe          BL       TEXT_SetText
00028a  f888600c          STRB     r6,[r8,#0xc]          ;1555
00028e  e70d              B        |L3.172|
                  |L3.656|
000290  496e              LDR      r1,|L3.1100|
000292  4620              MOV      r0,r4                 ;1546
000294  f7fffffe          BL       TEXT_SetFont
000298  a17b              ADR      r1,|L3.1160|
00029a  4620              MOV      r0,r4                 ;1547
00029c  f7fffffe          BL       TEXT_SetText
0002a0  e7dd              B        |L3.606|
                  |L3.674|
0002a2  496a              LDR      r1,|L3.1100|
0002a4  4620              MOV      r0,r4                 ;1561
0002a6  f7fffffe          BL       TEXT_SetFont
0002aa  a17b              ADR      r1,|L3.1176|
0002ac  4620              MOV      r0,r4                 ;1562
0002ae  f7fffffe          BL       TEXT_SetText
0002b2  e7a4              B        |L3.510|
                  |L3.692|
0002b4  f898300d          LDRB     r3,[r8,#0xd]          ;1576  ; coffv_step
0002b8  f6400177          MOV      r1,#0x877             ;1579
0002bc  f640097b          MOV      r9,#0x87b             ;1588
0002c0  b38b              CBZ      r3,|L3.806|
0002c2  f898300d          LDRB     r3,[r8,#0xd]          ;1592  ; coffv_step
0002c6  2b01              CMP      r3,#1                 ;1592
0002c8  d1b1              BNE      |L3.558|
0002ca  8892              LDRH     r2,[r2,#4]            ;1593  ; coff
0002cc  ee002a90          VMOV     s1,r2                 ;1593
0002d0  eef80a60          VCVT.F32.U32 s1,s1                 ;1593
0002d4  ee808a80          VDIV.F32 s16,s1,s0             ;1593
0002d8  f7fffffe          BL       WM_GetDialogItem
0002dc  4604              MOV      r4,r0                 ;1594
0002de  7828              LDRB     r0,[r5,#0]            ;1595  ; lang
0002e0  2800              CMP      r0,#0                 ;1595
0002e2  d057              BEQ      |L3.916|
0002e4  494d              LDR      r1,|L3.1052|
0002e6  4620              MOV      r0,r4                 ;1600
0002e8  f7fffffe          BL       TEXT_SetFont
0002ec  a16e              ADR      r1,|L3.1192|
0002ee  4620              MOV      r0,r4                 ;1601
0002f0  f7fffffe          BL       TEXT_SetText
                  |L3.756|
0002f4  4649              MOV      r1,r9                 ;1603
0002f6  f8d80018          LDR      r0,[r8,#0x18]         ;1603  ; hWincdc
0002fa  f7fffffe          BL       WM_GetDialogItem
0002fe  4604              MOV      r4,r0                 ;1603
000300  ee180a10          VMOV     r0,s16                ;1604
000304  f7fffffe          BL       __aeabi_f2d
000308  ec410b10          VMOV     d0,r0,r1              ;1604
00030c  a147              ADR      r1,|L3.1068|
00030e  ec532b10          VMOV     r2,r3,d0              ;1604
000312  a801              ADD      r0,sp,#4              ;1604
000314  f7fffffe          BL       __2sprintf
000318  a901              ADD      r1,sp,#4              ;1605
00031a  4620              MOV      r0,r4                 ;1605
00031c  f7fffffe          BL       TEXT_SetText
000320  f888700d          STRB     r7,[r8,#0xd]          ;1606
000324  e6c2              B        |L3.172|
                  |L3.806|
000326  e7ff              B        |L3.808|
                  |L3.808|
000328  8852              LDRH     r2,[r2,#2]            ;1578  ; coff
00032a  ee002a90          VMOV     s1,r2                 ;1578
00032e  eef80a60          VCVT.F32.U32 s1,s1                 ;1578
000332  ee808a80          VDIV.F32 s16,s1,s0             ;1578
000336  f7fffffe          BL       WM_GetDialogItem
00033a  4604              MOV      r4,r0                 ;1579
00033c  7828              LDRB     r0,[r5,#0]            ;1580  ; lang
00033e  b300              CBZ      r0,|L3.898|
000340  4936              LDR      r1,|L3.1052|
000342  4620              MOV      r0,r4                 ;1585
000344  f7fffffe          BL       TEXT_SetFont
000348  a15a              ADR      r1,|L3.1204|
00034a  4620              MOV      r0,r4                 ;1586
00034c  f7fffffe          BL       TEXT_SetText
                  |L3.848|
000350  4649              MOV      r1,r9                 ;1588
000352  f8d80018          LDR      r0,[r8,#0x18]         ;1588  ; hWincdc
000356  f7fffffe          BL       WM_GetDialogItem
00035a  4604              MOV      r4,r0                 ;1588
00035c  ee180a10          VMOV     r0,s16                ;1589
000360  f7fffffe          BL       __aeabi_f2d
000364  ec410b10          VMOV     d0,r0,r1              ;1589
000368  a130              ADR      r1,|L3.1068|
00036a  ec532b10          VMOV     r2,r3,d0              ;1589
00036e  a801              ADD      r0,sp,#4              ;1589
000370  f7fffffe          BL       __2sprintf
000374  a901              ADD      r1,sp,#4              ;1590
000376  4620              MOV      r0,r4                 ;1590
000378  f7fffffe          BL       TEXT_SetText
00037c  f888600d          STRB     r6,[r8,#0xd]          ;1591
000380  e694              B        |L3.172|
                  |L3.898|
000382  4932              LDR      r1,|L3.1100|
000384  4620              MOV      r0,r4                 ;1582
000386  f7fffffe          BL       TEXT_SetFont
00038a  a14d              ADR      r1,|L3.1216|
00038c  4620              MOV      r0,r4                 ;1583
00038e  f7fffffe          BL       TEXT_SetText
000392  e7dd              B        |L3.848|
                  |L3.916|
000394  492d              LDR      r1,|L3.1100|
000396  4620              MOV      r0,r4                 ;1597
000398  f7fffffe          BL       TEXT_SetFont
00039c  a14c              ADR      r1,|L3.1232|
00039e  4620              MOV      r0,r4                 ;1598
0003a0  f7fffffe          BL       TEXT_SetText
0003a4  e7a6              B        |L3.756|
                  |L3.934|
0003a6  8911              LDRH     r1,[r2,#8]            ;1614  ; coff
0003a8  ee001a10          VMOV     s0,r1                 ;1614
0003ac  eeb80a40          VCVT.F32.U32 s0,s0                 ;1614
0003b0  ee808a20          VDIV.F32 s16,s0,s1             ;1614
0003b4  4619              MOV      r1,r3                 ;1615
0003b6  f7fffffe          BL       WM_GetDialogItem
0003ba  4604              MOV      r4,r0                 ;1615
0003bc  7828              LDRB     r0,[r5,#0]            ;1616  ; lang
0003be  b1f0              CBZ      r0,|L3.1022|
0003c0  4916              LDR      r1,|L3.1052|
0003c2  4620              MOV      r0,r4                 ;1621
0003c4  f7fffffe          BL       TEXT_SetFont
0003c8  a145              ADR      r1,|L3.1248|
0003ca  4620              MOV      r0,r4                 ;1622
0003cc  f7fffffe          BL       TEXT_SetText
                  |L3.976|
0003d0  4649              MOV      r1,r9                 ;1624
0003d2  f8d80018          LDR      r0,[r8,#0x18]         ;1624  ; hWincdc
0003d6  f7fffffe          BL       WM_GetDialogItem
0003da  4604              MOV      r4,r0                 ;1624
0003dc  ee180a10          VMOV     r0,s16                ;1625
0003e0  f7fffffe          BL       __aeabi_f2d
0003e4  ec410b10          VMOV     d0,r0,r1              ;1625
0003e8  a110              ADR      r1,|L3.1068|
0003ea  ec532b10          VMOV     r2,r3,d0              ;1625
0003ee  a801              ADD      r0,sp,#4              ;1625
0003f0  f7fffffe          BL       __2sprintf
0003f4  a901              ADD      r1,sp,#4              ;1626
0003f6  4620              MOV      r0,r4                 ;1626
0003f8  f7fffffe          BL       TEXT_SetText
0003fc  e076              B        |L3.1260|
                  |L3.1022|
0003fe  e078              B        |L3.1266|
                  |L3.1024|
                          DCD      set_sw
                  |L3.1028|
                          DCD      Run_Control
                  |L3.1032|
000408  42c80000          DCFS     0x42c80000 ; 100
                  |L3.1036|
                          DCD      lang
                  |L3.1040|
                          DCD      ||.data||
                  |L3.1044|
000414  447a0000          DCFS     0x447a0000 ; 1000
                  |L3.1048|
                          DCD      ||.bss||
                  |L3.1052|
                          DCD      GUI_Font20_ASCII
                  |L3.1056|
000420  4375746f          DCB      "Cutoff C3",0
000424  66662043
000428  3300    
00042a  00                DCB      0
00042b  00                DCB      0
                  |L3.1068|
00042c  252e3266          DCB      "%.2f",0
000430  00      
000431  00                DCB      0
000432  00                DCB      0
000433  00                DCB      0
                  |L3.1076|
000434  4f757470          DCB      "Output V3",0
000438  75742056
00043c  3300    
00043e  00                DCB      0
00043f  00                DCB      0
                  |L3.1088|
000440  4f757470          DCB      "Output V2",0
000444  75742056
000448  3200    
00044a  00                DCB      0
00044b  00                DCB      0
                  |L3.1100|
                          DCD      GUI_Fontset_font
                  |L3.1104|
000450  e8be93e5          DCB      232,190,147,229,135,186,231,148,181,229,142,139,"2",0
000454  87bae794
000458  b5e58e8b
00045c  3200    
00045e  00                DCB      0
00045f  00                DCB      0
                  |L3.1120|
000460  e8be93e5          DCB      232,190,147,229,135,186,231,148,181,229,142,139,"3",0
000464  87bae794
000468  b5e58e8b
00046c  3300    
00046e  00                DCB      0
00046f  00                DCB      0
                  |L3.1136|
000470  4c696d69          DCB      "Limiting C3",0
000474  74696e67
000478  20433300
                  |L3.1148|
00047c  4c696d69          DCB      "Limiting C2",0
000480  74696e67
000484  20433200
                  |L3.1160|
000488  e99990e5          DCB      233,153,144,229,136,182,231,148,181,230,181,129,"2",0
00048c  88b6e794
000490  b5e6b581
000494  3200    
000496  00                DCB      0
000497  00                DCB      0
                  |L3.1176|
000498  e99990e5          DCB      233,153,144,229,136,182,231,148,181,230,181,129,"3",0
00049c  88b6e794
0004a0  b5e6b581
0004a4  3300    
0004a6  00                DCB      0
0004a7  00                DCB      0
                  |L3.1192|
0004a8  4375746f          DCB      "Cutoff V3",0
0004ac  66662056
0004b0  3300    
0004b2  00                DCB      0
0004b3  00                DCB      0
                  |L3.1204|
0004b4  4375746f          DCB      "Cutoff V2",0
0004b8  66662056
0004bc  3200    
0004be  00                DCB      0
0004bf  00                DCB      0
                  |L3.1216|
0004c0  e688aae6          DCB      230,136,170,230,173,162,231,148,181,229,142,139,"2",0
0004c4  ada2e794
0004c8  b5e58e8b
0004cc  3200    
0004ce  00                DCB      0
0004cf  00                DCB      0
                  |L3.1232|
0004d0  e688aae6          DCB      230,136,170,230,173,162,231,148,181,229,142,139,"3",0
0004d4  ada2e794
0004d8  b5e58e8b
0004dc  3300    
0004de  00                DCB      0
0004df  00                DCB      0
                  |L3.1248|
0004e0  4375746f          DCB      "Cutoff C2",0
0004e4  66662043
0004e8  3200    
0004ea  00                DCB      0
0004eb  00                DCB      0
                  |L3.1260|
0004ec  f888600e          STRB     r6,[r8,#0xe]          ;1627
0004f0  e5dc              B        |L3.172|
                  |L3.1266|
0004f2  4909              LDR      r1,|L3.1304|
0004f4  4620              MOV      r0,r4                 ;1618
0004f6  f7fffffe          BL       TEXT_SetFont
0004fa  a108              ADR      r1,|L3.1308|
0004fc  4620              MOV      r0,r4                 ;1619
0004fe  f7fffffe          BL       TEXT_SetText
000502  e765              B        |L3.976|
                  |L3.1284|
000504  4904              LDR      r1,|L3.1304|
000506  4620              MOV      r0,r4                 ;1633
000508  f7fffffe          BL       TEXT_SetFont
00050c  a107              ADR      r1,|L3.1324|
00050e  4620              MOV      r0,r4                 ;1634
000510  f7fffffe          BL       TEXT_SetText
000514  e5b2              B        |L3.124|
;;;1647   
                          ENDP

000516  0000              DCW      0x0000
                  |L3.1304|
                          DCD      GUI_Fontset_font
                  |L3.1308|
00051c  e688aae6          DCB      230,136,170,230,173,162,231,148,181,230,181,129,"2",0
000520  ada2e794
000524  b5e6b581
000528  3200    
00052a  00                DCB      0
00052b  00                DCB      0
                  |L3.1324|
00052c  e688aae6          DCB      230,136,170,230,173,162,231,148,181,230,181,129,"3",0
000530  ada2e794
000534  b5e6b581
000538  3300    
00053a  00                DCB      0
00053b  00                DCB      0

                          AREA ||i.CDC_OP_UP||, CODE, READONLY, ALIGN=2

                  CDC_OP_UP PROC
;;;1208   void CDC_OP_UP(void);
;;;1209   void CDC_OP_UP(void)
000000  e92d5ff0          PUSH     {r4-r12,lr}
;;;1210   {
;;;1211       switch(set_sw)
000004  4d7d              LDR      r5,|L4.508|
000006  7829              LDRB     r1,[r5,#0]  ; set_sw
;;;1212       {
;;;1213           case set_26:
;;;1214           {
;;;1215               WM_HWIN hItem;
;;;1216   //            WM_InvalidateWindow(hWincdc);
;;;1217               hItem = WM_GetDialogItem(hWincdc, ID_TEXT_50);
000008  487d              LDR      r0,|L4.512|
00000a  3919              SUBS     r1,r1,#0x19           ;1211
00000c  f640076f          MOV      r7,#0x86f
000010  6982              LDR      r2,[r0,#0x18]         ;1211
;;;1218               TEXT_SetBkColor(hItem,GUI_INVALID_COLOR);//选项背景色设为透明
000012  f06f4670          MVN      r6,#0xf0000000
;;;1219               TEXT_SetTextColor(hItem, GUI_WHITE);
;;;1220                  
;;;1221               hItem = WM_GetDialogItem(hWincdc, ID_TEXT_53);
;;;1222               TEXT_SetBkColor(hItem,0x00BFFFFF);//选项背景色设为米色
;;;1223               TEXT_SetTextColor(hItem, GUI_BLACK);
;;;1224   
;;;1225               set_sw = set_37;
;;;1226               break;
;;;1227           }
;;;1228           case set_27:
;;;1229           {
;;;1230               WM_HWIN hItem;
;;;1231   //            WM_InvalidateWindow(hWincdc);
;;;1232               hItem = WM_GetDialogItem(hWincdc, ID_TEXT_51);
000016  f44f6807          MOV      r8,#0x870
;;;1233               TEXT_SetBkColor(hItem,GUI_INVALID_COLOR);//选项背景色设为透明
;;;1234               TEXT_SetTextColor(hItem, GUI_WHITE);
;;;1235                  
;;;1236               hItem = WM_GetDialogItem(hWincdc, ID_TEXT_50);
;;;1237               TEXT_SetBkColor(hItem,0x00BFFFFF);//选项背景色设为米色
;;;1238               TEXT_SetTextColor(hItem, GUI_BLACK);
;;;1239   
;;;1240               set_sw = set_26;
;;;1241               break;
;;;1242           }
;;;1243           case set_28:
;;;1244           {
;;;1245               WM_HWIN hItem;
;;;1246   //            WM_InvalidateWindow(hWincdc);
;;;1247               hItem = WM_GetDialogItem(hWincdc, ID_TEXT_58);
00001a  f6400977          MOV      r9,#0x877
;;;1248               TEXT_SetBkColor(hItem,GUI_INVALID_COLOR);//选项背景色设为透明
;;;1249               TEXT_SetTextColor(hItem, GUI_WHITE);
;;;1250                  
;;;1251               hItem = WM_GetDialogItem(hWincdc, ID_TEXT_51);
;;;1252               TEXT_SetBkColor(hItem,0x00BFFFFF);//选项背景色设为米色
;;;1253               TEXT_SetTextColor(hItem, GUI_BLACK);
;;;1254   
;;;1255               set_sw = set_27;
;;;1256               break;
;;;1257           }
;;;1258           case set_29:
;;;1259           {
;;;1260               WM_HWIN hItem;
;;;1261   //            WM_InvalidateWindow(hWincdc);
;;;1262               hItem = WM_GetDialogItem(hWincdc, ID_TEXT_59);
00001e  f6400a78          MOV      r10,#0x878
;;;1263               TEXT_SetBkColor(hItem,GUI_INVALID_COLOR);//选项背景色设为透明
;;;1264               TEXT_SetTextColor(hItem, GUI_WHITE);
;;;1265                  
;;;1266               hItem = WM_GetDialogItem(hWincdc, ID_TEXT_58);
;;;1267               TEXT_SetBkColor(hItem,0x00BFFFFF);//选项背景色设为米色
;;;1268               TEXT_SetTextColor(hItem, GUI_BLACK);
;;;1269   
;;;1270               set_sw = set_28;
;;;1271               break;
;;;1272           }
;;;1273           case set_34:
;;;1274           {
;;;1275               WM_HWIN hItem;
;;;1276   //            WM_InvalidateWindow(hWincdc);
;;;1277               hItem = WM_GetDialogItem(hWincdc, ID_TEXT_52);
000022  f6400b71          MOV      r11,#0x871
;;;1278               TEXT_SetBkColor(hItem,GUI_INVALID_COLOR);//选项背景色设为透明
;;;1279               TEXT_SetTextColor(hItem, GUI_WHITE);
;;;1280                  
;;;1281               hItem = WM_GetDialogItem(hWincdc, ID_TEXT_59);
;;;1282               TEXT_SetBkColor(hItem,0x00BFFFFF);//选项背景色设为米色
;;;1283               TEXT_SetTextColor(hItem, GUI_BLACK);
;;;1284   
;;;1285               set_sw = set_29;
;;;1286               break;
;;;1287           }
;;;1288           case set_35:
;;;1289           {
;;;1290               WM_HWIN hItem;
;;;1291   //            WM_InvalidateWindow(hWincdc);
;;;1292               hItem = WM_GetDialogItem(hWincdc, ID_TEXT_60);
000026  f6400479          MOV      r4,#0x879
00002a  290c              CMP      r1,#0xc               ;1211
00002c  d226              BCS      |L4.124|
00002e  e8dff001          TBB      [pc,r1]               ;1211
000032  0627              DCB      0x06,0x27
000034  47662525          DCB      0x47,0x66,0x25,0x25
000038  252585a4          DCB      0x25,0x25,0x85,0xa4
00003c  25c3              DCB      0x25,0xc3
00003e  4639              MOV      r1,r7                 ;1217
000040  4607              MOV      r7,r0                 ;1217
000042  4610              MOV      r0,r2                 ;1217
000044  f7fffffe          BL       WM_GetDialogItem
000048  4604              MOV      r4,r0                 ;1217
00004a  4631              MOV      r1,r6                 ;1218
00004c  4620              MOV      r0,r4                 ;1218
00004e  f7fffffe          BL       TEXT_SetBkColor
000052  f06f417f          MVN      r1,#0xff000000        ;1219
000056  4620              MOV      r0,r4                 ;1219
000058  f7fffffe          BL       TEXT_SetTextColor
00005c  f6400172          MOV      r1,#0x872             ;1221
000060  69b8              LDR      r0,[r7,#0x18]         ;1221  ; hWincdc
000062  f7fffffe          BL       WM_GetDialogItem
000066  4604              MOV      r4,r0                 ;1221
000068  4966              LDR      r1,|L4.516|
00006a  4620              MOV      r0,r4                 ;1222
00006c  f7fffffe          BL       TEXT_SetBkColor
000070  2100              MOVS     r1,#0                 ;1223
000072  4620              MOV      r0,r4                 ;1223
000074  f7fffffe          BL       TEXT_SetTextColor
000078  2024              MOVS     r0,#0x24              ;1225
00007a  7028              STRB     r0,[r5,#0]            ;1225
                  |L4.124|
;;;1293               TEXT_SetBkColor(hItem,GUI_INVALID_COLOR);//选项背景色设为透明
;;;1294               TEXT_SetTextColor(hItem, GUI_WHITE);
;;;1295                  
;;;1296               hItem = WM_GetDialogItem(hWincdc, ID_TEXT_52);
;;;1297               TEXT_SetBkColor(hItem,0x00BFFFFF);//选项背景色设为米色
;;;1298               TEXT_SetTextColor(hItem, GUI_BLACK);
;;;1299   
;;;1300               set_sw = set_34;
;;;1301               break;
;;;1302           }
;;;1303   //         case set_36:
;;;1304   //         {
;;;1305   //             WM_HWIN hItem;
;;;1306   //             WM_InvalidateWindow(hWincdc);
;;;1307   //             hItem = WM_GetDialogItem(hWincdc, ID_TEXT_61);
;;;1308   //             TEXT_SetBkColor(hItem,GUI_INVALID_COLOR);//选项背景色设为透明
;;;1309   //                
;;;1310   //             hItem = WM_GetDialogItem(hWincdc, ID_TEXT_60);
;;;1311   //             TEXT_SetBkColor(hItem,0x00BFFFFF);//选项背景色设为米色
;;;1312   
;;;1313   //             set_sw = set_35;
;;;1314   //             break;
;;;1315   //         }
;;;1316           case set_37:
;;;1317           {
;;;1318               WM_HWIN hItem;
;;;1319   //            WM_InvalidateWindow(hWincdc);
;;;1320               hItem = WM_GetDialogItem(hWincdc, ID_TEXT_53);
;;;1321               TEXT_SetBkColor(hItem,GUI_INVALID_COLOR);//选项背景色设为透明
;;;1322               TEXT_SetTextColor(hItem, GUI_WHITE);
;;;1323                  
;;;1324               hItem = WM_GetDialogItem(hWincdc, ID_TEXT_60);
;;;1325               TEXT_SetBkColor(hItem,0x00BFFFFF);//选项背景色设为米色
;;;1326               TEXT_SetTextColor(hItem, GUI_BLACK);
;;;1327   
;;;1328               set_sw = set_35;
;;;1329               break;
;;;1330           }
;;;1331           default: break;
;;;1332       }
;;;1333   }
00007c  e8bd9ff0          POP      {r4-r12,pc}
000080  4641              MOV      r1,r8                 ;1232
000082  4680              MOV      r8,r0                 ;1232
000084  4610              MOV      r0,r2                 ;1232
000086  f7fffffe          BL       WM_GetDialogItem
00008a  4604              MOV      r4,r0                 ;1232
00008c  4631              MOV      r1,r6                 ;1233
00008e  4620              MOV      r0,r4                 ;1233
000090  f7fffffe          BL       TEXT_SetBkColor
000094  f06f417f          MVN      r1,#0xff000000        ;1234
000098  4620              MOV      r0,r4                 ;1234
00009a  f7fffffe          BL       TEXT_SetTextColor
00009e  4639              MOV      r1,r7                 ;1236
0000a0  f8d80018          LDR      r0,[r8,#0x18]         ;1236  ; hWincdc
0000a4  f7fffffe          BL       WM_GetDialogItem
0000a8  4604              MOV      r4,r0                 ;1236
0000aa  4956              LDR      r1,|L4.516|
0000ac  4620              MOV      r0,r4                 ;1237
0000ae  f7fffffe          BL       TEXT_SetBkColor
0000b2  2100              MOVS     r1,#0                 ;1238
0000b4  4620              MOV      r0,r4                 ;1238
0000b6  f7fffffe          BL       TEXT_SetTextColor
0000ba  2019              MOVS     r0,#0x19              ;1240
0000bc  7028              STRB     r0,[r5,#0]            ;1240
0000be  e7dd              B        |L4.124|
0000c0  4607              MOV      r7,r0                 ;1247
0000c2  4649              MOV      r1,r9                 ;1247
0000c4  4610              MOV      r0,r2                 ;1247
0000c6  f7fffffe          BL       WM_GetDialogItem
0000ca  4604              MOV      r4,r0                 ;1247
0000cc  4631              MOV      r1,r6                 ;1248
0000ce  4620              MOV      r0,r4                 ;1248
0000d0  f7fffffe          BL       TEXT_SetBkColor
0000d4  f06f417f          MVN      r1,#0xff000000        ;1249
0000d8  4620              MOV      r0,r4                 ;1249
0000da  f7fffffe          BL       TEXT_SetTextColor
0000de  4641              MOV      r1,r8                 ;1251
0000e0  69b8              LDR      r0,[r7,#0x18]         ;1251  ; hWincdc
0000e2  f7fffffe          BL       WM_GetDialogItem
0000e6  4604              MOV      r4,r0                 ;1251
0000e8  4946              LDR      r1,|L4.516|
0000ea  4620              MOV      r0,r4                 ;1252
0000ec  f7fffffe          BL       TEXT_SetBkColor
0000f0  2100              MOVS     r1,#0                 ;1253
0000f2  4620              MOV      r0,r4                 ;1253
0000f4  f7fffffe          BL       TEXT_SetTextColor
0000f8  201a              MOVS     r0,#0x1a              ;1255
0000fa  7028              STRB     r0,[r5,#0]            ;1255
0000fc  e7be              B        |L4.124|
0000fe  4607              MOV      r7,r0                 ;1262
000100  4651              MOV      r1,r10                ;1262
000102  4610              MOV      r0,r2                 ;1262
000104  f7fffffe          BL       WM_GetDialogItem
000108  4604              MOV      r4,r0                 ;1262
00010a  4631              MOV      r1,r6                 ;1263
00010c  4620              MOV      r0,r4                 ;1263
00010e  f7fffffe          BL       TEXT_SetBkColor
000112  f06f417f          MVN      r1,#0xff000000        ;1264
000116  4620              MOV      r0,r4                 ;1264
000118  f7fffffe          BL       TEXT_SetTextColor
00011c  4649              MOV      r1,r9                 ;1266
00011e  69b8              LDR      r0,[r7,#0x18]         ;1266  ; hWincdc
000120  f7fffffe          BL       WM_GetDialogItem
000124  4604              MOV      r4,r0                 ;1266
000126  4937              LDR      r1,|L4.516|
000128  4620              MOV      r0,r4                 ;1267
00012a  f7fffffe          BL       TEXT_SetBkColor
00012e  2100              MOVS     r1,#0                 ;1268
000130  4620              MOV      r0,r4                 ;1268
000132  f7fffffe          BL       TEXT_SetTextColor
000136  201b              MOVS     r0,#0x1b              ;1270
000138  7028              STRB     r0,[r5,#0]            ;1270
00013a  e79f              B        |L4.124|
00013c  4607              MOV      r7,r0                 ;1277
00013e  4659              MOV      r1,r11                ;1277
000140  4610              MOV      r0,r2                 ;1277
000142  f7fffffe          BL       WM_GetDialogItem
000146  4604              MOV      r4,r0                 ;1277
000148  4631              MOV      r1,r6                 ;1278
00014a  4620              MOV      r0,r4                 ;1278
00014c  f7fffffe          BL       TEXT_SetBkColor
000150  f06f417f          MVN      r1,#0xff000000        ;1279
000154  4620              MOV      r0,r4                 ;1279
000156  f7fffffe          BL       TEXT_SetTextColor
00015a  4651              MOV      r1,r10                ;1281
00015c  69b8              LDR      r0,[r7,#0x18]         ;1281  ; hWincdc
00015e  f7fffffe          BL       WM_GetDialogItem
000162  4604              MOV      r4,r0                 ;1281
000164  4927              LDR      r1,|L4.516|
000166  4620              MOV      r0,r4                 ;1282
000168  f7fffffe          BL       TEXT_SetBkColor
00016c  2100              MOVS     r1,#0                 ;1283
00016e  4620              MOV      r0,r4                 ;1283
000170  f7fffffe          BL       TEXT_SetTextColor
000174  201c              MOVS     r0,#0x1c              ;1285
000176  7028              STRB     r0,[r5,#0]            ;1285
000178  e780              B        |L4.124|
00017a  4607              MOV      r7,r0                 ;1292
00017c  4621              MOV      r1,r4                 ;1292
00017e  4610              MOV      r0,r2                 ;1292
000180  f7fffffe          BL       WM_GetDialogItem
000184  4604              MOV      r4,r0                 ;1292
000186  4631              MOV      r1,r6                 ;1293
000188  4620              MOV      r0,r4                 ;1293
00018a  f7fffffe          BL       TEXT_SetBkColor
00018e  f06f417f          MVN      r1,#0xff000000        ;1294
000192  4620              MOV      r0,r4                 ;1294
000194  f7fffffe          BL       TEXT_SetTextColor
000198  4659              MOV      r1,r11                ;1296
00019a  69b8              LDR      r0,[r7,#0x18]         ;1296  ; hWincdc
00019c  f7fffffe          BL       WM_GetDialogItem
0001a0  4604              MOV      r4,r0                 ;1296
0001a2  4918              LDR      r1,|L4.516|
0001a4  4620              MOV      r0,r4                 ;1297
0001a6  f7fffffe          BL       TEXT_SetBkColor
0001aa  2100              MOVS     r1,#0                 ;1298
0001ac  4620              MOV      r0,r4                 ;1298
0001ae  f7fffffe          BL       TEXT_SetTextColor
0001b2  2021              MOVS     r0,#0x21              ;1300
0001b4  7028              STRB     r0,[r5,#0]            ;1300
0001b6  e761              B        |L4.124|
0001b8  4680              MOV      r8,r0                 ;1320
0001ba  f6400172          MOV      r1,#0x872             ;1320
0001be  4610              MOV      r0,r2                 ;1320
0001c0  f7fffffe          BL       WM_GetDialogItem
0001c4  4607              MOV      r7,r0                 ;1320
0001c6  4631              MOV      r1,r6                 ;1321
0001c8  4638              MOV      r0,r7                 ;1321
0001ca  f7fffffe          BL       TEXT_SetBkColor
0001ce  f06f417f          MVN      r1,#0xff000000        ;1322
0001d2  4638              MOV      r0,r7                 ;1322
0001d4  f7fffffe          BL       TEXT_SetTextColor
0001d8  4621              MOV      r1,r4                 ;1324
0001da  f8d80018          LDR      r0,[r8,#0x18]         ;1324  ; hWincdc
0001de  f7fffffe          BL       WM_GetDialogItem
0001e2  4604              MOV      r4,r0                 ;1324
0001e4  4907              LDR      r1,|L4.516|
0001e6  4620              MOV      r0,r4                 ;1325
0001e8  f7fffffe          BL       TEXT_SetBkColor
0001ec  2100              MOVS     r1,#0                 ;1326
0001ee  4620              MOV      r0,r4                 ;1326
0001f0  f7fffffe          BL       TEXT_SetTextColor
0001f4  2022              MOVS     r0,#0x22              ;1328
0001f6  7028              STRB     r0,[r5,#0]            ;1328
0001f8  e740              B        |L4.124|
;;;1334   
                          ENDP

0001fa  0000              DCW      0x0000
                  |L4.508|
                          DCD      set_sw
                  |L4.512|
                          DCD      ||.data||
                  |L4.516|
                          DCD      0x00bfffff

                          AREA ||i.CDC_SET||, CODE, READONLY, ALIGN=2

                          REQUIRE _printf_percent
                          REQUIRE _printf_widthprec
                          REQUIRE _printf_f
                          REQUIRE _printf_fp_dec
                  CDC_SET PROC
;;;1649   void CDC_SET(void);
;;;1650   void CDC_SET(void)
000000  e92d4ff0          PUSH     {r4-r11,lr}
;;;1651   {
000004  ed2d8b06          VPUSH    {d8-d10}
000008  b083              SUB      sp,sp,#0xc
;;;1652       vu8 i;
;;;1653       char buf[5];
;;;1654       
;;;1655       float dis_load_c;
;;;1656       float dis_output_v;
;;;1657       float dis_output_c;
;;;1658       float dis_c_cutoff_v = (float)set_c_cutoff_v/100;
00000a  48f8              LDR      r0,|L5.1004|
00000c  8e40              LDRH     r0,[r0,#0x32]  ; Run_Control
00000e  ee000a10          VMOV     s0,r0
000012  eeb80a40          VCVT.F32.U32 s0,s0
000016  eddf0af6          VLDR     s1,|L5.1008|
00001a  ee808a20          VDIV.F32 s16,s0,s1
;;;1659       float dis_c_cutoff_c = (float)set_c_cutoff_c/100;
00001e  48f3              LDR      r0,|L5.1004|
000020  8e80              LDRH     r0,[r0,#0x34]  ; Run_Control
000022  ee000a10          VMOV     s0,r0
000026  eeb80a40          VCVT.F32.U32 s0,s0
00002a  eddf0af1          VLDR     s1,|L5.1008|
00002e  eec08a20          VDIV.F32 s17,s0,s1
;;;1660       float dis_dc_cutoff_v = (float)set_dc_cutoff_v/100;
000032  48ee              LDR      r0,|L5.1004|
000034  8ec0              LDRH     r0,[r0,#0x36]  ; Run_Control
000036  ee000a10          VMOV     s0,r0
00003a  eeb80a40          VCVT.F32.U32 s0,s0
00003e  eddf0aec          VLDR     s1,|L5.1008|
000042  ee809a20          VDIV.F32 s18,s0,s1
;;;1661       float dis_dc_cutoff_c = (float)set_dc_cutoff_c/100;
000046  48e9              LDR      r0,|L5.1004|
000048  8f00              LDRH     r0,[r0,#0x38]  ; Run_Control
00004a  ee000a10          VMOV     s0,r0
00004e  eeb80a40          VCVT.F32.U32 s0,s0
000052  eddf0ae7          VLDR     s1,|L5.1008|
000056  eec09a20          VDIV.F32 s19,s0,s1
;;;1662       switch(set_sw)
00005a  48e6              LDR      r0,|L5.1012|
00005c  7801              LDRB     r1,[r0,#0]  ; set_sw
;;;1663       {
;;;1664           case set_26:
;;;1665           {
;;;1666               
;;;1667               WM_HWIN hItem;
;;;1668   //            WM_InvalidateWindow(hWincdc);
;;;1669               hItem = WM_GetDialogItem(hWincdc, ID_TEXT_50);
;;;1670               TEXT_SetBkColor(hItem,GUI_INVALID_COLOR);//选项背景色设为透明
;;;1671               TEXT_SetTextColor(hItem, GUI_WHITE);
;;;1672                  
;;;1673               hItem = WM_GetDialogItem(hWincdc, ID_TEXT_54);
;;;1674               TEXT_SetBkColor(hItem,0x00BFFFFF);//选项背景色设为米色
;;;1675               TEXT_SetTextColor(hItem, GUI_BLACK);
;;;1676               for(i=0;i<5;i++)
;;;1677               {
;;;1678                   set_limit[i] = '\0';
;;;1679               }
;;;1680               
;;;1681               set_sw = set_30;
;;;1682               bit = 1;
00005e  4de6              LDR      r5,|L5.1016|
000060  3919              SUBS     r1,r1,#0x19           ;1662
;;;1683               break;
;;;1684           }
;;;1685           case set_30:
;;;1686           {
;;;1687               WM_HWIN hItem;
;;;1688   //            WM_InvalidateWindow(hWincdc);
;;;1689               hItem = WM_GetDialogItem(hWincdc, ID_TEXT_54);
;;;1690               TEXT_SetBkColor(hItem,GUI_INVALID_COLOR);//选项背景色设为透明
;;;1691               TEXT_SetTextColor(hItem, GUI_WHITE);
;;;1692               if(pow_step == step1)
;;;1693               {
;;;1694                   SET_Voltage = opv1;
;;;1695               }else if(pow_step == step2){
;;;1696                   SET_Voltage = opv2;
;;;1697               }else if(pow_step == step3){
;;;1698                   SET_Voltage = opv3;
;;;1699               }
;;;1700   //            SET_Voltage = opv1;
;;;1701               dis_output_v = (float)SET_Voltage/100;
;;;1702               sprintf(buf,"%.2f",dis_output_v);
;;;1703               TEXT_SetText(hItem,buf);
;;;1704               
;;;1705               
;;;1706               hItem = WM_GetDialogItem(hWincdc, ID_TEXT_50);
;;;1707               TEXT_SetBkColor(hItem,0x00BFFFFF);//选项背景色设为米色
;;;1708               TEXT_SetTextColor(hItem, GUI_BLACK);
;;;1709   
;;;1710               set_sw = set_26;
;;;1711               bit = 1;
;;;1712               dot_flag = 0;
000062  4ee6              LDR      r6,|L5.1020|
000064  f640086f          MOV      r8,#0x86f             ;1669
000068  f6400973          MOV      r9,#0x873             ;1673
00006c  2401              MOVS     r4,#1                 ;1682
;;;1713               Write_Limits();
;;;1714               break;
;;;1715           }
;;;1716           case set_27:
;;;1717           {
;;;1718               WM_HWIN hItem;
;;;1719   //            WM_InvalidateWindow(hWincdc);
;;;1720               hItem = WM_GetDialogItem(hWincdc, ID_TEXT_51);
00006e  f44f6a07          MOV      r10,#0x870
;;;1721               TEXT_SetBkColor(hItem,GUI_INVALID_COLOR);//选项背景色设为透明
;;;1722               TEXT_SetTextColor(hItem, GUI_WHITE);
;;;1723               for(i=0;i<5;i++)
;;;1724               {
;;;1725                   set_limit[i] = '\0';
;;;1726               }
;;;1727               
;;;1728               hItem = WM_GetDialogItem(hWincdc, ID_TEXT_55);
;;;1729               TEXT_SetBkColor(hItem,0x00BFFFFF);//选项背景色设为米色
;;;1730               TEXT_SetTextColor(hItem, GUI_BLACK);
;;;1731   
;;;1732               set_sw = set_31;
;;;1733               break;
;;;1734           }
;;;1735           case set_31:
;;;1736           {
;;;1737               WM_HWIN hItem;
;;;1738   //            WM_InvalidateWindow(hWincdc);
;;;1739               hItem = WM_GetDialogItem(hWincdc, ID_TEXT_55);
;;;1740               TEXT_SetBkColor(hItem,GUI_INVALID_COLOR);//选项背景色设为透明
;;;1741               TEXT_SetTextColor(hItem, GUI_WHITE);
;;;1742               if(cur_step == step1)
;;;1743               {
;;;1744                   SET_Current = opc1;
;;;1745               }else if(cur_step == step2){
;;;1746                   SET_Current = opc2;
;;;1747               }else if(cur_step == step3){
;;;1748                   SET_Current = opc3;
;;;1749               }
;;;1750   //            SET_Current = cdc_cc;
;;;1751               if(SET_Current > 5000)
;;;1752               {
;;;1753                   SET_Current = 5000;               
;;;1754               }
;;;1755               dis_output_c = (float)SET_Current/1000;
000072  ed9faae3          VLDR     s20,|L5.1024|
000076  48e4              LDR      r0,|L5.1032|
;;;1756               sprintf(buf,"%.2f",dis_output_c);
;;;1757               TEXT_SetText(hItem,buf);
;;;1758               
;;;1759               
;;;1760               
;;;1761               hItem = WM_GetDialogItem(hWincdc, ID_TEXT_51);
;;;1762               TEXT_SetBkColor(hItem,0x00BFFFFF);//选项背景色设为米色
;;;1763               TEXT_SetTextColor(hItem, GUI_BLACK);
;;;1764   
;;;1765               set_sw = set_27;
;;;1766               bit = 1;
;;;1767               dot_flag = 0;
;;;1768               Write_Limits();
;;;1769               break;
;;;1770           }
;;;1771           case set_28:
;;;1772           {
;;;1773               WM_HWIN hItem;
;;;1774   //            WM_InvalidateWindow(hWincdc);
;;;1775               hItem = WM_GetDialogItem(hWincdc, ID_TEXT_58);
;;;1776               TEXT_SetBkColor(hItem,GUI_INVALID_COLOR);//选项背景色设为透明
;;;1777               TEXT_SetTextColor(hItem, GUI_WHITE);
;;;1778               for(i=0;i<5;i++)
;;;1779               {
;;;1780                   set_limit[i] = '\0';
;;;1781               }
;;;1782                  
;;;1783               hItem = WM_GetDialogItem(hWincdc, ID_TEXT_62);
;;;1784               TEXT_SetBkColor(hItem,0x00BFFFFF);//选项背景色设为米色
;;;1785               TEXT_SetTextColor(hItem, GUI_BLACK);
;;;1786   
;;;1787               set_sw = set_38;
;;;1788               break;
;;;1789           }
;;;1790           case set_38:
;;;1791           {
;;;1792               WM_HWIN hItem;
;;;1793   //            WM_InvalidateWindow(hWincdc);
;;;1794               hItem = WM_GetDialogItem(hWincdc, ID_TEXT_62);
;;;1795               TEXT_SetBkColor(hItem,GUI_INVALID_COLOR);//选项背景色设为透明
;;;1796               TEXT_SetTextColor(hItem, GUI_WHITE);
;;;1797               
;;;1798               if(coffv_step == step1)
;;;1799               {
;;;1800                   dis_c_cutoff_v = (float)cov1/100;
000078  4fe2              LDR      r7,|L5.1028|
00007a  f6400b77          MOV      r11,#0x877            ;1775
00007e  6980              LDR      r0,[r0,#0x18]         ;1669
000080  2910              CMP      r1,#0x10              ;1662
000082  d232              BCS      |L5.234|
000084  e8dff001          TBB      [pc,r1]               ;1662
000088  0890fdfc          DCB      0x08,0x90,0xfd,0xfc
00008c  36bafbfa          DCB      0x36,0xba,0xfb,0xfa
000090  f9f8f7f6          DCB      0xf9,0xf8,0xf7,0xf6
000094  f5f4f3f2          DCB      0xf5,0xf4,0xf3,0xf2
000098  4641              MOV      r1,r8                 ;1669
00009a  4fdb              LDR      r7,|L5.1032|
00009c  f7fffffe          BL       WM_GetDialogItem
0000a0  4606              MOV      r6,r0                 ;1669
0000a2  f06f4170          MVN      r1,#0xf0000000        ;1670
0000a6  4630              MOV      r0,r6                 ;1670
0000a8  f7fffffe          BL       TEXT_SetBkColor
0000ac  f06f417f          MVN      r1,#0xff000000        ;1671
0000b0  4630              MOV      r0,r6                 ;1671
0000b2  f7fffffe          BL       TEXT_SetTextColor
0000b6  4649              MOV      r1,r9                 ;1673
0000b8  69b8              LDR      r0,[r7,#0x18]         ;1673  ; hWincdc
0000ba  f7fffffe          BL       WM_GetDialogItem
0000be  4606              MOV      r6,r0                 ;1673
0000c0  49d2              LDR      r1,|L5.1036|
0000c2  4630              MOV      r0,r6                 ;1674
0000c4  f7fffffe          BL       TEXT_SetBkColor
0000c8  2100              MOVS     r1,#0                 ;1675
0000ca  4630              MOV      r0,r6                 ;1675
0000cc  f7fffffe          BL       TEXT_SetTextColor
0000d0  2000              MOVS     r0,#0                 ;1676
0000d2  4acf              LDR      r2,|L5.1040|
0000d4  2100              MOVS     r1,#0                 ;1675
0000d6  e002              B        |L5.222|
                  |L5.216|
0000d8  5411              STRB     r1,[r2,r0]            ;1678
0000da  1c40              ADDS     r0,r0,#1              ;1676
0000dc  b2c0              UXTB     r0,r0                 ;1676
                  |L5.222|
0000de  2805              CMP      r0,#5                 ;1676
0000e0  d3fa              BCC      |L5.216|
0000e2  49c4              LDR      r1,|L5.1012|
0000e4  201d              MOVS     r0,#0x1d              ;1681
0000e6  7008              STRB     r0,[r1,#0]            ;1681
0000e8  702c              STRB     r4,[r5,#0]            ;1682
                  |L5.234|
;;;1801               }else if(coffv_step == step2){
;;;1802                   dis_c_cutoff_v = (float)cov2/100;;
;;;1803               }else if(coffv_step == step3){
;;;1804                   dis_c_cutoff_v = (float)cov3/100;;
;;;1805               }
;;;1806               
;;;1807               sprintf(buf,"%.2f",dis_c_cutoff_v);
;;;1808               TEXT_SetText(hItem,buf);
;;;1809               
;;;1810               
;;;1811               hItem = WM_GetDialogItem(hWincdc, ID_TEXT_58);
;;;1812               TEXT_SetBkColor(hItem,0x00BFFFFF);//选项背景色设为米色
;;;1813               TEXT_SetTextColor(hItem, GUI_BLACK);
;;;1814   
;;;1815               set_sw = set_28;
;;;1816               bit = 1;
;;;1817               dot_flag = 0;
;;;1818               Write_Limits();
;;;1819               break;
;;;1820           }
;;;1821           case set_29:
;;;1822           {
;;;1823               WM_HWIN hItem;
;;;1824   //            WM_InvalidateWindow(hWincdc);
;;;1825               hItem = WM_GetDialogItem(hWincdc, ID_TEXT_59);
;;;1826               TEXT_SetBkColor(hItem,GUI_INVALID_COLOR);//选项背景色设为透明
;;;1827               TEXT_SetTextColor(hItem, GUI_WHITE);
;;;1828               for(i=0;i<5;i++)
;;;1829               {
;;;1830                   set_limit[i] = '\0';
;;;1831               }
;;;1832                  
;;;1833               hItem = WM_GetDialogItem(hWincdc, ID_TEXT_63);
;;;1834               TEXT_SetBkColor(hItem,0x00BFFFFF);//选项背景色设为米色
;;;1835               TEXT_SetTextColor(hItem, GUI_BLACK);
;;;1836   
;;;1837               set_sw = set_39;
;;;1838               break;
;;;1839           }
;;;1840           case set_39:
;;;1841           {
;;;1842               WM_HWIN hItem;
;;;1843   //            WM_InvalidateWindow(hWincdc);
;;;1844               hItem = WM_GetDialogItem(hWincdc, ID_TEXT_63);
;;;1845               TEXT_SetBkColor(hItem,GUI_INVALID_COLOR);//选项背景色设为透明
;;;1846               TEXT_SetTextColor(hItem, GUI_WHITE);
;;;1847               
;;;1848               if(coffc_step == step1)
;;;1849               {
;;;1850                   dis_c_cutoff_c = (float)coc1/1000;
;;;1851               }else if(coffc_step == step2){
;;;1852                   dis_c_cutoff_c = (float)coc2/1000;
;;;1853               }else if(coffc_step == step3){
;;;1854                   dis_c_cutoff_c = (float)coc3/1000;
;;;1855               } 
;;;1856               
;;;1857               sprintf(buf,"%.2f",dis_c_cutoff_c);
;;;1858               TEXT_SetText(hItem,buf);
;;;1859                 
;;;1860               hItem = WM_GetDialogItem(hWincdc, ID_TEXT_59);
;;;1861               TEXT_SetBkColor(hItem,0x00BFFFFF);//选项背景色设为米色
;;;1862               TEXT_SetTextColor(hItem, GUI_BLACK);
;;;1863   
;;;1864               set_sw = set_29;
;;;1865               bit = 1;
;;;1866               dot_flag = 0;
;;;1867               Write_Limits();
;;;1868               break;
;;;1869           }
;;;1870           case set_35:
;;;1871           {
;;;1872               WM_HWIN hItem;
;;;1873   //            WM_InvalidateWindow(hWincdc);
;;;1874               hItem = WM_GetDialogItem(hWincdc, ID_TEXT_60);
;;;1875               TEXT_SetBkColor(hItem,GUI_INVALID_COLOR);//选项背景色设为透明
;;;1876               TEXT_SetTextColor(hItem, GUI_WHITE);
;;;1877               for(i=0;i<5;i++)
;;;1878               {
;;;1879                   set_limit[i] = '\0';
;;;1880               }
;;;1881                  
;;;1882               hItem = WM_GetDialogItem(hWincdc, ID_TEXT_64);
;;;1883               TEXT_SetBkColor(hItem,0x00BFFFFF);//选项背景色设为米色
;;;1884               TEXT_SetTextColor(hItem, GUI_BLACK);
;;;1885   
;;;1886               set_sw = set_40;
;;;1887               break;
;;;1888           }
;;;1889           case set_40:
;;;1890           {
;;;1891               WM_HWIN hItem;
;;;1892   //            WM_InvalidateWindow(hWincdc);
;;;1893               hItem = WM_GetDialogItem(hWincdc, ID_TEXT_64);
;;;1894               TEXT_SetBkColor(hItem,GUI_INVALID_COLOR);//选项背景色设为透明
;;;1895               TEXT_SetTextColor(hItem, GUI_WHITE);
;;;1896               
;;;1897               sprintf(buf,"%.2f",dis_dc_cutoff_v);
;;;1898               TEXT_SetText(hItem,buf);
;;;1899                  
;;;1900               hItem = WM_GetDialogItem(hWincdc, ID_TEXT_60);
;;;1901               TEXT_SetBkColor(hItem,0x00BFFFFF);//选项背景色设为米色
;;;1902               TEXT_SetTextColor(hItem, GUI_BLACK);
;;;1903   
;;;1904               set_sw = set_35;
;;;1905               bit = 1;
;;;1906               dot_flag = 0;
;;;1907               Write_Limits();
;;;1908               break;
;;;1909           }
;;;1910           case set_36:
;;;1911           {
;;;1912               WM_HWIN hItem;
;;;1913   //            WM_InvalidateWindow(hWincdc);
;;;1914               hItem = WM_GetDialogItem(hWincdc, ID_TEXT_61);
;;;1915               TEXT_SetBkColor(hItem,GUI_INVALID_COLOR);//选项背景色设为透明
;;;1916               TEXT_SetTextColor(hItem, GUI_WHITE);
;;;1917               for(i=0;i<5;i++)
;;;1918               {
;;;1919                   set_limit[i] = '\0';
;;;1920               }
;;;1921                  
;;;1922               hItem = WM_GetDialogItem(hWincdc, ID_TEXT_65);
;;;1923               TEXT_SetBkColor(hItem,0x00BFFFFF);//选项背景色设为米色
;;;1924               TEXT_SetTextColor(hItem, GUI_BLACK);
;;;1925   
;;;1926               set_sw = set_41;
;;;1927               break;
;;;1928           }
;;;1929           case set_41:
;;;1930           {
;;;1931               WM_HWIN hItem;
;;;1932   //            WM_InvalidateWindow(hWincdc);
;;;1933               hItem = WM_GetDialogItem(hWincdc, ID_TEXT_65);
;;;1934               TEXT_SetBkColor(hItem,GUI_INVALID_COLOR);//选项背景色设为透明
;;;1935               TEXT_SetTextColor(hItem, GUI_WHITE);
;;;1936               
;;;1937               sprintf(buf,"%.2f",dis_dc_cutoff_c);
;;;1938               TEXT_SetText(hItem,buf);
;;;1939                  
;;;1940               hItem = WM_GetDialogItem(hWincdc, ID_TEXT_61);
;;;1941               TEXT_SetBkColor(hItem,0x00BFFFFF);//选项背景色设为米色
;;;1942               TEXT_SetTextColor(hItem, GUI_BLACK);
;;;1943   
;;;1944               set_sw = set_36;
;;;1945               bit = 1;
;;;1946               dot_flag = 0;
;;;1947               break;
;;;1948           }
;;;1949           case set_34:
;;;1950           {
;;;1951               WM_HWIN hItem;
;;;1952   //            WM_InvalidateWindow(hWincdc);
;;;1953               hItem = WM_GetDialogItem(hWincdc, ID_TEXT_52);
;;;1954               TEXT_SetBkColor(hItem,GUI_INVALID_COLOR);//选项背景色设为透明
;;;1955               TEXT_SetTextColor(hItem, GUI_WHITE);
;;;1956               for(i=0;i<5;i++)
;;;1957               {
;;;1958                   set_limit[i] = '\0';
;;;1959               }
;;;1960                  
;;;1961               hItem = WM_GetDialogItem(hWincdc, ID_TEXT_56);
;;;1962               TEXT_SetBkColor(hItem,0x00BFFFFF);//选项背景色设为米色
;;;1963               TEXT_SetTextColor(hItem, GUI_BLACK);
;;;1964   
;;;1965               set_sw = set_32;
;;;1966               break;
;;;1967           }
;;;1968           case set_32:
;;;1969           {
;;;1970               WM_HWIN hItem;
;;;1971   //            WM_InvalidateWindow(hWincdc);
;;;1972               hItem = WM_GetDialogItem(hWincdc, ID_TEXT_56);
;;;1973               TEXT_SetBkColor(hItem,GUI_INVALID_COLOR);//选项背景色设为透明
;;;1974               TEXT_SetTextColor(hItem, GUI_WHITE);
;;;1975               SET_Current_Laod = cdc_dc;
;;;1976               if(SET_Current_Laod > 1500){
;;;1977                   SET_Current_Laod = 0;
;;;1978               }
;;;1979               dis_load_c = (float)SET_Current_Laod/100;
;;;1980               sprintf(buf,"%.2f",dis_load_c);
;;;1981               TEXT_SetText(hItem,buf);
;;;1982                  
;;;1983               hItem = WM_GetDialogItem(hWincdc, ID_TEXT_52);
;;;1984               TEXT_SetBkColor(hItem,0x00BFFFFF);//选项背景色设为米色
;;;1985               TEXT_SetTextColor(hItem, GUI_BLACK);
;;;1986               
;;;1987               set_sw = set_34;
;;;1988               bit = 1;
;;;1989               dot_flag = 0;
;;;1990               Write_Limits();
;;;1991               break;
;;;1992           }
;;;1993           case set_37:
;;;1994           {
;;;1995               WM_HWIN hItem;
;;;1996   //            WM_InvalidateWindow(hWincdc);
;;;1997               hItem = WM_GetDialogItem(hWincdc, ID_TEXT_53);
;;;1998               TEXT_SetBkColor(hItem,GUI_INVALID_COLOR);//选项背景色设为透明
;;;1999               TEXT_SetTextColor(hItem, GUI_WHITE);
;;;2000                  
;;;2001               hItem = WM_GetDialogItem(hWincdc, ID_TEXT_57);
;;;2002               TEXT_SetBkColor(hItem,0x00BFFFFF);//选项背景色设为米色
;;;2003               TEXT_SetTextColor(hItem, GUI_BLACK);
;;;2004               
;;;2005   
;;;2006               set_sw = set_33;
;;;2007               break;
;;;2008           }
;;;2009           case set_33:
;;;2010           {
;;;2011               WM_HWIN hItem;
;;;2012   //            WM_InvalidateWindow(hWincdc);
;;;2013               hItem = WM_GetDialogItem(hWincdc, ID_TEXT_57);
;;;2014               TEXT_SetBkColor(hItem,GUI_INVALID_COLOR);//选项背景色设为透明
;;;2015               TEXT_SetTextColor(hItem, GUI_WHITE);
;;;2016                  
;;;2017               hItem = WM_GetDialogItem(hWincdc, ID_TEXT_53);
;;;2018               TEXT_SetBkColor(hItem,0x00BFFFFF);//选项背景色设为米色
;;;2019               TEXT_SetTextColor(hItem, GUI_BLACK);
;;;2020               
;;;2021               set_sw = set_37;
;;;2022               bit = 1;
;;;2023               dot_flag = 0;
;;;2024               Write_Limits();
;;;2025               break;
;;;2026           }        
;;;2027           default: break;
;;;2028       }
;;;2029   }
0000ea  b003              ADD      sp,sp,#0xc
0000ec  ecbd8b06          VPOP     {d8-d10}
0000f0  e8bd8ff0          POP      {r4-r11,pc}
0000f4  4649              MOV      r1,r9                 ;1689
0000f6  f8df9310          LDR      r9,|L5.1032|
0000fa  f7fffffe          BL       WM_GetDialogItem
0000fe  4607              MOV      r7,r0                 ;1689
000100  f06f4170          MVN      r1,#0xf0000000        ;1690
000104  4638              MOV      r0,r7                 ;1690
000106  f7fffffe          BL       TEXT_SetBkColor
00010a  f06f417f          MVN      r1,#0xff000000        ;1691
00010e  4638              MOV      r0,r7                 ;1691
000110  f7fffffe          BL       TEXT_SetTextColor
000114  f899000b          LDRB     r0,[r9,#0xb]          ;1692  ; pow_step
000118  b140              CBZ      r0,|L5.300|
00011a  f899000b          LDRB     r0,[r9,#0xb]          ;1695  ; pow_step
00011e  2801              CMP      r0,#1                 ;1695
000120  d008              BEQ      |L5.308|
000122  f899000b          LDRB     r0,[r9,#0xb]          ;1697  ; pow_step
000126  2802              CMP      r0,#2                 ;1697
000128  d009              BEQ      |L5.318|
00012a  e00c              B        |L5.326|
                  |L5.300|
00012c  48af              LDR      r0,|L5.1004|
00012e  8fc1              LDRH     r1,[r0,#0x3e]         ;1694  ; Run_Control
000130  8041              STRH     r1,[r0,#2]            ;1694
000132  e008              B        |L5.326|
                  |L5.308|
000134  48ad              LDR      r0,|L5.1004|
000136  f8b01040          LDRH     r1,[r0,#0x40]         ;1696  ; Run_Control
00013a  8041              STRH     r1,[r0,#2]            ;1696
00013c  e003              B        |L5.326|
                  |L5.318|
00013e  48ab              LDR      r0,|L5.1004|
000140  f8b01042          LDRH     r1,[r0,#0x42]         ;1698  ; Run_Control
000144  8041              STRH     r1,[r0,#2]            ;1698
                  |L5.326|
000146  48a9              LDR      r0,|L5.1004|
000148  8840              LDRH     r0,[r0,#2]            ;1701  ; Run_Control
00014a  ee000a10          VMOV     s0,r0                 ;1701
00014e  eef80a40          VCVT.F32.U32 s1,s0                 ;1701
000152  ed9f1aa7          VLDR     s2,|L5.1008|
000156  ee800a81          VDIV.F32 s0,s1,s2              ;1701
00015a  ee100a10          VMOV     r0,s0                 ;1702
00015e  f7fffffe          BL       __aeabi_f2d
000162  ec410b10          VMOV     d0,r0,r1              ;1702
000166  a1ab              ADR      r1,|L5.1044|
000168  ec532b10          VMOV     r2,r3,d0              ;1702
00016c  a801              ADD      r0,sp,#4              ;1702
00016e  f7fffffe          BL       __2sprintf
000172  a901              ADD      r1,sp,#4              ;1703
000174  4638              MOV      r0,r7                 ;1703
000176  f7fffffe          BL       TEXT_SetText
00017a  4641              MOV      r1,r8                 ;1706
00017c  f8d90018          LDR      r0,[r9,#0x18]         ;1706  ; hWincdc
000180  f7fffffe          BL       WM_GetDialogItem
000184  4607              MOV      r7,r0                 ;1706
000186  49a1              LDR      r1,|L5.1036|
000188  4638              MOV      r0,r7                 ;1707
00018a  f7fffffe          BL       TEXT_SetBkColor
00018e  2100              MOVS     r1,#0                 ;1708
000190  4638              MOV      r0,r7                 ;1708
000192  f7fffffe          BL       TEXT_SetTextColor
000196  4997              LDR      r1,|L5.1012|
000198  2019              MOVS     r0,#0x19              ;1710
00019a  7008              STRB     r0,[r1,#0]            ;1710
00019c  702c              STRB     r4,[r5,#0]            ;1711
00019e  2000              MOVS     r0,#0                 ;1712
0001a0  7030              STRB     r0,[r6,#0]            ;1712
0001a2  f7fffffe          BL       Write_Limits
0001a6  e7a0              B        |L5.234|
0001a8  4651              MOV      r1,r10                ;1720
0001aa  4d97              LDR      r5,|L5.1032|
0001ac  f7fffffe          BL       WM_GetDialogItem
0001b0  4604              MOV      r4,r0                 ;1720
0001b2  f06f4170          MVN      r1,#0xf0000000        ;1721
0001b6  4620              MOV      r0,r4                 ;1721
0001b8  f7fffffe          BL       TEXT_SetBkColor
0001bc  f06f417f          MVN      r1,#0xff000000        ;1722
0001c0  4620              MOV      r0,r4                 ;1722
0001c2  f7fffffe          BL       TEXT_SetTextColor
0001c6  2000              MOVS     r0,#0                 ;1723
0001c8  4a91              LDR      r2,|L5.1040|
0001ca  2100              MOVS     r1,#0                 ;1675
0001cc  e002              B        |L5.468|
                  |L5.462|
0001ce  5411              STRB     r1,[r2,r0]            ;1725
0001d0  1c40              ADDS     r0,r0,#1              ;1723
0001d2  b2c0              UXTB     r0,r0                 ;1723
                  |L5.468|
0001d4  2805              CMP      r0,#5                 ;1723
0001d6  d3fa              BCC      |L5.462|
0001d8  f6400174          MOV      r1,#0x874             ;1728
0001dc  69a8              LDR      r0,[r5,#0x18]         ;1728  ; hWincdc
0001de  f7fffffe          BL       WM_GetDialogItem
0001e2  4604              MOV      r4,r0                 ;1728
0001e4  4989              LDR      r1,|L5.1036|
0001e6  4620              MOV      r0,r4                 ;1729
0001e8  f7fffffe          BL       TEXT_SetBkColor
0001ec  2100              MOVS     r1,#0                 ;1730
0001ee  4620              MOV      r0,r4                 ;1730
0001f0  f7fffffe          BL       TEXT_SetTextColor
0001f4  497f              LDR      r1,|L5.1012|
0001f6  201e              MOVS     r0,#0x1e              ;1732
0001f8  7008              STRB     r0,[r1,#0]            ;1732
0001fa  e776              B        |L5.234|
0001fc  f6400174          MOV      r1,#0x874             ;1739
000200  f8df8204          LDR      r8,|L5.1032|
000204  f7fffffe          BL       WM_GetDialogItem
000208  4607              MOV      r7,r0                 ;1739
00020a  f06f4170          MVN      r1,#0xf0000000        ;1740
00020e  4638              MOV      r0,r7                 ;1740
000210  f7fffffe          BL       TEXT_SetBkColor
000214  f06f417f          MVN      r1,#0xff000000        ;1741
000218  4638              MOV      r0,r7                 ;1741
00021a  f7fffffe          BL       TEXT_SetTextColor
00021e  f898000c          LDRB     r0,[r8,#0xc]          ;1742  ; cur_step
000222  b140              CBZ      r0,|L5.566|
000224  f898000c          LDRB     r0,[r8,#0xc]          ;1745  ; cur_step
000228  2801              CMP      r0,#1                 ;1745
00022a  d009              BEQ      |L5.576|
00022c  f898000c          LDRB     r0,[r8,#0xc]          ;1747  ; cur_step
000230  2802              CMP      r0,#2                 ;1747
000232  d00a              BEQ      |L5.586|
000234  e00d              B        |L5.594|
                  |L5.566|
000236  486d              LDR      r0,|L5.1004|
000238  f8b01044          LDRH     r1,[r0,#0x44]         ;1744  ; Run_Control
00023c  8081              STRH     r1,[r0,#4]            ;1744
00023e  e008              B        |L5.594|
                  |L5.576|
000240  486a              LDR      r0,|L5.1004|
000242  f8b01046          LDRH     r1,[r0,#0x46]         ;1746  ; Run_Control
000246  8081              STRH     r1,[r0,#4]            ;1746
000248  e003              B        |L5.594|
                  |L5.586|
00024a  4868              LDR      r0,|L5.1004|
00024c  f8b01048          LDRH     r1,[r0,#0x48]         ;1748  ; Run_Control
000250  8081              STRH     r1,[r0,#4]            ;1748
                  |L5.594|
000252  4866              LDR      r0,|L5.1004|
000254  8882              LDRH     r2,[r0,#4]            ;1751  ; Run_Control
000256  f2413188          MOV      r1,#0x1388            ;1751
00025a  428a              CMP      r2,r1                 ;1751
00025c  d900              BLS      |L5.608|
00025e  8081              STRH     r1,[r0,#4]            ;1753
                  |L5.608|
000260  8880              LDRH     r0,[r0,#4]            ;1755  ; Run_Control
000262  ee000a10          VMOV     s0,r0                 ;1755
000266  eef80a40          VCVT.F32.U32 s1,s0                 ;1755
00026a  e00b              B        |L5.644|
00026c  e1ee              B        |L5.1612|
00026e  e188              B        |L5.1410|
000270  e0ff              B        |L5.1138|
000272  e05a              B        |L5.810|
000274  e29b              B        |L5.1966|
000276  e1be              B        |L5.1526|
000278  e158              B        |L5.1324|
00027a  e21f              B        |L5.1724|
00027c  e2b9              B        |L5.2034|
00027e  e248              B        |L5.1810|
000280  e0cc              B        |L5.1052|
000282  e028              B        |L5.726|
                  |L5.644|
000284  ee800a8a          VDIV.F32 s0,s1,s20             ;1755
000288  ee100a10          VMOV     r0,s0                 ;1756
00028c  f7fffffe          BL       __aeabi_f2d
000290  ec410b10          VMOV     d0,r0,r1              ;1756
000294  a15f              ADR      r1,|L5.1044|
000296  ec532b10          VMOV     r2,r3,d0              ;1756
00029a  a801              ADD      r0,sp,#4              ;1756
00029c  f7fffffe          BL       __2sprintf
0002a0  a901              ADD      r1,sp,#4              ;1757
0002a2  4638              MOV      r0,r7                 ;1757
0002a4  f7fffffe          BL       TEXT_SetText
0002a8  4651              MOV      r1,r10                ;1761
0002aa  f8d80018          LDR      r0,[r8,#0x18]         ;1761  ; hWincdc
0002ae  f7fffffe          BL       WM_GetDialogItem
0002b2  4607              MOV      r7,r0                 ;1761
0002b4  4955              LDR      r1,|L5.1036|
0002b6  4638              MOV      r0,r7                 ;1762
0002b8  f7fffffe          BL       TEXT_SetBkColor
0002bc  2100              MOVS     r1,#0                 ;1763
0002be  4638              MOV      r0,r7                 ;1763
0002c0  f7fffffe          BL       TEXT_SetTextColor
0002c4  494b              LDR      r1,|L5.1012|
0002c6  201a              MOVS     r0,#0x1a              ;1765
0002c8  7008              STRB     r0,[r1,#0]            ;1765
0002ca  702c              STRB     r4,[r5,#0]            ;1766
0002cc  2000              MOVS     r0,#0                 ;1767
0002ce  7030              STRB     r0,[r6,#0]            ;1767
0002d0  f7fffffe          BL       Write_Limits
0002d4  e709              B        |L5.234|
                  |L5.726|
0002d6  4659              MOV      r1,r11                ;1775
0002d8  4d4b              LDR      r5,|L5.1032|
0002da  f7fffffe          BL       WM_GetDialogItem
0002de  4604              MOV      r4,r0                 ;1775
0002e0  f06f4170          MVN      r1,#0xf0000000        ;1776
0002e4  4620              MOV      r0,r4                 ;1776
0002e6  f7fffffe          BL       TEXT_SetBkColor
0002ea  f06f417f          MVN      r1,#0xff000000        ;1777
0002ee  4620              MOV      r0,r4                 ;1777
0002f0  f7fffffe          BL       TEXT_SetTextColor
0002f4  2000              MOVS     r0,#0                 ;1778
0002f6  4946              LDR      r1,|L5.1040|
0002f8  2200              MOVS     r2,#0                 ;1675
0002fa  e002              B        |L5.770|
                  |L5.764|
0002fc  540a              STRB     r2,[r1,r0]            ;1780
0002fe  1c40              ADDS     r0,r0,#1              ;1778
000300  b2c0              UXTB     r0,r0                 ;1778
                  |L5.770|
000302  2805              CMP      r0,#5                 ;1778
000304  d3fa              BCC      |L5.764|
000306  f640017b          MOV      r1,#0x87b             ;1783
00030a  69a8              LDR      r0,[r5,#0x18]         ;1783  ; hWincdc
00030c  f7fffffe          BL       WM_GetDialogItem
000310  4604              MOV      r4,r0                 ;1783
000312  493e              LDR      r1,|L5.1036|
000314  4620              MOV      r0,r4                 ;1784
000316  f7fffffe          BL       TEXT_SetBkColor
00031a  2100              MOVS     r1,#0                 ;1785
00031c  4620              MOV      r0,r4                 ;1785
00031e  f7fffffe          BL       TEXT_SetTextColor
000322  4934              LDR      r1,|L5.1012|
000324  2025              MOVS     r0,#0x25              ;1787
000326  7008              STRB     r0,[r1,#0]            ;1787
000328  e6df              B        |L5.234|
                  |L5.810|
00032a  f640017b          MOV      r1,#0x87b             ;1794
00032e  f8df80d8          LDR      r8,|L5.1032|
000332  f7fffffe          BL       WM_GetDialogItem
000336  4681              MOV      r9,r0                 ;1794
000338  f06f4170          MVN      r1,#0xf0000000        ;1795
00033c  4648              MOV      r0,r9                 ;1795
00033e  f7fffffe          BL       TEXT_SetBkColor
000342  f06f417f          MVN      r1,#0xff000000        ;1796
000346  4648              MOV      r0,r9                 ;1796
000348  f7fffffe          BL       TEXT_SetTextColor
00034c  f898000d          LDRB     r0,[r8,#0xd]          ;1798  ; coffv_step
000350  b140              CBZ      r0,|L5.868|
000352  f898000d          LDRB     r0,[r8,#0xd]          ;1801  ; coffv_step
000356  2801              CMP      r0,#1                 ;1801
000358  d00e              BEQ      |L5.888|
00035a  f898000d          LDRB     r0,[r8,#0xd]          ;1803  ; coffv_step
00035e  2802              CMP      r0,#2                 ;1803
000360  d014              BEQ      |L5.908|
000362  e01c              B        |L5.926|
                  |L5.868|
000364  8838              LDRH     r0,[r7,#0]            ;1800  ; coff
000366  eddf0a22          VLDR     s1,|L5.1008|
00036a  ee000a10          VMOV     s0,r0                 ;1800
00036e  eeb80a40          VCVT.F32.U32 s0,s0                 ;1800
000372  ee808a20          VDIV.F32 s16,s0,s1             ;1800
000376  e012              B        |L5.926|
                  |L5.888|
000378  8878              LDRH     r0,[r7,#2]            ;1802  ; coff
00037a  eddf0a1d          VLDR     s1,|L5.1008|
00037e  ee000a10          VMOV     s0,r0                 ;1802
000382  eeb80a40          VCVT.F32.U32 s0,s0                 ;1802
000386  ee808a20          VDIV.F32 s16,s0,s1             ;1802
00038a  e008              B        |L5.926|
                  |L5.908|
00038c  88b8              LDRH     r0,[r7,#4]            ;1804  ; coff
00038e  eddf0a18          VLDR     s1,|L5.1008|
000392  ee000a10          VMOV     s0,r0                 ;1804
000396  eeb80a40          VCVT.F32.U32 s0,s0                 ;1804
00039a  ee808a20          VDIV.F32 s16,s0,s1             ;1804
                  |L5.926|
00039e  ee180a10          VMOV     r0,s16                ;1807
0003a2  f7fffffe          BL       __aeabi_f2d
0003a6  ec410b10          VMOV     d0,r0,r1              ;1807
0003aa  a11a              ADR      r1,|L5.1044|
0003ac  ec532b10          VMOV     r2,r3,d0              ;1807
0003b0  a801              ADD      r0,sp,#4              ;1807
0003b2  f7fffffe          BL       __2sprintf
0003b6  a901              ADD      r1,sp,#4              ;1808
0003b8  4648              MOV      r0,r9                 ;1808
0003ba  f7fffffe          BL       TEXT_SetText
0003be  4659              MOV      r1,r11                ;1811
0003c0  f8d80018          LDR      r0,[r8,#0x18]         ;1811  ; hWincdc
0003c4  f7fffffe          BL       WM_GetDialogItem
0003c8  4607              MOV      r7,r0                 ;1811
0003ca  4910              LDR      r1,|L5.1036|
0003cc  4638              MOV      r0,r7                 ;1812
0003ce  f7fffffe          BL       TEXT_SetBkColor
0003d2  2100              MOVS     r1,#0                 ;1813
0003d4  4638              MOV      r0,r7                 ;1813
0003d6  f7fffffe          BL       TEXT_SetTextColor
0003da  4906              LDR      r1,|L5.1012|
0003dc  201b              MOVS     r0,#0x1b              ;1815
0003de  7008              STRB     r0,[r1,#0]            ;1815
0003e0  702c              STRB     r4,[r5,#0]            ;1816
0003e2  2000              MOVS     r0,#0                 ;1817
0003e4  7030              STRB     r0,[r6,#0]            ;1817
0003e6  f7fffffe          BL       Write_Limits
0003ea  e67e              B        |L5.234|
                  |L5.1004|
                          DCD      Run_Control
                  |L5.1008|
0003f0  42c80000          DCFS     0x42c80000 ; 100
                  |L5.1012|
                          DCD      set_sw
                  |L5.1016|
                          DCD      bit
                  |L5.1020|
                          DCD      dot_flag
                  |L5.1024|
000400  447a0000          DCFS     0x447a0000 ; 1000
                  |L5.1028|
                          DCD      ||.bss||
                  |L5.1032|
                          DCD      ||.data||
                  |L5.1036|
                          DCD      0x00bfffff
                  |L5.1040|
                          DCD      set_limit
                  |L5.1044|
000414  252e3266          DCB      "%.2f",0
000418  00      
000419  00                DCB      0
00041a  00                DCB      0
00041b  00                DCB      0
                  |L5.1052|
00041c  f6400178          MOV      r1,#0x878             ;1825
000420  4dfe              LDR      r5,|L5.2076|
000422  f7fffffe          BL       WM_GetDialogItem
000426  4604              MOV      r4,r0                 ;1825
000428  f06f4170          MVN      r1,#0xf0000000        ;1826
00042c  4620              MOV      r0,r4                 ;1826
00042e  f7fffffe          BL       TEXT_SetBkColor
000432  f06f417f          MVN      r1,#0xff000000        ;1827
000436  4620              MOV      r0,r4                 ;1827
000438  f7fffffe          BL       TEXT_SetTextColor
00043c  2000              MOVS     r0,#0                 ;1828
00043e  49f8              LDR      r1,|L5.2080|
000440  2200              MOVS     r2,#0                 ;1675
000442  e002              B        |L5.1098|
                  |L5.1092|
000444  540a              STRB     r2,[r1,r0]            ;1830
000446  1c40              ADDS     r0,r0,#1              ;1828
000448  b2c0              UXTB     r0,r0                 ;1828
                  |L5.1098|
00044a  2805              CMP      r0,#5                 ;1828
00044c  d3fa              BCC      |L5.1092|
00044e  f640017c          MOV      r1,#0x87c             ;1833
000452  69a8              LDR      r0,[r5,#0x18]         ;1833  ; hWincdc
000454  f7fffffe          BL       WM_GetDialogItem
000458  4604              MOV      r4,r0                 ;1833
00045a  49f2              LDR      r1,|L5.2084|
00045c  4620              MOV      r0,r4                 ;1834
00045e  f7fffffe          BL       TEXT_SetBkColor
000462  2100              MOVS     r1,#0                 ;1835
000464  4620              MOV      r0,r4                 ;1835
000466  f7fffffe          BL       TEXT_SetTextColor
00046a  49ef              LDR      r1,|L5.2088|
00046c  2026              MOVS     r0,#0x26              ;1837
00046e  7008              STRB     r0,[r1,#0]            ;1837
000470  e63b              B        |L5.234|
                  |L5.1138|
000472  f640017c          MOV      r1,#0x87c             ;1844
000476  f8df93a4          LDR      r9,|L5.2076|
00047a  f7fffffe          BL       WM_GetDialogItem
00047e  4680              MOV      r8,r0                 ;1844
000480  f06f4170          MVN      r1,#0xf0000000        ;1845
000484  4640              MOV      r0,r8                 ;1845
000486  f7fffffe          BL       TEXT_SetBkColor
00048a  f06f417f          MVN      r1,#0xff000000        ;1846
00048e  4640              MOV      r0,r8                 ;1846
000490  f7fffffe          BL       TEXT_SetTextColor
000494  f899000e          LDRB     r0,[r9,#0xe]          ;1848  ; coffc_step
000498  b140              CBZ      r0,|L5.1196|
00049a  f899000e          LDRB     r0,[r9,#0xe]          ;1851  ; coffc_step
00049e  2801              CMP      r0,#1                 ;1851
0004a0  d00c              BEQ      |L5.1212|
0004a2  f899000e          LDRB     r0,[r9,#0xe]          ;1853  ; coffc_step
0004a6  2802              CMP      r0,#2                 ;1853
0004a8  d010              BEQ      |L5.1228|
0004aa  e016              B        |L5.1242|
                  |L5.1196|
0004ac  88f8              LDRH     r0,[r7,#6]            ;1850  ; coff
0004ae  ee000a10          VMOV     s0,r0                 ;1850
0004b2  eeb80a40          VCVT.F32.U32 s0,s0                 ;1850
0004b6  eec08a0a          VDIV.F32 s17,s0,s20            ;1850
0004ba  e00e              B        |L5.1242|
                  |L5.1212|
0004bc  8938              LDRH     r0,[r7,#8]            ;1852  ; coff
0004be  ee000a10          VMOV     s0,r0                 ;1852
0004c2  eeb80a40          VCVT.F32.U32 s0,s0                 ;1852
0004c6  eec08a0a          VDIV.F32 s17,s0,s20            ;1852
0004ca  e006              B        |L5.1242|
                  |L5.1228|
0004cc  8978              LDRH     r0,[r7,#0xa]          ;1854  ; coff
0004ce  ee000a10          VMOV     s0,r0                 ;1854
0004d2  eeb80a40          VCVT.F32.U32 s0,s0                 ;1854
0004d6  eec08a0a          VDIV.F32 s17,s0,s20            ;1854
                  |L5.1242|
0004da  ee180a90          VMOV     r0,s17                ;1857
0004de  f7fffffe          BL       __aeabi_f2d
0004e2  ec410b10          VMOV     d0,r0,r1              ;1857
0004e6  ec532b10          VMOV     r2,r3,d0              ;1857
0004ea  f2af01d8          ADR      r1,|L5.1044|
0004ee  a801              ADD      r0,sp,#4              ;1857
0004f0  f7fffffe          BL       __2sprintf
0004f4  a901              ADD      r1,sp,#4              ;1858
0004f6  4640              MOV      r0,r8                 ;1858
0004f8  f7fffffe          BL       TEXT_SetText
0004fc  f6400178          MOV      r1,#0x878             ;1860
000500  f8d90018          LDR      r0,[r9,#0x18]         ;1860  ; hWincdc
000504  f7fffffe          BL       WM_GetDialogItem
000508  4607              MOV      r7,r0                 ;1860
00050a  49c6              LDR      r1,|L5.2084|
00050c  4638              MOV      r0,r7                 ;1861
00050e  f7fffffe          BL       TEXT_SetBkColor
000512  2100              MOVS     r1,#0                 ;1862
000514  4638              MOV      r0,r7                 ;1862
000516  f7fffffe          BL       TEXT_SetTextColor
00051a  49c3              LDR      r1,|L5.2088|
00051c  201c              MOVS     r0,#0x1c              ;1864
00051e  7008              STRB     r0,[r1,#0]            ;1864
000520  702c              STRB     r4,[r5,#0]            ;1865
000522  2000              MOVS     r0,#0                 ;1866
000524  7030              STRB     r0,[r6,#0]            ;1866
000526  f7fffffe          BL       Write_Limits
00052a  e5de              B        |L5.234|
                  |L5.1324|
00052c  f6400179          MOV      r1,#0x879             ;1874
000530  4dba              LDR      r5,|L5.2076|
000532  f7fffffe          BL       WM_GetDialogItem
000536  4604              MOV      r4,r0                 ;1874
000538  f06f4170          MVN      r1,#0xf0000000        ;1875
00053c  4620              MOV      r0,r4                 ;1875
00053e  f7fffffe          BL       TEXT_SetBkColor
000542  f06f417f          MVN      r1,#0xff000000        ;1876
000546  4620              MOV      r0,r4                 ;1876
000548  f7fffffe          BL       TEXT_SetTextColor
00054c  2000              MOVS     r0,#0                 ;1877
00054e  4ab4              LDR      r2,|L5.2080|
000550  2100              MOVS     r1,#0                 ;1675
000552  e002              B        |L5.1370|
                  |L5.1364|
000554  5411              STRB     r1,[r2,r0]            ;1879
000556  1c40              ADDS     r0,r0,#1              ;1877
000558  b2c0              UXTB     r0,r0                 ;1877
                  |L5.1370|
00055a  2805              CMP      r0,#5                 ;1877
00055c  d3fa              BCC      |L5.1364|
00055e  f640017d          MOV      r1,#0x87d             ;1882
000562  69a8              LDR      r0,[r5,#0x18]         ;1882  ; hWincdc
000564  f7fffffe          BL       WM_GetDialogItem
000568  4604              MOV      r4,r0                 ;1882
00056a  49ae              LDR      r1,|L5.2084|
00056c  4620              MOV      r0,r4                 ;1883
00056e  f7fffffe          BL       TEXT_SetBkColor
000572  2100              MOVS     r1,#0                 ;1884
000574  4620              MOV      r0,r4                 ;1884
000576  f7fffffe          BL       TEXT_SetTextColor
00057a  49ab              LDR      r1,|L5.2088|
00057c  2027              MOVS     r0,#0x27              ;1886
00057e  7008              STRB     r0,[r1,#0]            ;1886
000580  e5b3              B        |L5.234|
                  |L5.1410|
000582  f640017d          MOV      r1,#0x87d             ;1893
000586  f8df8294          LDR      r8,|L5.2076|
00058a  f7fffffe          BL       WM_GetDialogItem
00058e  4607              MOV      r7,r0                 ;1893
000590  f06f4170          MVN      r1,#0xf0000000        ;1894
000594  4638              MOV      r0,r7                 ;1894
000596  f7fffffe          BL       TEXT_SetBkColor
00059a  f06f417f          MVN      r1,#0xff000000        ;1895
00059e  4638              MOV      r0,r7                 ;1895
0005a0  f7fffffe          BL       TEXT_SetTextColor
0005a4  ee190a10          VMOV     r0,s18                ;1897
0005a8  f7fffffe          BL       __aeabi_f2d
0005ac  ec410b10          VMOV     d0,r0,r1              ;1897
0005b0  ec532b10          VMOV     r2,r3,d0              ;1897
0005b4  f2af11a4          ADR      r1,|L5.1044|
0005b8  a801              ADD      r0,sp,#4              ;1897
0005ba  f7fffffe          BL       __2sprintf
0005be  a901              ADD      r1,sp,#4              ;1898
0005c0  4638              MOV      r0,r7                 ;1898
0005c2  f7fffffe          BL       TEXT_SetText
0005c6  f6400179          MOV      r1,#0x879             ;1900
0005ca  f8d80018          LDR      r0,[r8,#0x18]         ;1900  ; hWincdc
0005ce  f7fffffe          BL       WM_GetDialogItem
0005d2  4607              MOV      r7,r0                 ;1900
0005d4  4993              LDR      r1,|L5.2084|
0005d6  4638              MOV      r0,r7                 ;1901
0005d8  f7fffffe          BL       TEXT_SetBkColor
0005dc  2100              MOVS     r1,#0                 ;1902
0005de  4638              MOV      r0,r7                 ;1902
0005e0  f7fffffe          BL       TEXT_SetTextColor
0005e4  4990              LDR      r1,|L5.2088|
0005e6  2022              MOVS     r0,#0x22              ;1904
0005e8  7008              STRB     r0,[r1,#0]            ;1904
0005ea  702c              STRB     r4,[r5,#0]            ;1905
0005ec  2000              MOVS     r0,#0                 ;1906
0005ee  7030              STRB     r0,[r6,#0]            ;1906
0005f0  f7fffffe          BL       Write_Limits
0005f4  e579              B        |L5.234|
                  |L5.1526|
0005f6  f640017a          MOV      r1,#0x87a             ;1914
0005fa  4d88              LDR      r5,|L5.2076|
0005fc  f7fffffe          BL       WM_GetDialogItem
000600  4604              MOV      r4,r0                 ;1914
000602  f06f4170          MVN      r1,#0xf0000000        ;1915
000606  4620              MOV      r0,r4                 ;1915
000608  f7fffffe          BL       TEXT_SetBkColor
00060c  f06f417f          MVN      r1,#0xff000000        ;1916
000610  4620              MOV      r0,r4                 ;1916
000612  f7fffffe          BL       TEXT_SetTextColor
000616  2000              MOVS     r0,#0                 ;1917
000618  4a81              LDR      r2,|L5.2080|
00061a  2100              MOVS     r1,#0                 ;1675
00061c  e002              B        |L5.1572|
                  |L5.1566|
00061e  5411              STRB     r1,[r2,r0]            ;1919
000620  1c40              ADDS     r0,r0,#1              ;1917
000622  b2c0              UXTB     r0,r0                 ;1917
                  |L5.1572|
000624  2805              CMP      r0,#5                 ;1917
000626  d3fa              BCC      |L5.1566|
000628  f640017e          MOV      r1,#0x87e             ;1922
00062c  69a8              LDR      r0,[r5,#0x18]         ;1922  ; hWincdc
00062e  f7fffffe          BL       WM_GetDialogItem
000632  4604              MOV      r4,r0                 ;1922
000634  497b              LDR      r1,|L5.2084|
000636  4620              MOV      r0,r4                 ;1923
000638  f7fffffe          BL       TEXT_SetBkColor
00063c  2100              MOVS     r1,#0                 ;1924
00063e  4620              MOV      r0,r4                 ;1924
000640  f7fffffe          BL       TEXT_SetTextColor
000644  4978              LDR      r1,|L5.2088|
000646  2028              MOVS     r0,#0x28              ;1926
000648  7008              STRB     r0,[r1,#0]            ;1926
00064a  e54e              B        |L5.234|
                  |L5.1612|
00064c  f640017e          MOV      r1,#0x87e             ;1933
000650  f8df81c8          LDR      r8,|L5.2076|
000654  f7fffffe          BL       WM_GetDialogItem
000658  4607              MOV      r7,r0                 ;1933
00065a  f06f4170          MVN      r1,#0xf0000000        ;1934
00065e  4638              MOV      r0,r7                 ;1934
000660  f7fffffe          BL       TEXT_SetBkColor
000664  f06f417f          MVN      r1,#0xff000000        ;1935
000668  4638              MOV      r0,r7                 ;1935
00066a  f7fffffe          BL       TEXT_SetTextColor
00066e  ee190a90          VMOV     r0,s19                ;1937
000672  f7fffffe          BL       __aeabi_f2d
000676  ec410b10          VMOV     d0,r0,r1              ;1937
00067a  ec532b10          VMOV     r2,r3,d0              ;1937
00067e  f2af216c          ADR      r1,|L5.1044|
000682  a801              ADD      r0,sp,#4              ;1937
000684  f7fffffe          BL       __2sprintf
000688  a901              ADD      r1,sp,#4              ;1938
00068a  4638              MOV      r0,r7                 ;1938
00068c  f7fffffe          BL       TEXT_SetText
000690  f640017a          MOV      r1,#0x87a             ;1940
000694  f8d80018          LDR      r0,[r8,#0x18]         ;1940  ; hWincdc
000698  f7fffffe          BL       WM_GetDialogItem
00069c  4607              MOV      r7,r0                 ;1940
00069e  4961              LDR      r1,|L5.2084|
0006a0  4638              MOV      r0,r7                 ;1941
0006a2  f7fffffe          BL       TEXT_SetBkColor
0006a6  2100              MOVS     r1,#0                 ;1942
0006a8  4638              MOV      r0,r7                 ;1942
0006aa  f7fffffe          BL       TEXT_SetTextColor
0006ae  495e              LDR      r1,|L5.2088|
0006b0  2023              MOVS     r0,#0x23              ;1944
0006b2  7008              STRB     r0,[r1,#0]            ;1944
0006b4  702c              STRB     r4,[r5,#0]            ;1945
0006b6  2000              MOVS     r0,#0                 ;1946
0006b8  7030              STRB     r0,[r6,#0]            ;1946
0006ba  e516              B        |L5.234|
                  |L5.1724|
0006bc  f6400171          MOV      r1,#0x871             ;1953
0006c0  4d56              LDR      r5,|L5.2076|
0006c2  f7fffffe          BL       WM_GetDialogItem
0006c6  4604              MOV      r4,r0                 ;1953
0006c8  f06f4170          MVN      r1,#0xf0000000        ;1954
0006cc  4620              MOV      r0,r4                 ;1954
0006ce  f7fffffe          BL       TEXT_SetBkColor
0006d2  f06f417f          MVN      r1,#0xff000000        ;1955
0006d6  4620              MOV      r0,r4                 ;1955
0006d8  f7fffffe          BL       TEXT_SetTextColor
0006dc  2000              MOVS     r0,#0                 ;1956
0006de  4a50              LDR      r2,|L5.2080|
0006e0  2100              MOVS     r1,#0                 ;1675
0006e2  e002              B        |L5.1770|
                  |L5.1764|
0006e4  5411              STRB     r1,[r2,r0]            ;1958
0006e6  1c40              ADDS     r0,r0,#1              ;1956
0006e8  b2c0              UXTB     r0,r0                 ;1956
                  |L5.1770|
0006ea  2805              CMP      r0,#5                 ;1956
0006ec  d3fa              BCC      |L5.1764|
0006ee  f6400175          MOV      r1,#0x875             ;1961
0006f2  69a8              LDR      r0,[r5,#0x18]         ;1961  ; hWincdc
0006f4  f7fffffe          BL       WM_GetDialogItem
0006f8  4604              MOV      r4,r0                 ;1961
0006fa  494a              LDR      r1,|L5.2084|
0006fc  4620              MOV      r0,r4                 ;1962
0006fe  f7fffffe          BL       TEXT_SetBkColor
000702  2100              MOVS     r1,#0                 ;1963
000704  4620              MOV      r0,r4                 ;1963
000706  f7fffffe          BL       TEXT_SetTextColor
00070a  4947              LDR      r1,|L5.2088|
00070c  201f              MOVS     r0,#0x1f              ;1965
00070e  7008              STRB     r0,[r1,#0]            ;1965
000710  e4eb              B        |L5.234|
                  |L5.1810|
000712  f6400175          MOV      r1,#0x875             ;1972
000716  f8df8104          LDR      r8,|L5.2076|
00071a  f7fffffe          BL       WM_GetDialogItem
00071e  4607              MOV      r7,r0                 ;1972
000720  f06f4170          MVN      r1,#0xf0000000        ;1973
000724  4638              MOV      r0,r7                 ;1973
000726  f7fffffe          BL       TEXT_SetBkColor
00072a  f06f417f          MVN      r1,#0xff000000        ;1974
00072e  4638              MOV      r0,r7                 ;1974
000730  f7fffffe          BL       TEXT_SetTextColor
000734  483d              LDR      r0,|L5.2092|
000736  f8b01052          LDRH     r1,[r0,#0x52]         ;1975  ; Run_Control
00073a  8101              STRH     r1,[r0,#8]            ;1975
00073c  8901              LDRH     r1,[r0,#8]            ;1976  ; Run_Control
00073e  f24052dc          MOV      r2,#0x5dc             ;1976
000742  4291              CMP      r1,r2                 ;1976
000744  d901              BLS      |L5.1866|
000746  2100              MOVS     r1,#0                 ;1977
000748  8101              STRH     r1,[r0,#8]            ;1977
                  |L5.1866|
00074a  8900              LDRH     r0,[r0,#8]            ;1979  ; Run_Control
00074c  ee000a10          VMOV     s0,r0                 ;1979
000750  eef80a40          VCVT.F32.U32 s1,s0                 ;1979
000754  ed1f1ada          VLDR     s2,|L5.1008|
000758  ee800a81          VDIV.F32 s0,s1,s2              ;1979
00075c  ee100a10          VMOV     r0,s0                 ;1980
000760  f7fffffe          BL       __aeabi_f2d
000764  ec410b10          VMOV     d0,r0,r1              ;1980
000768  ec532b10          VMOV     r2,r3,d0              ;1980
00076c  f2af315c          ADR      r1,|L5.1044|
000770  a801              ADD      r0,sp,#4              ;1980
000772  f7fffffe          BL       __2sprintf
000776  a901              ADD      r1,sp,#4              ;1981
000778  4638              MOV      r0,r7                 ;1981
00077a  f7fffffe          BL       TEXT_SetText
00077e  f6400171          MOV      r1,#0x871             ;1983
000782  f8d80018          LDR      r0,[r8,#0x18]         ;1983  ; hWincdc
000786  f7fffffe          BL       WM_GetDialogItem
00078a  4607              MOV      r7,r0                 ;1983
00078c  4925              LDR      r1,|L5.2084|
00078e  4638              MOV      r0,r7                 ;1984
000790  f7fffffe          BL       TEXT_SetBkColor
000794  2100              MOVS     r1,#0                 ;1985
000796  4638              MOV      r0,r7                 ;1985
000798  f7fffffe          BL       TEXT_SetTextColor
00079c  4922              LDR      r1,|L5.2088|
00079e  2021              MOVS     r0,#0x21              ;1987
0007a0  7008              STRB     r0,[r1,#0]            ;1987
0007a2  702c              STRB     r4,[r5,#0]            ;1988
0007a4  2000              MOVS     r0,#0                 ;1989
0007a6  7030              STRB     r0,[r6,#0]            ;1989
0007a8  f7fffffe          BL       Write_Limits
0007ac  e49d              B        |L5.234|
                  |L5.1966|
0007ae  f6400172          MOV      r1,#0x872             ;1997
0007b2  4d1a              LDR      r5,|L5.2076|
0007b4  f7fffffe          BL       WM_GetDialogItem
0007b8  4604              MOV      r4,r0                 ;1997
0007ba  f06f4170          MVN      r1,#0xf0000000        ;1998
0007be  4620              MOV      r0,r4                 ;1998
0007c0  f7fffffe          BL       TEXT_SetBkColor
0007c4  f06f417f          MVN      r1,#0xff000000        ;1999
0007c8  4620              MOV      r0,r4                 ;1999
0007ca  f7fffffe          BL       TEXT_SetTextColor
0007ce  f6400176          MOV      r1,#0x876             ;2001
0007d2  69a8              LDR      r0,[r5,#0x18]         ;2001  ; hWincdc
0007d4  f7fffffe          BL       WM_GetDialogItem
0007d8  4604              MOV      r4,r0                 ;2001
0007da  4912              LDR      r1,|L5.2084|
0007dc  4620              MOV      r0,r4                 ;2002
0007de  f7fffffe          BL       TEXT_SetBkColor
0007e2  2100              MOVS     r1,#0                 ;2003
0007e4  4620              MOV      r0,r4                 ;2003
0007e6  f7fffffe          BL       TEXT_SetTextColor
0007ea  490f              LDR      r1,|L5.2088|
0007ec  2020              MOVS     r0,#0x20              ;2006
0007ee  7008              STRB     r0,[r1,#0]            ;2006
0007f0  e47b              B        |L5.234|
                  |L5.2034|
0007f2  f6400176          MOV      r1,#0x876             ;2013
0007f6  f8df8024          LDR      r8,|L5.2076|
0007fa  f7fffffe          BL       WM_GetDialogItem
0007fe  4607              MOV      r7,r0                 ;2013
000800  f06f4170          MVN      r1,#0xf0000000        ;2014
000804  4638              MOV      r0,r7                 ;2014
000806  f7fffffe          BL       TEXT_SetBkColor
00080a  f06f417f          MVN      r1,#0xff000000        ;2015
00080e  4638              MOV      r0,r7                 ;2015
000810  f7fffffe          BL       TEXT_SetTextColor
000814  f6400172          MOV      r1,#0x872             ;2017
000818  e00a              B        |L5.2096|
00081a  0000              DCW      0x0000
                  |L5.2076|
                          DCD      ||.data||
                  |L5.2080|
                          DCD      set_limit
                  |L5.2084|
                          DCD      0x00bfffff
                  |L5.2088|
                          DCD      set_sw
                  |L5.2092|
                          DCD      Run_Control
                  |L5.2096|
000830  f8d80018          LDR      r0,[r8,#0x18]         ;2017  ; hWincdc
000834  f7fffffe          BL       WM_GetDialogItem
000838  4607              MOV      r7,r0                 ;2017
00083a  4908              LDR      r1,|L5.2140|
00083c  4638              MOV      r0,r7                 ;2018
00083e  f7fffffe          BL       TEXT_SetBkColor
000842  2100              MOVS     r1,#0                 ;2019
000844  4638              MOV      r0,r7                 ;2019
000846  f7fffffe          BL       TEXT_SetTextColor
00084a  4905              LDR      r1,|L5.2144|
00084c  2024              MOVS     r0,#0x24              ;2021
00084e  7008              STRB     r0,[r1,#0]            ;2021
000850  702c              STRB     r4,[r5,#0]            ;2022
000852  2000              MOVS     r0,#0                 ;2023
000854  7030              STRB     r0,[r6,#0]            ;2023
000856  f7fffffe          BL       Write_Limits
00085a  e446              B        |L5.234|
;;;2030   
                          ENDP

                  |L5.2140|
                          DCD      0x00bfffff
                  |L5.2144|
                          DCD      set_sw

                          AREA ||i.CreateCDC||, CODE, READONLY, ALIGN=2

                  CreateCDC PROC
;;;1054   WM_HWIN CreateCDC(void);
;;;1055   WM_HWIN CreateCDC(void) {
000000  b51c              PUSH     {r2-r4,lr}
;;;1056     page_sw = face_cdc;
000002  491b              LDR      r1,|L6.112|
000004  2001              MOVS     r0,#1
000006  7008              STRB     r0,[r1,#0]
;;;1057     set_sw = set_26;
000008  4a1a              LDR      r2,|L6.116|
00000a  2119              MOVS     r1,#0x19
00000c  7011              STRB     r1,[r2,#0]
;;;1058     pass = 0;
00000e  491a              LDR      r1,|L6.120|
000010  2400              MOVS     r4,#0
000012  700c              STRB     r4,[r1,#0]
;;;1059     track = face_cdc;
000014  4919              LDR      r1,|L6.124|
000016  7008              STRB     r0,[r1,#0]
;;;1060     SET_Voltage = opv1;
000018  4819              LDR      r0,|L6.128|
00001a  8fc1              LDRH     r1,[r0,#0x3e]  ; Run_Control
00001c  8041              STRH     r1,[r0,#2]
;;;1061     SET_Current = opc1;
00001e  f8b01044          LDRH     r1,[r0,#0x44]  ; Run_Control
000022  8081              STRH     r1,[r0,#4]
;;;1062     SET_Current_Laod = cdc_dc;
000024  f8b01052          LDRH     r1,[r0,#0x52]  ; Run_Control
000028  8101              STRH     r1,[r0,#8]
;;;1063     load_sw = load_off;
00002a  4816              LDR      r0,|L6.132|
00002c  7004              STRB     r4,[r0,#0]
;;;1064     pow_sw = pow_off;
00002e  4816              LDR      r0,|L6.136|
000030  7004              STRB     r4,[r0,#0]
;;;1065     TM1650_SET_LED(0x68,0x70);
000032  2170              MOVS     r1,#0x70
000034  2068              MOVS     r0,#0x68
000036  f7fffffe          BL       TM1650_SET_LED
;;;1066     GPIO_ResetBits(GPIOD,GPIO_Pin_12);//
00003a  f44f5180          MOV      r1,#0x1000
00003e  4813              LDR      r0,|L6.140|
000040  f7fffffe          BL       GPIO_ResetBits
;;;1067     GPIO_ResetBits(GPIOB,GPIO_Pin_13);
000044  f44f5100          MOV      r1,#0x2000
000048  4811              LDR      r0,|L6.144|
00004a  f7fffffe          BL       GPIO_ResetBits
;;;1068       GPIO_SetBits(GPIOC,GPIO_Pin_1);//OFF
00004e  2102              MOVS     r1,#2
000050  4810              LDR      r0,|L6.148|
000052  f7fffffe          BL       GPIO_SetBits
;;;1069   //  double_sw = face_cdc;
;;;1070     hWincdc = GUI_CreateDialogBox(_aDialogCreate4, GUI_COUNTOF(_aDialogCreate4), _cbDialog, WM_HBKWIN, 0, 0);
000056  f7fffffe          BL       WM_GetDesktopWindow
00005a  4603              MOV      r3,r0
00005c  9400              STR      r4,[sp,#0]
00005e  4a0e              LDR      r2,|L6.152|
000060  2127              MOVS     r1,#0x27
000062  480e              LDR      r0,|L6.156|
000064  9401              STR      r4,[sp,#4]
000066  f7fffffe          BL       GUI_CreateDialogBox
00006a  490d              LDR      r1,|L6.160|
00006c  6188              STR      r0,[r1,#0x18]  ; hWincdc
;;;1071     return hWincdc;
;;;1072   }
00006e  bd1c              POP      {r2-r4,pc}
;;;1073   
                          ENDP

                  |L6.112|
                          DCD      page_sw
                  |L6.116|
                          DCD      set_sw
                  |L6.120|
                          DCD      pass
                  |L6.124|
                          DCD      track
                  |L6.128|
                          DCD      Run_Control
                  |L6.132|
                          DCD      load_sw
                  |L6.136|
                          DCD      pow_sw
                  |L6.140|
                          DCD      0x40020c00
                  |L6.144|
                          DCD      0x40020400
                  |L6.148|
                          DCD      0x40020800
                  |L6.152|
                          DCD      _cbDialog
                  |L6.156|
                          DCD      ||.constdata||
                  |L6.160|
                          DCD      ||.data||

                          AREA ||i.INPUT_CDC||, CODE, READONLY, ALIGN=2

                          REQUIRE _printf_pre_padding
                          REQUIRE _printf_percent
                          REQUIRE _printf_widthprec
                          REQUIRE _printf_d
                          REQUIRE _printf_int_dec
                  INPUT_CDC PROC
;;;2032              
;;;2033   void INPUT_CDC(char* num){
000000  e92d4ff1          PUSH     {r0,r4-r11,lr}
000004  b082              SUB      sp,sp,#8
;;;2034       char loop_count[2];
;;;2035       switch(set_sw){
000006  48fa              LDR      r0,|L7.1008|
000008  7801              LDRB     r1,[r0,#0]  ; set_sw
;;;2036           case set_30:
;;;2037           {
;;;2038               WM_HWIN hItem;
;;;2039   //            WM_InvalidateWindow(hWincdc);
;;;2040               hItem = WM_GetDialogItem(hWincdc, ID_TEXT_54);
00000a  4afd              LDR      r2,|L7.1024|
00000c  391d              SUBS     r1,r1,#0x1d           ;2035
;;;2041               
;;;2042               switch(bit){
;;;2043                   case 1:
;;;2044                   {
;;;2045                       if(pow_step == step1)
;;;2046                       {
;;;2047                           opv1 = atoi(num) * 100;
00000e  4df9              LDR      r5,|L7.1012|
;;;2048                       }else if(pow_step == step2){
;;;2049                           opv2 = atoi(num) * 100;
;;;2050                       }else if(pow_step == step3){
;;;2051                           opv3 = atoi(num) * 100;
;;;2052                       }
;;;2053                       strcat(set_limit,num);            
000010  f8df93e4          LDR      r9,|L7.1016|
;;;2054                       TEXT_SetText(hItem,set_limit);
;;;2055                       bit = 2;
000014  2702              MOVS     r7,#2
;;;2056                       break;
;;;2057                   }
;;;2058                   case 2:
;;;2059                   {
;;;2060                       strcat(set_limit,num);            
;;;2061                       TEXT_SetText(hItem,set_limit);
;;;2062                       if(set_limit[1] == 0x2e)//判断输入是否为小数点
;;;2063                       {
;;;2064                           dot_flag = 1;
;;;2065                       }else{
;;;2066                           if(pow_step == step1)
;;;2067                           {
;;;2068                               opv1 = opv1 * 10 + atoi(num) * 100;
;;;2069                           }else if(pow_step == step2){
;;;2070                               opv2 = opv2 * 10 + atoi(num) * 100;
;;;2071                           }else if(pow_step == step3){
;;;2072                              opv3 = opv3 * 10 + atoi(num) * 100;
;;;2073                           }
;;;2074                           
;;;2075                       }
;;;2076                       bit = 3;
;;;2077                       break;
;;;2078                   }
;;;2079                   case 3:
;;;2080                   {
;;;2081                       strcat(set_limit,num);
;;;2082                       TEXT_SetText(hItem,set_limit);
;;;2083                       if(dot_flag == 0)
;;;2084                       {
;;;2085                           if(set_limit[2] == 0x2e)//判断输入是否为小数点
;;;2086                           {                            
;;;2087                               dot_flag = 2;
;;;2088                           }else{
;;;2089                               if(pow_step == step1)
;;;2090                               {
;;;2091                                  opv1 = /*3000*/ 6000;
;;;2092                               }else if(pow_step == step2){
;;;2093                                   opv2 = /*3000*/ 6000;
;;;2094                               }else if(pow_step == step3){
;;;2095                                  opv3 =  /*3000*/ 6000;
;;;2096                               }
;;;2097                               
;;;2098                           }
;;;2099                       }else{
;;;2100                           if(pow_step == step1)
;;;2101                               {
;;;2102                                  opv1 = opv1 + atoi(num) * 10;
;;;2103                               }else if(pow_step == step2){
;;;2104                                   opv2 = opv2 + atoi(num) * 10;
;;;2105                               }else if(pow_step == step3){
;;;2106                                  opv3 = opv3 + atoi(num) * 10;
;;;2107                               }
;;;2108                           
;;;2109                       }
;;;2110                                          
;;;2111                       bit = 4;
;;;2112                       break;
;;;2113                   }
;;;2114                   case 4:
;;;2115                   {
;;;2116                       strcat(set_limit,num);
;;;2117                       TEXT_SetText(hItem,set_limit);
;;;2118                       if(dot_flag == 0)
;;;2119                       {
;;;2120                           if(pow_step == step1)
;;;2121                               {
;;;2122                                  opv1 = /*3000*/ 6000;
;;;2123                               }else if(pow_step == step2){
;;;2124                                   opv2 = /*3000*/ 6000;
;;;2125                               }else if(pow_step == step3){
;;;2126                                  opv3 =  /*3000*/ 6000;
;;;2127                               }
;;;2128                       }else if(dot_flag == 2){
;;;2129                           if(pow_step == step1)
;;;2130                               {
;;;2131                                  opv1 = opv1 + atoi(num) * 10;
;;;2132                               }else if(pow_step == step2){
;;;2133                                   opv2 = opv2 + atoi(num) * 10;
;;;2134                               }else if(pow_step == step3){
;;;2135                                  opv3 = opv3 + atoi(num) * 10;
;;;2136                               }
;;;2137                       }else{
;;;2138                           if(pow_step == step1)
;;;2139                               {
;;;2140                                  opv1 = opv1 + atoi(num);
;;;2141                               }else if(pow_step == step2){
;;;2142                                   opv2 = opv2 + atoi(num);
;;;2143                               }else if(pow_step == step3){
;;;2144                                  opv3 = opv3 + atoi(num);
;;;2145                               }
;;;2146   //                        cdc_cv = cdc_cv + atoi(num);
;;;2147                       }
;;;2148                                          
;;;2149                       bit = 5;
;;;2150                       break;
;;;2151                   }
;;;2152                   case 5:
;;;2153                   {
;;;2154                       strcat(set_limit,num);
;;;2155                       TEXT_SetText(hItem,set_limit);
;;;2156                       if(dot_flag == 0)
;;;2157                       {
;;;2158                           if(pow_step == step1)
;;;2159                               {
;;;2160                                  opv1 = /*3000*/ 6000;
;;;2161                               }else if(pow_step == step2){
;;;2162                                   opv2 = /*3000*/ 6000;
;;;2163                               }else if(pow_step == step3){
;;;2164                                  opv3 =  /*3000*/ 6000;
;;;2165                               }
;;;2166                       }else if(dot_flag == 1){
;;;2167                           if(pow_step == step1)
;;;2168                               {
;;;2169                                  opv1 = opv1;
;;;2170                               }else if(pow_step == step2){
;;;2171                                   opv2 =opv2;
;;;2172                               }else if(pow_step == step3){
;;;2173                                  opv3 =  opv3;
;;;2174                               }
;;;2175   //                        cdc_cv = cdc_cv;
;;;2176                       }else{
;;;2177                           if(pow_step == step1)
;;;2178                               {
;;;2179                                  opv1 = opv1 + atoi(num);
;;;2180                               }else if(pow_step == step2){
;;;2181                                   opv2 = opv2 + atoi(num);
;;;2182                               }else if(pow_step == step3){
;;;2183                                  opv3 = opv3 + atoi(num);
;;;2184                               }
;;;2185   //                        cdc_cv = cdc_cv + atoi(num);
;;;2186                       }
;;;2187                                          
;;;2188                       bit = 1;
;;;2189                       break;
;;;2190                   }
;;;2191               }
;;;2192               break;
;;;2193           }
;;;2194           case set_31:
;;;2195           {
;;;2196               WM_HWIN hItem;
;;;2197   //            WM_InvalidateWindow(hWincdc);
;;;2198               hItem = WM_GetDialogItem(hWincdc, ID_TEXT_55);
;;;2199               switch(bit){
;;;2200                   case 1:
;;;2201                   {
;;;2202                       if(cur_step == step1)
;;;2203                       {
;;;2204                           opc1 = atoi(num) * 1000;
;;;2205                       }else if(cur_step == step2){
;;;2206                           opc2 = atoi(num) * 1000;
;;;2207                       }else if(cur_step == step3){
;;;2208                           opc3 = atoi(num) * 1000;
;;;2209                       }
;;;2210                       strcat(set_limit,num);            
;;;2211                       TEXT_SetText(hItem,set_limit);
;;;2212                       bit = 2;
;;;2213                       break;
;;;2214                   }
;;;2215                   case 2:
;;;2216                   {
;;;2217                       strcat(set_limit,num);            
;;;2218                       TEXT_SetText(hItem,set_limit);
;;;2219                       if(set_limit[1] == 0x2e)//判断输入是否为小数点
;;;2220                       {
;;;2221                           dot_flag = 1;
;;;2222                       }else{
;;;2223                           if(cur_step == step1)
;;;2224                           {
;;;2225                               opc1 = opc1 * 10 + atoi(num) * 1000;
;;;2226                           }else if(cur_step == step2){
;;;2227                               opc2 = opc2 * 10 + atoi(num) * 1000;
;;;2228                           }else if(cur_step == step3){
;;;2229                               opc2 = opc2 * 10 + atoi(num) * 1000;
;;;2230                           }
;;;2231   //                        opc1 = opc1 * 10 + atoi(num) * 1000;
;;;2232                       }
;;;2233                       bit = 3;
;;;2234                       break;
;;;2235                   }
;;;2236                   case 3:
;;;2237                   {
;;;2238                       strcat(set_limit,num);
;;;2239                       TEXT_SetText(hItem,set_limit);
;;;2240                       if(dot_flag == 0)
;;;2241                       {
;;;2242                           if(set_limit[2] == 0x2e)//判断输入是否为小数点
;;;2243                           {                            
;;;2244                               dot_flag = 2;
;;;2245                           }else{
;;;2246                               if(cur_step == step1)
;;;2247                               {
;;;2248                                   opc1 = 5000;
;;;2249                               }else if(cur_step == step2){
;;;2250                                   opc2 = 5000;
;;;2251                               }else if(cur_step == step3){
;;;2252                                   opc3 = 5000;
;;;2253                               }
;;;2254                           }
;;;2255                       }else{
;;;2256   //                        opc1 = opc1 + atoi(num) * 100;
;;;2257                           if(cur_step == step1)
;;;2258                           {
;;;2259                               opc1 = opc1 + atoi(num) * 100;
;;;2260                           }else if(cur_step == step2){
;;;2261                               opc2 = opc2 + atoi(num) * 100;
;;;2262                           }else if(cur_step == step3){
;;;2263                               opc3 = opc3 + atoi(num) * 100;
;;;2264                           }
;;;2265                       }
;;;2266                                          
;;;2267                       bit = 4;
;;;2268                       break;
;;;2269                   }
;;;2270                   case 4:
;;;2271                   {
;;;2272                       strcat(set_limit,num);
;;;2273                       TEXT_SetText(hItem,set_limit);
;;;2274                       if(dot_flag == 0)
;;;2275                       {
;;;2276                           if(cur_step == step1)
;;;2277                           {
;;;2278                               opc1 = 5000;
;;;2279                           }else if(cur_step == step2){
;;;2280                               opc2 = 5000;
;;;2281                           }else if(cur_step == step3){
;;;2282                               opc3 = 5000;
;;;2283                           }
;;;2284                       }else if(dot_flag == 2){
;;;2285                           if(cur_step == step1)
;;;2286                           {
;;;2287                               opc1 = opc1 + atoi(num) * 100;
;;;2288                           }else if(cur_step == step2){
;;;2289                               opc2 = opc2 + atoi(num) * 100;
;;;2290                           }else if(cur_step == step3){
;;;2291                               opc3 = opc3 + atoi(num) * 100;
;;;2292                           }
;;;2293                       }else{
;;;2294                           if(cur_step == step1)
;;;2295                           {
;;;2296                               opc1 = opc1 + atoi(num) * 10;
;;;2297                           }else if(cur_step == step2){
;;;2298                               opc2 = opc2 + atoi(num) * 10;
;;;2299                           }else if(cur_step == step3){
;;;2300                               opc3 = opc3 + atoi(num) * 10;
;;;2301                           }
;;;2302                       }
;;;2303                                          
;;;2304                       bit = 5;
;;;2305                       break;
;;;2306                   }
;;;2307                   case 5:
;;;2308                   {
;;;2309                       strcat(set_limit,num);
;;;2310                       TEXT_SetText(hItem,set_limit);
;;;2311                       if(dot_flag == 0)
;;;2312                       {
;;;2313                          if(cur_step == step1)
;;;2314                           {
;;;2315                               opc1 = 5000;
;;;2316                           }else if(cur_step == step2){
;;;2317                               opc2 = 5000;
;;;2318                           }else if(cur_step == step3){
;;;2319                               opc3 = 5000;
;;;2320                           }
;;;2321                       }else if(dot_flag == 1){
;;;2322                           if(cur_step == step1)
;;;2323                           {
;;;2324                               opc1 = opc1;
;;;2325                           }else if(cur_step == step2){
;;;2326                               opc2 = opc2;
;;;2327                           }else if(cur_step == step3){
;;;2328                               opc3 = opc3;
;;;2329                           }
;;;2330                       }else{
;;;2331                          if(cur_step == step1)
;;;2332                           {
;;;2333                               opc1 = opc1 + atoi(num) * 10;
;;;2334                           }else if(cur_step == step2){
;;;2335                               opc2 = opc2 + atoi(num) * 10;
;;;2336                           }else if(cur_step == step3){
;;;2337                               opc3 = opc3 + atoi(num) * 10;
;;;2338                           }
;;;2339                       }
;;;2340                                          
;;;2341                       bit = 1;
;;;2342                       break;
;;;2343                   }
;;;2344               }
;;;2345               break;
;;;2346           }
;;;2347           case set_32:
;;;2348           {
;;;2349               WM_HWIN hItem;
;;;2350   //            WM_InvalidateWindow(hWincdc);
;;;2351               hItem = WM_GetDialogItem(hWincdc, ID_TEXT_56);
;;;2352               switch(bit){
;;;2353                   case 1:
;;;2354                   {
;;;2355                       cdc_dc = atoi(num) * 100;
;;;2356                       strcat(set_limit,num);            
;;;2357                       TEXT_SetText(hItem,set_limit);
;;;2358                       
;;;2359                       bit = 2;
;;;2360                       break;
;;;2361                   }
;;;2362                   case 2:
;;;2363                   {
;;;2364                       strcat(set_limit,num);            
;;;2365                       TEXT_SetText(hItem,set_limit);
;;;2366                       if(set_limit[1] == 0x2e)//判断输入是否为小数点
;;;2367                       {
;;;2368                           dot_flag = 1;
;;;2369                       }else{
;;;2370                           cdc_dc = cdc_dc * 10 + atoi(num) * 100;
;;;2371                       }
;;;2372                       bit = 3;
;;;2373                       break;
;;;2374                   }
;;;2375                   case 3:
;;;2376                   {
;;;2377                       strcat(set_limit,num);
;;;2378                       TEXT_SetText(hItem,set_limit);
;;;2379                       if(dot_flag == 0)
;;;2380                       {
;;;2381                           if(set_limit[2] == 0x2e)//判断输入是否为小数点
;;;2382                           {                            
;;;2383                               dot_flag = 2;
;;;2384                           }else{
;;;2385                               cdc_dc = 0;
;;;2386                           }
;;;2387                       }else{
;;;2388                           cdc_dc = cdc_dc + atoi(num) * 10;
;;;2389                       }                  
;;;2390                       bit = 4;
;;;2391                       break;
;;;2392                   }
;;;2393                   case 4:
;;;2394                   {
;;;2395                       strcat(set_limit,num);
;;;2396                       TEXT_SetText(hItem,set_limit);
;;;2397                       if(dot_flag == 0)
;;;2398                       {
;;;2399                           cdc_dc = 0;
;;;2400                       }else if(dot_flag == 2){
;;;2401                           cdc_dc = cdc_dc + atoi(num) * 10;
;;;2402                       }else{
;;;2403                           cdc_dc = cdc_dc + atoi(num);
;;;2404                       }                  
;;;2405                       bit = 5;
;;;2406                       break;
;;;2407                   }
;;;2408                   case 5:
;;;2409                   {
;;;2410                       strcat(set_limit,num);
;;;2411                       TEXT_SetText(hItem,set_limit);
;;;2412                       if(dot_flag == 0)
;;;2413                       {
;;;2414                           cdc_dc = 0;
;;;2415                       }else if(dot_flag == 1){
;;;2416                           cdc_dc = cdc_dc;
;;;2417                       }else{
;;;2418                           cdc_dc = cdc_dc + atoi(num);
;;;2419                       }                 
;;;2420                       bit = 1;
;;;2421                       break;
;;;2422                   }
;;;2423               }
;;;2424               break;
;;;2425           }
;;;2426           case set_33:
;;;2427           {
;;;2428               WM_HWIN hItem;
;;;2429   //            WM_InvalidateWindow(hWincdc);
;;;2430               hItem = WM_GetDialogItem(hWincdc, ID_TEXT_57);
;;;2431               switch(bit){
;;;2432                   case 1:
;;;2433                   {
;;;2434                       set_loop_count = atoi(num);                    
;;;2435                       sprintf(loop_count,"%2d",set_loop_count);
;;;2436                       TEXT_SetText(hItem,loop_count);
;;;2437                       bit = 2;
;;;2438                       break;
;;;2439                   }
;;;2440                   case 2:
;;;2441                   {
;;;2442                       set_loop_count = set_loop_count*10 + atoi(num);                    
;;;2443                       sprintf(loop_count,"%2d",set_loop_count);
;;;2444                       TEXT_SetText(hItem,loop_count);
;;;2445                       bit = 1;
;;;2446                       break;
;;;2447                   }                
;;;2448               }
;;;2449               break;
;;;2450           }
;;;2451           case set_38:
;;;2452           {
;;;2453               WM_HWIN hItem;
;;;2454   //            WM_InvalidateWindow(hWincdc);
;;;2455               hItem = WM_GetDialogItem(hWincdc, ID_TEXT_62);
;;;2456               switch(bit){
;;;2457                   case 1:
;;;2458                   {
;;;2459                       if(coffv_step == step1)
;;;2460                       {
;;;2461                           cov1 = atoi(num) * 100;
000016  f8dfa3e4          LDR      r10,|L7.1020|
00001a  4efa              LDR      r6,|L7.1028|
00001c  6990              LDR      r0,[r2,#0x18]         ;2035
00001e  f04f0801          MOV      r8,#1                 ;2064
000022  f2413488          MOV      r4,#0x1388            ;2248
;;;2462                       }else if(coffv_step == step2){
;;;2463                           cov2 = atoi(num) * 100;
;;;2464                       }else if(coffv_step == step3){
;;;2465                           cov3 = atoi(num) * 100;
;;;2466                       }
;;;2467   //                    set_c_cutoff_v = atoi(num) * 100;
;;;2468                       strcat(set_limit,num);            
;;;2469                       TEXT_SetText(hItem,set_limit);
;;;2470                       bit = 2;
;;;2471                       break;
;;;2472                   }
;;;2473                   case 2:
;;;2474                   {
;;;2475                       strcat(set_limit,num);            
;;;2476                       TEXT_SetText(hItem,set_limit);
;;;2477                       if(set_limit[1] == 0x2e)//判断输入是否为小数点
;;;2478                       {
;;;2479                           dot_flag = 1;
;;;2480                       }else{
;;;2481                           if(coffv_step == step1)
;;;2482                           {
;;;2483                               cov1 = cov1 * 10 + atoi(num) * 100;
;;;2484                           }else if(coffv_step == step2){
;;;2485                               cov2 = cov2 * 10 + atoi(num) * 100;
;;;2486                           }else if(coffv_step == step3){
;;;2487                               cov3 = cov3 * 10 + atoi(num) * 100;
;;;2488                           }
;;;2489   //                        cov1 = cov1 * 10 + atoi(num) * 100;
;;;2490                       }
;;;2491                       bit = 3;
;;;2492                       break;
;;;2493                   }
;;;2494                   case 3:
;;;2495                   {
;;;2496                       strcat(set_limit,num);
;;;2497                       TEXT_SetText(hItem,set_limit);
;;;2498                       if(dot_flag == 0)
;;;2499                       {
;;;2500                           if(set_limit[2] == 0x2e)//判断输入是否为小数点
;;;2501                           {                            
;;;2502                               dot_flag = 2;
;;;2503                           }else{
;;;2504                               if(coffv_step == step1)
;;;2505                               {
;;;2506                                   cov1 =1600;
000026  f44f6bc8          MOV      r11,#0x640
00002a  290c              CMP      r1,#0xc               ;2035
00002c  d246              BCS      |L7.188|
00002e  e8dff001          TBB      [pc,r1]               ;2035
000032  06fd              DCB      0x06,0xfd
000034  fcfb4545          DCB      0xfc,0xfb,0x45,0x45
000038  4545faf9          DCB      0x45,0x45,0xfa,0xf9
00003c  f8f7              DCB      0xf8,0xf7
00003e  f6400173          MOV      r1,#0x873             ;2040
000042  4692              MOV      r10,r2                ;2040
000044  f7fffffe          BL       WM_GetDialogItem
000048  9000              STR      r0,[sp,#0]            ;2040
00004a  f8dfb3bc          LDR      r11,|L7.1032|
00004e  f89b0000          LDRB     r0,[r11,#0]           ;2042  ; bit
000052  f2417470          MOV      r4,#0x1770            ;2091
000056  2806              CMP      r0,#6                 ;2042
000058  d230              BCS      |L7.188|
00005a  e8dff000          TBB      [pc,r0]               ;2042
00005e  2f03              DCB      0x2f,0x03
000060  3175c8e8          DCB      0x31,0x75,0xc8,0xe8
000064  f89a000b          LDRB     r0,[r10,#0xb]         ;2045  ; pow_step
000068  b140              CBZ      r0,|L7.124|
00006a  f89a000b          LDRB     r0,[r10,#0xb]         ;2048  ; pow_step
00006e  2801              CMP      r0,#1                 ;2048
000070  d00b              BEQ      |L7.138|
000072  f89a000b          LDRB     r0,[r10,#0xb]         ;2050  ; pow_step
000076  2802              CMP      r0,#2                 ;2050
000078  d00f              BEQ      |L7.154|
00007a  e015              B        |L7.168|
                  |L7.124|
00007c  9802              LDR      r0,[sp,#8]            ;2047
00007e  f7fffffe          BL       atoi
000082  2164              MOVS     r1,#0x64              ;2047
000084  4348              MULS     r0,r1,r0              ;2047
000086  87e8              STRH     r0,[r5,#0x3e]         ;2047
000088  e00e              B        |L7.168|
                  |L7.138|
00008a  9802              LDR      r0,[sp,#8]            ;2049
00008c  f7fffffe          BL       atoi
000090  2164              MOVS     r1,#0x64              ;2049
000092  4348              MULS     r0,r1,r0              ;2049
000094  f8a50040          STRH     r0,[r5,#0x40]         ;2049
000098  e006              B        |L7.168|
                  |L7.154|
00009a  9802              LDR      r0,[sp,#8]            ;2051
00009c  f7fffffe          BL       atoi
0000a0  2164              MOVS     r1,#0x64              ;2051
0000a2  4348              MULS     r0,r1,r0              ;2051
0000a4  f8a50042          STRH     r0,[r5,#0x42]         ;2051
                  |L7.168|
0000a8  48d3              LDR      r0,|L7.1016|
0000aa  9902              LDR      r1,[sp,#8]            ;2053
0000ac  f7fffffe          BL       strcat
0000b0  49d1              LDR      r1,|L7.1016|
0000b2  9800              LDR      r0,[sp,#0]            ;2054
0000b4  f7fffffe          BL       TEXT_SetText
0000b8  f88b7000          STRB     r7,[r11,#0]           ;2055
                  |L7.188|
;;;2507                               }else if(coffv_step == step2){
;;;2508                                   cov2 = 1600;
;;;2509                               }else if(coffv_step == step3){
;;;2510                                   cov3 = 1600;
;;;2511                               }
;;;2512   //                            set_c_cutoff_v = 1600;
;;;2513                           }
;;;2514                       }else{
;;;2515                               if(coffv_step == step1)
;;;2516                               {
;;;2517                                   cov1 = cov1 + atoi(num) * 10;
;;;2518                               }else if(coffv_step == step2){
;;;2519                                   cov2 = cov2 + atoi(num) * 10;
;;;2520                               }else if(coffv_step == step3){
;;;2521                                   cov3 = cov3 + atoi(num) * 10;
;;;2522                               }
;;;2523   //                        set_c_cutoff_v = set_c_cutoff_v + atoi(num) * 10;
;;;2524                       }
;;;2525                                          
;;;2526                       bit = 4;
;;;2527                       break;
;;;2528                   }
;;;2529                   case 4:
;;;2530                   {
;;;2531                       strcat(set_limit,num);
;;;2532                       TEXT_SetText(hItem,set_limit);
;;;2533                       if(dot_flag == 0)
;;;2534                       {
;;;2535                           if(coffv_step == step1)
;;;2536                           {
;;;2537                               cov1 =1600;
;;;2538                           }else if(coffv_step == step2){
;;;2539                               cov2 = 1600;
;;;2540                           }else if(coffv_step == step3){
;;;2541                               cov3 = 1600;
;;;2542                           }
;;;2543   //                        set_c_cutoff_v = 1600;
;;;2544                       }else if(dot_flag == 2){
;;;2545                           if(coffv_step == step1)
;;;2546                           {
;;;2547                               cov1 = cov1 + atoi(num) * 10;
;;;2548                           }else if(coffv_step == step2){
;;;2549                               cov2 = cov2 + atoi(num) * 10;
;;;2550                           }else if(coffv_step == step3){
;;;2551                               cov3 = cov3 + atoi(num) * 10;
;;;2552                           }
;;;2553   //                        set_c_cutoff_v = set_c_cutoff_v + atoi(num) * 10;
;;;2554                       }else{
;;;2555                           if(coffv_step == step1)
;;;2556                           {
;;;2557                               cov1 = cov1 + atoi(num);
;;;2558                           }else if(coffv_step == step2){
;;;2559                               cov2 = cov2 + atoi(num);
;;;2560                           }else if(coffv_step == step3){
;;;2561                               cov3 = cov3 + atoi(num);
;;;2562                           }
;;;2563   //                        set_c_cutoff_v = set_c_cutoff_v + atoi(num);
;;;2564                       }
;;;2565                                          
;;;2566                       bit = 5;
;;;2567                       break;
;;;2568                   }
;;;2569                   case 5:
;;;2570                   {   
;;;2571                       strcat(set_limit,num);
;;;2572                       TEXT_SetText(hItem,set_limit);
;;;2573                       if(dot_flag == 0)
;;;2574                       {
;;;2575                           if(coffv_step == step1)
;;;2576                           {
;;;2577                               cov1 =1600;
;;;2578                           }else if(coffv_step == step2){
;;;2579                               cov2 = 1600;
;;;2580                           }else if(coffv_step == step3){
;;;2581                               cov3 = 1600;
;;;2582                           }
;;;2583   //                        set_c_cutoff_v = 1600;
;;;2584                       }else if(dot_flag == 1){
;;;2585                           if(coffv_step == step1)
;;;2586                           {
;;;2587                               cov1 =cov1;
;;;2588                           }else if(coffv_step == step2){
;;;2589                               cov2 = cov2;
;;;2590                           }else if(coffv_step == step3){
;;;2591                               cov3 = cov3;
;;;2592                           }
;;;2593   //                        set_c_cutoff_v = set_c_cutoff_v;
;;;2594                       }else{
;;;2595                           if(coffv_step == step1)
;;;2596                           {
;;;2597                               cov1 = cov1 + atoi(num);
;;;2598                           }else if(coffv_step == step2){
;;;2599                               cov2 = cov2 + atoi(num);
;;;2600                           }else if(coffv_step == step3){
;;;2601                               cov3 = cov3 + atoi(num);
;;;2602                           }
;;;2603   //                        set_c_cutoff_v = set_c_cutoff_v + atoi(num);
;;;2604                       }
;;;2605                                          
;;;2606                       bit = 1;
;;;2607                       break;
;;;2608                   }
;;;2609               }
;;;2610               break;
;;;2611           }
;;;2612           case set_39:
;;;2613           {
;;;2614               WM_HWIN hItem;
;;;2615   //            WM_InvalidateWindow(hWincdc);
;;;2616               hItem = WM_GetDialogItem(hWincdc, ID_TEXT_63);
;;;2617               switch(bit){
;;;2618                   case 1:
;;;2619                   {
;;;2620                       if(coffc_step == step1)
;;;2621                       {
;;;2622                           coc1 = atoi(num) * 1000;
;;;2623                       }else if(coffc_step == step2){
;;;2624                           coc2 = atoi(num) * 1000;
;;;2625                       }else if(coffc_step == step3){
;;;2626                           coc3 = atoi(num) * 1000;
;;;2627                       }  
;;;2628   //                    set_c_cutoff_c = atoi(num) * 100;
;;;2629                       strcat(set_limit,num);            
;;;2630                       TEXT_SetText(hItem,set_limit);
;;;2631                       bit = 2;
;;;2632                       break;
;;;2633                   }
;;;2634                   case 2:
;;;2635                   {
;;;2636                       strcat(set_limit,num);            
;;;2637                       TEXT_SetText(hItem,set_limit);
;;;2638                       if(set_limit[1] == 0x2e)//判断输入是否为小数点
;;;2639                       {
;;;2640                           dot_flag = 1;
;;;2641                       }else{
;;;2642                           if(coffc_step == step1)
;;;2643                           {
;;;2644                               coc1 = coc1 * 10 + atoi(num) * 1000;
;;;2645                           }else if(coffc_step == step2){
;;;2646                               coc2 = coc2 * 10 + atoi(num) * 1000;
;;;2647                           }else if(coffc_step == step3){
;;;2648                               coc3 = coc3 * 10 + atoi(num) * 1000;
;;;2649                           }
;;;2650   //                        coc1 = coc1 * 10 + atoi(num) * 100;
;;;2651                       }
;;;2652                       bit = 3;
;;;2653                       break;
;;;2654                   }
;;;2655                   case 3:
;;;2656                   {
;;;2657                       strcat(set_limit,num);
;;;2658                       TEXT_SetText(hItem,set_limit);
;;;2659                       if(dot_flag == 0)
;;;2660                       {
;;;2661                           if(set_limit[2] == 0x2e)//判断输入是否为小数点
;;;2662                           {                            
;;;2663                               dot_flag = 2;
;;;2664                           }else{
;;;2665                               if(coffc_step == step1)
;;;2666                               {
;;;2667                                   coc1 =5000;
;;;2668                               }else if(coffc_step == step2){
;;;2669                                   coc2 = 5000;
;;;2670                               }else if(coffc_step == step3){
;;;2671                                   coc3 = 5000;
;;;2672                               } 
;;;2673   //                            set_c_cutoff_c = 500;
;;;2674                           }
;;;2675                       }else{
;;;2676                           if(coffc_step == step1)
;;;2677                           {
;;;2678                               coc1 = coc1 + atoi(num) * 100;
;;;2679                           }else if(coffc_step == step2){
;;;2680                               coc2 = coc2 + atoi(num) * 100;
;;;2681                           }else if(coffc_step == step3){
;;;2682                               coc3 = coc3 + atoi(num) * 100;
;;;2683                           }
;;;2684   //                        set_c_cutoff_c = set_c_cutoff_c + atoi(num) * 10;
;;;2685                       }
;;;2686                                          
;;;2687                       bit = 4;
;;;2688                       break;
;;;2689                   }
;;;2690                   case 4:
;;;2691                   {
;;;2692                       strcat(set_limit,num);
;;;2693                       TEXT_SetText(hItem,set_limit);
;;;2694                       if(dot_flag == 0)
;;;2695                       {
;;;2696                           if(coffc_step == step1)
;;;2697                           {
;;;2698                               coc1 =5000;
;;;2699                           }else if(coffc_step == step2){
;;;2700                               coc2 = 5000;
;;;2701                           }else if(coffc_step == step3){
;;;2702                               coc3 = 5000;
;;;2703                           } 
;;;2704   //                        set_c_cutoff_c = 500;
;;;2705                       }else if(dot_flag == 2){
;;;2706                           if(coffc_step == step1)
;;;2707                           {
;;;2708                               coc1 = coc1 + atoi(num) * 100;
;;;2709                           }else if(coffc_step == step2){
;;;2710                               coc2 = coc2 + atoi(num) * 100;
;;;2711                           }else if(coffc_step == step3){
;;;2712                               coc3 = coc3 + atoi(num) * 100;
;;;2713                           }
;;;2714   //                        set_c_cutoff_c = set_c_cutoff_c + atoi(num) * 10;
;;;2715                       }else{
;;;2716                           if(coffc_step == step1)
;;;2717                           {
;;;2718                               coc1 = coc1 + atoi(num) * 10;
;;;2719                           }else if(coffc_step == step2){
;;;2720                               coc2 = coc2 + atoi(num) * 10;
;;;2721                           }else if(coffc_step == step3){
;;;2722                               coc3 = coc3 + atoi(num) * 10;
;;;2723                           }
;;;2724   //                        set_c_cutoff_c = set_c_cutoff_c + atoi(num);
;;;2725                       }
;;;2726                                          
;;;2727                       bit = 5;
;;;2728                       break;
;;;2729                   }
;;;2730                   case 5:
;;;2731                   {
;;;2732                       strcat(set_limit,num);
;;;2733                       TEXT_SetText(hItem,set_limit);
;;;2734                       if(dot_flag == 0)
;;;2735                       {
;;;2736                           if(coffc_step == step1)
;;;2737                           {
;;;2738                               coc1 = 5000;
;;;2739                           }else if(coffc_step == step2){
;;;2740                               coc2 = 5000;
;;;2741                           }else if(coffc_step == step3){
;;;2742                               coc3 = 5000;
;;;2743                           }
;;;2744   //                        set_c_cutoff_c = 500;
;;;2745                       }else if(dot_flag == 1){
;;;2746                           if(coffc_step == step1)
;;;2747                           {
;;;2748                               coc1 = coc1;
;;;2749                           }else if(coffc_step == step2){
;;;2750                               coc2 = coc2;
;;;2751                           }else if(coffc_step == step3){
;;;2752                               coc3 = coc3;
;;;2753                           }
;;;2754   //                        set_c_cutoff_c = set_c_cutoff_c;
;;;2755                       }else{
;;;2756                           if(coffc_step == step1)
;;;2757                           {
;;;2758                               coc1 = coc1 + atoi(num) * 10;
;;;2759                           }else if(coffc_step == step2){
;;;2760                               coc2 = coc2 + atoi(num) * 10;
;;;2761                           }else if(coffc_step == step3){
;;;2762                               coc3 = coc3 + atoi(num) * 10;
;;;2763                           }
;;;2764   //                        set_c_cutoff_c = set_c_cutoff_c + atoi(num);
;;;2765                       }
;;;2766                                          
;;;2767                       bit = 1;
;;;2768                       break;
;;;2769                   }
;;;2770               }
;;;2771               break;
;;;2772           }
;;;2773           case set_40:
;;;2774           {
;;;2775               WM_HWIN hItem;
;;;2776   //            WM_InvalidateWindow(hWincdc);
;;;2777               hItem = WM_GetDialogItem(hWincdc, ID_TEXT_64);
;;;2778               switch(bit){
;;;2779                   case 1:
;;;2780                   {
;;;2781                       set_dc_cutoff_v = atoi(num) * 100;
;;;2782                       strcat(set_limit,num);            
;;;2783                       TEXT_SetText(hItem,set_limit);
;;;2784                       bit = 2;
;;;2785                       break;
;;;2786                   }
;;;2787                   case 2:
;;;2788                   {
;;;2789                       strcat(set_limit,num);            
;;;2790                       TEXT_SetText(hItem,set_limit);
;;;2791                       if(set_limit[1] == 0x2e)//判断输入是否为小数点
;;;2792                       {
;;;2793                           dot_flag = 1;
;;;2794                       }else{
;;;2795                           set_dc_cutoff_v = set_dc_cutoff_v * 10 + atoi(num) * 100;
;;;2796                       }
;;;2797                       bit = 3;
;;;2798                       break;
;;;2799                   }
;;;2800                   case 3:
;;;2801                   {
;;;2802                       strcat(set_limit,num);
;;;2803                       TEXT_SetText(hItem,set_limit);
;;;2804                       if(dot_flag == 0)
;;;2805                       {
;;;2806                           if(set_limit[2] == 0x2e)//判断输入是否为小数点
;;;2807                           {                            
;;;2808                               dot_flag = 2;
;;;2809                           }else{
;;;2810                               set_dc_cutoff_v = 1600;
;;;2811                           }
;;;2812                       }else{
;;;2813                           set_dc_cutoff_v = set_dc_cutoff_v + atoi(num) * 10;
;;;2814                       }
;;;2815                                          
;;;2816                       bit = 4;
;;;2817                       break;
;;;2818                   }
;;;2819                   case 4:
;;;2820                   {
;;;2821                       strcat(set_limit,num);
;;;2822                       TEXT_SetText(hItem,set_limit);
;;;2823                       if(dot_flag == 0)
;;;2824                       {
;;;2825                           set_dc_cutoff_v = 1600;
;;;2826                       }else if(dot_flag == 2){
;;;2827                           set_dc_cutoff_v = set_dc_cutoff_v + atoi(num) * 10;
;;;2828                       }else{
;;;2829                           set_dc_cutoff_v = set_dc_cutoff_v + atoi(num);
;;;2830                       }
;;;2831                                          
;;;2832                       bit = 5;
;;;2833                       break;
;;;2834                   }
;;;2835                   case 5:
;;;2836                   {
;;;2837                       strcat(set_limit,num);
;;;2838                       TEXT_SetText(hItem,set_limit);
;;;2839                       if(dot_flag == 0)
;;;2840                       {
;;;2841                           set_dc_cutoff_v = 1600;
;;;2842                       }else if(dot_flag == 1){
;;;2843                           set_dc_cutoff_v = set_dc_cutoff_v;
;;;2844                       }else{
;;;2845                           set_dc_cutoff_v = set_dc_cutoff_v + atoi(num);
;;;2846                       }
;;;2847                                          
;;;2848                       bit = 1;
;;;2849                       break;
;;;2850                   }
;;;2851               }
;;;2852               break;
;;;2853           }
;;;2854           case set_41:
;;;2855           {
;;;2856               WM_HWIN hItem;
;;;2857   //            WM_InvalidateWindow(hWincdc);
;;;2858               hItem = WM_GetDialogItem(hWincdc, ID_TEXT_65);
;;;2859               switch(bit){
;;;2860                   case 1:
;;;2861                   {
;;;2862                       set_dc_cutoff_c = atoi(num) * 100;
;;;2863                       strcat(set_limit,num);            
;;;2864                       TEXT_SetText(hItem,set_limit);
;;;2865                       bit = 2;
;;;2866                       break;
;;;2867                   }
;;;2868                   case 2:
;;;2869                   {
;;;2870                       strcat(set_limit,num);            
;;;2871                       TEXT_SetText(hItem,set_limit);
;;;2872                       if(set_limit[1] == 0x2e)//判断输入是否为小数点
;;;2873                       {
;;;2874                           dot_flag = 1;
;;;2875                       }else{
;;;2876                           set_dc_cutoff_c = set_dc_cutoff_c * 10 + atoi(num) * 100;
;;;2877                       }
;;;2878                       bit = 3;
;;;2879                       break;
;;;2880                   }
;;;2881                   case 3:
;;;2882                   {
;;;2883                       strcat(set_limit,num);
;;;2884                       TEXT_SetText(hItem,set_limit);
;;;2885                       if(dot_flag == 0)
;;;2886                       {
;;;2887                           if(set_limit[2] == 0x2e)//判断输入是否为小数点
;;;2888                           {                            
;;;2889                               dot_flag = 2;
;;;2890                           }else{
;;;2891                               set_dc_cutoff_c = 1500;
;;;2892                           }
;;;2893                       }else{
;;;2894                           set_dc_cutoff_c = set_dc_cutoff_c + atoi(num) * 10;
;;;2895                       }
;;;2896                                          
;;;2897                       bit = 4;
;;;2898                       break;
;;;2899                   }
;;;2900                   case 4:
;;;2901                   {
;;;2902                       strcat(set_limit,num);
;;;2903                       TEXT_SetText(hItem,set_limit);
;;;2904                       if(dot_flag == 0)
;;;2905                       {
;;;2906                           set_dc_cutoff_c = 1500;
;;;2907                       }else if(dot_flag == 2){
;;;2908                           set_dc_cutoff_c = set_dc_cutoff_c + atoi(num) * 10;
;;;2909                       }else{
;;;2910                           set_dc_cutoff_c = set_dc_cutoff_c + atoi(num);
;;;2911                       }
;;;2912                                          
;;;2913                       bit = 5;
;;;2914                       break;
;;;2915                   }
;;;2916                   case 5:
;;;2917                   {
;;;2918                       strcat(set_limit,num);
;;;2919                       TEXT_SetText(hItem,set_limit);
;;;2920                       if(dot_flag == 0)
;;;2921                       {
;;;2922                           set_dc_cutoff_c = 1500;
;;;2923                       }else if(dot_flag == 1){
;;;2924                           set_dc_cutoff_c = set_dc_cutoff_c;
;;;2925                       }else{
;;;2926                           set_dc_cutoff_c = set_dc_cutoff_c + atoi(num);
;;;2927                       }
;;;2928                                          
;;;2929                       bit = 1;
;;;2930                       break;
;;;2931                   }
;;;2932               }
;;;2933               break;
;;;2934           }
;;;2935           
;;;2936       }    
;;;2937   }
0000bc  e8bd8ffe          POP      {r1-r11,pc}
0000c0  48cd              LDR      r0,|L7.1016|
0000c2  9902              LDR      r1,[sp,#8]            ;2060
0000c4  f7fffffe          BL       strcat
0000c8  49cb              LDR      r1,|L7.1016|
0000ca  9800              LDR      r0,[sp,#0]            ;2061
0000cc  f7fffffe          BL       TEXT_SetText
0000d0  f8990001          LDRB     r0,[r9,#1]            ;2062  ; set_limit
0000d4  282e              CMP      r0,#0x2e              ;2062
0000d6  d00b              BEQ      |L7.240|
0000d8  f89a000b          LDRB     r0,[r10,#0xb]         ;2066  ; pow_step
0000dc  b158              CBZ      r0,|L7.246|
0000de  f89a000b          LDRB     r0,[r10,#0xb]         ;2069  ; pow_step
0000e2  2801              CMP      r0,#1                 ;2069
0000e4  d013              BEQ      |L7.270|
0000e6  f89a000b          LDRB     r0,[r10,#0xb]         ;2071  ; pow_step
0000ea  2802              CMP      r0,#2                 ;2071
0000ec  d01c              BEQ      |L7.296|
0000ee  e027              B        |L7.320|
                  |L7.240|
0000f0  f8868000          STRB     r8,[r6,#0]            ;2064
0000f4  e024              B        |L7.320|
                  |L7.246|
0000f6  9802              LDR      r0,[sp,#8]            ;2068
0000f8  f7fffffe          BL       atoi
0000fc  2164              MOVS     r1,#0x64              ;2068
0000fe  4348              MULS     r0,r1,r0              ;2068
000100  8fe9              LDRH     r1,[r5,#0x3e]         ;2068  ; Run_Control
000102  eb010181          ADD      r1,r1,r1,LSL #2       ;2068
000106  eb000041          ADD      r0,r0,r1,LSL #1       ;2068
00010a  87e8              STRH     r0,[r5,#0x3e]         ;2068
00010c  e018              B        |L7.320|
                  |L7.270|
00010e  9802              LDR      r0,[sp,#8]            ;2070
000110  f7fffffe          BL       atoi
000114  2164              MOVS     r1,#0x64              ;2070
000116  4348              MULS     r0,r1,r0              ;2070
000118  f8351f40          LDRH     r1,[r5,#0x40]!        ;2070  ; Run_Control
00011c  eb010181          ADD      r1,r1,r1,LSL #2       ;2070
000120  eb000041          ADD      r0,r0,r1,LSL #1       ;2070
000124  8028              STRH     r0,[r5,#0]            ;2070
000126  e00b              B        |L7.320|
                  |L7.296|
000128  9802              LDR      r0,[sp,#8]            ;2072
00012a  f7fffffe          BL       atoi
00012e  2164              MOVS     r1,#0x64              ;2072
000130  4348              MULS     r0,r1,r0              ;2072
000132  f8351f42          LDRH     r1,[r5,#0x42]!        ;2072  ; Run_Control
000136  eb010181          ADD      r1,r1,r1,LSL #2       ;2072
00013a  eb000041          ADD      r0,r0,r1,LSL #1       ;2072
00013e  8028              STRH     r0,[r5,#0]            ;2072
                  |L7.320|
000140  2003              MOVS     r0,#3                 ;2076
000142  f88b0000          STRB     r0,[r11,#0]           ;2076
                  |L7.326|
000146  e7b9              B        |L7.188|
000148  48ab              LDR      r0,|L7.1016|
00014a  9902              LDR      r1,[sp,#8]            ;2081
00014c  f7fffffe          BL       strcat
000150  49a9              LDR      r1,|L7.1016|
000152  9800              LDR      r0,[sp,#0]            ;2082
000154  f7fffffe          BL       TEXT_SetText
000158  7830              LDRB     r0,[r6,#0]            ;2083  ; dot_flag
00015a  b158              CBZ      r0,|L7.372|
00015c  f89a000b          LDRB     r0,[r10,#0xb]         ;2100  ; pow_step
000160  b310              CBZ      r0,|L7.424|
000162  f89a000b          LDRB     r0,[r10,#0xb]         ;2103  ; pow_step
000166  2801              CMP      r0,#1                 ;2103
000168  d028              BEQ      |L7.444|
00016a  f89a000b          LDRB     r0,[r10,#0xb]         ;2105  ; pow_step
00016e  2802              CMP      r0,#2                 ;2105
000170  d02f              BEQ      |L7.466|
000172  e038              B        |L7.486|
                  |L7.372|
000174  f8990002          LDRB     r0,[r9,#2]            ;2085  ; set_limit
000178  282e              CMP      r0,#0x2e              ;2085
00017a  d00b              BEQ      |L7.404|
00017c  f89a000b          LDRB     r0,[r10,#0xb]         ;2089  ; pow_step
000180  b150              CBZ      r0,|L7.408|
000182  f89a000b          LDRB     r0,[r10,#0xb]         ;2092  ; pow_step
000186  2801              CMP      r0,#1                 ;2092
000188  d008              BEQ      |L7.412|
00018a  f89a000b          LDRB     r0,[r10,#0xb]         ;2094  ; pow_step
00018e  2802              CMP      r0,#2                 ;2094
000190  d007              BEQ      |L7.418|
000192  e028              B        |L7.486|
                  |L7.404|
000194  7037              STRB     r7,[r6,#0]            ;2087
000196  e026              B        |L7.486|
                  |L7.408|
000198  87ec              STRH     r4,[r5,#0x3e]         ;2091
00019a  e024              B        |L7.486|
                  |L7.412|
00019c  f8a54040          STRH     r4,[r5,#0x40]         ;2093
0001a0  e021              B        |L7.486|
                  |L7.418|
0001a2  f8a54042          STRH     r4,[r5,#0x42]         ;2095
0001a6  e01e              B        |L7.486|
                  |L7.424|
0001a8  9802              LDR      r0,[sp,#8]            ;2102
0001aa  f7fffffe          BL       atoi
0001ae  8fe9              LDRH     r1,[r5,#0x3e]         ;2102  ; Run_Control
0001b0  eb000080          ADD      r0,r0,r0,LSL #2       ;2102
0001b4  eb010040          ADD      r0,r1,r0,LSL #1       ;2102
0001b8  87e8              STRH     r0,[r5,#0x3e]         ;2102
0001ba  e014              B        |L7.486|
                  |L7.444|
0001bc  9802              LDR      r0,[sp,#8]            ;2104
0001be  f7fffffe          BL       atoi
0001c2  eb000180          ADD      r1,r0,r0,LSL #2       ;2104
0001c6  f8350f40          LDRH     r0,[r5,#0x40]!        ;2104  ; Run_Control
0001ca  eb000041          ADD      r0,r0,r1,LSL #1       ;2104
0001ce  8028              STRH     r0,[r5,#0]            ;2104
0001d0  e009              B        |L7.486|
                  |L7.466|
0001d2  9802              LDR      r0,[sp,#8]            ;2106
0001d4  f7fffffe          BL       atoi
0001d8  eb000180          ADD      r1,r0,r0,LSL #2       ;2106
0001dc  f8350f42          LDRH     r0,[r5,#0x42]!        ;2106  ; Run_Control
0001e0  eb000041          ADD      r0,r0,r1,LSL #1       ;2106
0001e4  8028              STRH     r0,[r5,#0]            ;2106
                  |L7.486|
0001e6  2004              MOVS     r0,#4                 ;2111
0001e8  f88b0000          STRB     r0,[r11,#0]           ;2111
                  |L7.492|
0001ec  e766              B        |L7.188|
0001ee  4882              LDR      r0,|L7.1016|
0001f0  9902              LDR      r1,[sp,#8]            ;2116
0001f2  f7fffffe          BL       strcat
0001f6  4980              LDR      r1,|L7.1016|
0001f8  9800              LDR      r0,[sp,#0]            ;2117
0001fa  f7fffffe          BL       TEXT_SetText
0001fe  7830              LDRB     r0,[r6,#0]            ;2118  ; dot_flag
000200  b1b0              CBZ      r0,|L7.560|
000202  7830              LDRB     r0,[r6,#0]            ;2128  ; dot_flag
000204  2802              CMP      r0,#2                 ;2128
000206  d027              BEQ      |L7.600|
000208  f89a000b          LDRB     r0,[r10,#0xb]         ;2138  ; pow_step
00020c  b380              CBZ      r0,|L7.624|
00020e  f89a000b          LDRB     r0,[r10,#0xb]         ;2141  ; pow_step
000212  2801              CMP      r0,#1                 ;2141
000214  d054              BEQ      |L7.704|
000216  f89a000b          LDRB     r0,[r10,#0xb]         ;2143  ; pow_step
00021a  2802              CMP      r0,#2                 ;2143
00021c  d058              BEQ      |L7.720|
00021e  e05e              B        |L7.734|
000220  e3f2              B        |L7.2568|
000222  e3f2              B        |L7.2570|
000224  e3f2              B        |L7.2572|
000226  e381              B        |L7.2348|
000228  e34f              B        |L7.2250|
00022a  e2a0              B        |L7.1902|
00022c  e0b9              B        |L7.930|
00022e  e05a              B        |L7.742|
                  |L7.560|
000230  f89a000b          LDRB     r0,[r10,#0xb]         ;2120  ; pow_step
000234  b140              CBZ      r0,|L7.584|
000236  f89a000b          LDRB     r0,[r10,#0xb]         ;2123  ; pow_step
00023a  2801              CMP      r0,#1                 ;2123
00023c  d006              BEQ      |L7.588|
00023e  f89a000b          LDRB     r0,[r10,#0xb]         ;2125  ; pow_step
000242  2802              CMP      r0,#2                 ;2125
000244  d005              BEQ      |L7.594|
000246  e04a              B        |L7.734|
                  |L7.584|
000248  87ec              STRH     r4,[r5,#0x3e]         ;2122
00024a  e048              B        |L7.734|
                  |L7.588|
00024c  f8a54040          STRH     r4,[r5,#0x40]         ;2124
000250  e045              B        |L7.734|
                  |L7.594|
000252  f8a54042          STRH     r4,[r5,#0x42]         ;2126
000256  e042              B        |L7.734|
                  |L7.600|
000258  f89a000b          LDRB     r0,[r10,#0xb]         ;2129  ; pow_step
00025c  b148              CBZ      r0,|L7.626|
00025e  f89a000b          LDRB     r0,[r10,#0xb]         ;2132  ; pow_step
000262  2801              CMP      r0,#1                 ;2132
000264  d00f              BEQ      |L7.646|
000266  f89a000b          LDRB     r0,[r10,#0xb]         ;2134  ; pow_step
00026a  2802              CMP      r0,#2                 ;2134
00026c  d016              BEQ      |L7.668|
00026e  e036              B        |L7.734|
                  |L7.624|
000270  e01f              B        |L7.690|
                  |L7.626|
000272  9802              LDR      r0,[sp,#8]            ;2131
000274  f7fffffe          BL       atoi
000278  8fe9              LDRH     r1,[r5,#0x3e]         ;2131  ; Run_Control
00027a  eb000080          ADD      r0,r0,r0,LSL #2       ;2131
00027e  eb010040          ADD      r0,r1,r0,LSL #1       ;2131
000282  87e8              STRH     r0,[r5,#0x3e]         ;2131
000284  e02b              B        |L7.734|
                  |L7.646|
000286  9802              LDR      r0,[sp,#8]            ;2133
000288  f7fffffe          BL       atoi
00028c  eb000180          ADD      r1,r0,r0,LSL #2       ;2133
000290  f8350f40          LDRH     r0,[r5,#0x40]!        ;2133  ; Run_Control
000294  eb000041          ADD      r0,r0,r1,LSL #1       ;2133
000298  8028              STRH     r0,[r5,#0]            ;2133
00029a  e020              B        |L7.734|
                  |L7.668|
00029c  9802              LDR      r0,[sp,#8]            ;2135
00029e  f7fffffe          BL       atoi
0002a2  eb000180          ADD      r1,r0,r0,LSL #2       ;2135
0002a6  f8350f42          LDRH     r0,[r5,#0x42]!        ;2135  ; Run_Control
0002aa  eb000041          ADD      r0,r0,r1,LSL #1       ;2135
0002ae  8028              STRH     r0,[r5,#0]            ;2135
0002b0  e015              B        |L7.734|
                  |L7.690|
0002b2  9802              LDR      r0,[sp,#8]            ;2140
0002b4  f7fffffe          BL       atoi
0002b8  8fe9              LDRH     r1,[r5,#0x3e]         ;2140  ; Run_Control
0002ba  4408              ADD      r0,r0,r1              ;2140
0002bc  87e8              STRH     r0,[r5,#0x3e]         ;2140
0002be  e00e              B        |L7.734|
                  |L7.704|
0002c0  9802              LDR      r0,[sp,#8]            ;2142
0002c2  f7fffffe          BL       atoi
0002c6  f8351f40          LDRH     r1,[r5,#0x40]!        ;2142  ; Run_Control
0002ca  4408              ADD      r0,r0,r1              ;2142
0002cc  8028              STRH     r0,[r5,#0]            ;2142
0002ce  e006              B        |L7.734|
                  |L7.720|
0002d0  9802              LDR      r0,[sp,#8]            ;2144
0002d2  f7fffffe          BL       atoi
0002d6  f8351f42          LDRH     r1,[r5,#0x42]!        ;2144  ; Run_Control
0002da  4408              ADD      r0,r0,r1              ;2144
0002dc  8028              STRH     r0,[r5,#0]            ;2144
                  |L7.734|
0002de  2005              MOVS     r0,#5                 ;2149
0002e0  f88b0000          STRB     r0,[r11,#0]           ;2149
                  |L7.740|
0002e4  e6ea              B        |L7.188|
                  |L7.742|
0002e6  4844              LDR      r0,|L7.1016|
0002e8  9902              LDR      r1,[sp,#8]            ;2154
0002ea  f7fffffe          BL       strcat
0002ee  4942              LDR      r1,|L7.1016|
0002f0  9800              LDR      r0,[sp,#0]            ;2155
0002f2  f7fffffe          BL       TEXT_SetText
0002f6  7830              LDRB     r0,[r6,#0]            ;2156  ; dot_flag
0002f8  b170              CBZ      r0,|L7.792|
0002fa  7830              LDRB     r0,[r6,#0]            ;2166  ; dot_flag
0002fc  2801              CMP      r0,#1                 ;2166
0002fe  d01f              BEQ      |L7.832|
000300  f89a000b          LDRB     r0,[r10,#0xb]         ;2177  ; pow_step
000304  b378              CBZ      r0,|L7.870|
000306  f89a000b          LDRB     r0,[r10,#0xb]         ;2180  ; pow_step
00030a  2801              CMP      r0,#1                 ;2180
00030c  d037              BEQ      |L7.894|
00030e  f89a000b          LDRB     r0,[r10,#0xb]         ;2182  ; pow_step
000312  2802              CMP      r0,#2                 ;2182
000314  d03b              BEQ      |L7.910|
000316  e041              B        |L7.924|
                  |L7.792|
000318  f89a000b          LDRB     r0,[r10,#0xb]         ;2158  ; pow_step
00031c  b140              CBZ      r0,|L7.816|
00031e  f89a000b          LDRB     r0,[r10,#0xb]         ;2161  ; pow_step
000322  2801              CMP      r0,#1                 ;2161
000324  d006              BEQ      |L7.820|
000326  f89a000b          LDRB     r0,[r10,#0xb]         ;2163  ; pow_step
00032a  2802              CMP      r0,#2                 ;2163
00032c  d005              BEQ      |L7.826|
00032e  e035              B        |L7.924|
                  |L7.816|
000330  87ec              STRH     r4,[r5,#0x3e]         ;2160
000332  e033              B        |L7.924|
                  |L7.820|
000334  f8a54040          STRH     r4,[r5,#0x40]         ;2162
000338  e030              B        |L7.924|
                  |L7.826|
00033a  f8a54042          STRH     r4,[r5,#0x42]         ;2164
00033e  e02d              B        |L7.924|
                  |L7.832|
000340  f89a000b          LDRB     r0,[r10,#0xb]         ;2167  ; pow_step
000344  b140              CBZ      r0,|L7.856|
000346  f89a000b          LDRB     r0,[r10,#0xb]         ;2170  ; pow_step
00034a  2801              CMP      r0,#1                 ;2170
00034c  d007              BEQ      |L7.862|
00034e  f89a000b          LDRB     r0,[r10,#0xb]         ;2172  ; pow_step
000352  2802              CMP      r0,#2                 ;2172
000354  d008              BEQ      |L7.872|
000356  e021              B        |L7.924|
                  |L7.856|
000358  8fe8              LDRH     r0,[r5,#0x3e]         ;2169  ; Run_Control
00035a  87e8              STRH     r0,[r5,#0x3e]         ;2169
00035c  e01e              B        |L7.924|
                  |L7.862|
00035e  f8350f40          LDRH     r0,[r5,#0x40]!        ;2171  ; Run_Control
000362  8028              STRH     r0,[r5,#0]            ;2171
000364  e01a              B        |L7.924|
                  |L7.870|
000366  e003              B        |L7.880|
                  |L7.872|
000368  f8350f42          LDRH     r0,[r5,#0x42]!        ;2173  ; Run_Control
00036c  8028              STRH     r0,[r5,#0]            ;2173
00036e  e015              B        |L7.924|
                  |L7.880|
000370  9802              LDR      r0,[sp,#8]            ;2179
000372  f7fffffe          BL       atoi
000376  8fe9              LDRH     r1,[r5,#0x3e]         ;2179  ; Run_Control
000378  4408              ADD      r0,r0,r1              ;2179
00037a  87e8              STRH     r0,[r5,#0x3e]         ;2179
00037c  e00e              B        |L7.924|
                  |L7.894|
00037e  9802              LDR      r0,[sp,#8]            ;2181
000380  f7fffffe          BL       atoi
000384  f8351f40          LDRH     r1,[r5,#0x40]!        ;2181  ; Run_Control
000388  4408              ADD      r0,r0,r1              ;2181
00038a  8028              STRH     r0,[r5,#0]            ;2181
00038c  e006              B        |L7.924|
                  |L7.910|
00038e  9802              LDR      r0,[sp,#8]            ;2183
000390  f7fffffe          BL       atoi
000394  f8351f42          LDRH     r1,[r5,#0x42]!        ;2183  ; Run_Control
000398  4408              ADD      r0,r0,r1              ;2183
00039a  8028              STRH     r0,[r5,#0]            ;2183
                  |L7.924|
00039c  f88b8000          STRB     r8,[r11,#0]           ;2188
0003a0  e68c              B        |L7.188|
                  |L7.930|
0003a2  f6400174          MOV      r1,#0x874             ;2198
0003a6  4692              MOV      r10,r2                ;2198
0003a8  f7fffffe          BL       WM_GetDialogItem
0003ac  9000              STR      r0,[sp,#0]            ;2198
0003ae  f8dfb058          LDR      r11,|L7.1032|
0003b2  f89b0000          LDRB     r0,[r11,#0]           ;2199  ; bit
0003b6  2806              CMP      r0,#6                 ;2199
0003b8  d294              BCS      |L7.740|
0003ba  e8dff000          TBB      [pc,r0]               ;2199
0003be  0304              DCB      0x03,0x04
0003c0  438be6fd          DCB      0x43,0x8b,0xe6,0xfd
0003c4  e67a              B        |L7.188|
0003c6  f89a000c          LDRB     r0,[r10,#0xc]         ;2202  ; cur_step
0003ca  b140              CBZ      r0,|L7.990|
0003cc  f89a000c          LDRB     r0,[r10,#0xc]         ;2205  ; cur_step
0003d0  2801              CMP      r0,#1                 ;2205
0003d2  d01b              BEQ      |L7.1036|
0003d4  f89a000c          LDRB     r0,[r10,#0xc]         ;2207  ; cur_step
0003d8  2802              CMP      r0,#2                 ;2207
0003da  d020              BEQ      |L7.1054|
0003dc  e027              B        |L7.1070|
                  |L7.990|
0003de  9802              LDR      r0,[sp,#8]            ;2204
0003e0  f7fffffe          BL       atoi
0003e4  f44f717a          MOV      r1,#0x3e8             ;2204
0003e8  4348              MULS     r0,r1,r0              ;2204
0003ea  f8a50044          STRH     r0,[r5,#0x44]         ;2204
0003ee  e01e              B        |L7.1070|
                  |L7.1008|
                          DCD      set_sw
                  |L7.1012|
                          DCD      Run_Control
                  |L7.1016|
                          DCD      set_limit
                  |L7.1020|
                          DCD      ||.bss||
                  |L7.1024|
                          DCD      ||.data||
                  |L7.1028|
                          DCD      dot_flag
                  |L7.1032|
                          DCD      bit
                  |L7.1036|
00040c  9802              LDR      r0,[sp,#8]            ;2206
00040e  f7fffffe          BL       atoi
000412  f44f717a          MOV      r1,#0x3e8             ;2206
000416  4348              MULS     r0,r1,r0              ;2206
000418  f8a50046          STRH     r0,[r5,#0x46]         ;2206
00041c  e007              B        |L7.1070|
                  |L7.1054|
00041e  9802              LDR      r0,[sp,#8]            ;2208
000420  f7fffffe          BL       atoi
000424  f44f717a          MOV      r1,#0x3e8             ;2208
000428  4348              MULS     r0,r1,r0              ;2208
00042a  f8a50048          STRH     r0,[r5,#0x48]         ;2208
                  |L7.1070|
00042e  48fe              LDR      r0,|L7.2088|
000430  9902              LDR      r1,[sp,#8]            ;2210
000432  f7fffffe          BL       strcat
000436  49fc              LDR      r1,|L7.2088|
000438  9800              LDR      r0,[sp,#0]            ;2211
00043a  f7fffffe          BL       TEXT_SetText
00043e  f88b7000          STRB     r7,[r11,#0]           ;2212
                  |L7.1090|
000442  e63b              B        |L7.188|
000444  48f8              LDR      r0,|L7.2088|
000446  9902              LDR      r1,[sp,#8]            ;2217
000448  f7fffffe          BL       strcat
00044c  49f6              LDR      r1,|L7.2088|
00044e  9800              LDR      r0,[sp,#0]            ;2218
000450  f7fffffe          BL       TEXT_SetText
000454  f8990001          LDRB     r0,[r9,#1]            ;2219  ; set_limit
000458  282e              CMP      r0,#0x2e              ;2219
00045a  d00b              BEQ      |L7.1140|
00045c  f89a000c          LDRB     r0,[r10,#0xc]         ;2223  ; cur_step
000460  b158              CBZ      r0,|L7.1146|
000462  f89a000c          LDRB     r0,[r10,#0xc]         ;2226  ; cur_step
000466  2801              CMP      r0,#1                 ;2226
000468  d015              BEQ      |L7.1174|
00046a  f89a000c          LDRB     r0,[r10,#0xc]         ;2228  ; cur_step
00046e  2802              CMP      r0,#2                 ;2228
000470  d01f              BEQ      |L7.1202|
000472  e02b              B        |L7.1228|
                  |L7.1140|
000474  f8868000          STRB     r8,[r6,#0]            ;2221
000478  e028              B        |L7.1228|
                  |L7.1146|
00047a  9802              LDR      r0,[sp,#8]            ;2225
00047c  f7fffffe          BL       atoi
000480  f44f717a          MOV      r1,#0x3e8             ;2225
000484  4348              MULS     r0,r1,r0              ;2225
000486  f8351f44          LDRH     r1,[r5,#0x44]!        ;2225  ; Run_Control
00048a  eb010181          ADD      r1,r1,r1,LSL #2       ;2225
00048e  eb000041          ADD      r0,r0,r1,LSL #1       ;2225
000492  8028              STRH     r0,[r5,#0]            ;2225
000494  e01a              B        |L7.1228|
                  |L7.1174|
000496  9802              LDR      r0,[sp,#8]            ;2227
000498  f7fffffe          BL       atoi
00049c  f44f717a          MOV      r1,#0x3e8             ;2227
0004a0  4348              MULS     r0,r1,r0              ;2227
0004a2  f8351f46          LDRH     r1,[r5,#0x46]!        ;2227  ; Run_Control
0004a6  eb010181          ADD      r1,r1,r1,LSL #2       ;2227
0004aa  eb000041          ADD      r0,r0,r1,LSL #1       ;2227
0004ae  8028              STRH     r0,[r5,#0]            ;2227
0004b0  e00c              B        |L7.1228|
                  |L7.1202|
0004b2  9802              LDR      r0,[sp,#8]            ;2229
0004b4  f7fffffe          BL       atoi
0004b8  f44f717a          MOV      r1,#0x3e8             ;2229
0004bc  4348              MULS     r0,r1,r0              ;2229
0004be  f8351f46          LDRH     r1,[r5,#0x46]!        ;2229  ; Run_Control
0004c2  eb010181          ADD      r1,r1,r1,LSL #2       ;2229
0004c6  eb000041          ADD      r0,r0,r1,LSL #1       ;2229
0004ca  8028              STRH     r0,[r5,#0]            ;2229
                  |L7.1228|
0004cc  2003              MOVS     r0,#3                 ;2233
0004ce  f88b0000          STRB     r0,[r11,#0]           ;2233
                  |L7.1234|
0004d2  e5f3              B        |L7.188|
0004d4  48d4              LDR      r0,|L7.2088|
0004d6  9902              LDR      r1,[sp,#8]            ;2238
0004d8  f7fffffe          BL       strcat
0004dc  49d2              LDR      r1,|L7.2088|
0004de  9800              LDR      r0,[sp,#0]            ;2239
0004e0  f7fffffe          BL       TEXT_SetText
0004e4  7830              LDRB     r0,[r6,#0]            ;2240  ; dot_flag
0004e6  b158              CBZ      r0,|L7.1280|
0004e8  f89a000c          LDRB     r0,[r10,#0xc]         ;2257  ; cur_step
0004ec  b318              CBZ      r0,|L7.1334|
0004ee  f89a000c          LDRB     r0,[r10,#0xc]         ;2260  ; cur_step
0004f2  2801              CMP      r0,#1                 ;2260
0004f4  d02c              BEQ      |L7.1360|
0004f6  f89a000c          LDRB     r0,[r10,#0xc]         ;2262  ; cur_step
0004fa  2802              CMP      r0,#2                 ;2262
0004fc  d035              BEQ      |L7.1386|
0004fe  e040              B        |L7.1410|
                  |L7.1280|
000500  f8990002          LDRB     r0,[r9,#2]            ;2242  ; set_limit
000504  282e              CMP      r0,#0x2e              ;2242
000506  d00b              BEQ      |L7.1312|
000508  f89a000c          LDRB     r0,[r10,#0xc]         ;2246  ; cur_step
00050c  b150              CBZ      r0,|L7.1316|
00050e  f89a000c          LDRB     r0,[r10,#0xc]         ;2249  ; cur_step
000512  2801              CMP      r0,#1                 ;2249
000514  d009              BEQ      |L7.1322|
000516  f89a000c          LDRB     r0,[r10,#0xc]         ;2251  ; cur_step
00051a  2802              CMP      r0,#2                 ;2251
00051c  d008              BEQ      |L7.1328|
00051e  e030              B        |L7.1410|
                  |L7.1312|
000520  7037              STRB     r7,[r6,#0]            ;2244
000522  e02e              B        |L7.1410|
                  |L7.1316|
000524  f8a54044          STRH     r4,[r5,#0x44]         ;2248
000528  e02b              B        |L7.1410|
                  |L7.1322|
00052a  f8a54046          STRH     r4,[r5,#0x46]         ;2250
00052e  e028              B        |L7.1410|
                  |L7.1328|
000530  f8a54048          STRH     r4,[r5,#0x48]         ;2252
000534  e025              B        |L7.1410|
                  |L7.1334|
000536  9802              LDR      r0,[sp,#8]            ;2259
000538  f7fffffe          BL       atoi
00053c  eb0001c0          ADD      r1,r0,r0,LSL #3       ;2259
000540  eb011000          ADD      r0,r1,r0,LSL #4       ;2259
000544  f8351f44          LDRH     r1,[r5,#0x44]!        ;2259  ; Run_Control
000548  eb010080          ADD      r0,r1,r0,LSL #2       ;2259
00054c  8028              STRH     r0,[r5,#0]            ;2259
00054e  e018              B        |L7.1410|
                  |L7.1360|
000550  9802              LDR      r0,[sp,#8]            ;2261
000552  f7fffffe          BL       atoi
000556  eb0001c0          ADD      r1,r0,r0,LSL #3       ;2261
00055a  eb011000          ADD      r0,r1,r0,LSL #4       ;2261
00055e  f8351f46          LDRH     r1,[r5,#0x46]!        ;2261  ; Run_Control
000562  eb010080          ADD      r0,r1,r0,LSL #2       ;2261
000566  8028              STRH     r0,[r5,#0]            ;2261
000568  e00b              B        |L7.1410|
                  |L7.1386|
00056a  9802              LDR      r0,[sp,#8]            ;2263
00056c  f7fffffe          BL       atoi
000570  eb0001c0          ADD      r1,r0,r0,LSL #3       ;2263
000574  eb011000          ADD      r0,r1,r0,LSL #4       ;2263
000578  f8351f48          LDRH     r1,[r5,#0x48]!        ;2263  ; Run_Control
00057c  eb010080          ADD      r0,r1,r0,LSL #2       ;2263
000580  8028              STRH     r0,[r5,#0]            ;2263
                  |L7.1410|
000582  2004              MOVS     r0,#4                 ;2267
000584  f88b0000          STRB     r0,[r11,#0]           ;2267
                  |L7.1416|
000588  e598              B        |L7.188|
00058a  48a7              LDR      r0,|L7.2088|
00058c  9902              LDR      r1,[sp,#8]            ;2272
00058e  f7fffffe          BL       strcat
000592  49a5              LDR      r1,|L7.2088|
000594  9800              LDR      r0,[sp,#0]            ;2273
000596  f7fffffe          BL       TEXT_SetText
00059a  7830              LDRB     r0,[r6,#0]            ;2274  ; dot_flag
00059c  b180              CBZ      r0,|L7.1472|
00059e  7830              LDRB     r0,[r6,#0]            ;2284  ; dot_flag
0005a0  2802              CMP      r0,#2                 ;2284
0005a2  d022              BEQ      |L7.1514|
0005a4  f89a000c          LDRB     r0,[r10,#0xc]         ;2294  ; cur_step
0005a8  b3c0              CBZ      r0,|L7.1564|
0005aa  f89a000c          LDRB     r0,[r10,#0xc]         ;2297  ; cur_step
0005ae  2801              CMP      r0,#1                 ;2297
0005b0  d05a              BEQ      |L7.1640|
0005b2  f89a000c          LDRB     r0,[r10,#0xc]         ;2299  ; cur_step
0005b6  e000              B        |L7.1466|
0005b8  e06f              B        |L7.1690|
                  |L7.1466|
0005ba  2802              CMP      r0,#2                 ;2299
0005bc  d05f              BEQ      |L7.1662|
0005be  e068              B        |L7.1682|
                  |L7.1472|
0005c0  f89a000c          LDRB     r0,[r10,#0xc]         ;2276  ; cur_step
0005c4  b140              CBZ      r0,|L7.1496|
0005c6  f89a000c          LDRB     r0,[r10,#0xc]         ;2279  ; cur_step
0005ca  2801              CMP      r0,#1                 ;2279
0005cc  d007              BEQ      |L7.1502|
0005ce  f89a000c          LDRB     r0,[r10,#0xc]         ;2281  ; cur_step
0005d2  2802              CMP      r0,#2                 ;2281
0005d4  d006              BEQ      |L7.1508|
0005d6  e05c              B        |L7.1682|
                  |L7.1496|
0005d8  f8a54044          STRH     r4,[r5,#0x44]         ;2278
0005dc  e059              B        |L7.1682|
                  |L7.1502|
0005de  f8a54046          STRH     r4,[r5,#0x46]         ;2280
0005e2  e056              B        |L7.1682|
                  |L7.1508|
0005e4  f8a54048          STRH     r4,[r5,#0x48]         ;2282
0005e8  e053              B        |L7.1682|
                  |L7.1514|
0005ea  f89a000c          LDRB     r0,[r10,#0xc]         ;2285  ; cur_step
0005ee  b140              CBZ      r0,|L7.1538|
0005f0  f89a000c          LDRB     r0,[r10,#0xc]         ;2288  ; cur_step
0005f4  2801              CMP      r0,#1                 ;2288
0005f6  d012              BEQ      |L7.1566|
0005f8  f89a000c          LDRB     r0,[r10,#0xc]         ;2290  ; cur_step
0005fc  2802              CMP      r0,#2                 ;2290
0005fe  d01b              BEQ      |L7.1592|
000600  e047              B        |L7.1682|
                  |L7.1538|
000602  9802              LDR      r0,[sp,#8]            ;2287
000604  f7fffffe          BL       atoi
000608  eb0001c0          ADD      r1,r0,r0,LSL #3       ;2287
00060c  eb011000          ADD      r0,r1,r0,LSL #4       ;2287
000610  f8351f44          LDRH     r1,[r5,#0x44]!        ;2287  ; Run_Control
000614  eb010080          ADD      r0,r1,r0,LSL #2       ;2287
000618  8028              STRH     r0,[r5,#0]            ;2287
00061a  e03a              B        |L7.1682|
                  |L7.1564|
00061c  e019              B        |L7.1618|
                  |L7.1566|
00061e  9802              LDR      r0,[sp,#8]            ;2289
000620  f7fffffe          BL       atoi
000624  eb0001c0          ADD      r1,r0,r0,LSL #3       ;2289
000628  eb011000          ADD      r0,r1,r0,LSL #4       ;2289
00062c  f8351f46          LDRH     r1,[r5,#0x46]!        ;2289  ; Run_Control
000630  eb010080          ADD      r0,r1,r0,LSL #2       ;2289
000634  8028              STRH     r0,[r5,#0]            ;2289
000636  e02c              B        |L7.1682|
                  |L7.1592|
000638  9802              LDR      r0,[sp,#8]            ;2291
00063a  f7fffffe          BL       atoi
00063e  eb0001c0          ADD      r1,r0,r0,LSL #3       ;2291
000642  eb011000          ADD      r0,r1,r0,LSL #4       ;2291
000646  f8351f48          LDRH     r1,[r5,#0x48]!        ;2291  ; Run_Control
00064a  eb010080          ADD      r0,r1,r0,LSL #2       ;2291
00064e  8028              STRH     r0,[r5,#0]            ;2291
000650  e01f              B        |L7.1682|
                  |L7.1618|
000652  9802              LDR      r0,[sp,#8]            ;2296
000654  f7fffffe          BL       atoi
000658  f8351f44          LDRH     r1,[r5,#0x44]!        ;2296  ; Run_Control
00065c  eb000080          ADD      r0,r0,r0,LSL #2       ;2296
000660  eb010040          ADD      r0,r1,r0,LSL #1       ;2296
000664  8028              STRH     r0,[r5,#0]            ;2296
000666  e014              B        |L7.1682|
                  |L7.1640|
000668  9802              LDR      r0,[sp,#8]            ;2298
00066a  f7fffffe          BL       atoi
00066e  f8351f46          LDRH     r1,[r5,#0x46]!        ;2298  ; Run_Control
000672  eb000080          ADD      r0,r0,r0,LSL #2       ;2298
000676  eb010040          ADD      r0,r1,r0,LSL #1       ;2298
00067a  8028              STRH     r0,[r5,#0]            ;2298
00067c  e009              B        |L7.1682|
                  |L7.1662|
00067e  9802              LDR      r0,[sp,#8]            ;2300
000680  f7fffffe          BL       atoi
000684  f8351f48          LDRH     r1,[r5,#0x48]!        ;2300  ; Run_Control
000688  eb000080          ADD      r0,r0,r0,LSL #2       ;2300
00068c  eb010040          ADD      r0,r1,r0,LSL #1       ;2300
000690  8028              STRH     r0,[r5,#0]            ;2300
                  |L7.1682|
000692  2005              MOVS     r0,#5                 ;2304
000694  f88b0000          STRB     r0,[r11,#0]           ;2304
                  |L7.1688|
000698  e510              B        |L7.188|
                  |L7.1690|
00069a  4863              LDR      r0,|L7.2088|
00069c  9902              LDR      r1,[sp,#8]            ;2309
00069e  f7fffffe          BL       strcat
0006a2  4961              LDR      r1,|L7.2088|
0006a4  9800              LDR      r0,[sp,#0]            ;2310
0006a6  f7fffffe          BL       TEXT_SetText
0006aa  7830              LDRB     r0,[r6,#0]            ;2311  ; dot_flag
0006ac  b170              CBZ      r0,|L7.1740|
0006ae  7830              LDRB     r0,[r6,#0]            ;2321  ; dot_flag
0006b0  2801              CMP      r0,#1                 ;2321
0006b2  d020              BEQ      |L7.1782|
0006b4  f89a000c          LDRB     r0,[r10,#0xc]         ;2331  ; cur_step
0006b8  b388              CBZ      r0,|L7.1822|
0006ba  f89a000c          LDRB     r0,[r10,#0xc]         ;2334  ; cur_step
0006be  2801              CMP      r0,#1                 ;2334
0006c0  d03d              BEQ      |L7.1854|
0006c2  f89a000c          LDRB     r0,[r10,#0xc]         ;2336  ; cur_step
0006c6  2802              CMP      r0,#2                 ;2336
0006c8  d044              BEQ      |L7.1876|
0006ca  e04d              B        |L7.1896|
                  |L7.1740|
0006cc  f89a000c          LDRB     r0,[r10,#0xc]         ;2313  ; cur_step
0006d0  b140              CBZ      r0,|L7.1764|
0006d2  f89a000c          LDRB     r0,[r10,#0xc]         ;2316  ; cur_step
0006d6  2801              CMP      r0,#1                 ;2316
0006d8  d007              BEQ      |L7.1770|
0006da  f89a000c          LDRB     r0,[r10,#0xc]         ;2318  ; cur_step
0006de  2802              CMP      r0,#2                 ;2318
0006e0  d006              BEQ      |L7.1776|
0006e2  e041              B        |L7.1896|
                  |L7.1764|
0006e4  f8a54044          STRH     r4,[r5,#0x44]         ;2315
0006e8  e03e              B        |L7.1896|
                  |L7.1770|
0006ea  f8a54046          STRH     r4,[r5,#0x46]         ;2317
0006ee  e03b              B        |L7.1896|
                  |L7.1776|
0006f0  f8a54048          STRH     r4,[r5,#0x48]         ;2319
0006f4  e038              B        |L7.1896|
                  |L7.1782|
0006f6  f89a000c          LDRB     r0,[r10,#0xc]         ;2322  ; cur_step
0006fa  b140              CBZ      r0,|L7.1806|
0006fc  f89a000c          LDRB     r0,[r10,#0xc]         ;2325  ; cur_step
000700  2801              CMP      r0,#1                 ;2325
000702  d008              BEQ      |L7.1814|
000704  f89a000c          LDRB     r0,[r10,#0xc]         ;2327  ; cur_step
000708  2802              CMP      r0,#2                 ;2327
00070a  d009              BEQ      |L7.1824|
00070c  e02c              B        |L7.1896|
                  |L7.1806|
00070e  f8350f44          LDRH     r0,[r5,#0x44]!        ;2324  ; Run_Control
000712  8028              STRH     r0,[r5,#0]            ;2324
000714  e028              B        |L7.1896|
                  |L7.1814|
000716  f8350f46          LDRH     r0,[r5,#0x46]!        ;2326  ; Run_Control
00071a  8028              STRH     r0,[r5,#0]            ;2326
00071c  e024              B        |L7.1896|
                  |L7.1822|
00071e  e003              B        |L7.1832|
                  |L7.1824|
000720  f8350f48          LDRH     r0,[r5,#0x48]!        ;2328  ; Run_Control
000724  8028              STRH     r0,[r5,#0]            ;2328
000726  e01f              B        |L7.1896|
                  |L7.1832|
000728  9802              LDR      r0,[sp,#8]            ;2333
00072a  f7fffffe          BL       atoi
00072e  f8351f44          LDRH     r1,[r5,#0x44]!        ;2333  ; Run_Control
000732  eb000080          ADD      r0,r0,r0,LSL #2       ;2333
000736  eb010040          ADD      r0,r1,r0,LSL #1       ;2333
00073a  8028              STRH     r0,[r5,#0]            ;2333
00073c  e014              B        |L7.1896|
                  |L7.1854|
00073e  9802              LDR      r0,[sp,#8]            ;2335
000740  f7fffffe          BL       atoi
000744  f8351f46          LDRH     r1,[r5,#0x46]!        ;2335  ; Run_Control
000748  eb000080          ADD      r0,r0,r0,LSL #2       ;2335
00074c  eb010040          ADD      r0,r1,r0,LSL #1       ;2335
000750  8028              STRH     r0,[r5,#0]            ;2335
000752  e009              B        |L7.1896|
                  |L7.1876|
000754  9802              LDR      r0,[sp,#8]            ;2337
000756  f7fffffe          BL       atoi
00075a  f8351f48          LDRH     r1,[r5,#0x48]!        ;2337  ; Run_Control
00075e  eb000080          ADD      r0,r0,r0,LSL #2       ;2337
000762  eb010040          ADD      r0,r1,r0,LSL #1       ;2337
000766  8028              STRH     r0,[r5,#0]            ;2337
                  |L7.1896|
000768  f88b8000          STRB     r8,[r11,#0]           ;2341
                  |L7.1900|
00076c  e4a6              B        |L7.188|
                  |L7.1902|
00076e  f6400175          MOV      r1,#0x875             ;2351
000772  f7fffffe          BL       WM_GetDialogItem
000776  4604              MOV      r4,r0                 ;2351
000778  f8dfa0b0          LDR      r10,|L7.2092|
00077c  f89a0000          LDRB     r0,[r10,#0]           ;2352  ; bit
000780  f04f0b00          MOV      r11,#0                ;2385
000784  2806              CMP      r0,#6                 ;2352
000786  d287              BCS      |L7.1688|
000788  e8dff000          TBB      [pc,r0]               ;2352
00078c  03041635          DCB      0x03,0x04,0x16,0x35
000790  5b81              DCB      0x5b,0x81
000792  e493              B        |L7.188|
000794  9802              LDR      r0,[sp,#8]            ;2355
000796  f7fffffe          BL       atoi
00079a  2164              MOVS     r1,#0x64              ;2355
00079c  4348              MULS     r0,r1,r0              ;2355
00079e  f8a50052          STRH     r0,[r5,#0x52]         ;2355
0007a2  4821              LDR      r0,|L7.2088|
0007a4  9902              LDR      r1,[sp,#8]            ;2356
0007a6  f7fffffe          BL       strcat
0007aa  491f              LDR      r1,|L7.2088|
0007ac  4620              MOV      r0,r4                 ;2357
0007ae  f7fffffe          BL       TEXT_SetText
0007b2  f88a7000          STRB     r7,[r10,#0]           ;2359
0007b6  e481              B        |L7.188|
0007b8  481b              LDR      r0,|L7.2088|
0007ba  9902              LDR      r1,[sp,#8]            ;2364
0007bc  f7fffffe          BL       strcat
0007c0  4919              LDR      r1,|L7.2088|
0007c2  4620              MOV      r0,r4                 ;2365
0007c4  f7fffffe          BL       TEXT_SetText
0007c8  f8990001          LDRB     r0,[r9,#1]            ;2366  ; set_limit
0007cc  282e              CMP      r0,#0x2e              ;2366
0007ce  d00f              BEQ      |L7.2032|
0007d0  9802              LDR      r0,[sp,#8]            ;2370
0007d2  f7fffffe          BL       atoi
0007d6  2164              MOVS     r1,#0x64              ;2370
0007d8  4348              MULS     r0,r1,r0              ;2370
0007da  f8351f52          LDRH     r1,[r5,#0x52]!        ;2370  ; Run_Control
0007de  eb010181          ADD      r1,r1,r1,LSL #2       ;2370
0007e2  eb000041          ADD      r0,r0,r1,LSL #1       ;2370
0007e6  8028              STRH     r0,[r5,#0]            ;2370
                  |L7.2024|
0007e8  2003              MOVS     r0,#3                 ;2372
0007ea  f88a0000          STRB     r0,[r10,#0]           ;2372
0007ee  e465              B        |L7.188|
                  |L7.2032|
0007f0  f8868000          STRB     r8,[r6,#0]            ;2368
0007f4  e7f8              B        |L7.2024|
0007f6  480c              LDR      r0,|L7.2088|
0007f8  9902              LDR      r1,[sp,#8]            ;2377
0007fa  f7fffffe          BL       strcat
0007fe  490a              LDR      r1,|L7.2088|
000800  4620              MOV      r0,r4                 ;2378
000802  f7fffffe          BL       TEXT_SetText
000806  7830              LDRB     r0,[r6,#0]            ;2379  ; dot_flag
000808  b190              CBZ      r0,|L7.2096|
00080a  9802              LDR      r0,[sp,#8]            ;2388
00080c  f7fffffe          BL       atoi
000810  f8351f52          LDRH     r1,[r5,#0x52]!        ;2388  ; Run_Control
000814  eb000080          ADD      r0,r0,r0,LSL #2       ;2388
000818  eb010040          ADD      r0,r1,r0,LSL #1       ;2388
00081c  8028              STRH     r0,[r5,#0]            ;2388
                  |L7.2078|
00081e  2004              MOVS     r0,#4                 ;2390
000820  f88a0000          STRB     r0,[r10,#0]           ;2390
                  |L7.2084|
000824  e44a              B        |L7.188|
000826  0000              DCW      0x0000
                  |L7.2088|
                          DCD      set_limit
                  |L7.2092|
                          DCD      bit
                  |L7.2096|
000830  f8990002          LDRB     r0,[r9,#2]            ;2381  ; set_limit
000834  282e              CMP      r0,#0x2e              ;2381
000836  d002              BEQ      |L7.2110|
000838  f8a5b052          STRH     r11,[r5,#0x52]        ;2385
00083c  e7ef              B        |L7.2078|
                  |L7.2110|
00083e  7037              STRB     r7,[r6,#0]            ;2383
000840  e7ed              B        |L7.2078|
000842  48f8              LDR      r0,|L7.3108|
000844  9902              LDR      r1,[sp,#8]            ;2395
000846  f7fffffe          BL       strcat
00084a  49f6              LDR      r1,|L7.3108|
00084c  4620              MOV      r0,r4                 ;2396
00084e  f7fffffe          BL       TEXT_SetText
000852  7830              LDRB     r0,[r6,#0]            ;2397  ; dot_flag
000854  b168              CBZ      r0,|L7.2162|
000856  7830              LDRB     r0,[r6,#0]            ;2400  ; dot_flag
000858  2802              CMP      r0,#2                 ;2400
00085a  d00d              BEQ      |L7.2168|
00085c  9802              LDR      r0,[sp,#8]            ;2403
00085e  f7fffffe          BL       atoi
000862  f8351f52          LDRH     r1,[r5,#0x52]!        ;2403  ; Run_Control
000866  4408              ADD      r0,r0,r1              ;2403
000868  8028              STRH     r0,[r5,#0]            ;2403
                  |L7.2154|
00086a  2005              MOVS     r0,#5                 ;2405
00086c  f88a0000          STRB     r0,[r10,#0]           ;2405
                  |L7.2160|
000870  e424              B        |L7.188|
                  |L7.2162|
000872  f8a5b052          STRH     r11,[r5,#0x52]        ;2399
000876  e7f8              B        |L7.2154|
                  |L7.2168|
000878  9802              LDR      r0,[sp,#8]            ;2401
00087a  f7fffffe          BL       atoi
00087e  f8351f52          LDRH     r1,[r5,#0x52]!        ;2401  ; Run_Control
000882  eb000080          ADD      r0,r0,r0,LSL #2       ;2401
000886  eb010040          ADD      r0,r1,r0,LSL #1       ;2401
00088a  8028              STRH     r0,[r5,#0]            ;2401
00088c  e7ed              B        |L7.2154|
00088e  48e5              LDR      r0,|L7.3108|
000890  9902              LDR      r1,[sp,#8]            ;2410
000892  f7fffffe          BL       strcat
000896  49e3              LDR      r1,|L7.3108|
000898  4620              MOV      r0,r4                 ;2411
00089a  f7fffffe          BL       TEXT_SetText
00089e  7830              LDRB     r0,[r6,#0]            ;2412  ; dot_flag
0008a0  b160              CBZ      r0,|L7.2236|
0008a2  7830              LDRB     r0,[r6,#0]            ;2415  ; dot_flag
0008a4  2801              CMP      r0,#1                 ;2415
0008a6  d00c              BEQ      |L7.2242|
0008a8  9802              LDR      r0,[sp,#8]            ;2418
0008aa  f7fffffe          BL       atoi
0008ae  f8351f52          LDRH     r1,[r5,#0x52]!        ;2418  ; Run_Control
0008b2  4408              ADD      r0,r0,r1              ;2418
0008b4  8028              STRH     r0,[r5,#0]            ;2418
                  |L7.2230|
0008b6  f88a8000          STRB     r8,[r10,#0]           ;2420
                  |L7.2234|
0008ba  e444              B        |L7.326|
                  |L7.2236|
0008bc  f8a5b052          STRH     r11,[r5,#0x52]        ;2414
0008c0  e7f9              B        |L7.2230|
                  |L7.2242|
0008c2  f8350f52          LDRH     r0,[r5,#0x52]!        ;2416  ; Run_Control
0008c6  8028              STRH     r0,[r5,#0]            ;2416
0008c8  e7f5              B        |L7.2230|
                  |L7.2250|
0008ca  f6400176          MOV      r1,#0x876             ;2430
0008ce  4615              MOV      r5,r2                 ;2430
0008d0  f7fffffe          BL       WM_GetDialogItem
0008d4  4604              MOV      r4,r0                 ;2430
0008d6  4ed4              LDR      r6,|L7.3112|
0008d8  7830              LDRB     r0,[r6,#0]            ;2431  ; bit
0008da  2801              CMP      r0,#1                 ;2431
0008dc  d017              BEQ      |L7.2318|
0008de  2802              CMP      r0,#2                 ;2431
0008e0  d1eb              BNE      |L7.2234|
0008e2  9802              LDR      r0,[sp,#8]            ;2442
0008e4  f7fffffe          BL       atoi
0008e8  4601              MOV      r1,r0                 ;2442
0008ea  7828              LDRB     r0,[r5,#0]            ;2442  ; set_loop_count
0008ec  eb000080          ADD      r0,r0,r0,LSL #2       ;2442
0008f0  eb010040          ADD      r0,r1,r0,LSL #1       ;2442
0008f4  7028              STRB     r0,[r5,#0]            ;2442
0008f6  782a              LDRB     r2,[r5,#0]            ;2443  ; set_loop_count
0008f8  a1cc              ADR      r1,|L7.3116|
0008fa  a801              ADD      r0,sp,#4              ;2443
0008fc  f7fffffe          BL       __2sprintf
000900  a901              ADD      r1,sp,#4              ;2444
000902  4620              MOV      r0,r4                 ;2444
000904  f7fffffe          BL       TEXT_SetText
000908  f8868000          STRB     r8,[r6,#0]            ;2445
                  |L7.2316|
00090c  e41b              B        |L7.326|
                  |L7.2318|
00090e  9802              LDR      r0,[sp,#8]            ;2434
000910  f7fffffe          BL       atoi
000914  7028              STRB     r0,[r5,#0]            ;2434
000916  782a              LDRB     r2,[r5,#0]            ;2435  ; set_loop_count
000918  a1c4              ADR      r1,|L7.3116|
00091a  a801              ADD      r0,sp,#4              ;2435
00091c  f7fffffe          BL       __2sprintf
000920  a901              ADD      r1,sp,#4              ;2436
000922  4620              MOV      r0,r4                 ;2436
000924  f7fffffe          BL       TEXT_SetText
000928  7037              STRB     r7,[r6,#0]            ;2437
                  |L7.2346|
00092a  e40c              B        |L7.326|
                  |L7.2348|
00092c  f640017b          MOV      r1,#0x87b             ;2455
000930  4614              MOV      r4,r2                 ;2455
000932  f7fffffe          BL       WM_GetDialogItem
000936  9000              STR      r0,[sp,#0]            ;2455
000938  4dbb              LDR      r5,|L7.3112|
00093a  7828              LDRB     r0,[r5,#0]            ;2456  ; bit
00093c  2806              CMP      r0,#6                 ;2456
00093e  d2bc              BCS      |L7.2234|
000940  e8dff000          TBB      [pc,r0]               ;2456
000944  03042e75          DCB      0x03,0x04,0x2e,0x75
000948  c6f7              DCB      0xc6,0xf7
00094a  e7b6              B        |L7.2234|
00094c  7b60              LDRB     r0,[r4,#0xd]          ;2459  ; coffv_step
00094e  b130              CBZ      r0,|L7.2398|
000950  7b60              LDRB     r0,[r4,#0xd]          ;2462  ; coffv_step
000952  2801              CMP      r0,#1                 ;2462
000954  d00b              BEQ      |L7.2414|
000956  7b60              LDRB     r0,[r4,#0xd]          ;2464  ; coffv_step
000958  2802              CMP      r0,#2                 ;2464
00095a  d010              BEQ      |L7.2430|
00095c  e016              B        |L7.2444|
                  |L7.2398|
00095e  9802              LDR      r0,[sp,#8]            ;2461
000960  f7fffffe          BL       atoi
000964  2164              MOVS     r1,#0x64              ;2461
000966  4348              MULS     r0,r1,r0              ;2461
000968  f8aa0000          STRH     r0,[r10,#0]           ;2461
00096c  e00e              B        |L7.2444|
                  |L7.2414|
00096e  9802              LDR      r0,[sp,#8]            ;2463
000970  f7fffffe          BL       atoi
000974  2164              MOVS     r1,#0x64              ;2463
000976  4348              MULS     r0,r1,r0              ;2463
000978  f8aa0002          STRH     r0,[r10,#2]           ;2463
00097c  e006              B        |L7.2444|
                  |L7.2430|
00097e  9802              LDR      r0,[sp,#8]            ;2465
000980  f7fffffe          BL       atoi
000984  2164              MOVS     r1,#0x64              ;2465
000986  4348              MULS     r0,r1,r0              ;2465
000988  f8aa0004          STRH     r0,[r10,#4]           ;2465
                  |L7.2444|
00098c  48a5              LDR      r0,|L7.3108|
00098e  9902              LDR      r1,[sp,#8]            ;2468
000990  f7fffffe          BL       strcat
000994  49a3              LDR      r1,|L7.3108|
000996  9800              LDR      r0,[sp,#0]            ;2469
000998  f7fffffe          BL       TEXT_SetText
00099c  702f              STRB     r7,[r5,#0]            ;2470
                  |L7.2462|
00099e  e425              B        |L7.492|
0009a0  48a0              LDR      r0,|L7.3108|
0009a2  9902              LDR      r1,[sp,#8]            ;2475
0009a4  f7fffffe          BL       strcat
0009a8  499e              LDR      r1,|L7.3108|
0009aa  9800              LDR      r0,[sp,#0]            ;2476
0009ac  f7fffffe          BL       TEXT_SetText
0009b0  f8990001          LDRB     r0,[r9,#1]            ;2477  ; set_limit
0009b4  282e              CMP      r0,#0x2e              ;2477
0009b6  d008              BEQ      |L7.2506|
0009b8  7b60              LDRB     r0,[r4,#0xd]          ;2481  ; coffv_step
0009ba  b148              CBZ      r0,|L7.2512|
0009bc  7b60              LDRB     r0,[r4,#0xd]          ;2484  ; coffv_step
0009be  2801              CMP      r0,#1                 ;2484
0009c0  d014              BEQ      |L7.2540|
0009c2  7b60              LDRB     r0,[r4,#0xd]          ;2486  ; coffv_step
0009c4  2802              CMP      r0,#2                 ;2486
0009c6  d022              BEQ      |L7.2574|
0009c8  e02e              B        |L7.2600|
                  |L7.2506|
0009ca  f8868000          STRB     r8,[r6,#0]            ;2479
0009ce  e02b              B        |L7.2600|
                  |L7.2512|
0009d0  9802              LDR      r0,[sp,#8]            ;2483
0009d2  f7fffffe          BL       atoi
0009d6  2164              MOVS     r1,#0x64              ;2483
0009d8  4348              MULS     r0,r1,r0              ;2483
0009da  f8ba1000          LDRH     r1,[r10,#0]           ;2483  ; coff
0009de  eb010181          ADD      r1,r1,r1,LSL #2       ;2483
0009e2  eb000041          ADD      r0,r0,r1,LSL #1       ;2483
0009e6  f8aa0000          STRH     r0,[r10,#0]           ;2483
0009ea  e01d              B        |L7.2600|
                  |L7.2540|
0009ec  9802              LDR      r0,[sp,#8]            ;2485
0009ee  f7fffffe          BL       atoi
0009f2  2164              MOVS     r1,#0x64              ;2485
0009f4  4348              MULS     r0,r1,r0              ;2485
0009f6  f8ba1002          LDRH     r1,[r10,#2]           ;2485  ; coff
0009fa  eb010181          ADD      r1,r1,r1,LSL #2       ;2485
0009fe  eb000041          ADD      r0,r0,r1,LSL #1       ;2485
000a02  f8aa0002          STRH     r0,[r10,#2]           ;2485
000a06  e00f              B        |L7.2600|
                  |L7.2568|
000a08  e3a9              B        |L7.4446|
                  |L7.2570|
000a0a  e304              B        |L7.4118|
                  |L7.2572|
000a0c  e138              B        |L7.3200|
                  |L7.2574|
000a0e  9802              LDR      r0,[sp,#8]            ;2487
000a10  f7fffffe          BL       atoi
000a14  2164              MOVS     r1,#0x64              ;2487
000a16  4348              MULS     r0,r1,r0              ;2487
000a18  f8ba1004          LDRH     r1,[r10,#4]           ;2487  ; coff
000a1c  eb010181          ADD      r1,r1,r1,LSL #2       ;2487
000a20  eb000041          ADD      r0,r0,r1,LSL #1       ;2487
000a24  f8aa0004          STRH     r0,[r10,#4]           ;2487
                  |L7.2600|
000a28  2003              MOVS     r0,#3                 ;2491
000a2a  7028              STRB     r0,[r5,#0]            ;2491
                  |L7.2604|
000a2c  e45a              B        |L7.740|
000a2e  487d              LDR      r0,|L7.3108|
000a30  9902              LDR      r1,[sp,#8]            ;2496
000a32  f7fffffe          BL       strcat
000a36  497b              LDR      r1,|L7.3108|
000a38  9800              LDR      r0,[sp,#0]            ;2497
000a3a  f7fffffe          BL       TEXT_SetText
000a3e  7830              LDRB     r0,[r6,#0]            ;2498  ; dot_flag
000a40  b140              CBZ      r0,|L7.2644|
000a42  7b60              LDRB     r0,[r4,#0xd]          ;2515  ; coffv_step
000a44  b1f0              CBZ      r0,|L7.2692|
000a46  7b60              LDRB     r0,[r4,#0xd]          ;2518  ; coffv_step
000a48  2801              CMP      r0,#1                 ;2518
000a4a  d027              BEQ      |L7.2716|
000a4c  7b60              LDRB     r0,[r4,#0xd]          ;2520  ; coffv_step
000a4e  2802              CMP      r0,#2                 ;2520
000a50  d030              BEQ      |L7.2740|
000a52  e03a              B        |L7.2762|
                  |L7.2644|
000a54  f8990002          LDRB     r0,[r9,#2]            ;2500  ; set_limit
000a58  282e              CMP      r0,#0x2e              ;2500
000a5a  d008              BEQ      |L7.2670|
000a5c  7b60              LDRB     r0,[r4,#0xd]          ;2504  ; coffv_step
000a5e  b140              CBZ      r0,|L7.2674|
000a60  7b60              LDRB     r0,[r4,#0xd]          ;2507  ; coffv_step
000a62  2801              CMP      r0,#1                 ;2507
000a64  d008              BEQ      |L7.2680|
000a66  7b60              LDRB     r0,[r4,#0xd]          ;2509  ; coffv_step
000a68  2802              CMP      r0,#2                 ;2509
000a6a  d008              BEQ      |L7.2686|
000a6c  e02d              B        |L7.2762|
                  |L7.2670|
000a6e  7037              STRB     r7,[r6,#0]            ;2502
000a70  e02b              B        |L7.2762|
                  |L7.2674|
000a72  f8aab000          STRH     r11,[r10,#0]          ;2506
000a76  e028              B        |L7.2762|
                  |L7.2680|
000a78  f8aab002          STRH     r11,[r10,#2]          ;2508
000a7c  e025              B        |L7.2762|
                  |L7.2686|
000a7e  f8aab004          STRH     r11,[r10,#4]          ;2510
000a82  e022              B        |L7.2762|
                  |L7.2692|
000a84  9802              LDR      r0,[sp,#8]            ;2517
000a86  f7fffffe          BL       atoi
000a8a  f8ba1000          LDRH     r1,[r10,#0]           ;2517  ; coff
000a8e  eb000080          ADD      r0,r0,r0,LSL #2       ;2517
000a92  eb010040          ADD      r0,r1,r0,LSL #1       ;2517
000a96  f8aa0000          STRH     r0,[r10,#0]           ;2517
000a9a  e016              B        |L7.2762|
                  |L7.2716|
000a9c  9802              LDR      r0,[sp,#8]            ;2519
000a9e  f7fffffe          BL       atoi
000aa2  f8ba1002          LDRH     r1,[r10,#2]           ;2519  ; coff
000aa6  eb000080          ADD      r0,r0,r0,LSL #2       ;2519
000aaa  eb010040          ADD      r0,r1,r0,LSL #1       ;2519
000aae  f8aa0002          STRH     r0,[r10,#2]           ;2519
000ab2  e00a              B        |L7.2762|
                  |L7.2740|
000ab4  9802              LDR      r0,[sp,#8]            ;2521
000ab6  f7fffffe          BL       atoi
000aba  f8ba1004          LDRH     r1,[r10,#4]           ;2521  ; coff
000abe  eb000080          ADD      r0,r0,r0,LSL #2       ;2521
000ac2  eb010040          ADD      r0,r1,r0,LSL #1       ;2521
000ac6  f8aa0004          STRH     r0,[r10,#4]           ;2521
                  |L7.2762|
000aca  2004              MOVS     r0,#4                 ;2526
000acc  7028              STRB     r0,[r5,#0]            ;2526
                  |L7.2766|
000ace  e409              B        |L7.740|
000ad0  4854              LDR      r0,|L7.3108|
000ad2  9902              LDR      r1,[sp,#8]            ;2531
000ad4  f7fffffe          BL       strcat
000ad8  4952              LDR      r1,|L7.3108|
000ada  9800              LDR      r0,[sp,#0]            ;2532
000adc  f7fffffe          BL       TEXT_SetText
000ae0  7830              LDRB     r0,[r6,#0]            ;2533  ; dot_flag
000ae2  b158              CBZ      r0,|L7.2812|
000ae4  7830              LDRB     r0,[r6,#0]            ;2544  ; dot_flag
000ae6  2802              CMP      r0,#2                 ;2544
000ae8  d01a              BEQ      |L7.2848|
000aea  7b60              LDRB     r0,[r4,#0xd]          ;2555  ; coffv_step
000aec  b3d0              CBZ      r0,|L7.2916|
000aee  7b60              LDRB     r0,[r4,#0xd]          ;2558  ; coffv_step
000af0  2801              CMP      r0,#1                 ;2558
000af2  d04d              BEQ      |L7.2960|
000af4  7b60              LDRB     r0,[r4,#0xd]          ;2560  ; coffv_step
000af6  2802              CMP      r0,#2                 ;2560
000af8  d053              BEQ      |L7.2978|
000afa  e05a              B        |L7.2994|
                  |L7.2812|
000afc  7b60              LDRB     r0,[r4,#0xd]          ;2535  ; coffv_step
000afe  b130              CBZ      r0,|L7.2830|
000b00  7b60              LDRB     r0,[r4,#0xd]          ;2538  ; coffv_step
000b02  2801              CMP      r0,#1                 ;2538
000b04  d006              BEQ      |L7.2836|
000b06  7b60              LDRB     r0,[r4,#0xd]          ;2540  ; coffv_step
000b08  2802              CMP      r0,#2                 ;2540
000b0a  d006              BEQ      |L7.2842|
000b0c  e051              B        |L7.2994|
                  |L7.2830|
000b0e  f8aab000          STRH     r11,[r10,#0]          ;2537
000b12  e04e              B        |L7.2994|
                  |L7.2836|
000b14  f8aab002          STRH     r11,[r10,#2]          ;2539
000b18  e04b              B        |L7.2994|
                  |L7.2842|
000b1a  f8aab004          STRH     r11,[r10,#4]          ;2541
000b1e  e048              B        |L7.2994|
                  |L7.2848|
000b20  7b60              LDRB     r0,[r4,#0xd]          ;2545  ; coffv_step
000b22  b138              CBZ      r0,|L7.2868|
000b24  7b60              LDRB     r0,[r4,#0xd]          ;2548  ; coffv_step
000b26  2801              CMP      r0,#1                 ;2548
000b28  d010              BEQ      |L7.2892|
000b2a  7b60              LDRB     r0,[r4,#0xd]          ;2550  ; coffv_step
000b2c  2802              CMP      r0,#2                 ;2550
000b2e  d01a              BEQ      |L7.2918|
000b30  e03f              B        |L7.2994|
000b32  e041              B        |L7.3000|
                  |L7.2868|
000b34  9802              LDR      r0,[sp,#8]            ;2547
000b36  f7fffffe          BL       atoi
000b3a  f8ba1000          LDRH     r1,[r10,#0]           ;2547  ; coff
000b3e  eb000080          ADD      r0,r0,r0,LSL #2       ;2547
000b42  eb010040          ADD      r0,r1,r0,LSL #1       ;2547
000b46  f8aa0000          STRH     r0,[r10,#0]           ;2547
000b4a  e032              B        |L7.2994|
                  |L7.2892|
000b4c  9802              LDR      r0,[sp,#8]            ;2549
000b4e  f7fffffe          BL       atoi
000b52  f8ba1002          LDRH     r1,[r10,#2]           ;2549  ; coff
000b56  eb000080          ADD      r0,r0,r0,LSL #2       ;2549
000b5a  eb010040          ADD      r0,r1,r0,LSL #1       ;2549
000b5e  f8aa0002          STRH     r0,[r10,#2]           ;2549
000b62  e026              B        |L7.2994|
                  |L7.2916|
000b64  e00b              B        |L7.2942|
                  |L7.2918|
000b66  9802              LDR      r0,[sp,#8]            ;2551
000b68  f7fffffe          BL       atoi
000b6c  f8ba1004          LDRH     r1,[r10,#4]           ;2551  ; coff
000b70  eb000080          ADD      r0,r0,r0,LSL #2       ;2551
000b74  eb010040          ADD      r0,r1,r0,LSL #1       ;2551
000b78  f8aa0004          STRH     r0,[r10,#4]           ;2551
000b7c  e019              B        |L7.2994|
                  |L7.2942|
000b7e  9802              LDR      r0,[sp,#8]            ;2557
000b80  f7fffffe          BL       atoi
000b84  f8ba1000          LDRH     r1,[r10,#0]           ;2557  ; coff
000b88  4408              ADD      r0,r0,r1              ;2557
000b8a  f8aa0000          STRH     r0,[r10,#0]           ;2557
000b8e  e010              B        |L7.2994|
                  |L7.2960|
000b90  9802              LDR      r0,[sp,#8]            ;2559
000b92  f7fffffe          BL       atoi
000b96  f8ba1002          LDRH     r1,[r10,#2]           ;2559  ; coff
000b9a  4408              ADD      r0,r0,r1              ;2559
000b9c  f8aa0002          STRH     r0,[r10,#2]           ;2559
000ba0  e007              B        |L7.2994|
                  |L7.2978|
000ba2  9802              LDR      r0,[sp,#8]            ;2561
000ba4  f7fffffe          BL       atoi
000ba8  f8ba1004          LDRH     r1,[r10,#4]           ;2561  ; coff
000bac  4408              ADD      r0,r0,r1              ;2561
000bae  f8aa0004          STRH     r0,[r10,#4]           ;2561
                  |L7.2994|
000bb2  2005              MOVS     r0,#5                 ;2566
000bb4  7028              STRB     r0,[r5,#0]            ;2566
000bb6  e444              B        |L7.1090|
                  |L7.3000|
000bb8  481a              LDR      r0,|L7.3108|
000bba  9902              LDR      r1,[sp,#8]            ;2571
000bbc  f7fffffe          BL       strcat
000bc0  4918              LDR      r1,|L7.3108|
000bc2  9800              LDR      r0,[sp,#0]            ;2572
000bc4  f7fffffe          BL       TEXT_SetText
000bc8  7830              LDRB     r0,[r6,#0]            ;2573  ; dot_flag
000bca  b158              CBZ      r0,|L7.3044|
000bcc  7830              LDRB     r0,[r6,#0]            ;2584  ; dot_flag
000bce  2801              CMP      r0,#1                 ;2584
000bd0  d01a              BEQ      |L7.3080|
000bd2  7b60              LDRB     r0,[r4,#0xd]          ;2595  ; coffv_step
000bd4  b360              CBZ      r0,|L7.3120|
000bd6  7b60              LDRB     r0,[r4,#0xd]          ;2598  ; coffv_step
000bd8  2801              CMP      r0,#1                 ;2598
000bda  d03d              BEQ      |L7.3160|
000bdc  7b60              LDRB     r0,[r4,#0xd]          ;2600  ; coffv_step
000bde  2802              CMP      r0,#2                 ;2600
000be0  d043              BEQ      |L7.3178|
000be2  e04a              B        |L7.3194|
                  |L7.3044|
000be4  7b60              LDRB     r0,[r4,#0xd]          ;2575  ; coffv_step
000be6  b130              CBZ      r0,|L7.3062|
000be8  7b60              LDRB     r0,[r4,#0xd]          ;2578  ; coffv_step
000bea  2801              CMP      r0,#1                 ;2578
000bec  d006              BEQ      |L7.3068|
000bee  7b60              LDRB     r0,[r4,#0xd]          ;2580  ; coffv_step
000bf0  2802              CMP      r0,#2                 ;2580
000bf2  d006              BEQ      |L7.3074|
000bf4  e041              B        |L7.3194|
                  |L7.3062|
000bf6  f8aab000          STRH     r11,[r10,#0]          ;2577
000bfa  e03e              B        |L7.3194|
                  |L7.3068|
000bfc  f8aab002          STRH     r11,[r10,#2]          ;2579
000c00  e03b              B        |L7.3194|
                  |L7.3074|
000c02  f8aab004          STRH     r11,[r10,#4]          ;2581
000c06  e038              B        |L7.3194|
                  |L7.3080|
000c08  7b60              LDRB     r0,[r4,#0xd]          ;2585  ; coffv_step
000c0a  b130              CBZ      r0,|L7.3098|
000c0c  7b60              LDRB     r0,[r4,#0xd]          ;2588  ; coffv_step
000c0e  2801              CMP      r0,#1                 ;2588
000c10  d00f              BEQ      |L7.3122|
000c12  7b60              LDRB     r0,[r4,#0xd]          ;2590  ; coffv_step
000c14  2802              CMP      r0,#2                 ;2590
000c16  d011              BEQ      |L7.3132|
000c18  e02f              B        |L7.3194|
                  |L7.3098|
000c1a  f8ba0000          LDRH     r0,[r10,#0]           ;2587  ; coff
000c1e  f8aa0000          STRH     r0,[r10,#0]           ;2587
000c22  e02a              B        |L7.3194|
                  |L7.3108|
                          DCD      set_limit
                  |L7.3112|
                          DCD      bit
                  |L7.3116|
000c2c  25326400          DCB      "%2d",0
                  |L7.3120|
000c30  e009              B        |L7.3142|
                  |L7.3122|
000c32  f8ba0002          LDRH     r0,[r10,#2]           ;2589  ; coff
000c36  f8aa0002          STRH     r0,[r10,#2]           ;2589
000c3a  e01e              B        |L7.3194|
                  |L7.3132|
000c3c  f8ba0004          LDRH     r0,[r10,#4]           ;2591  ; coff
000c40  f8aa0004          STRH     r0,[r10,#4]           ;2591
000c44  e019              B        |L7.3194|
                  |L7.3142|
000c46  9802              LDR      r0,[sp,#8]            ;2597
000c48  f7fffffe          BL       atoi
000c4c  f8ba1000          LDRH     r1,[r10,#0]           ;2597  ; coff
000c50  4408              ADD      r0,r0,r1              ;2597
000c52  f8aa0000          STRH     r0,[r10,#0]           ;2597
000c56  e010              B        |L7.3194|
                  |L7.3160|
000c58  9802              LDR      r0,[sp,#8]            ;2599
000c5a  f7fffffe          BL       atoi
000c5e  f8ba1002          LDRH     r1,[r10,#2]           ;2599  ; coff
000c62  4408              ADD      r0,r0,r1              ;2599
000c64  f8aa0002          STRH     r0,[r10,#2]           ;2599
000c68  e007              B        |L7.3194|
                  |L7.3178|
000c6a  9802              LDR      r0,[sp,#8]            ;2601
000c6c  f7fffffe          BL       atoi
000c70  f8ba1004          LDRH     r1,[r10,#4]           ;2601  ; coff
000c74  4408              ADD      r0,r0,r1              ;2601
000c76  f8aa0004          STRH     r0,[r10,#4]           ;2601
                  |L7.3194|
000c7a  f8858000          STRB     r8,[r5,#0]            ;2606
                  |L7.3198|
000c7e  e428              B        |L7.1234|
                  |L7.3200|
000c80  f640017c          MOV      r1,#0x87c             ;2616
000c84  4615              MOV      r5,r2                 ;2616
000c86  f7fffffe          BL       WM_GetDialogItem
000c8a  9000              STR      r0,[sp,#0]            ;2616
000c8c  f8dfb434          LDR      r11,|L7.4292|
000c90  f89b0000          LDRB     r0,[r11,#0]           ;2617  ; bit
000c94  2806              CMP      r0,#6                 ;2617
000c96  d2f2              BCS      |L7.3198|
000c98  e8dff000          TBB      [pc,r0]               ;2617
000c9c  0304327a          DCB      0x03,0x04,0x32,0x7a
000ca0  d2f1              DCB      0xd2,0xf1
000ca2  e416              B        |L7.1234|
000ca4  7ba8              LDRB     r0,[r5,#0xe]          ;2620  ; coffc_step
000ca6  b130              CBZ      r0,|L7.3254|
000ca8  7ba8              LDRB     r0,[r5,#0xe]          ;2623  ; coffc_step
000caa  2801              CMP      r0,#1                 ;2623
000cac  d00c              BEQ      |L7.3272|
000cae  7ba8              LDRB     r0,[r5,#0xe]          ;2625  ; coffc_step
000cb0  2802              CMP      r0,#2                 ;2625
000cb2  d012              BEQ      |L7.3290|
000cb4  e019              B        |L7.3306|
                  |L7.3254|
000cb6  9802              LDR      r0,[sp,#8]            ;2622
000cb8  f7fffffe          BL       atoi
000cbc  f44f717a          MOV      r1,#0x3e8             ;2622
000cc0  4348              MULS     r0,r1,r0              ;2622
000cc2  f8aa0006          STRH     r0,[r10,#6]           ;2622
000cc6  e010              B        |L7.3306|
                  |L7.3272|
000cc8  9802              LDR      r0,[sp,#8]            ;2624
000cca  f7fffffe          BL       atoi
000cce  f44f717a          MOV      r1,#0x3e8             ;2624
000cd2  4348              MULS     r0,r1,r0              ;2624
000cd4  f8aa0008          STRH     r0,[r10,#8]           ;2624
000cd8  e007              B        |L7.3306|
                  |L7.3290|
000cda  9802              LDR      r0,[sp,#8]            ;2626
000cdc  f7fffffe          BL       atoi
000ce0  f44f717a          MOV      r1,#0x3e8             ;2626
000ce4  4348              MULS     r0,r1,r0              ;2626
000ce6  f8aa000a          STRH     r0,[r10,#0xa]         ;2626
                  |L7.3306|
000cea  48f7              LDR      r0,|L7.4296|
000cec  9902              LDR      r1,[sp,#8]            ;2629
000cee  f7fffffe          BL       strcat
000cf2  49f5              LDR      r1,|L7.4296|
000cf4  9800              LDR      r0,[sp,#0]            ;2630
000cf6  f7fffffe          BL       TEXT_SetText
000cfa  f88b7000          STRB     r7,[r11,#0]           ;2631
000cfe  e443              B        |L7.1416|
000d00  48f1              LDR      r0,|L7.4296|
000d02  9902              LDR      r1,[sp,#8]            ;2636
000d04  f7fffffe          BL       strcat
000d08  49ef              LDR      r1,|L7.4296|
000d0a  9800              LDR      r0,[sp,#0]            ;2637
000d0c  f7fffffe          BL       TEXT_SetText
000d10  f8990001          LDRB     r0,[r9,#1]            ;2638  ; set_limit
000d14  282e              CMP      r0,#0x2e              ;2638
000d16  d008              BEQ      |L7.3370|
000d18  7ba8              LDRB     r0,[r5,#0xe]          ;2642  ; coffc_step
000d1a  b148              CBZ      r0,|L7.3376|
000d1c  7ba8              LDRB     r0,[r5,#0xe]          ;2645  ; coffc_step
000d1e  2801              CMP      r0,#1                 ;2645
000d20  d015              BEQ      |L7.3406|
000d22  7ba8              LDRB     r0,[r5,#0xe]          ;2647  ; coffc_step
000d24  2802              CMP      r0,#2                 ;2647
000d26  d021              BEQ      |L7.3436|
000d28  e02e              B        |L7.3464|
                  |L7.3370|
000d2a  f8868000          STRB     r8,[r6,#0]            ;2640
000d2e  e02b              B        |L7.3464|
                  |L7.3376|
000d30  9802              LDR      r0,[sp,#8]            ;2644
000d32  f7fffffe          BL       atoi
000d36  f44f717a          MOV      r1,#0x3e8             ;2644
000d3a  4348              MULS     r0,r1,r0              ;2644
000d3c  f8ba1006          LDRH     r1,[r10,#6]           ;2644  ; coff
000d40  eb010181          ADD      r1,r1,r1,LSL #2       ;2644
000d44  eb000041          ADD      r0,r0,r1,LSL #1       ;2644
000d48  f8aa0006          STRH     r0,[r10,#6]           ;2644
000d4c  e01c              B        |L7.3464|
                  |L7.3406|
000d4e  9802              LDR      r0,[sp,#8]            ;2646
000d50  f7fffffe          BL       atoi
000d54  f44f717a          MOV      r1,#0x3e8             ;2646
000d58  4348              MULS     r0,r1,r0              ;2646
000d5a  f8ba1008          LDRH     r1,[r10,#8]           ;2646  ; coff
000d5e  eb010181          ADD      r1,r1,r1,LSL #2       ;2646
000d62  eb000041          ADD      r0,r0,r1,LSL #1       ;2646
000d66  f8aa0008          STRH     r0,[r10,#8]           ;2646
000d6a  e00d              B        |L7.3464|
                  |L7.3436|
000d6c  9802              LDR      r0,[sp,#8]            ;2648
000d6e  f7fffffe          BL       atoi
000d72  f44f717a          MOV      r1,#0x3e8             ;2648
000d76  4348              MULS     r0,r1,r0              ;2648
000d78  f8ba100a          LDRH     r1,[r10,#0xa]         ;2648  ; coff
000d7c  eb010181          ADD      r1,r1,r1,LSL #2       ;2648
000d80  eb000041          ADD      r0,r0,r1,LSL #1       ;2648
000d84  f8aa000a          STRH     r0,[r10,#0xa]         ;2648
                  |L7.3464|
000d88  2003              MOVS     r0,#3                 ;2652
000d8a  f88b0000          STRB     r0,[r11,#0]           ;2652
000d8e  e483              B        |L7.1688|
000d90  48cd              LDR      r0,|L7.4296|
000d92  9902              LDR      r1,[sp,#8]            ;2657
000d94  f7fffffe          BL       strcat
000d98  49cb              LDR      r1,|L7.4296|
000d9a  9800              LDR      r0,[sp,#0]            ;2658
000d9c  f7fffffe          BL       TEXT_SetText
000da0  7830              LDRB     r0,[r6,#0]            ;2659  ; dot_flag
000da2  b140              CBZ      r0,|L7.3510|
000da4  7ba8              LDRB     r0,[r5,#0xe]          ;2676  ; coffc_step
000da6  b1f0              CBZ      r0,|L7.3558|
000da8  7ba8              LDRB     r0,[r5,#0xe]          ;2679  ; coffc_step
000daa  2801              CMP      r0,#1                 ;2679
000dac  d029              BEQ      |L7.3586|
000dae  7ba8              LDRB     r0,[r5,#0xe]          ;2681  ; coffc_step
000db0  2802              CMP      r0,#2                 ;2681
000db2  d034              BEQ      |L7.3614|
000db4  e040              B        |L7.3640|
                  |L7.3510|
000db6  f8990002          LDRB     r0,[r9,#2]            ;2661  ; set_limit
000dba  282e              CMP      r0,#0x2e              ;2661
000dbc  d008              BEQ      |L7.3536|
000dbe  7ba8              LDRB     r0,[r5,#0xe]          ;2665  ; coffc_step
000dc0  b140              CBZ      r0,|L7.3540|
000dc2  7ba8              LDRB     r0,[r5,#0xe]          ;2668  ; coffc_step
000dc4  2801              CMP      r0,#1                 ;2668
000dc6  d008              BEQ      |L7.3546|
000dc8  7ba8              LDRB     r0,[r5,#0xe]          ;2670  ; coffc_step
000dca  2802              CMP      r0,#2                 ;2670
000dcc  d008              BEQ      |L7.3552|
000dce  e033              B        |L7.3640|
                  |L7.3536|
000dd0  7037              STRB     r7,[r6,#0]            ;2663
000dd2  e031              B        |L7.3640|
                  |L7.3540|
000dd4  f8aa4006          STRH     r4,[r10,#6]           ;2667
000dd8  e02e              B        |L7.3640|
                  |L7.3546|
000dda  f8aa4008          STRH     r4,[r10,#8]           ;2669
000dde  e02b              B        |L7.3640|
                  |L7.3552|
000de0  f8aa400a          STRH     r4,[r10,#0xa]         ;2671
000de4  e028              B        |L7.3640|
                  |L7.3558|
000de6  9802              LDR      r0,[sp,#8]            ;2678
000de8  f7fffffe          BL       atoi
000dec  eb0001c0          ADD      r1,r0,r0,LSL #3       ;2678
000df0  eb011000          ADD      r0,r1,r0,LSL #4       ;2678
000df4  f8ba1006          LDRH     r1,[r10,#6]           ;2678  ; coff
000df8  eb010080          ADD      r0,r1,r0,LSL #2       ;2678
000dfc  f8aa0006          STRH     r0,[r10,#6]           ;2678
000e00  e01a              B        |L7.3640|
                  |L7.3586|
000e02  9802              LDR      r0,[sp,#8]            ;2680
000e04  f7fffffe          BL       atoi
000e08  eb0001c0          ADD      r1,r0,r0,LSL #3       ;2680
000e0c  eb011000          ADD      r0,r1,r0,LSL #4       ;2680
000e10  f8ba1008          LDRH     r1,[r10,#8]           ;2680  ; coff
000e14  eb010080          ADD      r0,r1,r0,LSL #2       ;2680
000e18  f8aa0008          STRH     r0,[r10,#8]           ;2680
000e1c  e00c              B        |L7.3640|
                  |L7.3614|
000e1e  9802              LDR      r0,[sp,#8]            ;2682
000e20  f7fffffe          BL       atoi
000e24  eb0001c0          ADD      r1,r0,r0,LSL #3       ;2682
000e28  eb011000          ADD      r0,r1,r0,LSL #4       ;2682
000e2c  f8ba100a          LDRH     r1,[r10,#0xa]         ;2682  ; coff
000e30  eb010080          ADD      r0,r1,r0,LSL #2       ;2682
000e34  f8aa000a          STRH     r0,[r10,#0xa]         ;2682
                  |L7.3640|
000e38  2004              MOVS     r0,#4                 ;2687
000e3a  f88b0000          STRB     r0,[r11,#0]           ;2687
000e3e  e42b              B        |L7.1688|
000e40  48a1              LDR      r0,|L7.4296|
000e42  9902              LDR      r1,[sp,#8]            ;2692
000e44  f7fffffe          BL       strcat
000e48  499f              LDR      r1,|L7.4296|
000e4a  9800              LDR      r0,[sp,#0]            ;2693
000e4c  f7fffffe          BL       TEXT_SetText
000e50  7830              LDRB     r0,[r6,#0]            ;2694  ; dot_flag
000e52  b158              CBZ      r0,|L7.3692|
000e54  7830              LDRB     r0,[r6,#0]            ;2705  ; dot_flag
000e56  2802              CMP      r0,#2                 ;2705
000e58  d01b              BEQ      |L7.3730|
000e5a  7ba8              LDRB     r0,[r5,#0xe]          ;2716  ; coffc_step
000e5c  b380              CBZ      r0,|L7.3776|
000e5e  7ba8              LDRB     r0,[r5,#0xe]          ;2719  ; coffc_step
000e60  2801              CMP      r0,#1                 ;2719
000e62  d056              BEQ      |L7.3858|
000e64  7ba8              LDRB     r0,[r5,#0xe]          ;2721  ; coffc_step
000e66  2802              CMP      r0,#2                 ;2721
000e68  d05f              BEQ      |L7.3882|
000e6a  e069              B        |L7.3904|
                  |L7.3692|
000e6c  7ba8              LDRB     r0,[r5,#0xe]          ;2696  ; coffc_step
000e6e  b138              CBZ      r0,|L7.3712|
000e70  7ba8              LDRB     r0,[r5,#0xe]          ;2699  ; coffc_step
000e72  2801              CMP      r0,#1                 ;2699
000e74  d007              BEQ      |L7.3718|
000e76  7ba8              LDRB     r0,[r5,#0xe]          ;2701  ; coffc_step
000e78  2802              CMP      r0,#2                 ;2701
000e7a  d007              BEQ      |L7.3724|
000e7c  e060              B        |L7.3904|
000e7e  e063              B        |L7.3912|
                  |L7.3712|
000e80  f8aa4006          STRH     r4,[r10,#6]           ;2698
000e84  e05c              B        |L7.3904|
                  |L7.3718|
000e86  f8aa4008          STRH     r4,[r10,#8]           ;2700
000e8a  e059              B        |L7.3904|
                  |L7.3724|
000e8c  f8aa400a          STRH     r4,[r10,#0xa]         ;2702
000e90  e056              B        |L7.3904|
                  |L7.3730|
000e92  7ba8              LDRB     r0,[r5,#0xe]          ;2706  ; coffc_step
000e94  b130              CBZ      r0,|L7.3748|
000e96  7ba8              LDRB     r0,[r5,#0xe]          ;2709  ; coffc_step
000e98  2801              CMP      r0,#1                 ;2709
000e9a  d012              BEQ      |L7.3778|
000e9c  7ba8              LDRB     r0,[r5,#0xe]          ;2711  ; coffc_step
000e9e  2802              CMP      r0,#2                 ;2711
000ea0  d01d              BEQ      |L7.3806|
000ea2  e04d              B        |L7.3904|
                  |L7.3748|
000ea4  9802              LDR      r0,[sp,#8]            ;2708
000ea6  f7fffffe          BL       atoi
000eaa  eb0001c0          ADD      r1,r0,r0,LSL #3       ;2708
000eae  eb011000          ADD      r0,r1,r0,LSL #4       ;2708
000eb2  f8ba1006          LDRH     r1,[r10,#6]           ;2708  ; coff
000eb6  eb010080          ADD      r0,r1,r0,LSL #2       ;2708
000eba  f8aa0006          STRH     r0,[r10,#6]           ;2708
000ebe  e03f              B        |L7.3904|
                  |L7.3776|
000ec0  e01b              B        |L7.3834|
                  |L7.3778|
000ec2  9802              LDR      r0,[sp,#8]            ;2710
000ec4  f7fffffe          BL       atoi
000ec8  eb0001c0          ADD      r1,r0,r0,LSL #3       ;2710
000ecc  eb011000          ADD      r0,r1,r0,LSL #4       ;2710
000ed0  f8ba1008          LDRH     r1,[r10,#8]           ;2710  ; coff
000ed4  eb010080          ADD      r0,r1,r0,LSL #2       ;2710
000ed8  f8aa0008          STRH     r0,[r10,#8]           ;2710
000edc  e030              B        |L7.3904|
                  |L7.3806|
000ede  9802              LDR      r0,[sp,#8]            ;2712
000ee0  f7fffffe          BL       atoi
000ee4  eb0001c0          ADD      r1,r0,r0,LSL #3       ;2712
000ee8  eb011000          ADD      r0,r1,r0,LSL #4       ;2712
000eec  f8ba100a          LDRH     r1,[r10,#0xa]         ;2712  ; coff
000ef0  eb010080          ADD      r0,r1,r0,LSL #2       ;2712
000ef4  f8aa000a          STRH     r0,[r10,#0xa]         ;2712
000ef8  e022              B        |L7.3904|
                  |L7.3834|
000efa  9802              LDR      r0,[sp,#8]            ;2718
000efc  f7fffffe          BL       atoi
000f00  f8ba1006          LDRH     r1,[r10,#6]           ;2718  ; coff
000f04  eb000080          ADD      r0,r0,r0,LSL #2       ;2718
000f08  eb010040          ADD      r0,r1,r0,LSL #1       ;2718
000f0c  f8aa0006          STRH     r0,[r10,#6]           ;2718
000f10  e016              B        |L7.3904|
                  |L7.3858|
000f12  9802              LDR      r0,[sp,#8]            ;2720
000f14  f7fffffe          BL       atoi
000f18  f8ba1008          LDRH     r1,[r10,#8]           ;2720  ; coff
000f1c  eb000080          ADD      r0,r0,r0,LSL #2       ;2720
000f20  eb010040          ADD      r0,r1,r0,LSL #1       ;2720
000f24  f8aa0008          STRH     r0,[r10,#8]           ;2720
000f28  e00a              B        |L7.3904|
                  |L7.3882|
000f2a  9802              LDR      r0,[sp,#8]            ;2722
000f2c  f7fffffe          BL       atoi
000f30  f8ba100a          LDRH     r1,[r10,#0xa]         ;2722  ; coff
000f34  eb000080          ADD      r0,r0,r0,LSL #2       ;2722
000f38  eb010040          ADD      r0,r1,r0,LSL #1       ;2722
000f3c  f8aa000a          STRH     r0,[r10,#0xa]         ;2722
                  |L7.3904|
000f40  2005              MOVS     r0,#5                 ;2727
000f42  f88b0000          STRB     r0,[r11,#0]           ;2727
000f46  e411              B        |L7.1900|
                  |L7.3912|
000f48  485f              LDR      r0,|L7.4296|
000f4a  9902              LDR      r1,[sp,#8]            ;2732
000f4c  f7fffffe          BL       strcat
000f50  495d              LDR      r1,|L7.4296|
000f52  9800              LDR      r0,[sp,#0]            ;2733
000f54  f7fffffe          BL       TEXT_SetText
000f58  7830              LDRB     r0,[r6,#0]            ;2734  ; dot_flag
000f5a  b158              CBZ      r0,|L7.3956|
000f5c  7830              LDRB     r0,[r6,#0]            ;2745  ; dot_flag
000f5e  2801              CMP      r0,#1                 ;2745
000f60  d01a              BEQ      |L7.3992|
000f62  7ba8              LDRB     r0,[r5,#0xe]          ;2756  ; coffc_step
000f64  b380              CBZ      r0,|L7.4040|
000f66  7ba8              LDRB     r0,[r5,#0xe]          ;2759  ; coffc_step
000f68  2801              CMP      r0,#1                 ;2759
000f6a  d03a              BEQ      |L7.4066|
000f6c  7ba8              LDRB     r0,[r5,#0xe]          ;2761  ; coffc_step
000f6e  2802              CMP      r0,#2                 ;2761
000f70  d043              BEQ      |L7.4090|
000f72  e04d              B        |L7.4112|
                  |L7.3956|
000f74  7ba8              LDRB     r0,[r5,#0xe]          ;2736  ; coffc_step
000f76  b130              CBZ      r0,|L7.3974|
000f78  7ba8              LDRB     r0,[r5,#0xe]          ;2739  ; coffc_step
000f7a  2801              CMP      r0,#1                 ;2739
000f7c  d006              BEQ      |L7.3980|
000f7e  7ba8              LDRB     r0,[r5,#0xe]          ;2741  ; coffc_step
000f80  2802              CMP      r0,#2                 ;2741
000f82  d006              BEQ      |L7.3986|
000f84  e044              B        |L7.4112|
                  |L7.3974|
000f86  f8aa4006          STRH     r4,[r10,#6]           ;2738
000f8a  e041              B        |L7.4112|
                  |L7.3980|
000f8c  f8aa4008          STRH     r4,[r10,#8]           ;2740
000f90  e03e              B        |L7.4112|
                  |L7.3986|
000f92  f8aa400a          STRH     r4,[r10,#0xa]         ;2742
000f96  e03b              B        |L7.4112|
                  |L7.3992|
000f98  7ba8              LDRB     r0,[r5,#0xe]          ;2746  ; coffc_step
000f9a  b130              CBZ      r0,|L7.4010|
000f9c  7ba8              LDRB     r0,[r5,#0xe]          ;2749  ; coffc_step
000f9e  2801              CMP      r0,#1                 ;2749
000fa0  d008              BEQ      |L7.4020|
000fa2  7ba8              LDRB     r0,[r5,#0xe]          ;2751  ; coffc_step
000fa4  2802              CMP      r0,#2                 ;2751
000fa6  d00a              BEQ      |L7.4030|
000fa8  e032              B        |L7.4112|
                  |L7.4010|
000faa  f8ba0006          LDRH     r0,[r10,#6]           ;2748  ; coff
000fae  f8aa0006          STRH     r0,[r10,#6]           ;2748
000fb2  e02d              B        |L7.4112|
                  |L7.4020|
000fb4  f8ba0008          LDRH     r0,[r10,#8]           ;2750  ; coff
000fb8  f8aa0008          STRH     r0,[r10,#8]           ;2750
000fbc  e028              B        |L7.4112|
                  |L7.4030|
000fbe  f8ba000a          LDRH     r0,[r10,#0xa]         ;2752  ; coff
000fc2  f8aa000a          STRH     r0,[r10,#0xa]         ;2752
000fc6  e023              B        |L7.4112|
                  |L7.4040|
000fc8  e7ff              B        |L7.4042|
                  |L7.4042|
000fca  9802              LDR      r0,[sp,#8]            ;2758
000fcc  f7fffffe          BL       atoi
000fd0  f8ba1006          LDRH     r1,[r10,#6]           ;2758  ; coff
000fd4  eb000080          ADD      r0,r0,r0,LSL #2       ;2758
000fd8  eb010040          ADD      r0,r1,r0,LSL #1       ;2758
000fdc  f8aa0006          STRH     r0,[r10,#6]           ;2758
000fe0  e016              B        |L7.4112|
                  |L7.4066|
000fe2  9802              LDR      r0,[sp,#8]            ;2760
000fe4  f7fffffe          BL       atoi
000fe8  f8ba1008          LDRH     r1,[r10,#8]           ;2760  ; coff
000fec  eb000080          ADD      r0,r0,r0,LSL #2       ;2760
000ff0  eb010040          ADD      r0,r1,r0,LSL #1       ;2760
000ff4  f8aa0008          STRH     r0,[r10,#8]           ;2760
000ff8  e00a              B        |L7.4112|
                  |L7.4090|
000ffa  9802              LDR      r0,[sp,#8]            ;2762
000ffc  f7fffffe          BL       atoi
001000  f8ba100a          LDRH     r1,[r10,#0xa]         ;2762  ; coff
001004  eb000080          ADD      r0,r0,r0,LSL #2       ;2762
001008  eb010040          ADD      r0,r1,r0,LSL #1       ;2762
00100c  f8aa000a          STRH     r0,[r10,#0xa]         ;2762
                  |L7.4112|
001010  f88b8000          STRB     r8,[r11,#0]           ;2767
                  |L7.4116|
001014  e406              B        |L7.2084|
                  |L7.4118|
001016  f640017d          MOV      r1,#0x87d             ;2777
00101a  f7fffffe          BL       WM_GetDialogItem
00101e  4604              MOV      r4,r0                 ;2777
001020  f8dfa0a0          LDR      r10,|L7.4292|
001024  f89a0000          LDRB     r0,[r10,#0]           ;2778  ; bit
001028  2806              CMP      r0,#6                 ;2778
00102a  d2f3              BCS      |L7.4116|
00102c  e8dff000          TBB      [pc,r0]               ;2778
001030  03041533          DCB      0x03,0x04,0x15,0x33
001034  577b              DCB      0x57,0x7b
001036  e7ed              B        |L7.4116|
001038  9802              LDR      r0,[sp,#8]            ;2781
00103a  f7fffffe          BL       atoi
00103e  2164              MOVS     r1,#0x64              ;2781
001040  4348              MULS     r0,r1,r0              ;2781
001042  86e8              STRH     r0,[r5,#0x36]         ;2781
001044  4820              LDR      r0,|L7.4296|
001046  9902              LDR      r1,[sp,#8]            ;2782
001048  f7fffffe          BL       strcat
00104c  491e              LDR      r1,|L7.4296|
00104e  4620              MOV      r0,r4                 ;2783
001050  f7fffffe          BL       TEXT_SetText
001054  f88a7000          STRB     r7,[r10,#0]           ;2784
001058  e40a              B        |L7.2160|
00105a  481b              LDR      r0,|L7.4296|
00105c  9902              LDR      r1,[sp,#8]            ;2789
00105e  f7fffffe          BL       strcat
001062  4919              LDR      r1,|L7.4296|
001064  4620              MOV      r0,r4                 ;2790
001066  f7fffffe          BL       TEXT_SetText
00106a  f8990001          LDRB     r0,[r9,#1]            ;2791  ; set_limit
00106e  282e              CMP      r0,#0x2e              ;2791
001070  d00e              BEQ      |L7.4240|
001072  9802              LDR      r0,[sp,#8]            ;2795
001074  f7fffffe          BL       atoi
001078  2164              MOVS     r1,#0x64              ;2795
00107a  4348              MULS     r0,r1,r0              ;2795
00107c  8ee9              LDRH     r1,[r5,#0x36]         ;2795  ; Run_Control
00107e  eb010181          ADD      r1,r1,r1,LSL #2       ;2795
001082  eb000041          ADD      r0,r0,r1,LSL #1       ;2795
001086  86e8              STRH     r0,[r5,#0x36]         ;2795
                  |L7.4232|
001088  2003              MOVS     r0,#3                 ;2797
00108a  f88a0000          STRB     r0,[r10,#0]           ;2797
00108e  e414              B        |L7.2234|
                  |L7.4240|
001090  f8868000          STRB     r8,[r6,#0]            ;2793
001094  e7f8              B        |L7.4232|
001096  480c              LDR      r0,|L7.4296|
001098  9902              LDR      r1,[sp,#8]            ;2802
00109a  f7fffffe          BL       strcat
00109e  490a              LDR      r1,|L7.4296|
0010a0  4620              MOV      r0,r4                 ;2803
0010a2  f7fffffe          BL       TEXT_SetText
0010a6  7830              LDRB     r0,[r6,#0]            ;2804  ; dot_flag
0010a8  b180              CBZ      r0,|L7.4300|
0010aa  9802              LDR      r0,[sp,#8]            ;2813
0010ac  f7fffffe          BL       atoi
0010b0  8ee9              LDRH     r1,[r5,#0x36]         ;2813  ; Run_Control
0010b2  eb000080          ADD      r0,r0,r0,LSL #2       ;2813
0010b6  eb010040          ADD      r0,r1,r0,LSL #1       ;2813
0010ba  86e8              STRH     r0,[r5,#0x36]         ;2813
                  |L7.4284|
0010bc  2004              MOVS     r0,#4                 ;2816
0010be  f88a0000          STRB     r0,[r10,#0]           ;2816
0010c2  e423              B        |L7.2316|
                  |L7.4292|
                          DCD      bit
                  |L7.4296|
                          DCD      set_limit
                  |L7.4300|
0010cc  f8990002          LDRB     r0,[r9,#2]            ;2806  ; set_limit
0010d0  282e              CMP      r0,#0x2e              ;2806
0010d2  d002              BEQ      |L7.4314|
0010d4  f8a5b036          STRH     r11,[r5,#0x36]        ;2810
0010d8  e7f0              B        |L7.4284|
                  |L7.4314|
0010da  7037              STRB     r7,[r6,#0]            ;2808
0010dc  e7ee              B        |L7.4284|
0010de  4871              LDR      r0,|L7.4772|
0010e0  9902              LDR      r1,[sp,#8]            ;2821
0010e2  f7fffffe          BL       strcat
0010e6  496f              LDR      r1,|L7.4772|
0010e8  4620              MOV      r0,r4                 ;2822
0010ea  f7fffffe          BL       TEXT_SetText
0010ee  7830              LDRB     r0,[r6,#0]            ;2823  ; dot_flag
0010f0  b160              CBZ      r0,|L7.4364|
0010f2  7830              LDRB     r0,[r6,#0]            ;2826  ; dot_flag
0010f4  2802              CMP      r0,#2                 ;2826
0010f6  d00c              BEQ      |L7.4370|
0010f8  9802              LDR      r0,[sp,#8]            ;2829
0010fa  f7fffffe          BL       atoi
0010fe  8ee9              LDRH     r1,[r5,#0x36]         ;2829  ; Run_Control
001100  4408              ADD      r0,r0,r1              ;2829
001102  86e8              STRH     r0,[r5,#0x36]         ;2829
                  |L7.4356|
001104  2005              MOVS     r0,#5                 ;2832
001106  f88a0000          STRB     r0,[r10,#0]           ;2832
00110a  e40e              B        |L7.2346|
                  |L7.4364|
00110c  f8a5b036          STRH     r11,[r5,#0x36]        ;2825
001110  e7f8              B        |L7.4356|
                  |L7.4370|
001112  9802              LDR      r0,[sp,#8]            ;2827
001114  f7fffffe          BL       atoi
001118  8ee9              LDRH     r1,[r5,#0x36]         ;2827  ; Run_Control
00111a  eb000080          ADD      r0,r0,r0,LSL #2       ;2827
00111e  eb010040          ADD      r0,r1,r0,LSL #1       ;2827
001122  86e8              STRH     r0,[r5,#0x36]         ;2827
001124  e7ee              B        |L7.4356|
001126  485f              LDR      r0,|L7.4772|
001128  9902              LDR      r1,[sp,#8]            ;2837
00112a  f7fffffe          BL       strcat
00112e  495d              LDR      r1,|L7.4772|
001130  4620              MOV      r0,r4                 ;2838
001132  f7fffffe          BL       TEXT_SetText
001136  7830              LDRB     r0,[r6,#0]            ;2839  ; dot_flag
001138  b158              CBZ      r0,|L7.4434|
00113a  7830              LDRB     r0,[r6,#0]            ;2842  ; dot_flag
00113c  2801              CMP      r0,#1                 ;2842
00113e  d00b              BEQ      |L7.4440|
001140  9802              LDR      r0,[sp,#8]            ;2845
001142  f7fffffe          BL       atoi
001146  8ee9              LDRH     r1,[r5,#0x36]         ;2845  ; Run_Control
001148  4408              ADD      r0,r0,r1              ;2845
00114a  86e8              STRH     r0,[r5,#0x36]         ;2845
                  |L7.4428|
00114c  f88a8000          STRB     r8,[r10,#0]           ;2848
                  |L7.4432|
001150  e425              B        |L7.2462|
                  |L7.4434|
001152  f8a5b036          STRH     r11,[r5,#0x36]        ;2841
001156  e7f9              B        |L7.4428|
                  |L7.4440|
001158  8ee8              LDRH     r0,[r5,#0x36]         ;2843  ; Run_Control
00115a  86e8              STRH     r0,[r5,#0x36]         ;2843
00115c  e7f6              B        |L7.4428|
                  |L7.4446|
00115e  f640017e          MOV      r1,#0x87e             ;2858
001162  f7fffffe          BL       WM_GetDialogItem
001166  4604              MOV      r4,r0                 ;2858
001168  f8dfa13c          LDR      r10,|L7.4776|
00116c  f89a0000          LDRB     r0,[r10,#0]           ;2859  ; bit
001170  f2405bdc          MOV      r11,#0x5dc            ;2891
001174  2806              CMP      r0,#6                 ;2859
001176  d2eb              BCS      |L7.4432|
001178  e8dff000          TBB      [pc,r0]               ;2859
00117c  03041533          DCB      0x03,0x04,0x15,0x33
001180  5377              DCB      0x53,0x77
001182  e40c              B        |L7.2462|
001184  9802              LDR      r0,[sp,#8]            ;2862
001186  f7fffffe          BL       atoi
00118a  2164              MOVS     r1,#0x64              ;2862
00118c  4348              MULS     r0,r1,r0              ;2862
00118e  8728              STRH     r0,[r5,#0x38]         ;2862
001190  4844              LDR      r0,|L7.4772|
001192  9902              LDR      r1,[sp,#8]            ;2863
001194  f7fffffe          BL       strcat
001198  4942              LDR      r1,|L7.4772|
00119a  4620              MOV      r0,r4                 ;2864
00119c  f7fffffe          BL       TEXT_SetText
0011a0  f88a7000          STRB     r7,[r10,#0]           ;2865
0011a4  e442              B        |L7.2604|
0011a6  483f              LDR      r0,|L7.4772|
0011a8  9902              LDR      r1,[sp,#8]            ;2870
0011aa  f7fffffe          BL       strcat
0011ae  493d              LDR      r1,|L7.4772|
0011b0  4620              MOV      r0,r4                 ;2871
0011b2  f7fffffe          BL       TEXT_SetText
0011b6  f8990001          LDRB     r0,[r9,#1]            ;2872  ; set_limit
0011ba  282e              CMP      r0,#0x2e              ;2872
0011bc  d00e              BEQ      |L7.4572|
0011be  9802              LDR      r0,[sp,#8]            ;2876
0011c0  f7fffffe          BL       atoi
0011c4  2164              MOVS     r1,#0x64              ;2876
0011c6  4348              MULS     r0,r1,r0              ;2876
0011c8  8f29              LDRH     r1,[r5,#0x38]         ;2876  ; Run_Control
0011ca  eb010181          ADD      r1,r1,r1,LSL #2       ;2876
0011ce  eb000041          ADD      r0,r0,r1,LSL #1       ;2876
0011d2  8728              STRH     r0,[r5,#0x38]         ;2876
                  |L7.4564|
0011d4  2003              MOVS     r0,#3                 ;2878
0011d6  f88a0000          STRB     r0,[r10,#0]           ;2878
0011da  e427              B        |L7.2604|
                  |L7.4572|
0011dc  f8868000          STRB     r8,[r6,#0]            ;2874
0011e0  e7f8              B        |L7.4564|
0011e2  4830              LDR      r0,|L7.4772|
0011e4  9902              LDR      r1,[sp,#8]            ;2883
0011e6  f7fffffe          BL       strcat
0011ea  492e              LDR      r1,|L7.4772|
0011ec  4620              MOV      r0,r4                 ;2884
0011ee  f7fffffe          BL       TEXT_SetText
0011f2  7830              LDRB     r0,[r6,#0]            ;2885  ; dot_flag
0011f4  b160              CBZ      r0,|L7.4624|
0011f6  9802              LDR      r0,[sp,#8]            ;2894
0011f8  f7fffffe          BL       atoi
0011fc  8f29              LDRH     r1,[r5,#0x38]         ;2894  ; Run_Control
0011fe  eb000080          ADD      r0,r0,r0,LSL #2       ;2894
001202  eb010040          ADD      r0,r1,r0,LSL #1       ;2894
001206  8728              STRH     r0,[r5,#0x38]         ;2894
                  |L7.4616|
001208  2004              MOVS     r0,#4                 ;2897
00120a  f88a0000          STRB     r0,[r10,#0]           ;2897
00120e  e40d              B        |L7.2604|
                  |L7.4624|
001210  f8990002          LDRB     r0,[r9,#2]            ;2887  ; set_limit
001214  282e              CMP      r0,#0x2e              ;2887
001216  d002              BEQ      |L7.4638|
001218  f8a5b038          STRH     r11,[r5,#0x38]        ;2891
00121c  e7f4              B        |L7.4616|
                  |L7.4638|
00121e  7037              STRB     r7,[r6,#0]            ;2889
001220  e7f2              B        |L7.4616|
001222  4820              LDR      r0,|L7.4772|
001224  9902              LDR      r1,[sp,#8]            ;2902
001226  f7fffffe          BL       strcat
00122a  491e              LDR      r1,|L7.4772|
00122c  4620              MOV      r0,r4                 ;2903
00122e  f7fffffe          BL       TEXT_SetText
001232  7830              LDRB     r0,[r6,#0]            ;2904  ; dot_flag
001234  b160              CBZ      r0,|L7.4688|
001236  7830              LDRB     r0,[r6,#0]            ;2907  ; dot_flag
001238  2802              CMP      r0,#2                 ;2907
00123a  d00c              BEQ      |L7.4694|
00123c  9802              LDR      r0,[sp,#8]            ;2910
00123e  f7fffffe          BL       atoi
001242  8f29              LDRH     r1,[r5,#0x38]         ;2910  ; Run_Control
001244  4408              ADD      r0,r0,r1              ;2910
001246  8728              STRH     r0,[r5,#0x38]         ;2910
                  |L7.4680|
001248  2005              MOVS     r0,#5                 ;2913
00124a  f88a0000          STRB     r0,[r10,#0]           ;2913
00124e  e43e              B        |L7.2766|
                  |L7.4688|
001250  f8a5b038          STRH     r11,[r5,#0x38]        ;2906
001254  e7f8              B        |L7.4680|
                  |L7.4694|
001256  9802              LDR      r0,[sp,#8]            ;2908
001258  f7fffffe          BL       atoi
00125c  8f29              LDRH     r1,[r5,#0x38]         ;2908  ; Run_Control
00125e  eb000080          ADD      r0,r0,r0,LSL #2       ;2908
001262  eb010040          ADD      r0,r1,r0,LSL #1       ;2908
001266  8728              STRH     r0,[r5,#0x38]         ;2908
001268  e7ee              B        |L7.4680|
00126a  480e              LDR      r0,|L7.4772|
00126c  9902              LDR      r1,[sp,#8]            ;2918
00126e  f7fffffe          BL       strcat
001272  490c              LDR      r1,|L7.4772|
001274  4620              MOV      r0,r4                 ;2919
001276  f7fffffe          BL       TEXT_SetText
00127a  7830              LDRB     r0,[r6,#0]            ;2920  ; dot_flag
00127c  b158              CBZ      r0,|L7.4758|
00127e  7830              LDRB     r0,[r6,#0]            ;2923  ; dot_flag
001280  2801              CMP      r0,#1                 ;2923
001282  d00b              BEQ      |L7.4764|
001284  9802              LDR      r0,[sp,#8]            ;2926
001286  f7fffffe          BL       atoi
00128a  8f29              LDRH     r1,[r5,#0x38]         ;2926  ; Run_Control
00128c  4408              ADD      r0,r0,r1              ;2926
00128e  8728              STRH     r0,[r5,#0x38]         ;2926
                  |L7.4752|
001290  f88a8000          STRB     r8,[r10,#0]           ;2929
001294  e41b              B        |L7.2766|
                  |L7.4758|
001296  f8a5b038          STRH     r11,[r5,#0x38]        ;2922
00129a  e7f9              B        |L7.4752|
                  |L7.4764|
00129c  8f28              LDRH     r0,[r5,#0x38]         ;2924  ; Run_Control
00129e  8728              STRH     r0,[r5,#0x38]         ;2924
0012a0  e7f6              B        |L7.4752|
;;;2938   
                          ENDP

0012a2  0000              DCW      0x0000
                  |L7.4772|
                          DCD      set_limit
                  |L7.4776|
                          DCD      bit

                          AREA ||i.ResetCDC||, CODE, READONLY, ALIGN=2

                  ResetCDC PROC
;;;1073   
;;;1074   WM_HWIN ResetCDC(void) {
000000  b51c              PUSH     {r2-r4,lr}
;;;1075     hWincdc = GUI_CreateDialogBox(_aDialogCreate4, GUI_COUNTOF(_aDialogCreate4), _cbDialog, WM_HBKWIN, 0, 0);
000002  f7fffffe          BL       WM_GetDesktopWindow
000006  4603              MOV      r3,r0
000008  2000              MOVS     r0,#0
00000a  9000              STR      r0,[sp,#0]
00000c  9001              STR      r0,[sp,#4]
00000e  4a04              LDR      r2,|L8.32|
000010  2127              MOVS     r1,#0x27
000012  4804              LDR      r0,|L8.36|
000014  f7fffffe          BL       GUI_CreateDialogBox
000018  4903              LDR      r1,|L8.40|
00001a  6188              STR      r0,[r1,#0x18]  ; hWincdc
;;;1076     return hWincdc;
;;;1077   }
00001c  bd1c              POP      {r2-r4,pc}
;;;1078   
                          ENDP

00001e  0000              DCW      0x0000
                  |L8.32|
                          DCD      _cbDialog
                  |L8.36|
                          DCD      ||.constdata||
                  |L8.40|
                          DCD      ||.data||

                          AREA ||i._cbDialog||, CODE, READONLY, ALIGN=2

                          REQUIRE _printf_percent
                          REQUIRE _printf_widthprec
                          REQUIRE _printf_f
                          REQUIRE _printf_fp_dec
                          REQUIRE _printf_pre_padding
                          REQUIRE _printf_d
                          REQUIRE _printf_int_dec
                          REQUIRE _printf_flags
                  _cbDialog PROC
;;;182    */
;;;183    static void _cbDialog(WM_MESSAGE * pMsg) {
000000  e92d4ff0          PUSH     {r4-r11,lr}
000004  ed2d8b0a          VPUSH    {d8-d12}
000008  b083              SUB      sp,sp,#0xc
00000a  4604              MOV      r4,r0
;;;184      WM_HWIN hItem;
;;;185      
;;;186      char buf[5];    
;;;187      
;;;188      float dis_load_c = (float)SET_Current_Laod/100;
00000c  48fe              LDR      r0,|L9.1032|
00000e  8901              LDRH     r1,[r0,#8]  ; Run_Control
000010  ee001a10          VMOV     s0,r1
000014  eeb80a40          VCVT.F32.U32 s0,s0
000018  eddfcafc          VLDR     s25,|L9.1036|
00001c  ee808a2c          VDIV.F32 s16,s0,s25
;;;189      float dis_output_v = (float)SET_Voltage/100;
000020  8841              LDRH     r1,[r0,#2]  ; Run_Control
000022  ee001a10          VMOV     s0,r1
000026  eeb80a40          VCVT.F32.U32 s0,s0
00002a  ee809a2c          VDIV.F32 s18,s0,s25
;;;190      float dis_output_c = (float)SET_Current/1000;
00002e  8881              LDRH     r1,[r0,#4]  ; Run_Control
000030  ee001a10          VMOV     s0,r1
000034  eeb80a40          VCVT.F32.U32 s0,s0
000038  ed9fcaf5          VLDR     s24,|L9.1040|
00003c  eec09a0c          VDIV.F32 s19,s0,s24
;;;191      float dis_c_cutoff_v = (float)cov1/100;
000040  49f4              LDR      r1,|L9.1044|
000042  880a              LDRH     r2,[r1,#0]  ; coff
000044  ee002a10          VMOV     s0,r2
000048  eeb80a40          VCVT.F32.U32 s0,s0
00004c  ee80aa2c          VDIV.F32 s20,s0,s25
;;;192      float dis_c_cutoff_c = (float)coc1/1000;
000050  88c9              LDRH     r1,[r1,#6]  ; coff
000052  ee001a10          VMOV     s0,r1
000056  eeb80a40          VCVT.F32.U32 s0,s0
00005a  eec0aa0c          VDIV.F32 s21,s0,s24
;;;193      float dis_dc_cutoff_v = (float)set_dc_cutoff_v/100;
00005e  8ec1              LDRH     r1,[r0,#0x36]  ; Run_Control
000060  ee001a10          VMOV     s0,r1
000064  eeb80a40          VCVT.F32.U32 s0,s0
000068  eec08a2c          VDIV.F32 s17,s0,s25
;;;194      float dis_dc_cutoff_c = (float)set_dc_cutoff_c/100;
00006c  8f00              LDRH     r0,[r0,#0x38]  ; Run_Control
;;;195    
;;;196    
;;;197      // USER START (Optionally insert additional variables)
;;;198      // USER END
;;;199    
;;;200      switch (pMsg->MsgId) {
00006e  6820              LDR      r0,[r4,#0]
;;;201    		
;;;202    	case WM_PAINT:
;;;203    
;;;204            GUI_SetColor(GUI_WHITE);//ʨ׃ۭҊҕɫ
;;;205            GUI_FillRect(0,25,480,26);//ۭһ͵ʵП
;;;206            GUI_SetColor(GUI_ORANGE);
;;;207            GUI_SetFont(&GUI_Fontsymbol);
;;;208            GUI_UC_SetEncodeUTF8();
;;;209            GUI_SetTextMode(GUI_TM_TRANS);//ʨ׃τѾģʽΪ֗ɫ͸ķ
;;;210    //        GUI_DispStringAt("Jinko", 5, 1);//SET
;;;211            if(lang == 0)
;;;212            {
;;;213                GUI_SetColor(GUI_WHITE);
;;;214                GUI_SetFont(&GUI_FontHZ20S);
;;;215                GUI_UC_SetEncodeUTF8();
;;;216                GUI_SetTextMode(GUI_TM_TRANS);//设置文本模式为底色透明
;;;217                GUI_DispStringAt("测量显示", 130, 3);//SET
;;;218            }else{
;;;219                GUI_SetColor(GUI_WHITE);
;;;220                GUI_SetFont(&GUI_Font20_ASCII);
;;;221                GUI_DispStringAt("DISPLAY", 130, 3);
;;;222            }
;;;223            GUI_SetColor(GUI_WHITE);//ʨ׃ǰްɫΪїɫ
;;;224            GUI_SetFont(&GUI_Font24_1);
;;;225            
;;;226    
;;;227            GUI_SetFont(&GUI_FontEN40);
;;;228            GUI_SetColor(GUI_LIGHTGRAY);
000070  f8dfa3a4          LDR      r10,|L9.1048|
000074  f8df83a4          LDR      r8,|L9.1052|
000078  f06f497f          MVN      r9,#0xff000000        ;204
00007c  280f              CMP      r0,#0xf               ;200
00007e  d012              BEQ      |L9.166|
;;;229            GUI_DispStringAt("C:", 28, 190);
;;;230            GUI_SetColor(GUI_LIGHTGRAY);
;;;231            GUI_DispStringAt("m", 217, 196);
;;;232            GUI_DispStringAt("AH", 238, 187);
;;;233        
;;;234        
;;;235    	break;
;;;236    	case WM_TIMER://֨ʱģࠩлϢ
;;;237    	if(WM_GetTimerId(pMsg->Data.v) == ID_TimerTime4)
;;;238    	{
;;;239            if(mode_sw == mode_pow && cdc_sw == cdc_on){
;;;240                
;;;241                
;;;242                hItem = WM_GetDialogItem(pMsg->hWin, ID_TEXT_66);
;;;243                sprintf(buf,"%.2f",DISS_POW_Voltage);       
;;;244                TEXT_SetText(hItem,buf);
;;;245                
;;;246                hItem = WM_GetDialogItem(pMsg->hWin, ID_TEXT_67);
;;;247                sprintf(buf,"%.2f",DISS_POW_Current);
;;;248                TEXT_SetText(hItem,buf);
;;;249                
;;;250                hItem = WM_GetDialogItem(pMsg->hWin, ID_TEXT_77);
;;;251                TEXT_SetTextColor(hItem, GUI_GREEN);//设置字体颜色
;;;252                TEXT_SetFont(hItem,&GUI_Font24_1);//设定文本字体
;;;253                GUI_UC_SetEncodeUTF8();
;;;254                TEXT_SetText(hItem,"(");
;;;255                
;;;256                hItem = WM_GetDialogItem(pMsg->hWin, ID_TEXT_78);
;;;257                TEXT_SetTextColor(hItem, GUI_GREEN);//设置字体颜色
;;;258                TEXT_SetFont(hItem,&GUI_Font24_1);//设定文本字体
;;;259                GUI_UC_SetEncodeUTF8();
;;;260                TEXT_SetText(hItem,")");
;;;261                
;;;262                hItem = WM_GetDialogItem(pMsg->hWin, ID_TEXT_79);
;;;263                TEXT_SetTextColor(hItem, GUI_GREEN);//设置字体颜色
;;;264                sprintf(buf,"%2d",count);
;;;265                TEXT_SetFont(hItem,&GUI_Font24_1);//设定文本字体
;;;266                GUI_UC_SetEncodeUTF8();
;;;267                TEXT_SetText(hItem,buf);
;;;268                
;;;269                hItem = WM_GetDialogItem(pMsg->hWin, ID_TEXT_69);
;;;270                TEXT_SetTextColor(hItem, GUI_RED);//设置字体颜色
;;;271                
;;;272                hItem = WM_GetDialogItem(pMsg->hWin, ID_TEXT_70);
;;;273                TEXT_SetTextColor(hItem, GUI_WHITE);//设置字体颜色
;;;274                
;;;275                hItem = WM_GetDialogItem(pMsg->hWin, ID_TEXT_72);        
;;;276                TEXT_SetText(hItem,"");
;;;277    
;;;278                hItem = WM_GetDialogItem(pMsg->hWin, ID_TEXT_73);     
;;;279                TEXT_SetText(hItem,"");
;;;280                
;;;281                hItem = WM_GetDialogItem(pMsg->hWin, ID_TEXT_74);      
;;;282                TEXT_SetText(hItem,"");
;;;283                
;;;284                hItem = WM_GetDialogItem(pMsg->hWin, ID_TEXT_75);      
;;;285                TEXT_SetText(hItem,"");
;;;286                
;;;287                hItem = WM_GetDialogItem(pMsg->hWin, ID_TEXT_76);      
;;;288                TEXT_SetText(hItem,"");
;;;289                
;;;290                battery_c = (int)bc_raw;
;;;291                hItem = WM_GetDialogItem(pMsg->hWin, ID_TEXT_68);
;;;292                sprintf(buf,"%05d",battery_c);
;;;293                TEXT_SetText(hItem,buf);
;;;294                
;;;295                if(charge_step == 1)
;;;296                {
;;;297                    hItem = WM_GetDialogItem(pMsg->hWin, ID_TEXT_119);
;;;298                    if(lang == 0)
;;;299                    {
;;;300                        TEXT_SetFont(hItem, &GUI_Fontset_font);
;;;301                        TEXT_SetText(hItem,"步骤1");
;;;302                    }else{
;;;303                        TEXT_SetFont(hItem, &GUI_Font20_ASCII);
;;;304                        TEXT_SetText(hItem,"Step1");
;;;305                    }
;;;306                }else if(charge_step == 2){
;;;307                    hItem = WM_GetDialogItem(pMsg->hWin, ID_TEXT_119);
;;;308                    if(lang == 0)
;;;309                    {
;;;310                        TEXT_SetText(hItem,"步骤2");
;;;311                    }else{
;;;312                        TEXT_SetFont(hItem, &GUI_Font20_ASCII);
;;;313                        TEXT_SetText(hItem,"Step2");
;;;314                    }
;;;315                }else if(charge_step == 3){
;;;316                    hItem = WM_GetDialogItem(pMsg->hWin, ID_TEXT_119);
;;;317                    if(lang == 0)
;;;318                    {
;;;319                        TEXT_SetText(hItem,"步骤3");
;;;320                    }else{
;;;321                        TEXT_SetFont(hItem, &GUI_Font20_ASCII);
;;;322                        TEXT_SetText(hItem,"Step3");
;;;323                    }
;;;324                }
;;;325                
;;;326                if(status_flash == 0){
;;;327                    hItem = WM_GetDialogItem(pMsg->hWin, ID_TEXT_71);
;;;328                    TEXT_SetTextColor(hItem, GUI_RED);//设置字体颜色
;;;329                    if(lang == 0)
;;;330                    {
;;;331                        TEXT_SetFont(hItem,&GUI_FontHZ16);//设定文本字体
;;;332                        GUI_UC_SetEncodeUTF8();
;;;333                        TEXT_SetText(hItem,"充电中");
;;;334                    }else{
;;;335                        TEXT_SetFont(hItem,&GUI_Font20_ASCII);//设定文本字体
;;;336                        GUI_UC_SetEncodeUTF8();
;;;337                        TEXT_SetText(hItem,"Charging");
;;;338                    }
;;;339                    status_flash = 1;
;;;340                }else{
;;;341                    hItem = WM_GetDialogItem(pMsg->hWin, ID_TEXT_71);
;;;342                    TEXT_SetText(hItem,"");
;;;343                    status_flash = 0;
;;;344                }
;;;345                if(opv2 == 0 && opv3 == 0 && opc2 == 0 && opc3 == 0)
;;;346                {
;;;347                    if(cov1 == 0 || coc1 == 0)
;;;348                    {
;;;349                        if(((DISS_POW_Voltage >= (float)cov1/100 && cov1 != 0) || DISS_POW_Current < (float)coc1/1000) && cutoff_flag == 0){//判断电流是否小于截止电流，并记录时间
;;;350                            cutoff_time = GUI_GetTime()/500;
;;;351                            cutoff_flag = 1;
;;;352                        }
;;;353                        if(((DISS_POW_Voltage >= (float)cov1/100 && cov1 != 0) || DISS_POW_Current < (float)coc1/1000) && (GUI_GetTime()/500 - cutoff_time) >= 10 )//若测量电流小于截止电流
;;;354                        {
;;;355                            if(mode_sw == mode_pow){
;;;356                                start_time = GUI_GetTime()/500;//记录开始时间
;;;357                            }
;;;358                            cutoff_flag = 0;
;;;359                            Mode_SW_CONT(0x02);//切换至负载模式
;;;360                            GPIO_ResetBits(GPIOC,GPIO_Pin_1);//开启负载
;;;361                        }
;;;362                    }else{
;;;363                        if(((DISS_POW_Voltage >= (float)cov1/100 && cov1 != 0) && DISS_POW_Current < (float)coc1/1000) && cutoff_flag == 0){//判断电流是否小于截止电流，并记录时间
;;;364                            cutoff_time = GUI_GetTime()/500;
;;;365                            cutoff_flag = 1;
;;;366                        }
;;;367                        if(((DISS_POW_Voltage >= (float)cov1/100 && cov1 != 0) && DISS_POW_Current < (float)coc1/1000) && (GUI_GetTime()/500 - cutoff_time) >= 10 )//若测量电流小于截止电流
;;;368                        {
;;;369                            if(mode_sw == mode_pow){
;;;370                                start_time = GUI_GetTime()/500;//记录开始时间
;;;371                            }
;;;372                            cutoff_flag = 0;
;;;373                            Mode_SW_CONT(0x02);//切换至负载模式
;;;374                            GPIO_ResetBits(GPIOC,GPIO_Pin_1);//开启负载
;;;375                        }
;;;376                    }
;;;377                }else if(opv3 == 0 && opc3 == 0){
;;;378                    if(cov1 == 0 || coc1 == 0)
;;;379                    { 
;;;380                        if(((DISS_POW_Voltage >= (float)cov1/100 && cov1 != 0) || DISS_POW_Current < (float)coc1/1000) && cutoff_flag == 0 && charge_step == 1)
;;;381                        {//判断电流是否小于截止电流，并记录时间
;;;382                            SET_Voltage = opv2;
;;;383                            SET_Current = opc2;
;;;384                            charge_step = 2;
;;;385                        }
;;;386                    }else{
;;;387                        if(((DISS_POW_Voltage >= (float)cov1/100 && cov1 != 0) && DISS_POW_Current < (float)coc1/1000) && cutoff_flag == 0 && charge_step == 1)
;;;388                        {//判断电流是否小于截止电流，并记录时间
;;;389                            SET_Voltage = opv2;
;;;390                            SET_Current = opc2;
;;;391                            charge_step = 2;
;;;392                        }
;;;393                    }
;;;394                    if(cov2 == 0 || coc2 == 0)
;;;395                    {
;;;396                        if(((DISS_POW_Voltage >= (float)cov2/100 && cov2 != 0) || DISS_POW_Current < (float)coc2/1000) && cutoff_flag == 0 && charge_step == 2){//判断电流是否小于截止电流，并记录时间
;;;397                            cutoff_time = GUI_GetTime()/500;
;;;398                            cutoff_flag = 1;
;;;399                        }
;;;400                        if(((DISS_POW_Voltage >= (float)cov2/100 && cov2 != 0) || DISS_POW_Current < (float)coc2/1000) && (GUI_GetTime()/500 - cutoff_time) >= 10 && charge_step == 2)//若测量电流小于截止电流
;;;401                        {
;;;402                            if(mode_sw == mode_pow){
;;;403                                start_time = GUI_GetTime()/500;//记录开始时间
;;;404                            }
;;;405                            cutoff_flag = 0;
;;;406                            Mode_SW_CONT(0x02);//切换至负载模式
;;;407                            GPIO_ResetBits(GPIOC,GPIO_Pin_1);//开启负载
;;;408                        }
;;;409                    }else{
;;;410                        if(((DISS_POW_Voltage >= (float)cov2/100 && cov2 != 0) && DISS_POW_Current < (float)coc2/1000) && cutoff_flag == 0 && charge_step == 2){//判断电流是否小于截止电流，并记录时间
;;;411                            cutoff_time = GUI_GetTime()/500;
;;;412                            cutoff_flag = 1;
;;;413                        }
;;;414                        if(((DISS_POW_Voltage >= (float)cov2/100 && cov2 != 0) && DISS_POW_Current < (float)coc2/1000) && (GUI_GetTime()/500 - cutoff_time) >= 10 && charge_step == 2)//若测量电流小于截止电流
;;;415                        {
;;;416                            if(mode_sw == mode_pow){
;;;417                                start_time = GUI_GetTime()/500;//记录开始时间
;;;418                            }
;;;419                            cutoff_flag = 0;
;;;420                            Mode_SW_CONT(0x02);//切换至负载模式
;;;421                            GPIO_ResetBits(GPIOC,GPIO_Pin_1);//开启负载
;;;422                        }
;;;423                    }
;;;424                }else if((opv1 != 0 || opc1 != 0) && (opv2 != 0 || opc2 != 0) && (opv3 != 0 || opc3 != 0)){
;;;425                    if(cov1 == 0 || coc1 == 0)
;;;426                    { 
;;;427                        if(((DISS_POW_Voltage >= (float)cov1/100 && cov1 != 0) || DISS_POW_Current < (float)coc1/1000) && cutoff_flag == 0 && charge_step == 1)
;;;428                        {//判断电流是否小于截止电流，并记录时间
;;;429                            SET_Voltage = opv2;
;;;430                            SET_Current = opc2;
;;;431                            charge_step = 2;
;;;432                        }
;;;433                    }else{
;;;434                        if(((DISS_POW_Voltage >= (float)cov1/100 && cov1 != 0) && DISS_POW_Current < (float)coc1/1000) && cutoff_flag == 0 && charge_step == 1)
;;;435                        {//判断电流是否小于截止电流，并记录时间
;;;436                            SET_Voltage = opv2;
;;;437                            SET_Current = opc2;
;;;438                            charge_step = 2;
;;;439                        }
;;;440                    }
;;;441                    
;;;442                    if(cov2 == 0 || coc2 == 0)
;;;443                    {
;;;444                        if(((DISS_POW_Voltage > (float)cov2/100 && cov2 != 0) || DISS_POW_Current < (float)coc2/1000) && cutoff_flag == 0 && charge_step == 2)
;;;445                        {//判断电流是否小于截止电流，并记录时间
;;;446                            SET_Voltage = opv3;
;;;447                            SET_Current = opc3;
;;;448                            charge_step = 3;
;;;449                        }
;;;450                    }else{
;;;451                        if(((DISS_POW_Voltage > (float)cov2/100 && cov2 != 0) && DISS_POW_Current < (float)coc2/1000) && cutoff_flag == 0 && charge_step == 2)
;;;452                        {//判断电流是否小于截止电流，并记录时间
;;;453                            SET_Voltage = opv3;
;;;454                            SET_Current = opc3;
;;;455                            charge_step = 3;
;;;456                        }
;;;457                    }
;;;458                    if(cov3 == 0 || coc3 == 0)
;;;459                    {
;;;460                        if(((DISS_POW_Voltage > (float)cov3/100 && cov3 != 0) || DISS_POW_Current < (float)coc3/1000) && cutoff_flag == 0 && charge_step == 3){//判断电流是否小于截止电流，并记录时间
;;;461                            cutoff_time = GUI_GetTime()/500;
;;;462                            cutoff_flag = 1;
;;;463                        }
;;;464                        if(((DISS_POW_Voltage > (float)cov3/100 && cov3 != 0) || DISS_POW_Current < (float)coc3/1000) && (GUI_GetTime()/500 - cutoff_time) >= 10 && charge_step == 3)//若测量电流小于截止电流
;;;465                        {
;;;466                            if(mode_sw == mode_pow){
;;;467                                start_time = GUI_GetTime()/500;//记录开始时间
;;;468                            }
;;;469                            cutoff_flag = 0;
;;;470                            Mode_SW_CONT(0x02);//切换至负载模式
;;;471                            GPIO_ResetBits(GPIOC,GPIO_Pin_1);//开启负载
;;;472                        }
;;;473                    }else{
;;;474                        if(((DISS_POW_Voltage > (float)cov3/100 && cov3 != 0) && DISS_POW_Current < (float)coc3/1000) && cutoff_flag == 0 && charge_step == 3){//判断电流是否小于截止电流，并记录时间
;;;475                            cutoff_time = GUI_GetTime()/500;
;;;476                            cutoff_flag = 1;
;;;477                        }
;;;478                        if(((DISS_POW_Voltage > (float)cov3/100 && cov3 != 0) && DISS_POW_Current < (float)coc3/1000) && (GUI_GetTime()/500 - cutoff_time) >= 10 && charge_step == 3)//若测量电流小于截止电流
;;;479                        {
;;;480                            if(mode_sw == mode_pow){
;;;481                                start_time = GUI_GetTime()/500;//记录开始时间
;;;482                            }
;;;483                            cutoff_flag = 0;
;;;484                            Mode_SW_CONT(0x02);//切换至负载模式
;;;485                            GPIO_ResetBits(GPIOC,GPIO_Pin_1);//开启负载
;;;486                        }
;;;487                    }
;;;488                }
;;;489                
;;;490    //             if(DISS_POW_Current < dis_c_cutoff_c && cutoff_flag == 0){//判断电流是否小于截止电流，并记录时间
;;;491    //                 cutoff_time = GUI_GetTime()/500;
;;;492    //                 cutoff_flag = 1;
;;;493    //             }
;;;494    //             if(((DISS_POW_Voltage >= dis_c_cutoff_v && dis_c_cutoff_v != 0) || DISS_POW_Current < dis_c_cutoff_c) && (GUI_GetTime()/500 - cutoff_time) >= 10 )//若测量电流小于截止电流
;;;495    //             {
;;;496    //                 if(mode_sw == mode_pow){
;;;497    //                     start_time = GUI_GetTime()/500;//记录开始时间
;;;498    //                 }
;;;499    //                 cutoff_flag = 0;
;;;500    //                 Mode_SW_CONT(0x02);//切换至负载模式
;;;501    //                 GPIO_ResetBits(GPIOC,GPIO_Pin_1);//开启负载
;;;502    //             }          
;;;503            }else if(mode_sw == mode_load && cdc_sw == cdc_on){
;;;504                charge_step = 1;
;;;505                hItem = WM_GetDialogItem(pMsg->hWin, ID_TEXT_119);
;;;506                TEXT_SetText(hItem,"");
;;;507                if(paused == 0){
;;;508                    second = (GUI_GetTime()/500-start_time)%60;//秒
;;;509                    minute = ((GUI_GetTime()/500-start_time)/60)%60;//分
;;;510                    hour   = (GUI_GetTime()/500-start_time)/3600;//时
;;;511                }else{
;;;512                    second = (GUI_GetTime()/500-restart_time + pause_time)%60;//秒 
;;;513                    minute = ((GUI_GetTime()/500-restart_time + pause_time)/60)%60;//分
;;;514                    hour = ((GUI_GetTime()/500-restart_time) + pause_time)/3600;//时
;;;515                }
;;;516                
;;;517                
;;;518                hItem = WM_GetDialogItem(pMsg->hWin, ID_TEXT_72);
;;;519                sprintf(buf,"%02d",hour);
;;;520                TEXT_SetTextColor(hItem, GUI_WHITE);//设置字体颜色
;;;521                TEXT_SetFont(hItem,&GUI_Font24_1);//设定文本字体
;;;522                GUI_UC_SetEncodeUTF8();        
;;;523                TEXT_SetText(hItem,buf);
;;;524    
;;;525                hItem = WM_GetDialogItem(pMsg->hWin, ID_TEXT_73);
;;;526                sprintf(buf,"%02d",minute);
;;;527                TEXT_SetTextColor(hItem, GUI_WHITE);//设置字体颜色
;;;528                TEXT_SetFont(hItem,&GUI_Font24_1);//设定文本字体
;;;529                GUI_UC_SetEncodeUTF8();        
;;;530                TEXT_SetText(hItem,buf);
;;;531                
;;;532                hItem = WM_GetDialogItem(pMsg->hWin, ID_TEXT_74);
;;;533                sprintf(buf,"%02d",second);
;;;534                TEXT_SetTextColor(hItem, GUI_WHITE);//设置字体颜色
;;;535                TEXT_SetFont(hItem,&GUI_Font24_1);//设定文本字体
;;;536                GUI_UC_SetEncodeUTF8();        
;;;537                TEXT_SetText(hItem,buf);
;;;538                
;;;539                hItem = WM_GetDialogItem(pMsg->hWin, ID_TEXT_75);
;;;540                TEXT_SetTextColor(hItem, GUI_WHITE);//设置字体颜色
;;;541                TEXT_SetFont(hItem,&GUI_Font24_1);//设定文本字体
;;;542                GUI_UC_SetEncodeUTF8();        
;;;543                TEXT_SetText(hItem,":");
;;;544                
;;;545                hItem = WM_GetDialogItem(pMsg->hWin, ID_TEXT_76);
;;;546                TEXT_SetTextColor(hItem, GUI_WHITE);//设置字体颜色
;;;547                TEXT_SetFont(hItem,&GUI_Font24_1);//设定文本字体
;;;548                GUI_UC_SetEncodeUTF8();        
;;;549                TEXT_SetText(hItem,":");
;;;550                
;;;551                
;;;552                
;;;553                
;;;554                hItem = WM_GetDialogItem(pMsg->hWin, ID_TEXT_66);
;;;555                sprintf(buf,"%.2f",DISS_Voltage);       
;;;556                TEXT_SetText(hItem,buf);
;;;557                
;;;558                hItem = WM_GetDialogItem(pMsg->hWin, ID_TEXT_67);
;;;559                sprintf(buf,"%.2f",DISS_Current);       
;;;560                TEXT_SetText(hItem,buf);
;;;561                
;;;562                battery_c = (int)(((float)(second + minute*60 + hour * 3600)/3600 * dis_load_c)*1000);
;;;563                hItem = WM_GetDialogItem(pMsg->hWin, ID_TEXT_68);
;;;564                sprintf(buf,"%05d",battery_c);
;;;565                TEXT_SetText(hItem,buf);
;;;566                
;;;567                hItem = WM_GetDialogItem(pMsg->hWin, ID_TEXT_69);
;;;568                TEXT_SetTextColor(hItem, GUI_WHITE);//设置字体颜色
;;;569                
;;;570                hItem = WM_GetDialogItem(pMsg->hWin, ID_TEXT_70);
;;;571                TEXT_SetTextColor(hItem, GUI_RED);//设置字体颜色
;;;572                
;;;573                if(status_flash == 0){
;;;574                    hItem = WM_GetDialogItem(pMsg->hWin, ID_TEXT_71);
;;;575                    TEXT_SetTextColor(hItem, GUI_RED);//设置字体颜色
;;;576                    if(lang == 0)
;;;577                    {
;;;578                        TEXT_SetFont(hItem,&GUI_FontHZ16);//设定文本字体
;;;579                        GUI_UC_SetEncodeUTF8();        
;;;580                        TEXT_SetText(hItem,"放电中");
;;;581                    }else{
;;;582                        TEXT_SetFont(hItem,&GUI_Font20_ASCII);//设定文本字体
;;;583                        GUI_UC_SetEncodeUTF8();        
;;;584                        TEXT_SetText(hItem,"Discharging");
;;;585                    }
;;;586                    status_flash = 1;
;;;587                }else{
;;;588                    hItem = WM_GetDialogItem(pMsg->hWin, ID_TEXT_71);
;;;589                    TEXT_SetText(hItem,"");
;;;590                    status_flash = 0;
;;;591                }
;;;592                if(pause_flag == 1){
;;;593                    GPIO_SetBits(GPIOC,GPIO_Pin_1);//关闭负载
;;;594                    cdc_sw = cdc_off;
;;;595                    paused = 1;
;;;596                    
;;;597                    pause_time = second + minute*60 + hour*3600;
;;;598                }
;;;599                
;;;600                if(DISS_Voltage < dis_dc_cutoff_v && cutoff_flag == 0)
;;;601                {
;;;602                    cutoff_time = GUI_GetTime()/500;
;;;603                    cutoff_flag = 1;
;;;604                }
;;;605                
;;;606                if(DISS_Voltage < dis_dc_cutoff_v && (GUI_GetTime()/500 - cutoff_time) >= 10)//若测量电压小于截止电压
;;;607                {
;;;608                    if(mode_sw == mode_load){
;;;609                        end_time = GUI_GetTime()/500;//记录结束时间
;;;610                        count++;
;;;611                    }
;;;612                            
;;;613                    GPIO_SetBits(GPIOC,GPIO_Pin_1);//关闭负载
;;;614                    if(count > set_loop_count){
;;;615                        cdc_sw = cdc_off;//关闭充放电模式
;;;616                        battery_c = (c_sum + (int)(((float)(end_time - start_time)/3600 * dis_load_c)*1000))/set_loop_count;                    
;;;617                        count = 1;
;;;618                        
;;;619                        hItem = WM_GetDialogItem(pMsg->hWin, ID_TEXT_68);
;;;620                        sprintf(buf,"%05d",battery_c);
;;;621                        TEXT_SetText(hItem,buf);
;;;622                        
;;;623                        hItem = WM_GetDialogItem(pMsg->hWin, ID_TEXT_71);
;;;624                        TEXT_SetText(hItem,"");
;;;625                        
;;;626                        hItem = WM_GetDialogItem(pMsg->hWin, ID_TEXT_72);       
;;;627                        TEXT_SetText(hItem,"");
;;;628    
;;;629                        hItem = WM_GetDialogItem(pMsg->hWin, ID_TEXT_73);     
;;;630                        TEXT_SetText(hItem,"");
;;;631                        
;;;632                        hItem = WM_GetDialogItem(pMsg->hWin, ID_TEXT_74);      
;;;633                        TEXT_SetText(hItem,"");
;;;634                        
;;;635                        hItem = WM_GetDialogItem(pMsg->hWin, ID_TEXT_75);       
;;;636                        TEXT_SetText(hItem,"");
;;;637                        
;;;638                        hItem = WM_GetDialogItem(pMsg->hWin, ID_TEXT_76);       
;;;639                        TEXT_SetText(hItem,"");
;;;640                        
;;;641                        hItem = WM_GetDialogItem(pMsg->hWin, ID_TEXT_77);
;;;642                        TEXT_SetText(hItem,"");
;;;643                            
;;;644                        hItem = WM_GetDialogItem(pMsg->hWin, ID_TEXT_78);
;;;645                        TEXT_SetText(hItem,"");
;;;646                        
;;;647                        hItem = WM_GetDialogItem(pMsg->hWin, ID_TEXT_79);
;;;648                        TEXT_SetText(hItem,"");
;;;649                        
;;;650                    }else{
;;;651                        c_sum = c_sum + (int)(((float)(end_time - start_time)/3600 * dis_load_c)*1000);
;;;652                        Mode_SW_CONT(0x03);//切换至电源模式
;;;653    //                     hItem = WM_GetDialogItem(pMsg->hWin, ID_TEXT_68);
;;;654    //                     sprintf(buf,"%05d",battery_c);
;;;655    //                     TEXT_SetText(hItem,buf);
;;;656                        GPIO_SetBits(GPIOB,GPIO_Pin_13);//打开稳压电源输出
;;;657                        cutoff_flag = 0;                           
;;;658                    }
;;;659                }
;;;660            }else if(pause_flag == 1 && battery_c != 0){
;;;661                hItem = WM_GetDialogItem(pMsg->hWin, ID_TEXT_66);
;;;662                sprintf(buf,"%.2f",0.00);       
000080  ed9fbbe7          VLDR     d11,|L9.1056|
000084  4fe8              LDR      r7,|L9.1064|
000086  f44f75fa          MOV      r5,#0x1f4             ;350
00008a  281d              CMP      r0,#0x1d              ;200
00008c  d074              BEQ      |L9.376|
00008e  f5a07080          SUB      r0,r0,#0x100          ;200
000092  3813              SUBS     r0,r0,#0x13           ;200
000094  d05b              BEQ      |L9.334|
;;;663                TEXT_SetText(hItem,buf);
;;;664                    
;;;665                hItem = WM_GetDialogItem(pMsg->hWin, ID_TEXT_67);
;;;666                sprintf(buf,"%.2f",0.00);       
;;;667                TEXT_SetText(hItem,buf);
;;;668                
;;;669                hItem = WM_GetDialogItem(pMsg->hWin, ID_TEXT_69);
;;;670                TEXT_SetTextColor(hItem, GUI_WHITE);//设置字体颜色
;;;671                
;;;672                hItem = WM_GetDialogItem(pMsg->hWin, ID_TEXT_70);
;;;673                TEXT_SetTextColor(hItem, GUI_WHITE);//设置字体颜色   
;;;674                    
;;;675                hItem = WM_GetDialogItem(pMsg->hWin, ID_TEXT_71);
;;;676                TEXT_SetText(hItem,"");
;;;677                
;;;678            }else if(cdc_sw == cdc_off){
;;;679                hItem = WM_GetDialogItem(pMsg->hWin, ID_TEXT_66);
;;;680                sprintf(buf,"%.2f",0.00);       
;;;681                TEXT_SetText(hItem,buf);
;;;682                    
;;;683                hItem = WM_GetDialogItem(pMsg->hWin, ID_TEXT_67);
;;;684                sprintf(buf,"%.2f",0.00);       
;;;685                TEXT_SetText(hItem,buf);
;;;686                
;;;687                hItem = WM_GetDialogItem(pMsg->hWin, ID_TEXT_119);
;;;688                TEXT_SetText(hItem,"");
;;;689                
;;;690                hItem = WM_GetDialogItem(pMsg->hWin, ID_TEXT_69);
;;;691                TEXT_SetTextColor(hItem, GUI_WHITE);//设置字体颜色
;;;692                
;;;693                hItem = WM_GetDialogItem(pMsg->hWin, ID_TEXT_70);
;;;694                TEXT_SetTextColor(hItem, GUI_WHITE);//设置字体颜色
;;;695                
;;;696                hItem = WM_GetDialogItem(pMsg->hWin, ID_TEXT_71);
;;;697                TEXT_SetText(hItem,"");
;;;698            }            
;;;699    		WM_RestartTimer(pMsg->Data.v, 497);//شλ֨ʱǷ˽ֵԽճˢтʱݤԽ׌
;;;700    	}
;;;701    	break;
;;;702        
;;;703    		
;;;704      case WM_INIT_DIALOG:
;;;705        //
;;;706        // Initialization of 'R'
;;;707    	
;;;708        //
;;;709            hItem = pMsg->hWin;
;;;710            WINDOW_SetBkColor(hItem, GUI_BLACK);
;;;711    		WM_CreateTimer(hItem,ID_TimerTime4,500,0);//ԴݨѾ԰ࠚ֨ʱǷ
;;;712    
;;;713            if(lang ==0)
;;;714            {
;;;715                hItem = WM_GetDialogItem(pMsg->hWin, ID_BUTTON_25);
;;;716                BUTTON_SetTextColor(hItem,0,GUI_BLACK);//ʨ׃ؖͥҕɫΪۚɫ
;;;717                BUTTON_SetFont      (hItem,    &GUI_FontHZ16);//ʨ֨дťτѾؖͥ
;;;718                GUI_UC_SetEncodeUTF8();
;;;719                BUTTON_SetText(hItem,"内阻测试");
;;;720            
;;;721                hItem = WM_GetDialogItem(pMsg->hWin, ID_BUTTON_26);
;;;722                BUTTON_SetTextColor(hItem,0,GUI_BLACK);//ʨ׃ؖͥҕɫΪۚɫ
;;;723                BUTTON_SetFont      (hItem,    &GUI_FontHZ16);//ʨ֨дťτѾؖͥ
;;;724                GUI_UC_SetEncodeUTF8();
;;;725                BUTTON_SetText(hItem,"程控负载");
;;;726                
;;;727                hItem = WM_GetDialogItem(pMsg->hWin, ID_BUTTON_27);
;;;728                BUTTON_SetTextColor(hItem,0,GUI_BLACK);//ʨ׃ؖͥҕɫΪۚɫ
;;;729                BUTTON_SetFont      (hItem,    &GUI_FontHZ16);//ʨ֨дťτѾؖͥ
;;;730                GUI_UC_SetEncodeUTF8();
;;;731                BUTTON_SetText(hItem,"程控电源");
;;;732                
;;;733                hItem = WM_GetDialogItem(pMsg->hWin, ID_BUTTON_28);
;;;734                BUTTON_SetPressed(hItem,1);
;;;735                BUTTON_SetTextColor(hItem,0,GUI_BLACK);//ʨ׃ؖͥҕɫΪۚɫ
;;;736                BUTTON_SetFont      (hItem,    &GUI_FontHZ16);//ʨ֨дťτѾؖͥ
;;;737                GUI_UC_SetEncodeUTF8();
;;;738                BUTTON_SetText(hItem,"充放电");
;;;739                
;;;740                hItem = WM_GetDialogItem(pMsg->hWin, ID_BUTTON_29);
;;;741                BUTTON_SetTextColor(hItem,0,GUI_BLACK);//ʨ׃ؖͥҕɫΪۚɫ
;;;742                BUTTON_SetFont      (hItem,&GUI_FontHZ16);//ʨ֨дťτѾؖͥ
;;;743                GUI_UC_SetEncodeUTF8();
;;;744                BUTTON_SetText(hItem,"曲线");
;;;745            }else{
;;;746                hItem = WM_GetDialogItem(pMsg->hWin, ID_BUTTON_25);
;;;747                BUTTON_SetTextColor(hItem,0,GUI_BLACK);//ʨ׃ؖͥҕɫΪۚɫ
;;;748                BUTTON_SetFont      (hItem,    &GUI_Font16B_ASCII);//ʨ֨дťτѾؖͥ
;;;749                GUI_UC_SetEncodeUTF8();
;;;750                BUTTON_SetText(hItem,"I.R. TEST");
;;;751            
;;;752                hItem = WM_GetDialogItem(pMsg->hWin, ID_BUTTON_26);
;;;753                BUTTON_SetTextColor(hItem,0,GUI_BLACK);//ʨ׃ؖͥҕɫΪۚɫ
;;;754                BUTTON_SetFont      (hItem,    &GUI_Font16B_ASCII);//ʨ֨дťτѾؖͥ
;;;755                GUI_UC_SetEncodeUTF8();
;;;756                BUTTON_SetText(hItem,"LOAD");
;;;757                
;;;758                hItem = WM_GetDialogItem(pMsg->hWin, ID_BUTTON_27);
;;;759                BUTTON_SetTextColor(hItem,0,GUI_BLACK);//ʨ׃ؖͥҕɫΪۚɫ
;;;760                BUTTON_SetFont      (hItem,    &GUI_Font16B_ASCII);//ʨ֨дťτѾؖͥ
;;;761                GUI_UC_SetEncodeUTF8();
;;;762                BUTTON_SetText(hItem,"POWER");
;;;763                
;;;764                hItem = WM_GetDialogItem(pMsg->hWin, ID_BUTTON_28);
;;;765                BUTTON_SetPressed(hItem,1);
;;;766                BUTTON_SetTextColor(hItem,0,GUI_BLACK);//ʨ׃ؖͥҕɫΪۚɫ
;;;767                BUTTON_SetFont      (hItem,    &GUI_Font16B_ASCII);//ʨ֨дťτѾؖͥ
;;;768                GUI_UC_SetEncodeUTF8();
;;;769                BUTTON_SetText(hItem,"C&DC");
;;;770                
;;;771                hItem = WM_GetDialogItem(pMsg->hWin, ID_BUTTON_29);
;;;772                BUTTON_SetTextColor(hItem,0,GUI_BLACK);//ʨ׃ؖͥҕɫΪۚɫ
;;;773                BUTTON_SetFont      (hItem,&GUI_Font16B_ASCII);//ʨ֨дťτѾؖͥ
;;;774                GUI_UC_SetEncodeUTF8();
;;;775                BUTTON_SetText(hItem,"GRAPH");
;;;776            }
;;;777            
;;;778            hItem = WM_GetDialogItem(pMsg->hWin, ID_TEXT_17);
;;;779    		TEXT_SetTextColor(hItem, GUI_LIGHTGRAY);//设置字体颜色
;;;780            TEXT_SetFont(hItem,&GUI_FontEN40);//设定文本字体
;;;781    		GUI_UC_SetEncodeUTF8();
;;;782    		TEXT_SetText(hItem,"V:");
;;;783    		
;;;784    		hItem = WM_GetDialogItem(pMsg->hWin, ID_TEXT_18);
;;;785    		TEXT_SetTextColor(hItem, GUI_LIGHTGRAY);//设置字体颜色
;;;786            TEXT_SetFont(hItem,&GUI_FontEN40);//设定文本字体
;;;787    		GUI_UC_SetEncodeUTF8();
;;;788    		TEXT_SetText(hItem,"I:");
;;;789            
;;;790            hItem = WM_GetDialogItem(pMsg->hWin, ID_TEXT_19);
;;;791    		TEXT_SetTextColor(hItem, GUI_LIGHTGRAY);//设置字体颜色
;;;792            TEXT_SetFont(hItem,&GUI_FontEN40);//设定文本字体
;;;793    		GUI_UC_SetEncodeUTF8();
;;;794    		TEXT_SetText(hItem,"V");
;;;795    		
;;;796    		hItem = WM_GetDialogItem(pMsg->hWin, ID_TEXT_20);
;;;797    		TEXT_SetTextColor(hItem, GUI_LIGHTGRAY);//设置字体颜色
;;;798            TEXT_SetFont(hItem,&GUI_FontEN40);//设定文本字体
;;;799    		GUI_UC_SetEncodeUTF8();
;;;800    		TEXT_SetText(hItem,"A");
;;;801            
;;;802            if(lang == 0)
;;;803            {
;;;804                hItem = WM_GetDialogItem(pMsg->hWin, ID_TEXT_50);
;;;805                TEXT_SetTextColor(hItem, GUI_BLACK);//设置字体颜色
;;;806                TEXT_SetBkColor(hItem,0x00BFFFFF);
;;;807                TEXT_SetFont(hItem,&GUI_Fontset_font);//设定文本字体
;;;808                GUI_UC_SetEncodeUTF8(); 
;;;809                TEXT_SetText(hItem,"输出电压1");        
;;;810                
;;;811                hItem = WM_GetDialogItem(pMsg->hWin, ID_TEXT_51);
;;;812                TEXT_SetTextColor(hItem, GUI_WHITE);//设置字体颜色
;;;813                TEXT_SetFont(hItem,&GUI_Fontset_font);//设定文本字体
;;;814                GUI_UC_SetEncodeUTF8();
;;;815                TEXT_SetText(hItem,"限制电流1");
;;;816                
;;;817                hItem = WM_GetDialogItem(pMsg->hWin, ID_TEXT_58);
;;;818                TEXT_SetTextColor(hItem, GUI_WHITE);//设置字体颜色
;;;819                TEXT_SetFont(hItem,&GUI_Fontset_font);//设定文本字体
;;;820                GUI_UC_SetEncodeUTF8();
;;;821                TEXT_SetText(hItem,"截止电压1");
;;;822                
;;;823                hItem = WM_GetDialogItem(pMsg->hWin, ID_TEXT_59);
;;;824                TEXT_SetTextColor(hItem, GUI_WHITE);//设置字体颜色
;;;825                TEXT_SetFont(hItem,&GUI_Fontset_font);//设定文本字体
;;;826                GUI_UC_SetEncodeUTF8();
;;;827                TEXT_SetText(hItem,"截止电流1");
;;;828                
;;;829                hItem = WM_GetDialogItem(pMsg->hWin, ID_TEXT_52);
;;;830                TEXT_SetTextColor(hItem, GUI_WHITE);//设置字体颜色
;;;831                TEXT_SetFont(hItem,&GUI_Fontset_font);//设定文本字体
;;;832                GUI_UC_SetEncodeUTF8();
;;;833                TEXT_SetText(hItem,"负载电流");
;;;834    
;;;835                hItem = WM_GetDialogItem(pMsg->hWin, ID_TEXT_60);
;;;836                TEXT_SetTextColor(hItem, GUI_WHITE);//设置字体颜色
;;;837                TEXT_SetFont(hItem,&GUI_Fontset_font);//设定文本字体
;;;838                GUI_UC_SetEncodeUTF8();
;;;839                TEXT_SetText(hItem,"截止电压");
;;;840                
;;;841        //         hItem = WM_GetDialogItem(pMsg->hWin, ID_TEXT_61);
;;;842        // 		TEXT_SetTextColor(hItem, GUI_WHITE);//设置字体颜色
;;;843        //         TEXT_SetFont(hItem,&GUI_Fontset_font);//设定文本字体
;;;844        // 		GUI_UC_SetEncodeUTF8();
;;;845        // 		TEXT_SetText(hItem,"截止电流");
;;;846                
;;;847                hItem = WM_GetDialogItem(pMsg->hWin, ID_TEXT_53);
;;;848                TEXT_SetTextColor(hItem, GUI_WHITE);//设置字体颜色
;;;849                TEXT_SetFont(hItem,&GUI_Fontset_font);//设定文本字体
;;;850                GUI_UC_SetEncodeUTF8();
;;;851                TEXT_SetText(hItem,"循环次数");
;;;852            }else{
;;;853                hItem = WM_GetDialogItem(pMsg->hWin, ID_TEXT_50);
;;;854                TEXT_SetTextColor(hItem, GUI_BLACK);//设置字体颜色
;;;855                TEXT_SetBkColor(hItem,0x00BFFFFF);
;;;856                TEXT_SetFont(hItem,&GUI_Font20_ASCII);//设定文本字体
;;;857                GUI_UC_SetEncodeUTF8(); 
;;;858                TEXT_SetText(hItem,"Output V1");        
;;;859                
;;;860                hItem = WM_GetDialogItem(pMsg->hWin, ID_TEXT_51);
;;;861                TEXT_SetTextColor(hItem, GUI_WHITE);//设置字体颜色
;;;862                TEXT_SetFont(hItem,&GUI_Font20_ASCII);//设定文本字体
;;;863                GUI_UC_SetEncodeUTF8();
;;;864                TEXT_SetText(hItem,"Limiting C1");
;;;865                
;;;866                hItem = WM_GetDialogItem(pMsg->hWin, ID_TEXT_58);
;;;867                TEXT_SetTextColor(hItem, GUI_WHITE);//设置字体颜色
;;;868                TEXT_SetFont(hItem,&GUI_Font20_ASCII);//设定文本字体
;;;869                GUI_UC_SetEncodeUTF8();
;;;870                TEXT_SetText(hItem,"Cutoff V1");
;;;871                
;;;872                hItem = WM_GetDialogItem(pMsg->hWin, ID_TEXT_59);
;;;873                TEXT_SetTextColor(hItem, GUI_WHITE);//设置字体颜色
;;;874                TEXT_SetFont(hItem,&GUI_Font20_ASCII);//设定文本字体
;;;875                GUI_UC_SetEncodeUTF8();
;;;876                TEXT_SetText(hItem,"Cutoff C1");
;;;877                
;;;878                hItem = WM_GetDialogItem(pMsg->hWin, ID_TEXT_52);
;;;879                TEXT_SetTextColor(hItem, GUI_WHITE);//设置字体颜色
;;;880                TEXT_SetFont(hItem,&GUI_Font20_ASCII);//设定文本字体
;;;881                GUI_UC_SetEncodeUTF8();
;;;882                TEXT_SetText(hItem,"Load C");
;;;883    
;;;884                hItem = WM_GetDialogItem(pMsg->hWin, ID_TEXT_60);
;;;885                TEXT_SetTextColor(hItem, GUI_WHITE);//设置字体颜色
;;;886                TEXT_SetFont(hItem,&GUI_Font20_ASCII);//设定文本字体
;;;887                GUI_UC_SetEncodeUTF8();
;;;888                TEXT_SetText(hItem,"Cutoff V");
;;;889                
;;;890        //         hItem = WM_GetDialogItem(pMsg->hWin, ID_TEXT_61);
;;;891        // 		TEXT_SetTextColor(hItem, GUI_WHITE);//设置字体颜色
;;;892        //         TEXT_SetFont(hItem,&GUI_Fontset_font);//设定文本字体
;;;893        // 		GUI_UC_SetEncodeUTF8();
;;;894        // 		TEXT_SetText(hItem,"截止电流");
;;;895                
;;;896                hItem = WM_GetDialogItem(pMsg->hWin, ID_TEXT_53);
;;;897                TEXT_SetTextColor(hItem, GUI_WHITE);//设置字体颜色
;;;898                TEXT_SetFont(hItem,&GUI_Font20_ASCII);//设定文本字体
;;;899                GUI_UC_SetEncodeUTF8();
;;;900                TEXT_SetText(hItem,"Cycle times");
;;;901            }
;;;902            
;;;903            hItem = WM_GetDialogItem(pMsg->hWin, ID_TEXT_54);
;;;904            sprintf(buf,"%.2f",dis_output_v);
;;;905    		TEXT_SetTextColor(hItem, GUI_WHITE);//设置字体颜色
;;;906            TEXT_SetFont(hItem,&GUI_Font24_1);//设定文本字体
;;;907    		GUI_UC_SetEncodeUTF8();        
;;;908    		TEXT_SetText(hItem,buf);
;;;909            
;;;910            hItem = WM_GetDialogItem(pMsg->hWin, ID_TEXT_55);
;;;911            sprintf(buf,"%.2f",dis_output_c);
;;;912    		TEXT_SetTextColor(hItem, GUI_WHITE);//设置字体颜色
;;;913            TEXT_SetFont(hItem,&GUI_Font24_1);//设定文本字体
;;;914    		GUI_UC_SetEncodeUTF8();        
;;;915    		TEXT_SetText(hItem,buf);
;;;916            
;;;917            hItem = WM_GetDialogItem(pMsg->hWin, ID_TEXT_56);
;;;918            sprintf(buf,"%.2f",dis_load_c);
;;;919    		TEXT_SetTextColor(hItem, GUI_WHITE);//设置字体颜色
;;;920            TEXT_SetFont(hItem,&GUI_Font24_1);//设定文本字体
;;;921    		GUI_UC_SetEncodeUTF8();        
;;;922    		TEXT_SetText(hItem,buf);
;;;923            
;;;924            hItem = WM_GetDialogItem(pMsg->hWin, ID_TEXT_57);
;;;925            sprintf(buf,"%2d",set_loop_count);
;;;926            TEXT_SetTextColor(hItem, GUI_WHITE);//设置字体颜色
;;;927            TEXT_SetFont(hItem,&GUI_Font24_1);//设定文本字体
;;;928            GUI_UC_SetEncodeUTF8();        
;;;929            TEXT_SetText(hItem,buf);            
;;;930    
;;;931    
;;;932            
;;;933            hItem = WM_GetDialogItem(pMsg->hWin, ID_TEXT_62);
;;;934            sprintf(buf,"%.2f",dis_c_cutoff_v);
;;;935    		TEXT_SetTextColor(hItem, GUI_WHITE);//设置字体颜色
;;;936            TEXT_SetFont(hItem,&GUI_Font24_1);//设定文本字体
;;;937    		GUI_UC_SetEncodeUTF8();        
;;;938    		TEXT_SetText(hItem,buf);
;;;939            
;;;940            hItem = WM_GetDialogItem(pMsg->hWin, ID_TEXT_63);
;;;941            sprintf(buf,"%.2f",dis_c_cutoff_c);
;;;942    		TEXT_SetTextColor(hItem, GUI_WHITE);//设置字体颜色
;;;943            TEXT_SetFont(hItem,&GUI_Font24_1);//设定文本字体
;;;944    		GUI_UC_SetEncodeUTF8();        
;;;945    		TEXT_SetText(hItem,buf);
;;;946            
;;;947            hItem = WM_GetDialogItem(pMsg->hWin, ID_TEXT_64);
;;;948            sprintf(buf,"%.2f",dis_dc_cutoff_v);
;;;949    		TEXT_SetTextColor(hItem, GUI_WHITE);//设置字体颜色
;;;950            TEXT_SetFont(hItem,&GUI_Font24_1);//设定文本字体
;;;951    		GUI_UC_SetEncodeUTF8();        
;;;952    		TEXT_SetText(hItem,buf);
;;;953            
;;;954    //         hItem = WM_GetDialogItem(pMsg->hWin, ID_TEXT_65);
;;;955    //         sprintf(dc_cutoff_c,"%.2f",dis_dc_cutoff_c);
;;;956    // 		TEXT_SetTextColor(hItem, GUI_WHITE);//设置字体颜色
;;;957    //         TEXT_SetFont(hItem,&GUI_Font24_1);//设定文本字体
;;;958    // 		GUI_UC_SetEncodeUTF8();        
;;;959    // 		TEXT_SetText(hItem,dc_cutoff_c);
;;;960            
;;;961            hItem = WM_GetDialogItem(pMsg->hWin, ID_TEXT_66);
;;;962            sprintf(buf,"%.2f",0.00);
;;;963            TEXT_SetTextColor(hItem, GUI_GREEN);//设置字体颜色
;;;964            TEXT_SetFont(hItem,&GUI_FontD24x32);//设定文本字体
;;;965            GUI_UC_SetEncodeUTF8();        
;;;966            TEXT_SetText(hItem,buf);
;;;967                
;;;968            hItem = WM_GetDialogItem(pMsg->hWin, ID_TEXT_67);
;;;969            sprintf(buf,"%.2f",0.00);
;;;970            TEXT_SetTextColor(hItem, GUI_GREEN);//设置字体颜色
;;;971            TEXT_SetFont(hItem,&GUI_FontD24x32);//设定文本字体
;;;972            GUI_UC_SetEncodeUTF8();        
;;;973            TEXT_SetText(hItem,buf);    
;;;974                
;;;975            hItem = WM_GetDialogItem(pMsg->hWin, ID_TEXT_68);
;;;976            sprintf(buf,"%05d",0);
;;;977            TEXT_SetTextColor(hItem, GUI_GREEN);//设置字体颜色
;;;978            TEXT_SetFont(hItem,&GUI_FontD24x32);//设定文本字体
;;;979            GUI_UC_SetEncodeUTF8();        
;;;980            TEXT_SetText(hItem,buf);
;;;981            
;;;982            hItem = WM_GetDialogItem(pMsg->hWin, ID_TEXT_69);
;;;983            TEXT_SetTextColor(hItem, GUI_WHITE);//设置字体颜色
;;;984            if(lang == 0)
;;;985            {
;;;986                TEXT_SetFont(hItem,&GUI_FontHZ16);//设定文本字体
;;;987                GUI_UC_SetEncodeUTF8();        
;;;988                TEXT_SetText(hItem,"充电");
;;;989            }else{
;;;990                TEXT_SetFont(hItem,&GUI_FontHZ16);//设定文本字体
;;;991                GUI_UC_SetEncodeUTF8();        
;;;992                TEXT_SetText(hItem,"Charge");
;;;993            }
;;;994            
;;;995            hItem = WM_GetDialogItem(pMsg->hWin, ID_TEXT_77);
;;;996            TEXT_SetTextColor(hItem, GUI_GREEN);//设置字体颜色
;;;997            TEXT_SetFont(hItem,&GUI_Font24_1);//设定文本字体
;;;998            GUI_UC_SetEncodeUTF8();
;;;999            TEXT_SetText(hItem,"");
;;;1000               
;;;1001           hItem = WM_GetDialogItem(pMsg->hWin, ID_TEXT_78);
;;;1002           TEXT_SetTextColor(hItem, GUI_GREEN);//设置字体颜色
;;;1003           TEXT_SetFont(hItem,&GUI_Font24_1);//设定文本字体
;;;1004           GUI_UC_SetEncodeUTF8();
;;;1005           TEXT_SetText(hItem,"");
;;;1006               
;;;1007           hItem = WM_GetDialogItem(pMsg->hWin, ID_TEXT_79);
;;;1008           TEXT_SetTextColor(hItem, GUI_GREEN);//设置字体颜色
;;;1009           TEXT_SetFont(hItem,&GUI_Font24_1);//设定文本字体
;;;1010           GUI_UC_SetEncodeUTF8();
;;;1011           TEXT_SetText(hItem,"");
;;;1012           
;;;1013           hItem = WM_GetDialogItem(pMsg->hWin, ID_TEXT_119);
;;;1014           TEXT_SetTextColor(hItem, GUI_RED);//设置字体颜色
;;;1015           TEXT_SetFont(hItem,&GUI_Fontset_font);//设定文本字体
;;;1016           GUI_UC_SetEncodeUTF8();        
;;;1017           TEXT_SetText(hItem,"");
;;;1018           
;;;1019           hItem = WM_GetDialogItem(pMsg->hWin, ID_TEXT_70);
;;;1020           TEXT_SetTextColor(hItem, GUI_WHITE);//设置字体颜色
;;;1021           if(lang == 0)
;;;1022           {
;;;1023               TEXT_SetFont(hItem,&GUI_FontHZ16);//设定文本字体
;;;1024               GUI_UC_SetEncodeUTF8();        
;;;1025               TEXT_SetText(hItem,"放电");
;;;1026           }else{
;;;1027               TEXT_SetFont(hItem,&GUI_FontHZ16);//设定文本字体
;;;1028               GUI_UC_SetEncodeUTF8();        
;;;1029               TEXT_SetText(hItem,"Discharge");
;;;1030           }
;;;1031           
;;;1032           
;;;1033       // USER START (Optionally insert additional code for further widget initialization)
;;;1034       // USER END
;;;1035           break;
;;;1036     // USER START (Optionally insert additional message handling)
;;;1037     // USER END
;;;1038       default:
;;;1039           WM_DefaultProc(pMsg);
000096  4620              MOV      r0,r4
000098  f7fffffe          BL       WM_DefaultProc
                  |L9.156|
;;;1040           break;
;;;1041     }
;;;1042   }
00009c  b003              ADD      sp,sp,#0xc
00009e  ecbd8b0a          VPOP     {d8-d12}
0000a2  e8bd8ff0          POP      {r4-r11,pc}
                  |L9.166|
0000a6  4648              MOV      r0,r9                 ;204
0000a8  f7fffffe          BL       GUI_SetColor
0000ac  231a              MOVS     r3,#0x1a              ;205
0000ae  f44f72f0          MOV      r2,#0x1e0             ;205
0000b2  2119              MOVS     r1,#0x19              ;205
0000b4  2000              MOVS     r0,#0                 ;205
0000b6  f7fffffe          BL       GUI_FillRect
0000ba  f24a50ff          MOV      r0,#0xa5ff            ;206
0000be  f7fffffe          BL       GUI_SetColor
0000c2  48da              LDR      r0,|L9.1068|
0000c4  f7fffffe          BL       GUI_SetFont
0000c8  f7fffffe          BL       GUI_UC_SetEncodeUTF8
0000cc  2002              MOVS     r0,#2                 ;209
0000ce  f7fffffe          BL       GUI_SetTextMode
0000d2  f8981000          LDRB     r1,[r8,#0]            ;211  ; lang
0000d6  b349              CBZ      r1,|L9.300|
0000d8  4648              MOV      r0,r9                 ;219
0000da  f7fffffe          BL       GUI_SetColor
0000de  48d4              LDR      r0,|L9.1072|
0000e0  f7fffffe          BL       GUI_SetFont
0000e4  2203              MOVS     r2,#3                 ;221
0000e6  2182              MOVS     r1,#0x82              ;221
0000e8  a0d2              ADR      r0,|L9.1076|
0000ea  f7fffffe          BL       GUI_DispStringAt
                  |L9.238|
0000ee  4648              MOV      r0,r9                 ;223
0000f0  f7fffffe          BL       GUI_SetColor
0000f4  48d1              LDR      r0,|L9.1084|
0000f6  f7fffffe          BL       GUI_SetFont
0000fa  48d1              LDR      r0,|L9.1088|
0000fc  f7fffffe          BL       GUI_SetFont
000100  4650              MOV      r0,r10                ;228
000102  f7fffffe          BL       GUI_SetColor
000106  22be              MOVS     r2,#0xbe              ;229
000108  211c              MOVS     r1,#0x1c              ;229
00010a  a0ce              ADR      r0,|L9.1092|
00010c  f7fffffe          BL       GUI_DispStringAt
000110  4650              MOV      r0,r10                ;230
000112  f7fffffe          BL       GUI_SetColor
000116  22c4              MOVS     r2,#0xc4              ;231
000118  21d9              MOVS     r1,#0xd9              ;231
00011a  a0cb              ADR      r0,|L9.1096|
00011c  f7fffffe          BL       GUI_DispStringAt
000120  22bb              MOVS     r2,#0xbb              ;232
000122  21ee              MOVS     r1,#0xee              ;232
000124  a0c9              ADR      r0,|L9.1100|
000126  f7fffffe          BL       GUI_DispStringAt
00012a  e7b7              B        |L9.156|
                  |L9.300|
00012c  4648              MOV      r0,r9                 ;213
00012e  f7fffffe          BL       GUI_SetColor
000132  48c7              LDR      r0,|L9.1104|
000134  f7fffffe          BL       GUI_SetFont
000138  f7fffffe          BL       GUI_UC_SetEncodeUTF8
00013c  2002              MOVS     r0,#2                 ;216
00013e  f7fffffe          BL       GUI_SetTextMode
000142  2203              MOVS     r2,#3                 ;217
000144  2182              MOVS     r1,#0x82              ;217
000146  a0c3              ADR      r0,|L9.1108|
000148  f7fffffe          BL       GUI_DispStringAt
00014c  e7cf              B        |L9.238|
                  |L9.334|
00014e  68e0              LDR      r0,[r4,#0xc]          ;237
000150  f7fffffe          BL       WM_GetTimerId
000154  2805              CMP      r0,#5                 ;237
000156  d1a1              BNE      |L9.156|
000158  48c2              LDR      r0,|L9.1124|
00015a  7800              LDRB     r0,[r0,#0]            ;239  ; mode_sw
00015c  2600              MOVS     r6,#0                 ;205
00015e  f04f0a01          MOV      r10,#1                ;339
000162  2803              CMP      r0,#3                 ;239
000164  d103              BNE      |L9.366|
000166  48b0              LDR      r0,|L9.1064|
000168  7940              LDRB     r0,[r0,#5]            ;239  ; cdc_sw
00016a  2801              CMP      r0,#1                 ;239
00016c  d005              BEQ      |L9.378|
                  |L9.366|
00016e  48bd              LDR      r0,|L9.1124|
000170  7800              LDRB     r0,[r0,#0]            ;503  ; mode_sw
000172  2802              CMP      r0,#2                 ;503
000174  d07d              BEQ      |L9.626|
000176  e3fd              B        |L9.2420|
                  |L9.376|
000178  e3fd              B        |L9.2422|
                  |L9.378|
00017a  f640017f          MOV      r1,#0x87f             ;242
00017e  6860              LDR      r0,[r4,#4]            ;242
000180  f7fffffe          BL       WM_GetDialogItem
000184  4607              MOV      r7,r0                 ;242
000186  f8dfb2e0          LDR      r11,|L9.1128|
00018a  f8db0000          LDR      r0,[r11,#0]           ;243  ; DISS_POW_Voltage
00018e  f7fffffe          BL       __aeabi_f2d
000192  ec410b10          VMOV     d0,r0,r1              ;243
000196  a1b5              ADR      r1,|L9.1132|
000198  ec532b10          VMOV     r2,r3,d0              ;243
00019c  4668              MOV      r0,sp                 ;243
00019e  f7fffffe          BL       __2sprintf
0001a2  4669              MOV      r1,sp                 ;244
0001a4  4638              MOV      r0,r7                 ;244
0001a6  f7fffffe          BL       TEXT_SetText
0001aa  f44f6108          MOV      r1,#0x880             ;246
0001ae  6860              LDR      r0,[r4,#4]            ;246
0001b0  f7fffffe          BL       WM_GetDialogItem
0001b4  9002              STR      r0,[sp,#8]            ;246
0001b6  4faf              LDR      r7,|L9.1140|
0001b8  6838              LDR      r0,[r7,#0]            ;247  ; DISS_POW_Current
0001ba  f7fffffe          BL       __aeabi_f2d
0001be  ec410b10          VMOV     d0,r0,r1              ;247
0001c2  a1aa              ADR      r1,|L9.1132|
0001c4  ec532b10          VMOV     r2,r3,d0              ;247
0001c8  4668              MOV      r0,sp                 ;247
0001ca  f7fffffe          BL       __2sprintf
0001ce  4669              MOV      r1,sp                 ;248
0001d0  9802              LDR      r0,[sp,#8]            ;248
0001d2  f7fffffe          BL       TEXT_SetText
0001d6  f640018a          MOV      r1,#0x88a             ;250
0001da  6860              LDR      r0,[r4,#4]            ;250
0001dc  f7fffffe          BL       WM_GetDialogItem
0001e0  9002              STR      r0,[sp,#8]            ;250
0001e2  f44f417f          MOV      r1,#0xff00            ;251
0001e6  9802              LDR      r0,[sp,#8]            ;251
0001e8  f7fffffe          BL       TEXT_SetTextColor
0001ec  4993              LDR      r1,|L9.1084|
0001ee  9802              LDR      r0,[sp,#8]            ;252
0001f0  f7fffffe          BL       TEXT_SetFont
0001f4  f7fffffe          BL       GUI_UC_SetEncodeUTF8
0001f8  a19f              ADR      r1,|L9.1144|
0001fa  9802              LDR      r0,[sp,#8]            ;254
0001fc  f7fffffe          BL       TEXT_SetText
000200  f640018b          MOV      r1,#0x88b             ;256
000204  6860              LDR      r0,[r4,#4]            ;256
000206  f7fffffe          BL       WM_GetDialogItem
00020a  9002              STR      r0,[sp,#8]            ;256
00020c  f44f417f          MOV      r1,#0xff00            ;257
000210  9802              LDR      r0,[sp,#8]            ;257
000212  f7fffffe          BL       TEXT_SetTextColor
000216  4989              LDR      r1,|L9.1084|
000218  9802              LDR      r0,[sp,#8]            ;258
00021a  f7fffffe          BL       TEXT_SetFont
00021e  f7fffffe          BL       GUI_UC_SetEncodeUTF8
000222  a196              ADR      r1,|L9.1148|
000224  9802              LDR      r0,[sp,#8]            ;260
000226  f7fffffe          BL       TEXT_SetText
00022a  f640018c          MOV      r1,#0x88c             ;262
00022e  6860              LDR      r0,[r4,#4]            ;262
000230  f7fffffe          BL       WM_GetDialogItem
000234  9002              STR      r0,[sp,#8]            ;262
000236  f44f417f          MOV      r1,#0xff00            ;263
00023a  9802              LDR      r0,[sp,#8]            ;263
00023c  f7fffffe          BL       TEXT_SetTextColor
000240  4879              LDR      r0,|L9.1064|
000242  79c2              LDRB     r2,[r0,#7]            ;264  ; count
000244  a18e              ADR      r1,|L9.1152|
000246  4668              MOV      r0,sp                 ;264
000248  f7fffffe          BL       __2sprintf
00024c  497b              LDR      r1,|L9.1084|
00024e  9802              LDR      r0,[sp,#8]            ;265
000250  f7fffffe          BL       TEXT_SetFont
000254  f7fffffe          BL       GUI_UC_SetEncodeUTF8
000258  4669              MOV      r1,sp                 ;267
00025a  9802              LDR      r0,[sp,#8]            ;267
00025c  f7fffffe          BL       TEXT_SetText
000260  f6400182          MOV      r1,#0x882             ;269
000264  6860              LDR      r0,[r4,#4]            ;269
000266  f7fffffe          BL       WM_GetDialogItem
00026a  21ff              MOVS     r1,#0xff              ;270
00026c  f7fffffe          BL       TEXT_SetTextColor
000270  e000              B        |L9.628|
                  |L9.626|
000272  e3fd              B        |L9.2672|
                  |L9.628|
000274  f6400183          MOV      r1,#0x883             ;272
000278  6860              LDR      r0,[r4,#4]            ;272
00027a  f7fffffe          BL       WM_GetDialogItem
00027e  4649              MOV      r1,r9                 ;273
000280  f7fffffe          BL       TEXT_SetTextColor
000284  f6400185          MOV      r1,#0x885             ;275
000288  6860              LDR      r0,[r4,#4]            ;275
00028a  f7fffffe          BL       WM_GetDialogItem
00028e  a174              ADR      r1,|L9.1120|
000290  f7fffffe          BL       TEXT_SetText
000294  f6400186          MOV      r1,#0x886             ;278
000298  6860              LDR      r0,[r4,#4]            ;278
00029a  f7fffffe          BL       WM_GetDialogItem
00029e  a170              ADR      r1,|L9.1120|
0002a0  f7fffffe          BL       TEXT_SetText
0002a4  f6400187          MOV      r1,#0x887             ;281
0002a8  6860              LDR      r0,[r4,#4]            ;281
0002aa  f7fffffe          BL       WM_GetDialogItem
0002ae  a16c              ADR      r1,|L9.1120|
0002b0  f7fffffe          BL       TEXT_SetText
0002b4  f6400188          MOV      r1,#0x888             ;284
0002b8  6860              LDR      r0,[r4,#4]            ;284
0002ba  f7fffffe          BL       WM_GetDialogItem
0002be  a168              ADR      r1,|L9.1120|
0002c0  f7fffffe          BL       TEXT_SetText
0002c4  f6400189          MOV      r1,#0x889             ;287
0002c8  6860              LDR      r0,[r4,#4]            ;287
0002ca  f7fffffe          BL       WM_GetDialogItem
0002ce  a164              ADR      r1,|L9.1120|
0002d0  f7fffffe          BL       TEXT_SetText
0002d4  486b              LDR      r0,|L9.1156|
0002d6  f8df91b0          LDR      r9,|L9.1160|
0002da  ed900a00          VLDR     s0,[r0,#0]            ;290
0002de  eebd0ac0          VCVT.S32.F32 s0,s0                 ;290
0002e2  ee100a10          VMOV     r0,s0                 ;290
0002e6  f8a90000          STRH     r0,[r9,#0]            ;290
0002ea  f6400181          MOV      r1,#0x881             ;291
0002ee  6860              LDR      r0,[r4,#4]            ;291
0002f0  f7fffffe          BL       WM_GetDialogItem
0002f4  9002              STR      r0,[sp,#8]            ;291
0002f6  f8b92000          LDRH     r2,[r9,#0]            ;292  ; battery_c
0002fa  a164              ADR      r1,|L9.1164|
0002fc  4668              MOV      r0,sp                 ;292
0002fe  f7fffffe          BL       __2sprintf
000302  4669              MOV      r1,sp                 ;293
000304  9802              LDR      r0,[sp,#8]            ;293
000306  f7fffffe          BL       TEXT_SetText
00030a  4847              LDR      r0,|L9.1064|
00030c  7bc0              LDRB     r0,[r0,#0xf]          ;295  ; charge_step
00030e  2801              CMP      r0,#1                 ;295
000310  d007              BEQ      |L9.802|
000312  4845              LDR      r0,|L9.1064|
000314  7bc1              LDRB     r1,[r0,#0xf]          ;306  ; charge_step
000316  2902              CMP      r1,#2                 ;306
000318  d01e              BEQ      |L9.856|
00031a  7bc0              LDRB     r0,[r0,#0xf]          ;315  ; charge_step
00031c  2803              CMP      r0,#3                 ;315
00031e  d032              BEQ      |L9.902|
000320  e042              B        |L9.936|
                  |L9.802|
000322  f640310e          MOV      r1,#0xb0e             ;297
000326  6860              LDR      r0,[r4,#4]            ;297
000328  f7fffffe          BL       WM_GetDialogItem
00032c  4681              MOV      r9,r0                 ;297
00032e  f8980000          LDRB     r0,[r8,#0]            ;298  ; lang
000332  b140              CBZ      r0,|L9.838|
000334  493e              LDR      r1,|L9.1072|
000336  4648              MOV      r0,r9                 ;303
000338  f7fffffe          BL       TEXT_SetFont
00033c  a155              ADR      r1,|L9.1172|
00033e  4648              MOV      r0,r9                 ;304
000340  f7fffffe          BL       TEXT_SetText
000344  e030              B        |L9.936|
                  |L9.838|
000346  4955              LDR      r1,|L9.1180|
000348  4648              MOV      r0,r9                 ;300
00034a  f7fffffe          BL       TEXT_SetFont
00034e  a154              ADR      r1,|L9.1184|
000350  4648              MOV      r0,r9                 ;301
000352  f7fffffe          BL       TEXT_SetText
000356  e027              B        |L9.936|
                  |L9.856|
000358  f640310e          MOV      r1,#0xb0e             ;307
00035c  6860              LDR      r0,[r4,#4]            ;307
00035e  f7fffffe          BL       WM_GetDialogItem
000362  4681              MOV      r9,r0                 ;307
000364  f8980000          LDRB     r0,[r8,#0]            ;308  ; lang
000368  b140              CBZ      r0,|L9.892|
00036a  4931              LDR      r1,|L9.1072|
00036c  4648              MOV      r0,r9                 ;312
00036e  f7fffffe          BL       TEXT_SetFont
000372  a14d              ADR      r1,|L9.1192|
000374  4648              MOV      r0,r9                 ;313
000376  f7fffffe          BL       TEXT_SetText
00037a  e015              B        |L9.936|
                  |L9.892|
00037c  a14c              ADR      r1,|L9.1200|
00037e  4648              MOV      r0,r9                 ;310
000380  f7fffffe          BL       TEXT_SetText
000384  e010              B        |L9.936|
                  |L9.902|
000386  f640310e          MOV      r1,#0xb0e             ;316
00038a  6860              LDR      r0,[r4,#4]            ;316
00038c  f7fffffe          BL       WM_GetDialogItem
000390  4681              MOV      r9,r0                 ;316
000392  f8980000          LDRB     r0,[r8,#0]            ;317  ; lang
000396  b1e0              CBZ      r0,|L9.978|
000398  4925              LDR      r1,|L9.1072|
00039a  4648              MOV      r0,r9                 ;321
00039c  f7fffffe          BL       TEXT_SetFont
0003a0  a145              ADR      r1,|L9.1208|
0003a2  4648              MOV      r0,r9                 ;322
0003a4  f7fffffe          BL       TEXT_SetText
                  |L9.936|
0003a8  f8df907c          LDR      r9,|L9.1064|
0003ac  f8990008          LDRB     r0,[r9,#8]            ;326  ; status_flash
0003b0  b1a0              CBZ      r0,|L9.988|
0003b2  f6400184          MOV      r1,#0x884             ;341
0003b6  6860              LDR      r0,[r4,#4]            ;341
0003b8  f7fffffe          BL       WM_GetDialogItem
0003bc  a128              ADR      r1,|L9.1120|
0003be  f7fffffe          BL       TEXT_SetText
0003c2  f8896008          STRB     r6,[r9,#8]            ;343
                  |L9.966|
0003c6  f8df8040          LDR      r8,|L9.1032|
0003ca  f8b80040          LDRH     r0,[r8,#0x40]         ;345  ; Run_Control
0003ce  b1c8              CBZ      r0,|L9.1028|
0003d0  e096              B        |L9.1280|
                  |L9.978|
0003d2  a13b              ADR      r1,|L9.1216|
0003d4  4648              MOV      r0,r9                 ;319
0003d6  f7fffffe          BL       TEXT_SetText
0003da  e7e5              B        |L9.936|
                  |L9.988|
0003dc  f6400184          MOV      r1,#0x884             ;327
0003e0  6860              LDR      r0,[r4,#4]            ;327
0003e2  f7fffffe          BL       WM_GetDialogItem
0003e6  9002              STR      r0,[sp,#8]            ;327
0003e8  21ff              MOVS     r1,#0xff              ;328
0003ea  9802              LDR      r0,[sp,#8]            ;328
0003ec  f7fffffe          BL       TEXT_SetTextColor
0003f0  f8980000          LDRB     r0,[r8,#0]            ;329  ; lang
0003f4  b138              CBZ      r0,|L9.1030|
0003f6  490e              LDR      r1,|L9.1072|
0003f8  9802              LDR      r0,[sp,#8]            ;335
0003fa  f7fffffe          BL       TEXT_SetFont
0003fe  f7fffffe          BL       GUI_UC_SetEncodeUTF8
000402  e061              B        |L9.1224|
                  |L9.1028|
000404  e072              B        |L9.1260|
                  |L9.1030|
000406  e066              B        |L9.1238|
                  |L9.1032|
                          DCD      Run_Control
                  |L9.1036|
00040c  42c80000          DCFS     0x42c80000 ; 100
                  |L9.1040|
000410  447a0000          DCFS     0x447a0000 ; 1000
                  |L9.1044|
                          DCD      ||.bss||
                  |L9.1048|
                          DCD      0x00d3d3d3
                  |L9.1052|
                          DCD      lang
                  |L9.1056|
000420  00000000          DCFD     0x0000000000000000 ; 0
000424  00000000
                  |L9.1064|
                          DCD      ||.data||
                  |L9.1068|
                          DCD      GUI_Fontsymbol
                  |L9.1072|
                          DCD      GUI_Font20_ASCII
                  |L9.1076|
000434  44495350          DCB      "DISPLAY",0
000438  4c415900
                  |L9.1084|
                          DCD      GUI_Font24_1
                  |L9.1088|
                          DCD      GUI_FontEN40
                  |L9.1092|
000444  433a00            DCB      "C:",0
000447  00                DCB      0
                  |L9.1096|
000448  6d00              DCB      "m",0
00044a  00                DCB      0
00044b  00                DCB      0
                  |L9.1100|
00044c  414800            DCB      "AH",0
00044f  00                DCB      0
                  |L9.1104|
                          DCD      GUI_FontHZ20S
                  |L9.1108|
000454  e6b58be9          DCB      230,181,139,233,135,143,230,152,190,231,164,186
000458  878fe698
00045c  bee7a4ba
                  |L9.1120|
000460  00                DCB      0
000461  00                DCB      0
000462  00                DCB      0
000463  00                DCB      0
                  |L9.1124|
                          DCD      mode_sw
                  |L9.1128|
                          DCD      DISS_POW_Voltage
                  |L9.1132|
00046c  252e3266          DCB      "%.2f",0
000470  00      
000471  00                DCB      0
000472  00                DCB      0
000473  00                DCB      0
                  |L9.1140|
                          DCD      DISS_POW_Current
                  |L9.1144|
000478  2800              DCB      "(",0
00047a  00                DCB      0
00047b  00                DCB      0
                  |L9.1148|
00047c  2900              DCB      ")",0
00047e  00                DCB      0
00047f  00                DCB      0
                  |L9.1152|
000480  25326400          DCB      "%2d",0
                  |L9.1156|
                          DCD      bc_raw
                  |L9.1160|
                          DCD      battery_c
                  |L9.1164|
00048c  25303564          DCB      "%05d",0
000490  00      
000491  00                DCB      0
000492  00                DCB      0
000493  00                DCB      0
                  |L9.1172|
000494  53746570          DCB      "Step1",0
000498  3100    
00049a  00                DCB      0
00049b  00                DCB      0
                  |L9.1180|
                          DCD      GUI_Fontset_font
                  |L9.1184|
0004a0  e6ada5e9          DCB      230,173,165,233,170,164,"1",0
0004a4  aaa43100
                  |L9.1192|
0004a8  53746570          DCB      "Step2",0
0004ac  3200    
0004ae  00                DCB      0
0004af  00                DCB      0
                  |L9.1200|
0004b0  e6ada5e9          DCB      230,173,165,233,170,164,"2",0
0004b4  aaa43200
                  |L9.1208|
0004b8  53746570          DCB      "Step3",0
0004bc  3300    
0004be  00                DCB      0
0004bf  00                DCB      0
                  |L9.1216|
0004c0  e6ada5e9          DCB      230,173,165,233,170,164,"3",0
0004c4  aaa43300
                  |L9.1224|
0004c8  a1fe              ADR      r1,|L9.2244|
0004ca  9802              LDR      r0,[sp,#8]            ;337
0004cc  f7fffffe          BL       TEXT_SetText
                  |L9.1232|
0004d0  f889a008          STRB     r10,[r9,#8]           ;339
0004d4  e777              B        |L9.966|
                  |L9.1238|
0004d6  49fe              LDR      r1,|L9.2256|
0004d8  9802              LDR      r0,[sp,#8]            ;331
0004da  f7fffffe          BL       TEXT_SetFont
0004de  f7fffffe          BL       GUI_UC_SetEncodeUTF8
0004e2  a1fc              ADR      r1,|L9.2260|
0004e4  9802              LDR      r0,[sp,#8]            ;333
0004e6  f7fffffe          BL       TEXT_SetText
0004ea  e7f1              B        |L9.1232|
                  |L9.1260|
0004ec  f8b80042          LDRH     r0,[r8,#0x42]         ;345  ; Run_Control
0004f0  b930              CBNZ     r0,|L9.1280|
0004f2  f8b80046          LDRH     r0,[r8,#0x46]         ;345  ; Run_Control
0004f6  b918              CBNZ     r0,|L9.1280|
0004f8  48f9              LDR      r0,|L9.2272|
0004fa  f8b00048          LDRH     r0,[r0,#0x48]         ;345  ; Run_Control
0004fe  b128              CBZ      r0,|L9.1292|
                  |L9.1280|
000500  f8b80042          LDRH     r0,[r8,#0x42]         ;377  ; Run_Control
000504  2102              MOVS     r1,#2                 ;209
000506  2800              CMP      r0,#0                 ;377
000508  d07e              BEQ      |L9.1544|
00050a  e0e5              B        |L9.1752|
                  |L9.1292|
00050c  f8df83d4          LDR      r8,|L9.2276|
000510  f8b80000          LDRH     r0,[r8,#0]            ;347  ; coff
000514  b338              CBZ      r0,|L9.1382|
000516  f8b80006          LDRH     r0,[r8,#6]            ;347  ; coff
00051a  b320              CBZ      r0,|L9.1382|
00051c  f8b80000          LDRH     r0,[r8,#0]            ;363  ; coff
000520  ee000a10          VMOV     s0,r0                 ;363
000524  eeb80a40          VCVT.F32.U32 s0,s0                 ;363
000528  eec00a2c          VDIV.F32 s1,s0,s25             ;363
00052c  ed9b0a00          VLDR     s0,[r11,#0]           ;363
000530  eef40ac0          VCMPE.F32 s1,s0                 ;363
000534  eef1fa10          VMRS     APSR_nzcv,FPSCR       ;363
000538  d840              BHI      |L9.1468|
00053a  f8b80000          LDRH     r0,[r8,#0]            ;363  ; coff
00053e  b3e8              CBZ      r0,|L9.1468|
000540  f8b80006          LDRH     r0,[r8,#6]            ;363  ; coff
000544  ee000a10          VMOV     s0,r0                 ;363
000548  eef80a40          VCVT.F32.U32 s1,s0                 ;363
00054c  ee800a8c          VDIV.F32 s0,s1,s24             ;363
000550  edd70a00          VLDR     s1,[r7,#0]            ;363
000554  eeb40ae0          VCMPE.F32 s0,s1                 ;363
000558  eef1fa10          VMRS     APSR_nzcv,FPSCR       ;363
00055c  dd7a              BLE      |L9.1620|
00055e  f8990004          LDRB     r0,[r9,#4]            ;363  ; cutoff_flag
000562  b360              CBZ      r0,|L9.1470|
000564  e076              B        |L9.1620|
                  |L9.1382|
000566  f8b80000          LDRH     r0,[r8,#0]            ;349  ; coff
00056a  ee000a10          VMOV     s0,r0                 ;349
00056e  eef80a40          VCVT.F32.U32 s1,s0                 ;349
000572  ee800aac          VDIV.F32 s0,s1,s25             ;349
000576  eddb0a00          VLDR     s1,[r11,#0]           ;349
00057a  eeb40ae0          VCMPE.F32 s0,s1                 ;349
00057e  eef1fa10          VMRS     APSR_nzcv,FPSCR       ;349
000582  d802              BHI      |L9.1418|
000584  f8b80000          LDRH     r0,[r8,#0]            ;349  ; coff
000588  b970              CBNZ     r0,|L9.1448|
                  |L9.1418|
00058a  f8b80006          LDRH     r0,[r8,#6]            ;349  ; coff
00058e  ee000a10          VMOV     s0,r0                 ;349
000592  eeb80a40          VCVT.F32.U32 s0,s0                 ;349
000596  eec00a0c          VDIV.F32 s1,s0,s24             ;349
00059a  ed970a00          VLDR     s0,[r7,#0]            ;349
00059e  eef40ac0          VCMPE.F32 s1,s0                 ;349
0005a2  eef1fa10          VMRS     APSR_nzcv,FPSCR       ;349
0005a6  dd0d              BLE      |L9.1476|
                  |L9.1448|
0005a8  f8990004          LDRB     r0,[r9,#4]            ;349  ; cutoff_flag
0005ac  b950              CBNZ     r0,|L9.1476|
0005ae  f7fffffe          BL       GUI_GetTime
0005b2  fb90f0f5          SDIV     r0,r0,r5              ;350
0005b6  f8a90010          STRH     r0,[r9,#0x10]         ;350
0005ba  e001              B        |L9.1472|
                  |L9.1468|
0005bc  e04a              B        |L9.1620|
                  |L9.1470|
0005be  e041              B        |L9.1604|
                  |L9.1472|
0005c0  f889a004          STRB     r10,[r9,#4]           ;351
                  |L9.1476|
0005c4  f8b80000          LDRH     r0,[r8,#0]            ;353  ; coff
0005c8  ee000a10          VMOV     s0,r0                 ;353
0005cc  eeb80a40          VCVT.F32.U32 s0,s0                 ;353
0005d0  eec00a2c          VDIV.F32 s1,s0,s25             ;353
0005d4  ed9b0a00          VLDR     s0,[r11,#0]           ;353
0005d8  eef40ac0          VCMPE.F32 s1,s0                 ;353
0005dc  eef1fa10          VMRS     APSR_nzcv,FPSCR       ;353
0005e0  d802              BHI      |L9.1512|
0005e2  f8b80000          LDRH     r0,[r8,#0]            ;353  ; coff
0005e6  b970              CBNZ     r0,|L9.1542|
                  |L9.1512|
0005e8  f8b80006          LDRH     r0,[r8,#6]            ;353  ; coff
0005ec  ee000a10          VMOV     s0,r0                 ;353
0005f0  eeb80a40          VCVT.F32.U32 s0,s0                 ;353
0005f4  eec00a0c          VDIV.F32 s1,s0,s24             ;353
0005f8  ed970a00          VLDR     s0,[r7,#0]            ;353
0005fc  eef40ac0          VCMPE.F32 s1,s0                 ;353
000600  eef1fa10          VMRS     APSR_nzcv,FPSCR       ;353
000604  dd1d              BLE      |L9.1602|
                  |L9.1542|
000606  e000              B        |L9.1546|
                  |L9.1544|
000608  e063              B        |L9.1746|
                  |L9.1546|
00060a  f7fffffe          BL       GUI_GetTime
00060e  fb90f0f5          SDIV     r0,r0,r5              ;353
000612  f8b91010          LDRH     r1,[r9,#0x10]         ;353  ; cutoff_time
000616  1a40              SUBS     r0,r0,r1              ;353
000618  280a              CMP      r0,#0xa               ;353
00061a  db12              BLT      |L9.1602|
00061c  48b2              LDR      r0,|L9.2280|
00061e  7800              LDRB     r0,[r0,#0]            ;355  ; mode_sw
000620  2803              CMP      r0,#3                 ;355
000622  d105              BNE      |L9.1584|
000624  f7fffffe          BL       GUI_GetTime
000628  fb90f0f5          SDIV     r0,r0,r5              ;356
00062c  49ac              LDR      r1,|L9.2272|
00062e  8748              STRH     r0,[r1,#0x3a]         ;356
                  |L9.1584|
000630  f8896004          STRB     r6,[r9,#4]            ;358
000634  2002              MOVS     r0,#2                 ;359
000636  f7fffffe          BL       Mode_SW_CONT
00063a  2102              MOVS     r1,#2                 ;360
00063c  48ab              LDR      r0,|L9.2284|
00063e  f7fffffe          BL       GPIO_ResetBits
                  |L9.1602|
000642  e169              B        |L9.2328|
                  |L9.1604|
000644  f7fffffe          BL       GUI_GetTime
000648  fb90f0f5          SDIV     r0,r0,r5              ;364
00064c  f8a90010          STRH     r0,[r9,#0x10]         ;364
000650  f889a004          STRB     r10,[r9,#4]           ;365
                  |L9.1620|
000654  f8b80000          LDRH     r0,[r8,#0]            ;367  ; coff
000658  ee000a10          VMOV     s0,r0                 ;367
00065c  eeb80a40          VCVT.F32.U32 s0,s0                 ;367
000660  eec00a2c          VDIV.F32 s1,s0,s25             ;367
000664  ed9b0a00          VLDR     s0,[r11,#0]           ;367
000668  eef40ac0          VCMPE.F32 s1,s0                 ;367
00066c  eef1fa10          VMRS     APSR_nzcv,FPSCR       ;367
000670  d8e7              BHI      |L9.1602|
000672  f8b80000          LDRH     r0,[r8,#0]            ;367  ; coff
000676  2800              CMP      r0,#0                 ;367
000678  d0e3              BEQ      |L9.1602|
00067a  f8b80006          LDRH     r0,[r8,#6]            ;367  ; coff
00067e  ee000a10          VMOV     s0,r0                 ;367
000682  eeb80a40          VCVT.F32.U32 s0,s0                 ;367
000686  eec00a0c          VDIV.F32 s1,s0,s24             ;367
00068a  ed970a00          VLDR     s0,[r7,#0]            ;367
00068e  eef40ac0          VCMPE.F32 s1,s0                 ;367
000692  eef1fa10          VMRS     APSR_nzcv,FPSCR       ;367
000696  ddd4              BLE      |L9.1602|
000698  f7fffffe          BL       GUI_GetTime
00069c  fb90f0f5          SDIV     r0,r0,r5              ;367
0006a0  f8b91010          LDRH     r1,[r9,#0x10]         ;367  ; cutoff_time
0006a4  1a40              SUBS     r0,r0,r1              ;367
0006a6  280a              CMP      r0,#0xa               ;367
0006a8  dbcb              BLT      |L9.1602|
0006aa  488f              LDR      r0,|L9.2280|
0006ac  7800              LDRB     r0,[r0,#0]            ;369  ; mode_sw
0006ae  2803              CMP      r0,#3                 ;369
0006b0  d105              BNE      |L9.1726|
0006b2  f7fffffe          BL       GUI_GetTime
0006b6  fb90f0f5          SDIV     r0,r0,r5              ;370
0006ba  4989              LDR      r1,|L9.2272|
0006bc  8748              STRH     r0,[r1,#0x3a]         ;370
                  |L9.1726|
0006be  f8896004          STRB     r6,[r9,#4]            ;372
0006c2  2002              MOVS     r0,#2                 ;373
0006c4  f7fffffe          BL       Mode_SW_CONT
0006c8  2102              MOVS     r1,#2                 ;374
0006ca  4888              LDR      r0,|L9.2284|
0006cc  f7fffffe          BL       GPIO_ResetBits
0006d0  e7b7              B        |L9.1602|
                  |L9.1746|
0006d2  f8b80048          LDRH     r0,[r8,#0x48]         ;377  ; Run_Control
0006d6  b120              CBZ      r0,|L9.1762|
                  |L9.1752|
0006d8  f8b8003e          LDRH     r0,[r8,#0x3e]         ;424  ; Run_Control
0006dc  2800              CMP      r0,#0                 ;424
0006de  d17d              BNE      |L9.2012|
0006e0  e16b              B        |L9.2490|
                  |L9.1762|
0006e2  4880              LDR      r0,|L9.2276|
0006e4  8802              LDRH     r2,[r0,#0]            ;378  ; coff
0006e6  b31a              CBZ      r2,|L9.1840|
0006e8  88c2              LDRH     r2,[r0,#6]            ;378  ; coff
0006ea  b30a              CBZ      r2,|L9.1840|
0006ec  8802              LDRH     r2,[r0,#0]            ;387  ; coff
0006ee  ee002a10          VMOV     s0,r2                 ;387
0006f2  eeb80a40          VCVT.F32.U32 s0,s0                 ;387
0006f6  eec00a2c          VDIV.F32 s1,s0,s25             ;387
0006fa  ed9b0a00          VLDR     s0,[r11,#0]           ;387
0006fe  eef40ac0          VCMPE.F32 s1,s0                 ;387
000702  eef1fa10          VMRS     APSR_nzcv,FPSCR       ;387
000706  d854              BHI      |L9.1970|
000708  8802              LDRH     r2,[r0,#0]            ;387  ; coff
00070a  b3ea              CBZ      r2,|L9.1928|
00070c  88c2              LDRH     r2,[r0,#6]            ;387  ; coff
00070e  ee002a10          VMOV     s0,r2                 ;387
000712  eeb80a40          VCVT.F32.U32 s0,s0                 ;387
000716  eec00a0c          VDIV.F32 s1,s0,s24             ;387
00071a  ed970a00          VLDR     s0,[r7,#0]            ;387
00071e  eef40ac0          VCMPE.F32 s1,s0                 ;387
000722  eef1fa10          VMRS     APSR_nzcv,FPSCR       ;387
000726  dd44              BLE      |L9.1970|
000728  f8992004          LDRB     r2,[r9,#4]            ;387  ; cutoff_flag
00072c  b36a              CBZ      r2,|L9.1930|
00072e  e040              B        |L9.1970|
                  |L9.1840|
000730  8802              LDRH     r2,[r0,#0]            ;380  ; coff
000732  ee002a10          VMOV     s0,r2                 ;380
000736  eeb80a40          VCVT.F32.U32 s0,s0                 ;380
00073a  eec00a2c          VDIV.F32 s1,s0,s25             ;380
00073e  ed9b0a00          VLDR     s0,[r11,#0]           ;380
000742  eef40ac0          VCMPE.F32 s1,s0                 ;380
000746  eef1fa10          VMRS     APSR_nzcv,FPSCR       ;380
00074a  d801              BHI      |L9.1872|
00074c  8802              LDRH     r2,[r0,#0]            ;380  ; coff
00074e  b96a              CBNZ     r2,|L9.1900|
                  |L9.1872|
000750  88c2              LDRH     r2,[r0,#6]            ;380  ; coff
000752  ee002a10          VMOV     s0,r2                 ;380
000756  eef80a40          VCVT.F32.U32 s1,s0                 ;380
00075a  ee800a8c          VDIV.F32 s0,s1,s24             ;380
00075e  edd70a00          VLDR     s1,[r7,#0]            ;380
000762  eeb40ae0          VCMPE.F32 s0,s1                 ;380
000766  eef1fa10          VMRS     APSR_nzcv,FPSCR       ;380
00076a  dd22              BLE      |L9.1970|
                  |L9.1900|
00076c  f8992004          LDRB     r2,[r9,#4]            ;380  ; cutoff_flag
000770  b952              CBNZ     r2,|L9.1928|
000772  f899200f          LDRB     r2,[r9,#0xf]          ;380  ; charge_step
000776  2a01              CMP      r2,#1                 ;380
000778  d11b              BNE      |L9.1970|
00077a  f8b82040          LDRH     r2,[r8,#0x40]         ;382  ; Run_Control
00077e  f8a82002          STRH     r2,[r8,#2]            ;382
000782  f8b82046          LDRH     r2,[r8,#0x46]         ;383  ; Run_Control
000786  e001              B        |L9.1932|
                  |L9.1928|
000788  e013              B        |L9.1970|
                  |L9.1930|
00078a  e004              B        |L9.1942|
                  |L9.1932|
00078c  f8a82004          STRH     r2,[r8,#4]            ;383
000790  f889100f          STRB     r1,[r9,#0xf]          ;384
000794  e00d              B        |L9.1970|
                  |L9.1942|
000796  f899200f          LDRB     r2,[r9,#0xf]          ;387  ; charge_step
00079a  2a01              CMP      r2,#1                 ;387
00079c  d109              BNE      |L9.1970|
00079e  f8b82040          LDRH     r2,[r8,#0x40]         ;389  ; Run_Control
0007a2  f8a82002          STRH     r2,[r8,#2]            ;389
0007a6  f8b82046          LDRH     r2,[r8,#0x46]         ;390  ; Run_Control
0007aa  f8a82004          STRH     r2,[r8,#4]            ;390
0007ae  f889100f          STRB     r1,[r9,#0xf]          ;391
                  |L9.1970|
0007b2  8841              LDRH     r1,[r0,#2]            ;394  ; coff
0007b4  b339              CBZ      r1,|L9.2054|
0007b6  8901              LDRH     r1,[r0,#8]            ;394  ; coff
0007b8  b329              CBZ      r1,|L9.2054|
0007ba  484a              LDR      r0,|L9.2276|
0007bc  8840              LDRH     r0,[r0,#2]            ;410  ; coff
0007be  ee000a10          VMOV     s0,r0                 ;410
0007c2  eeb80a40          VCVT.F32.U32 s0,s0                 ;410
0007c6  eec00a2c          VDIV.F32 s1,s0,s25             ;410
0007ca  ed9b0a00          VLDR     s0,[r11,#0]           ;410
0007ce  eef40ac0          VCMPE.F32 s1,s0                 ;410
0007d2  eef1fa10          VMRS     APSR_nzcv,FPSCR       ;410
0007d6  d843              BHI      |L9.2144|
0007d8  4842              LDR      r0,|L9.2276|
0007da  e000              B        |L9.2014|
                  |L9.2012|
0007dc  e0f1              B        |L9.2498|
                  |L9.2014|
0007de  8841              LDRH     r1,[r0,#2]            ;410  ; coff
0007e0  b3f1              CBZ      r1,|L9.2144|
0007e2  8900              LDRH     r0,[r0,#8]            ;410  ; coff
0007e4  ee000a10          VMOV     s0,r0                 ;410
0007e8  eeb80a40          VCVT.F32.U32 s0,s0                 ;410
0007ec  eec00a0c          VDIV.F32 s1,s0,s24             ;410
0007f0  ed970a00          VLDR     s0,[r7,#0]            ;410
0007f4  eef40ac0          VCMPE.F32 s1,s0                 ;410
0007f8  eef1fa10          VMRS     APSR_nzcv,FPSCR       ;410
0007fc  dd30              BLE      |L9.2144|
0007fe  f8990004          LDRB     r0,[r9,#4]            ;410  ; cutoff_flag
000802  b370              CBZ      r0,|L9.2146|
000804  e095              B        |L9.2354|
                  |L9.2054|
000806  4837              LDR      r0,|L9.2276|
000808  8840              LDRH     r0,[r0,#2]            ;396  ; coff
00080a  ee000a10          VMOV     s0,r0                 ;396
00080e  eef80a40          VCVT.F32.U32 s1,s0                 ;396
000812  ee800aac          VDIV.F32 s0,s1,s25             ;396
000816  eddb0a00          VLDR     s1,[r11,#0]           ;396
00081a  eeb40ae0          VCMPE.F32 s0,s1                 ;396
00081e  eef1fa10          VMRS     APSR_nzcv,FPSCR       ;396
000822  d802              BHI      |L9.2090|
000824  482f              LDR      r0,|L9.2276|
000826  8840              LDRH     r0,[r0,#2]            ;396  ; coff
000828  b970              CBNZ     r0,|L9.2120|
                  |L9.2090|
00082a  482e              LDR      r0,|L9.2276|
00082c  8900              LDRH     r0,[r0,#8]            ;396  ; coff
00082e  ee000a10          VMOV     s0,r0                 ;396
000832  eef80a40          VCVT.F32.U32 s1,s0                 ;396
000836  ee800a8c          VDIV.F32 s0,s1,s24             ;396
00083a  edd70a00          VLDR     s1,[r7,#0]            ;396
00083e  eeb40ae0          VCMPE.F32 s0,s1                 ;396
000842  eef1fa10          VMRS     APSR_nzcv,FPSCR       ;396
000846  dd11              BLE      |L9.2156|
                  |L9.2120|
000848  f8990004          LDRB     r0,[r9,#4]            ;396  ; cutoff_flag
00084c  b970              CBNZ     r0,|L9.2156|
00084e  f899000f          LDRB     r0,[r9,#0xf]          ;396  ; charge_step
000852  2802              CMP      r0,#2                 ;396
000854  d10a              BNE      |L9.2156|
000856  f7fffffe          BL       GUI_GetTime
00085a  fb90f0f5          SDIV     r0,r0,r5              ;397
00085e  e001              B        |L9.2148|
                  |L9.2144|
000860  e067              B        |L9.2354|
                  |L9.2146|
000862  e05a              B        |L9.2330|
                  |L9.2148|
000864  f8a90010          STRH     r0,[r9,#0x10]         ;397
000868  f889a004          STRB     r10,[r9,#4]           ;398
                  |L9.2156|
00086c  481d              LDR      r0,|L9.2276|
00086e  8841              LDRH     r1,[r0,#2]            ;400  ; coff
000870  ee001a10          VMOV     s0,r1                 ;400
000874  eeb80a40          VCVT.F32.U32 s0,s0                 ;400
000878  eec00a2c          VDIV.F32 s1,s0,s25             ;400
00087c  ed9b0a00          VLDR     s0,[r11,#0]           ;400
000880  eef40ac0          VCMPE.F32 s1,s0                 ;400
000884  eef1fa10          VMRS     APSR_nzcv,FPSCR       ;400
000888  d801              BHI      |L9.2190|
00088a  8841              LDRH     r1,[r0,#2]            ;400  ; coff
00088c  b969              CBNZ     r1,|L9.2218|
                  |L9.2190|
00088e  8900              LDRH     r0,[r0,#8]            ;400  ; coff
000890  ee000a10          VMOV     s0,r0                 ;400
000894  eeb80a40          VCVT.F32.U32 s0,s0                 ;400
000898  eec00a0c          VDIV.F32 s1,s0,s24             ;400
00089c  ed970a00          VLDR     s0,[r7,#0]            ;400
0008a0  eef40ac0          VCMPE.F32 s1,s0                 ;400
0008a4  eef1fa10          VMRS     APSR_nzcv,FPSCR       ;400
0008a8  dd36              BLE      |L9.2328|
                  |L9.2218|
0008aa  f7fffffe          BL       GUI_GetTime
0008ae  fb90f0f5          SDIV     r0,r0,r5              ;400
0008b2  f8b91010          LDRH     r1,[r9,#0x10]         ;400  ; cutoff_time
0008b6  1a40              SUBS     r0,r0,r1              ;400
0008b8  280a              CMP      r0,#0xa               ;400
0008ba  db2d              BLT      |L9.2328|
0008bc  f899000f          LDRB     r0,[r9,#0xf]          ;400  ; charge_step
0008c0  2802              CMP      r0,#2                 ;400
0008c2  e015              B        |L9.2288|
                  |L9.2244|
0008c4  43686172          DCB      "Charging"
0008c8  67696e67
                  |L9.2252|
0008cc  00                DCB      0
0008cd  00                DCB      0
0008ce  00                DCB      0
0008cf  00                DCB      0
                  |L9.2256|
                          DCD      GUI_FontHZ16
                  |L9.2260|
0008d4  e58585e7          DCB      229,133,133,231,148,181,228,184,173,0
0008d8  94b5e4b8
0008dc  ad00    
0008de  00                DCB      0
0008df  00                DCB      0
                  |L9.2272|
                          DCD      Run_Control
                  |L9.2276|
                          DCD      ||.bss||
                  |L9.2280|
                          DCD      mode_sw
                  |L9.2284|
                          DCD      0x40020800
                  |L9.2288|
0008f0  d112              BNE      |L9.2328|
0008f2  48fe              LDR      r0,|L9.3308|
0008f4  7800              LDRB     r0,[r0,#0]            ;402  ; mode_sw
0008f6  2803              CMP      r0,#3                 ;402
0008f8  d105              BNE      |L9.2310|
0008fa  f7fffffe          BL       GUI_GetTime
0008fe  fb90f0f5          SDIV     r0,r0,r5              ;403
000902  f8a8003a          STRH     r0,[r8,#0x3a]         ;403
                  |L9.2310|
000906  f8896004          STRB     r6,[r9,#4]            ;405
00090a  2002              MOVS     r0,#2                 ;406
00090c  f7fffffe          BL       Mode_SW_CONT
000910  2102              MOVS     r1,#2                 ;407
000912  48f7              LDR      r0,|L9.3312|
000914  f7fffffe          BL       GPIO_ResetBits
                  |L9.2328|
000918  e1cc              B        |L9.3252|
                  |L9.2330|
00091a  f899000f          LDRB     r0,[r9,#0xf]          ;410  ; charge_step
00091e  2802              CMP      r0,#2                 ;410
000920  d107              BNE      |L9.2354|
000922  f7fffffe          BL       GUI_GetTime
000926  fb90f0f5          SDIV     r0,r0,r5              ;411
00092a  f8a90010          STRH     r0,[r9,#0x10]         ;411
00092e  f889a004          STRB     r10,[r9,#4]           ;412
                  |L9.2354|
000932  48f0              LDR      r0,|L9.3316|
000934  8841              LDRH     r1,[r0,#2]            ;414  ; coff
000936  ee001a10          VMOV     s0,r1                 ;414
00093a  eeb80a40          VCVT.F32.U32 s0,s0                 ;414
00093e  eec00a2c          VDIV.F32 s1,s0,s25             ;414
000942  ed9b0a00          VLDR     s0,[r11,#0]           ;414
000946  eef40ac0          VCMPE.F32 s1,s0                 ;414
00094a  eef1fa10          VMRS     APSR_nzcv,FPSCR       ;414
00094e  d8e3              BHI      |L9.2328|
000950  8841              LDRH     r1,[r0,#2]            ;414  ; coff
000952  2900              CMP      r1,#0                 ;414
000954  d0e0              BEQ      |L9.2328|
000956  8900              LDRH     r0,[r0,#8]            ;414  ; coff
000958  ee000a10          VMOV     s0,r0                 ;414
00095c  eeb80a40          VCVT.F32.U32 s0,s0                 ;414
000960  eec00a0c          VDIV.F32 s1,s0,s24             ;414
000964  ed970a00          VLDR     s0,[r7,#0]            ;414
000968  eef40ac0          VCMPE.F32 s1,s0                 ;414
00096c  eef1fa10          VMRS     APSR_nzcv,FPSCR       ;414
000970  ddd2              BLE      |L9.2328|
000972  e001              B        |L9.2424|
                  |L9.2420|
000974  e1f6              B        |L9.3428|
                  |L9.2422|
000976  e3ff              B        |L9.4472|
                  |L9.2424|
000978  f7fffffe          BL       GUI_GetTime
00097c  fb90f0f5          SDIV     r0,r0,r5              ;414
000980  f8b91010          LDRH     r1,[r9,#0x10]         ;414  ; cutoff_time
000984  1a40              SUBS     r0,r0,r1              ;414
000986  280a              CMP      r0,#0xa               ;414
000988  dbc6              BLT      |L9.2328|
00098a  f899000f          LDRB     r0,[r9,#0xf]          ;414  ; charge_step
00098e  2802              CMP      r0,#2                 ;414
000990  d1c2              BNE      |L9.2328|
000992  48d6              LDR      r0,|L9.3308|
000994  7800              LDRB     r0,[r0,#0]            ;416  ; mode_sw
000996  2803              CMP      r0,#3                 ;416
000998  d105              BNE      |L9.2470|
00099a  f7fffffe          BL       GUI_GetTime
00099e  fb90f0f5          SDIV     r0,r0,r5              ;417
0009a2  f8a8003a          STRH     r0,[r8,#0x3a]         ;417
                  |L9.2470|
0009a6  f8896004          STRB     r6,[r9,#4]            ;419
0009aa  2002              MOVS     r0,#2                 ;420
0009ac  f7fffffe          BL       Mode_SW_CONT
0009b0  2102              MOVS     r1,#2                 ;421
0009b2  48cf              LDR      r0,|L9.3312|
0009b4  f7fffffe          BL       GPIO_ResetBits
0009b8  e17c              B        |L9.3252|
                  |L9.2490|
0009ba  f8b80044          LDRH     r0,[r8,#0x44]         ;424  ; Run_Control
0009be  2800              CMP      r0,#0                 ;424
0009c0  d0aa              BEQ      |L9.2328|
                  |L9.2498|
0009c2  f8b80040          LDRH     r0,[r8,#0x40]         ;424  ; Run_Control
0009c6  b918              CBNZ     r0,|L9.2512|
0009c8  f8b80046          LDRH     r0,[r8,#0x46]         ;424  ; Run_Control
0009cc  2800              CMP      r0,#0                 ;424
0009ce  d0a3              BEQ      |L9.2328|
                  |L9.2512|
0009d0  f8b80042          LDRH     r0,[r8,#0x42]         ;424  ; Run_Control
0009d4  b918              CBNZ     r0,|L9.2526|
0009d6  f8b80048          LDRH     r0,[r8,#0x48]         ;424  ; Run_Control
0009da  2800              CMP      r0,#0                 ;424
0009dc  d09c              BEQ      |L9.2328|
                  |L9.2526|
0009de  48c5              LDR      r0,|L9.3316|
0009e0  8802              LDRH     r2,[r0,#0]            ;425  ; coff
0009e2  b31a              CBZ      r2,|L9.2604|
0009e4  88c2              LDRH     r2,[r0,#6]            ;425  ; coff
0009e6  b30a              CBZ      r2,|L9.2604|
0009e8  8802              LDRH     r2,[r0,#0]            ;434  ; coff
0009ea  ee002a10          VMOV     s0,r2                 ;434
0009ee  eef80a40          VCVT.F32.U32 s1,s0                 ;434
0009f2  ee800aac          VDIV.F32 s0,s1,s25             ;434
0009f6  eddb0a00          VLDR     s1,[r11,#0]           ;434
0009fa  eeb40ae0          VCMPE.F32 s0,s1                 ;434
0009fe  eef1fa10          VMRS     APSR_nzcv,FPSCR       ;434
000a02  d855              BHI      |L9.2736|
000a04  8802              LDRH     r2,[r0,#0]            ;434  ; coff
000a06  b3a2              CBZ      r2,|L9.2674|
000a08  88c2              LDRH     r2,[r0,#6]            ;434  ; coff
000a0a  ee002a10          VMOV     s0,r2                 ;434
000a0e  eef80a40          VCVT.F32.U32 s1,s0                 ;434
000a12  ee800a8c          VDIV.F32 s0,s1,s24             ;434
000a16  edd70a00          VLDR     s1,[r7,#0]            ;434
000a1a  eeb40ae0          VCMPE.F32 s0,s1                 ;434
000a1e  eef1fa10          VMRS     APSR_nzcv,FPSCR       ;434
000a22  dd45              BLE      |L9.2736|
000a24  f8992004          LDRB     r2,[r9,#4]            ;434  ; cutoff_flag
000a28  b39a              CBZ      r2,|L9.2706|
000a2a  e041              B        |L9.2736|
                  |L9.2604|
000a2c  8802              LDRH     r2,[r0,#0]            ;427  ; coff
000a2e  ee002a10          VMOV     s0,r2                 ;427
000a32  eef80a40          VCVT.F32.U32 s1,s0                 ;427
000a36  ee800aac          VDIV.F32 s0,s1,s25             ;427
000a3a  eddb0a00          VLDR     s1,[r11,#0]           ;427
000a3e  eeb40ae0          VCMPE.F32 s0,s1                 ;427
000a42  eef1fa10          VMRS     APSR_nzcv,FPSCR       ;427
000a46  d801              BHI      |L9.2636|
000a48  8802              LDRH     r2,[r0,#0]            ;427  ; coff
000a4a  b96a              CBNZ     r2,|L9.2664|
                  |L9.2636|
000a4c  88c2              LDRH     r2,[r0,#6]            ;427  ; coff
000a4e  ee002a10          VMOV     s0,r2                 ;427
000a52  eef80a40          VCVT.F32.U32 s1,s0                 ;427
000a56  ee800a8c          VDIV.F32 s0,s1,s24             ;427
000a5a  edd70a00          VLDR     s1,[r7,#0]            ;427
000a5e  eeb40ae0          VCMPE.F32 s0,s1                 ;427
000a62  eef1fa10          VMRS     APSR_nzcv,FPSCR       ;427
000a66  dd23              BLE      |L9.2736|
                  |L9.2664|
000a68  f8992004          LDRB     r2,[r9,#4]            ;427  ; cutoff_flag
000a6c  b90a              CBNZ     r2,|L9.2674|
000a6e  e001              B        |L9.2676|
                  |L9.2672|
000a70  e175              B        |L9.3422|
                  |L9.2674|
000a72  e00d              B        |L9.2704|
                  |L9.2676|
000a74  f899200f          LDRB     r2,[r9,#0xf]          ;427  ; charge_step
000a78  2a01              CMP      r2,#1                 ;427
000a7a  d119              BNE      |L9.2736|
000a7c  f8b82040          LDRH     r2,[r8,#0x40]         ;429  ; Run_Control
000a80  f8a82002          STRH     r2,[r8,#2]            ;429
000a84  f8b82046          LDRH     r2,[r8,#0x46]         ;430  ; Run_Control
000a88  f8a82004          STRH     r2,[r8,#4]            ;430
000a8c  f889100f          STRB     r1,[r9,#0xf]          ;431
                  |L9.2704|
000a90  e00e              B        |L9.2736|
                  |L9.2706|
000a92  e7ff              B        |L9.2708|
                  |L9.2708|
000a94  f899200f          LDRB     r2,[r9,#0xf]          ;434  ; charge_step
000a98  2a01              CMP      r2,#1                 ;434
000a9a  d109              BNE      |L9.2736|
000a9c  f8b82040          LDRH     r2,[r8,#0x40]         ;436  ; Run_Control
000aa0  f8a82002          STRH     r2,[r8,#2]            ;436
000aa4  f8b82046          LDRH     r2,[r8,#0x46]         ;437  ; Run_Control
000aa8  f8a82004          STRH     r2,[r8,#4]            ;437
000aac  f889100f          STRB     r1,[r9,#0xf]          ;438
                  |L9.2736|
000ab0  8842              LDRH     r2,[r0,#2]            ;442  ; coff
000ab2  2103              MOVS     r1,#3                 ;217
000ab4  b31a              CBZ      r2,|L9.2814|
000ab6  8902              LDRH     r2,[r0,#8]            ;442  ; coff
000ab8  b30a              CBZ      r2,|L9.2814|
000aba  8842              LDRH     r2,[r0,#2]            ;451  ; coff
000abc  ee002a10          VMOV     s0,r2                 ;451
000ac0  eef80a40          VCVT.F32.U32 s1,s0                 ;451
000ac4  ee800aac          VDIV.F32 s0,s1,s25             ;451
000ac8  eddb0a00          VLDR     s1,[r11,#0]           ;451
000acc  eeb40ae0          VCMPE.F32 s0,s1                 ;451
000ad0  eef1fa10          VMRS     APSR_nzcv,FPSCR       ;451
000ad4  d254              BCS      |L9.2944|
000ad6  8842              LDRH     r2,[r0,#2]            ;451  ; coff
000ad8  b3ea              CBZ      r2,|L9.2902|
000ada  8902              LDRH     r2,[r0,#8]            ;451  ; coff
000adc  ee002a10          VMOV     s0,r2                 ;451
000ae0  eef80a40          VCVT.F32.U32 s1,s0                 ;451
000ae4  ee800a8c          VDIV.F32 s0,s1,s24             ;451
000ae8  edd70a00          VLDR     s1,[r7,#0]            ;451
000aec  eeb40ae0          VCMPE.F32 s0,s1                 ;451
000af0  eef1fa10          VMRS     APSR_nzcv,FPSCR       ;451
000af4  dd44              BLE      |L9.2944|
000af6  f8992004          LDRB     r2,[r9,#4]            ;451  ; cutoff_flag
000afa  b36a              CBZ      r2,|L9.2904|
000afc  e040              B        |L9.2944|
                  |L9.2814|
000afe  8842              LDRH     r2,[r0,#2]            ;444  ; coff
000b00  ee002a10          VMOV     s0,r2                 ;444
000b04  eef80a40          VCVT.F32.U32 s1,s0                 ;444
000b08  ee800aac          VDIV.F32 s0,s1,s25             ;444
000b0c  eddb0a00          VLDR     s1,[r11,#0]           ;444
000b10  eeb40ae0          VCMPE.F32 s0,s1                 ;444
000b14  eef1fa10          VMRS     APSR_nzcv,FPSCR       ;444
000b18  d201              BCS      |L9.2846|
000b1a  8842              LDRH     r2,[r0,#2]            ;444  ; coff
000b1c  b96a              CBNZ     r2,|L9.2874|
                  |L9.2846|
000b1e  8902              LDRH     r2,[r0,#8]            ;444  ; coff
000b20  ee002a10          VMOV     s0,r2                 ;444
000b24  eeb80a40          VCVT.F32.U32 s0,s0                 ;444
000b28  eec00a0c          VDIV.F32 s1,s0,s24             ;444
000b2c  ed970a00          VLDR     s0,[r7,#0]            ;444
000b30  eef40ac0          VCMPE.F32 s1,s0                 ;444
000b34  eef1fa10          VMRS     APSR_nzcv,FPSCR       ;444
000b38  dd22              BLE      |L9.2944|
                  |L9.2874|
000b3a  f8992004          LDRB     r2,[r9,#4]            ;444  ; cutoff_flag
000b3e  b952              CBNZ     r2,|L9.2902|
000b40  f899200f          LDRB     r2,[r9,#0xf]          ;444  ; charge_step
000b44  2a02              CMP      r2,#2                 ;444
000b46  d11b              BNE      |L9.2944|
000b48  f8b82042          LDRH     r2,[r8,#0x42]         ;446  ; Run_Control
000b4c  f8a82002          STRH     r2,[r8,#2]            ;446
000b50  f8b82048          LDRH     r2,[r8,#0x48]         ;447  ; Run_Control
000b54  e001              B        |L9.2906|
                  |L9.2902|
000b56  e013              B        |L9.2944|
                  |L9.2904|
000b58  e004              B        |L9.2916|
                  |L9.2906|
000b5a  f8a82004          STRH     r2,[r8,#4]            ;447
000b5e  f889100f          STRB     r1,[r9,#0xf]          ;448
000b62  e00d              B        |L9.2944|
                  |L9.2916|
000b64  f899200f          LDRB     r2,[r9,#0xf]          ;451  ; charge_step
000b68  2a02              CMP      r2,#2                 ;451
000b6a  d109              BNE      |L9.2944|
000b6c  f8b82042          LDRH     r2,[r8,#0x42]         ;453  ; Run_Control
000b70  f8a82002          STRH     r2,[r8,#2]            ;453
000b74  f8b82048          LDRH     r2,[r8,#0x48]         ;454  ; Run_Control
000b78  f8a82004          STRH     r2,[r8,#4]            ;454
000b7c  f889100f          STRB     r1,[r9,#0xf]          ;455
                  |L9.2944|
000b80  8881              LDRH     r1,[r0,#4]            ;458  ; coff
000b82  b329              CBZ      r1,|L9.3024|
000b84  8941              LDRH     r1,[r0,#0xa]          ;458  ; coff
000b86  b319              CBZ      r1,|L9.3024|
000b88  485a              LDR      r0,|L9.3316|
000b8a  8880              LDRH     r0,[r0,#4]            ;474  ; coff
000b8c  ee000a10          VMOV     s0,r0                 ;474
000b90  eeb80a40          VCVT.F32.U32 s0,s0                 ;474
000b94  eec00a2c          VDIV.F32 s1,s0,s25             ;474
000b98  ed9b0a00          VLDR     s0,[r11,#0]           ;474
000b9c  eef40ac0          VCMPE.F32 s1,s0                 ;474
000ba0  eef1fa10          VMRS     APSR_nzcv,FPSCR       ;474
000ba4  d23f              BCS      |L9.3110|
000ba6  4853              LDR      r0,|L9.3316|
000ba8  8881              LDRH     r1,[r0,#4]            ;474  ; coff
000baa  b3e1              CBZ      r1,|L9.3110|
000bac  8940              LDRH     r0,[r0,#0xa]          ;474  ; coff
000bae  ee000a10          VMOV     s0,r0                 ;474
000bb2  eef80a40          VCVT.F32.U32 s1,s0                 ;474
000bb6  ee800a8c          VDIV.F32 s0,s1,s24             ;474
000bba  edd70a00          VLDR     s1,[r7,#0]            ;474
000bbe  eeb40ae0          VCMPE.F32 s0,s1                 ;474
000bc2  eef1fa10          VMRS     APSR_nzcv,FPSCR       ;474
000bc6  dd2e              BLE      |L9.3110|
000bc8  f8990004          LDRB     r0,[r9,#4]            ;474  ; cutoff_flag
000bcc  b360              CBZ      r0,|L9.3112|
000bce  e07e              B        |L9.3278|
                  |L9.3024|
000bd0  4848              LDR      r0,|L9.3316|
000bd2  8880              LDRH     r0,[r0,#4]            ;460  ; coff
000bd4  ee000a10          VMOV     s0,r0                 ;460
000bd8  eeb80a40          VCVT.F32.U32 s0,s0                 ;460
000bdc  eec00a2c          VDIV.F32 s1,s0,s25             ;460
000be0  ed9b0a00          VLDR     s0,[r11,#0]           ;460
000be4  eef40ac0          VCMPE.F32 s1,s0                 ;460
000be8  eef1fa10          VMRS     APSR_nzcv,FPSCR       ;460
000bec  d202              BCS      |L9.3060|
000bee  4841              LDR      r0,|L9.3316|
000bf0  8880              LDRH     r0,[r0,#4]            ;460  ; coff
000bf2  b970              CBNZ     r0,|L9.3090|
                  |L9.3060|
000bf4  483f              LDR      r0,|L9.3316|
000bf6  8940              LDRH     r0,[r0,#0xa]          ;460  ; coff
000bf8  ee000a10          VMOV     s0,r0                 ;460
000bfc  eef80a40          VCVT.F32.U32 s1,s0                 ;460
000c00  ee800a8c          VDIV.F32 s0,s1,s24             ;460
000c04  edd70a00          VLDR     s1,[r7,#0]            ;460
000c08  eeb40ae0          VCMPE.F32 s0,s1                 ;460
000c0c  eef1fa10          VMRS     APSR_nzcv,FPSCR       ;460
000c10  dd11              BLE      |L9.3126|
                  |L9.3090|
000c12  f8990004          LDRB     r0,[r9,#4]            ;460  ; cutoff_flag
000c16  b970              CBNZ     r0,|L9.3126|
000c18  f899000f          LDRB     r0,[r9,#0xf]          ;460  ; charge_step
000c1c  2803              CMP      r0,#3                 ;460
000c1e  d10a              BNE      |L9.3126|
000c20  f7fffffe          BL       GUI_GetTime
000c24  e001              B        |L9.3114|
                  |L9.3110|
000c26  e052              B        |L9.3278|
                  |L9.3112|
000c28  e045              B        |L9.3254|
                  |L9.3114|
000c2a  fb90f0f5          SDIV     r0,r0,r5              ;461
000c2e  f8a90010          STRH     r0,[r9,#0x10]         ;461
000c32  f889a004          STRB     r10,[r9,#4]           ;462
                  |L9.3126|
000c36  482f              LDR      r0,|L9.3316|
000c38  8881              LDRH     r1,[r0,#4]            ;464  ; coff
000c3a  ee001a10          VMOV     s0,r1                 ;464
000c3e  eeb80a40          VCVT.F32.U32 s0,s0                 ;464
000c42  eec00a2c          VDIV.F32 s1,s0,s25             ;464
000c46  ed9b0a00          VLDR     s0,[r11,#0]           ;464
000c4a  eef40ac0          VCMPE.F32 s1,s0                 ;464
000c4e  eef1fa10          VMRS     APSR_nzcv,FPSCR       ;464
000c52  d201              BCS      |L9.3160|
000c54  8881              LDRH     r1,[r0,#4]            ;464  ; coff
000c56  b969              CBNZ     r1,|L9.3188|
                  |L9.3160|
000c58  8940              LDRH     r0,[r0,#0xa]          ;464  ; coff
000c5a  ee000a10          VMOV     s0,r0                 ;464
000c5e  eeb80a40          VCVT.F32.U32 s0,s0                 ;464
000c62  eec00a0c          VDIV.F32 s1,s0,s24             ;464
000c66  ed970a00          VLDR     s0,[r7,#0]            ;464
000c6a  eef40ac0          VCMPE.F32 s1,s0                 ;464
000c6e  eef1fa10          VMRS     APSR_nzcv,FPSCR       ;464
000c72  dd1f              BLE      |L9.3252|
                  |L9.3188|
000c74  f7fffffe          BL       GUI_GetTime
000c78  fb90f0f5          SDIV     r0,r0,r5              ;464
000c7c  f8b91010          LDRH     r1,[r9,#0x10]         ;464  ; cutoff_time
000c80  1a40              SUBS     r0,r0,r1              ;464
000c82  280a              CMP      r0,#0xa               ;464
000c84  db16              BLT      |L9.3252|
000c86  f899000f          LDRB     r0,[r9,#0xf]          ;464  ; charge_step
000c8a  2803              CMP      r0,#3                 ;464
000c8c  d112              BNE      |L9.3252|
000c8e  4817              LDR      r0,|L9.3308|
000c90  7800              LDRB     r0,[r0,#0]            ;466  ; mode_sw
000c92  2803              CMP      r0,#3                 ;466
000c94  d105              BNE      |L9.3234|
000c96  f7fffffe          BL       GUI_GetTime
000c9a  fb90f0f5          SDIV     r0,r0,r5              ;467
000c9e  f8a8003a          STRH     r0,[r8,#0x3a]         ;467
                  |L9.3234|
000ca2  f8896004          STRB     r6,[r9,#4]            ;469
000ca6  2002              MOVS     r0,#2                 ;470
000ca8  f7fffffe          BL       Mode_SW_CONT
000cac  2102              MOVS     r1,#2                 ;471
000cae  4810              LDR      r0,|L9.3312|
000cb0  f7fffffe          BL       GPIO_ResetBits
                  |L9.3252|
000cb4  e378              B        |L9.5032|
                  |L9.3254|
000cb6  f899000f          LDRB     r0,[r9,#0xf]          ;474  ; charge_step
000cba  2803              CMP      r0,#3                 ;474
000cbc  d107              BNE      |L9.3278|
000cbe  f7fffffe          BL       GUI_GetTime
000cc2  fb90f0f5          SDIV     r0,r0,r5              ;475
000cc6  f8a90010          STRH     r0,[r9,#0x10]         ;475
000cca  f889a004          STRB     r10,[r9,#4]           ;476
                  |L9.3278|
000cce  4809              LDR      r0,|L9.3316|
000cd0  8881              LDRH     r1,[r0,#4]            ;478  ; coff
000cd2  ee001a10          VMOV     s0,r1                 ;478
000cd6  eeb80a40          VCVT.F32.U32 s0,s0                 ;478
000cda  eec00a2c          VDIV.F32 s1,s0,s25             ;478
000cde  ed9b0a00          VLDR     s0,[r11,#0]           ;478
000ce2  eef40ac0          VCMPE.F32 s1,s0                 ;478
000ce6  eef1fa10          VMRS     APSR_nzcv,FPSCR       ;478
000cea  e005              B        |L9.3320|
                  |L9.3308|
                          DCD      mode_sw
                  |L9.3312|
                          DCD      0x40020800
                  |L9.3316|
                          DCD      ||.bss||
                  |L9.3320|
000cf8  d2dc              BCS      |L9.3252|
000cfa  8881              LDRH     r1,[r0,#4]            ;478  ; coff
000cfc  2900              CMP      r1,#0                 ;478
000cfe  d0d9              BEQ      |L9.3252|
000d00  8940              LDRH     r0,[r0,#0xa]          ;478  ; coff
000d02  ee000a10          VMOV     s0,r0                 ;478
000d06  eeb80a40          VCVT.F32.U32 s0,s0                 ;478
000d0a  eec00a0c          VDIV.F32 s1,s0,s24             ;478
000d0e  ed970a00          VLDR     s0,[r7,#0]            ;478
000d12  eef40ac0          VCMPE.F32 s1,s0                 ;478
000d16  eef1fa10          VMRS     APSR_nzcv,FPSCR       ;478
000d1a  ddcb              BLE      |L9.3252|
000d1c  f7fffffe          BL       GUI_GetTime
000d20  fb90f0f5          SDIV     r0,r0,r5              ;478
000d24  f8b91010          LDRH     r1,[r9,#0x10]         ;478  ; cutoff_time
000d28  1a40              SUBS     r0,r0,r1              ;478
000d2a  280a              CMP      r0,#0xa               ;478
000d2c  dbc2              BLT      |L9.3252|
000d2e  f899000f          LDRB     r0,[r9,#0xf]          ;478  ; charge_step
000d32  2803              CMP      r0,#3                 ;478
000d34  d1be              BNE      |L9.3252|
000d36  48fd              LDR      r0,|L9.4396|
000d38  7800              LDRB     r0,[r0,#0]            ;480  ; mode_sw
000d3a  2803              CMP      r0,#3                 ;480
000d3c  d105              BNE      |L9.3402|
000d3e  f7fffffe          BL       GUI_GetTime
000d42  fb90f0f5          SDIV     r0,r0,r5              ;481
000d46  f8a8003a          STRH     r0,[r8,#0x3a]         ;481
                  |L9.3402|
000d4a  f8896004          STRB     r6,[r9,#4]            ;483
000d4e  2002              MOVS     r0,#2                 ;484
000d50  f7fffffe          BL       Mode_SW_CONT
000d54  2102              MOVS     r1,#2                 ;485
000d56  48f6              LDR      r0,|L9.4400|
000d58  f7fffffe          BL       GPIO_ResetBits
000d5c  e324              B        |L9.5032|
                  |L9.3422|
000d5e  7978              LDRB     r0,[r7,#5]            ;503  ; cdc_sw
000d60  2801              CMP      r0,#1                 ;503
000d62  d003              BEQ      |L9.3436|
                  |L9.3428|
000d64  7a78              LDRB     r0,[r7,#9]            ;660  ; pause_flag
000d66  2801              CMP      r0,#1                 ;660
000d68  d07e              BEQ      |L9.3688|
000d6a  e2d5              B        |L9.4888|
                  |L9.3436|
000d6c  f887a00f          STRB     r10,[r7,#0xf]         ;504
000d70  f640310e          MOV      r1,#0xb0e             ;505
000d74  6860              LDR      r0,[r4,#4]            ;505
000d76  f7fffffe          BL       WM_GetDialogItem
000d7a  f2af41b0          ADR      r1,|L9.2252|
000d7e  f7fffffe          BL       TEXT_SetText
000d82  7ab8              LDRB     r0,[r7,#0xa]          ;507  ; paused
000d84  f04f0b3c          MOV      r11,#0x3c             ;508
000d88  2800              CMP      r0,#0                 ;507
000d8a  d06e              BEQ      |L9.3690|
000d8c  f7fffffe          BL       GUI_GetTime
000d90  fb90f0f5          SDIV     r0,r0,r5              ;512
000d94  8ab9              LDRH     r1,[r7,#0x14]         ;512  ; restart_time
000d96  1a40              SUBS     r0,r0,r1              ;512
000d98  8a79              LDRH     r1,[r7,#0x12]         ;512  ; pause_time
000d9a  4408              ADD      r0,r0,r1              ;512
000d9c  fb90f1fb          SDIV     r1,r0,r11             ;512
000da0  fb0b0011          MLS      r0,r11,r1,r0          ;512
000da4  7078              STRB     r0,[r7,#1]            ;512
000da6  f7fffffe          BL       GUI_GetTime
000daa  fb90f0f5          SDIV     r0,r0,r5              ;513
000dae  8ab9              LDRH     r1,[r7,#0x14]         ;513  ; restart_time
000db0  1a40              SUBS     r0,r0,r1              ;513
000db2  8a79              LDRH     r1,[r7,#0x12]         ;513  ; pause_time
000db4  4408              ADD      r0,r0,r1              ;513
000db6  fb90f0fb          SDIV     r0,r0,r11             ;513
000dba  fb90f1fb          SDIV     r1,r0,r11             ;513
000dbe  fb0b0011          MLS      r0,r11,r1,r0          ;513
000dc2  70b8              STRB     r0,[r7,#2]            ;513
000dc4  f7fffffe          BL       GUI_GetTime
000dc8  fb90f0f5          SDIV     r0,r0,r5              ;514
000dcc  8ab9              LDRH     r1,[r7,#0x14]         ;514  ; restart_time
000dce  1a40              SUBS     r0,r0,r1              ;514
000dd0  8a79              LDRH     r1,[r7,#0x12]         ;514  ; pause_time
000dd2  4401              ADD      r1,r1,r0              ;514
000dd4  f44f6061          MOV      r0,#0xe10             ;514
000dd8  fb91f0f0          SDIV     r0,r1,r0              ;514
000ddc  70f8              STRB     r0,[r7,#3]            ;514
                  |L9.3550|
000dde  f6400185          MOV      r1,#0x885             ;518
000de2  6860              LDR      r0,[r4,#4]            ;518
000de4  f7fffffe          BL       WM_GetDialogItem
000de8  4683              MOV      r11,r0                ;518
000dea  78fa              LDRB     r2,[r7,#3]            ;519  ; hour
000dec  a1d1              ADR      r1,|L9.4404|
000dee  4668              MOV      r0,sp                 ;519
000df0  f7fffffe          BL       __2sprintf
000df4  f06f417f          MVN      r1,#0xff000000        ;520
000df8  4658              MOV      r0,r11                ;520
000dfa  f7fffffe          BL       TEXT_SetTextColor
000dfe  49cf              LDR      r1,|L9.4412|
000e00  4658              MOV      r0,r11                ;521
000e02  f7fffffe          BL       TEXT_SetFont
000e06  f7fffffe          BL       GUI_UC_SetEncodeUTF8
000e0a  4669              MOV      r1,sp                 ;523
000e0c  4658              MOV      r0,r11                ;523
000e0e  f7fffffe          BL       TEXT_SetText
000e12  f6400186          MOV      r1,#0x886             ;525
000e16  6860              LDR      r0,[r4,#4]            ;525
000e18  f7fffffe          BL       WM_GetDialogItem
000e1c  4681              MOV      r9,r0                 ;525
000e1e  78ba              LDRB     r2,[r7,#2]            ;526  ; minute
000e20  a1c4              ADR      r1,|L9.4404|
000e22  4668              MOV      r0,sp                 ;526
000e24  f7fffffe          BL       __2sprintf
000e28  f06f417f          MVN      r1,#0xff000000        ;527
000e2c  4648              MOV      r0,r9                 ;527
000e2e  f7fffffe          BL       TEXT_SetTextColor
000e32  49c2              LDR      r1,|L9.4412|
000e34  4648              MOV      r0,r9                 ;528
000e36  f7fffffe          BL       TEXT_SetFont
000e3a  f7fffffe          BL       GUI_UC_SetEncodeUTF8
000e3e  4669              MOV      r1,sp                 ;530
000e40  4648              MOV      r0,r9                 ;530
000e42  f7fffffe          BL       TEXT_SetText
000e46  f6400187          MOV      r1,#0x887             ;532
000e4a  6860              LDR      r0,[r4,#4]            ;532
000e4c  f7fffffe          BL       WM_GetDialogItem
000e50  4681              MOV      r9,r0                 ;532
000e52  787a              LDRB     r2,[r7,#1]            ;533  ; second
000e54  a1b7              ADR      r1,|L9.4404|
000e56  4668              MOV      r0,sp                 ;533
000e58  f7fffffe          BL       __2sprintf
000e5c  f06f417f          MVN      r1,#0xff000000        ;534
000e60  4648              MOV      r0,r9                 ;534
000e62  f7fffffe          BL       TEXT_SetTextColor
000e66  e001              B        |L9.3692|
                  |L9.3688|
000e68  e216              B        |L9.4760|
                  |L9.3690|
000e6a  e0b5              B        |L9.4056|
                  |L9.3692|
000e6c  49b3              LDR      r1,|L9.4412|
000e6e  4648              MOV      r0,r9                 ;535
000e70  f7fffffe          BL       TEXT_SetFont
000e74  f7fffffe          BL       GUI_UC_SetEncodeUTF8
000e78  4669              MOV      r1,sp                 ;537
000e7a  4648              MOV      r0,r9                 ;537
000e7c  f7fffffe          BL       TEXT_SetText
000e80  f6400188          MOV      r1,#0x888             ;539
000e84  6860              LDR      r0,[r4,#4]            ;539
000e86  f7fffffe          BL       WM_GetDialogItem
000e8a  4681              MOV      r9,r0                 ;539
000e8c  f06f417f          MVN      r1,#0xff000000        ;540
000e90  4648              MOV      r0,r9                 ;540
000e92  f7fffffe          BL       TEXT_SetTextColor
000e96  49a9              LDR      r1,|L9.4412|
000e98  4648              MOV      r0,r9                 ;541
000e9a  f7fffffe          BL       TEXT_SetFont
000e9e  f7fffffe          BL       GUI_UC_SetEncodeUTF8
000ea2  a1a7              ADR      r1,|L9.4416|
000ea4  4648              MOV      r0,r9                 ;543
000ea6  f7fffffe          BL       TEXT_SetText
000eaa  f6400189          MOV      r1,#0x889             ;545
000eae  6860              LDR      r0,[r4,#4]            ;545
000eb0  f7fffffe          BL       WM_GetDialogItem
000eb4  4681              MOV      r9,r0                 ;545
000eb6  f06f417f          MVN      r1,#0xff000000        ;546
000eba  4648              MOV      r0,r9                 ;546
000ebc  f7fffffe          BL       TEXT_SetTextColor
000ec0  499e              LDR      r1,|L9.4412|
000ec2  4648              MOV      r0,r9                 ;547
000ec4  f7fffffe          BL       TEXT_SetFont
000ec8  f7fffffe          BL       GUI_UC_SetEncodeUTF8
000ecc  a19c              ADR      r1,|L9.4416|
000ece  4648              MOV      r0,r9                 ;549
000ed0  f7fffffe          BL       TEXT_SetText
000ed4  f640017f          MOV      r1,#0x87f             ;554
000ed8  6860              LDR      r0,[r4,#4]            ;554
000eda  f7fffffe          BL       WM_GetDialogItem
000ede  4681              MOV      r9,r0                 ;554
000ee0  f8dfb260          LDR      r11,|L9.4420|
000ee4  f8db0000          LDR      r0,[r11,#0]           ;555  ; DISS_Voltage
000ee8  f7fffffe          BL       __aeabi_f2d
000eec  ec410b10          VMOV     d0,r0,r1              ;555
000ef0  ec532b10          VMOV     r2,r3,d0              ;555
000ef4  f6af218c          ADR      r1,|L9.1132|
000ef8  4668              MOV      r0,sp                 ;555
000efa  f7fffffe          BL       __2sprintf
000efe  4669              MOV      r1,sp                 ;556
000f00  4648              MOV      r0,r9                 ;556
000f02  f7fffffe          BL       TEXT_SetText
000f06  f44f6108          MOV      r1,#0x880             ;558
000f0a  6860              LDR      r0,[r4,#4]            ;558
000f0c  f7fffffe          BL       WM_GetDialogItem
000f10  4681              MOV      r9,r0                 ;558
000f12  488d              LDR      r0,|L9.4424|
000f14  6800              LDR      r0,[r0,#0]            ;559  ; DISS_Current
000f16  f7fffffe          BL       __aeabi_f2d
000f1a  ec410b10          VMOV     d0,r0,r1              ;559
000f1e  ec532b10          VMOV     r2,r3,d0              ;559
000f22  f6af21b8          ADR      r1,|L9.1132|
000f26  4668              MOV      r0,sp                 ;559
000f28  f7fffffe          BL       __2sprintf
000f2c  4669              MOV      r1,sp                 ;560
000f2e  4648              MOV      r0,r9                 ;560
000f30  f7fffffe          BL       TEXT_SetText
000f34  78b8              LDRB     r0,[r7,#2]            ;562  ; minute
000f36  7879              LDRB     r1,[r7,#1]            ;562  ; second
000f38  ebc01000          RSB      r0,r0,r0,LSL #4       ;562
000f3c  eb010180          ADD      r1,r1,r0,LSL #2       ;562
000f40  78f8              LDRB     r0,[r7,#3]            ;562  ; hour
000f42  ebc01240          RSB      r2,r0,r0,LSL #5       ;562
000f46  ebc22000          RSB      r0,r2,r0,LSL #8       ;562
000f4a  eb011000          ADD      r0,r1,r0,LSL #4       ;562
000f4e  ee000a10          VMOV     s0,r0                 ;562
000f52  eef80a40          VCVT.F32.U32 s1,s0                 ;562
000f56  ed9f9a7d          VLDR     s18,|L9.4428|
000f5a  f8df91f4          LDR      r9,|L9.4432|
000f5e  ee800a89          VDIV.F32 s0,s1,s18             ;562
000f62  ee200a08          VMUL.F32 s0,s0,s16             ;562
000f66  ee200a0c          VMUL.F32 s0,s0,s24             ;562
000f6a  eebd0ac0          VCVT.S32.F32 s0,s0                 ;562
000f6e  ee100a10          VMOV     r0,s0                 ;562
000f72  f8a90000          STRH     r0,[r9,#0]            ;562
000f76  f6400181          MOV      r1,#0x881             ;563
000f7a  6860              LDR      r0,[r4,#4]            ;563
000f7c  f7fffffe          BL       WM_GetDialogItem
000f80  9002              STR      r0,[sp,#8]            ;563
000f82  f8b92000          LDRH     r2,[r9,#0]            ;564  ; battery_c
000f86  f6af21fc          ADR      r1,|L9.1164|
000f8a  4668              MOV      r0,sp                 ;564
000f8c  f7fffffe          BL       __2sprintf
000f90  4669              MOV      r1,sp                 ;565
000f92  9802              LDR      r0,[sp,#8]            ;565
000f94  f7fffffe          BL       TEXT_SetText
000f98  f6400182          MOV      r1,#0x882             ;567
000f9c  6860              LDR      r0,[r4,#4]            ;567
000f9e  f7fffffe          BL       WM_GetDialogItem
000fa2  f06f417f          MVN      r1,#0xff000000        ;568
000fa6  f7fffffe          BL       TEXT_SetTextColor
000faa  f6400183          MOV      r1,#0x883             ;570
000fae  6860              LDR      r0,[r4,#4]            ;570
000fb0  f7fffffe          BL       WM_GetDialogItem
000fb4  21ff              MOVS     r1,#0xff              ;571
000fb6  f7fffffe          BL       TEXT_SetTextColor
000fba  7a38              LDRB     r0,[r7,#8]            ;573  ; status_flash
000fbc  b398              CBZ      r0,|L9.4134|
000fbe  f6400184          MOV      r1,#0x884             ;588
000fc2  6860              LDR      r0,[r4,#4]            ;588
000fc4  f7fffffe          BL       WM_GetDialogItem
000fc8  a15b              ADR      r1,|L9.4408|
000fca  f7fffffe          BL       TEXT_SetText
000fce  723e              STRB     r6,[r7,#8]            ;590
                  |L9.4048|
000fd0  7a78              LDRB     r0,[r7,#9]            ;592  ; pause_flag
000fd2  2801              CMP      r0,#1                 ;592
000fd4  d04d              BEQ      |L9.4210|
000fd6  e061              B        |L9.4252|
                  |L9.4056|
000fd8  f7fffffe          BL       GUI_GetTime
000fdc  fb90f1f5          SDIV     r1,r0,r5              ;508
000fe0  485c              LDR      r0,|L9.4436|
000fe2  8f40              LDRH     r0,[r0,#0x3a]         ;508  ; Run_Control
000fe4  1a08              SUBS     r0,r1,r0              ;508
000fe6  fb90f1fb          SDIV     r1,r0,r11             ;508
000fea  fb0b0011          MLS      r0,r11,r1,r0          ;508
000fee  7078              STRB     r0,[r7,#1]            ;508
000ff0  f7fffffe          BL       GUI_GetTime
000ff4  fb90f1f5          SDIV     r1,r0,r5              ;509
000ff8  4856              LDR      r0,|L9.4436|
000ffa  8f40              LDRH     r0,[r0,#0x3a]         ;509  ; Run_Control
000ffc  1a08              SUBS     r0,r1,r0              ;509
000ffe  fb90f0fb          SDIV     r0,r0,r11             ;509
001002  fb90f1fb          SDIV     r1,r0,r11             ;509
001006  fb0b0011          MLS      r0,r11,r1,r0          ;509
00100a  70b8              STRB     r0,[r7,#2]            ;509
00100c  f7fffffe          BL       GUI_GetTime
001010  fb90f1f5          SDIV     r1,r0,r5              ;510
001014  484f              LDR      r0,|L9.4436|
001016  8f40              LDRH     r0,[r0,#0x3a]         ;510  ; Run_Control
001018  1a09              SUBS     r1,r1,r0              ;510
00101a  f44f6061          MOV      r0,#0xe10             ;510
00101e  fb91f0f0          SDIV     r0,r1,r0              ;510
001022  70f8              STRB     r0,[r7,#3]            ;510
001024  e6db              B        |L9.3550|
                  |L9.4134|
001026  e7ff              B        |L9.4136|
                  |L9.4136|
001028  f6400184          MOV      r1,#0x884             ;574
00102c  6860              LDR      r0,[r4,#4]            ;574
00102e  f7fffffe          BL       WM_GetDialogItem
001032  9002              STR      r0,[sp,#8]            ;574
001034  21ff              MOVS     r1,#0xff              ;575
001036  9802              LDR      r0,[sp,#8]            ;575
001038  f7fffffe          BL       TEXT_SetTextColor
00103c  f8980000          LDRB     r0,[r8,#0]            ;576  ; lang
001040  b160              CBZ      r0,|L9.4188|
001042  4945              LDR      r1,|L9.4440|
001044  9802              LDR      r0,[sp,#8]            ;582
001046  f7fffffe          BL       TEXT_SetFont
00104a  f7fffffe          BL       GUI_UC_SetEncodeUTF8
00104e  a143              ADR      r1,|L9.4444|
001050  9802              LDR      r0,[sp,#8]            ;584
001052  f7fffffe          BL       TEXT_SetText
                  |L9.4182|
001056  f887a008          STRB     r10,[r7,#8]           ;586
00105a  e7b9              B        |L9.4048|
                  |L9.4188|
00105c  4942              LDR      r1,|L9.4456|
00105e  9802              LDR      r0,[sp,#8]            ;578
001060  f7fffffe          BL       TEXT_SetFont
001064  f7fffffe          BL       GUI_UC_SetEncodeUTF8
001068  a140              ADR      r1,|L9.4460|
00106a  9802              LDR      r0,[sp,#8]            ;580
00106c  f7fffffe          BL       TEXT_SetText
001070  e7f1              B        |L9.4182|
                  |L9.4210|
001072  2102              MOVS     r1,#2                 ;593
001074  482e              LDR      r0,|L9.4400|
001076  f7fffffe          BL       GPIO_SetBits
00107a  717e              STRB     r6,[r7,#5]            ;594
00107c  f887a00a          STRB     r10,[r7,#0xa]         ;595
001080  78b8              LDRB     r0,[r7,#2]            ;597  ; minute
001082  7879              LDRB     r1,[r7,#1]            ;597  ; second
001084  ebc01000          RSB      r0,r0,r0,LSL #4       ;597
001088  eb010180          ADD      r1,r1,r0,LSL #2       ;597
00108c  78f8              LDRB     r0,[r7,#3]            ;597  ; hour
00108e  ebc01240          RSB      r2,r0,r0,LSL #5       ;597
001092  ebc22000          RSB      r0,r2,r0,LSL #8       ;597
001096  eb011000          ADD      r0,r1,r0,LSL #4       ;597
00109a  8278              STRH     r0,[r7,#0x12]         ;597
                  |L9.4252|
00109c  ed9b0a00          VLDR     s0,[r11,#0]           ;600
0010a0  eeb40ae8          VCMPE.F32 s0,s17                ;600
0010a4  eef1fa10          VMRS     APSR_nzcv,FPSCR       ;600
0010a8  d208              BCS      |L9.4284|
0010aa  7938              LDRB     r0,[r7,#4]            ;600  ; cutoff_flag
0010ac  b930              CBNZ     r0,|L9.4284|
0010ae  f7fffffe          BL       GUI_GetTime
0010b2  fb90f0f5          SDIV     r0,r0,r5              ;602
0010b6  8238              STRH     r0,[r7,#0x10]         ;602
0010b8  f887a004          STRB     r10,[r7,#4]           ;603
                  |L9.4284|
0010bc  ed9b0a00          VLDR     s0,[r11,#0]           ;606
0010c0  eeb40ae8          VCMPE.F32 s0,s17                ;606
0010c4  eef1fa10          VMRS     APSR_nzcv,FPSCR       ;606
0010c8  d27e              BCS      |L9.4552|
0010ca  f7fffffe          BL       GUI_GetTime
0010ce  fb90f0f5          SDIV     r0,r0,r5              ;606
0010d2  8a39              LDRH     r1,[r7,#0x10]         ;606  ; cutoff_time
0010d4  1a40              SUBS     r0,r0,r1              ;606
0010d6  280a              CMP      r0,#0xa               ;606
0010d8  db76              BLT      |L9.4552|
0010da  4814              LDR      r0,|L9.4396|
0010dc  7800              LDRB     r0,[r0,#0]            ;608  ; mode_sw
0010de  2802              CMP      r0,#2                 ;608
0010e0  d108              BNE      |L9.4340|
0010e2  f7fffffe          BL       GUI_GetTime
0010e6  fb90f1f5          SDIV     r1,r0,r5              ;609
0010ea  481a              LDR      r0,|L9.4436|
0010ec  8781              STRH     r1,[r0,#0x3c]         ;609
0010ee  79f8              LDRB     r0,[r7,#7]            ;610  ; count
0010f0  1c40              ADDS     r0,r0,#1              ;610
0010f2  71f8              STRB     r0,[r7,#7]            ;610
                  |L9.4340|
0010f4  2102              MOVS     r1,#2                 ;613
0010f6  480e              LDR      r0,|L9.4400|
0010f8  f7fffffe          BL       GPIO_SetBits
0010fc  79f9              LDRB     r1,[r7,#7]            ;614  ; count
0010fe  7838              LDRB     r0,[r7,#0]            ;614  ; set_loop_count
001100  4281              CMP      r1,r0                 ;614
001102  d97d              BLS      |L9.4608|
001104  717e              STRB     r6,[r7,#5]            ;615
001106  4813              LDR      r0,|L9.4436|
001108  8f81              LDRH     r1,[r0,#0x3c]         ;616  ; Run_Control
00110a  8f40              LDRH     r0,[r0,#0x3a]         ;616  ; Run_Control
00110c  1a08              SUBS     r0,r1,r0              ;616
00110e  ee000a10          VMOV     s0,r0                 ;616
001112  eeb80ac0          VCVT.F32.S32 s0,s0                 ;616
001116  eec00a09          VDIV.F32 s1,s0,s18             ;616
00111a  ee200a88          VMUL.F32 s0,s1,s16             ;616
00111e  ee200a0c          VMUL.F32 s0,s0,s24             ;616
001122  eebd0ac0          VCVT.S32.F32 s0,s0                 ;616
001126  ee100a10          VMOV     r0,s0                 ;616
00112a  e026              B        |L9.4474|
                  |L9.4396|
                          DCD      mode_sw
                  |L9.4400|
                          DCD      0x40020800
                  |L9.4404|
001134  25303264          DCB      "%02d"
                  |L9.4408|
001138  00                DCB      0
001139  00                DCB      0
00113a  00                DCB      0
00113b  00                DCB      0
                  |L9.4412|
                          DCD      GUI_Font24_1
                  |L9.4416|
001140  3a00              DCB      ":",0
001142  00                DCB      0
001143  00                DCB      0
                  |L9.4420|
                          DCD      DISS_Voltage
                  |L9.4424|
                          DCD      DISS_Current
                  |L9.4428|
00114c  45610000          DCFS     0x45610000 ; 3600
                  |L9.4432|
                          DCD      battery_c
                  |L9.4436|
                          DCD      Run_Control
                  |L9.4440|
                          DCD      GUI_Font20_ASCII
                  |L9.4444|
00115c  44697363          DCB      "Discharging",0
001160  68617267
001164  696e6700
                  |L9.4456|
                          DCD      GUI_FontHZ16
                  |L9.4460|
00116c  e694bee7          DCB      230,148,190,231,148,181,228,184,173,0
001170  94b5e4b8
001174  ad00    
001176  00                DCB      0
001177  00                DCB      0
                  |L9.4472|
001178  e120              B        |L9.5052|
                  |L9.4474|
00117a  79b9              LDRB     r1,[r7,#6]            ;616  ; c_sum
00117c  4408              ADD      r0,r0,r1              ;616
00117e  7839              LDRB     r1,[r7,#0]            ;616  ; set_loop_count
001180  fb90f0f1          SDIV     r0,r0,r1              ;616
001184  f8a90000          STRH     r0,[r9,#0]            ;616
001188  f887a007          STRB     r10,[r7,#7]           ;617
00118c  f6400181          MOV      r1,#0x881             ;619
001190  6860              LDR      r0,[r4,#4]            ;619
001192  f7fffffe          BL       WM_GetDialogItem
001196  4605              MOV      r5,r0                 ;619
001198  f8b92000          LDRH     r2,[r9,#0]            ;620  ; battery_c
00119c  f6af5114          ADR      r1,|L9.1164|
0011a0  4668              MOV      r0,sp                 ;620
0011a2  f7fffffe          BL       __2sprintf
0011a6  4669              MOV      r1,sp                 ;621
0011a8  4628              MOV      r0,r5                 ;621
0011aa  f7fffffe          BL       TEXT_SetText
0011ae  f6400184          MOV      r1,#0x884             ;623
0011b2  6860              LDR      r0,[r4,#4]            ;623
0011b4  f7fffffe          BL       WM_GetDialogItem
0011b8  f2af0184          ADR      r1,|L9.4408|
0011bc  f7fffffe          BL       TEXT_SetText
0011c0  f6400185          MOV      r1,#0x885             ;626
0011c4  6860              LDR      r0,[r4,#4]            ;626
0011c6  e000              B        |L9.4554|
                  |L9.4552|
0011c8  e0e6              B        |L9.5016|
                  |L9.4554|
0011ca  f7fffffe          BL       WM_GetDialogItem
0011ce  f2af0198          ADR      r1,|L9.4408|
0011d2  f7fffffe          BL       TEXT_SetText
0011d6  f6400186          MOV      r1,#0x886             ;629
0011da  6860              LDR      r0,[r4,#4]            ;629
0011dc  f7fffffe          BL       WM_GetDialogItem
0011e0  f2af01ac          ADR      r1,|L9.4408|
0011e4  f7fffffe          BL       TEXT_SetText
0011e8  f6400187          MOV      r1,#0x887             ;632
0011ec  6860              LDR      r0,[r4,#4]            ;632
0011ee  f7fffffe          BL       WM_GetDialogItem
0011f2  f2af01bc          ADR      r1,|L9.4408|
0011f6  f7fffffe          BL       TEXT_SetText
0011fa  f6400188          MOV      r1,#0x888             ;635
0011fe  e000              B        |L9.4610|
                  |L9.4608|
001200  e02b              B        |L9.4698|
                  |L9.4610|
001202  6860              LDR      r0,[r4,#4]            ;635
001204  f7fffffe          BL       WM_GetDialogItem
001208  f2af01d4          ADR      r1,|L9.4408|
00120c  f7fffffe          BL       TEXT_SetText
001210  f6400189          MOV      r1,#0x889             ;638
001214  6860              LDR      r0,[r4,#4]            ;638
001216  f7fffffe          BL       WM_GetDialogItem
00121a  f2af01e4          ADR      r1,|L9.4408|
00121e  f7fffffe          BL       TEXT_SetText
001222  f640018a          MOV      r1,#0x88a             ;641
001226  6860              LDR      r0,[r4,#4]            ;641
001228  f7fffffe          BL       WM_GetDialogItem
00122c  f2af01f8          ADR      r1,|L9.4408|
001230  f7fffffe          BL       TEXT_SetText
001234  f640018b          MOV      r1,#0x88b             ;644
001238  6860              LDR      r0,[r4,#4]            ;644
00123a  f7fffffe          BL       WM_GetDialogItem
00123e  f2af1108          ADR      r1,|L9.4408|
001242  f7fffffe          BL       TEXT_SetText
001246  f640018c          MOV      r1,#0x88c             ;647
00124a  6860              LDR      r0,[r4,#4]            ;647
00124c  f7fffffe          BL       WM_GetDialogItem
001250  f2af111c          ADR      r1,|L9.4408|
001254  f7fffffe          BL       TEXT_SetText
001258  e0a6              B        |L9.5032|
                  |L9.4698|
00125a  48fd              LDR      r0,|L9.5712|
00125c  8f81              LDRH     r1,[r0,#0x3c]         ;651  ; Run_Control
00125e  8f40              LDRH     r0,[r0,#0x3a]         ;651  ; Run_Control
001260  1a08              SUBS     r0,r1,r0              ;651
001262  ee000a10          VMOV     s0,r0                 ;651
001266  79b9              LDRB     r1,[r7,#6]            ;651  ; c_sum
001268  eeb80ac0          VCVT.F32.S32 s0,s0                 ;651
00126c  eec00a09          VDIV.F32 s1,s0,s18             ;651
001270  ee200a88          VMUL.F32 s0,s1,s16             ;651
001274  ee200a0c          VMUL.F32 s0,s0,s24             ;651
001278  eebd0ac0          VCVT.S32.F32 s0,s0                 ;651
00127c  ee100a10          VMOV     r0,s0                 ;651
001280  4408              ADD      r0,r0,r1              ;651
001282  71b8              STRB     r0,[r7,#6]            ;651
001284  2003              MOVS     r0,#3                 ;652
001286  f7fffffe          BL       Mode_SW_CONT
00128a  f44f5100          MOV      r1,#0x2000            ;656
00128e  48f1              LDR      r0,|L9.5716|
001290  f7fffffe          BL       GPIO_SetBits
001294  713e              STRB     r6,[r7,#4]            ;657
001296  e087              B        |L9.5032|
                  |L9.4760|
001298  48ef              LDR      r0,|L9.5720|
00129a  8800              LDRH     r0,[r0,#0]            ;660  ; battery_c
00129c  b3d8              CBZ      r0,|L9.4886|
00129e  f640017f          MOV      r1,#0x87f             ;661
0012a2  6860              LDR      r0,[r4,#4]            ;661
0012a4  f7fffffe          BL       WM_GetDialogItem
0012a8  4605              MOV      r5,r0                 ;661
0012aa  ec532b1b          VMOV     r2,r3,d11             ;662
0012ae  f6af6144          ADR      r1,|L9.1132|
0012b2  4668              MOV      r0,sp                 ;662
0012b4  f7fffffe          BL       __2sprintf
0012b8  4669              MOV      r1,sp                 ;663
0012ba  4628              MOV      r0,r5                 ;663
0012bc  f7fffffe          BL       TEXT_SetText
0012c0  f44f6108          MOV      r1,#0x880             ;665
0012c4  6860              LDR      r0,[r4,#4]            ;665
0012c6  f7fffffe          BL       WM_GetDialogItem
0012ca  4605              MOV      r5,r0                 ;665
0012cc  ec532b1b          VMOV     r2,r3,d11             ;666
0012d0  f6af6168          ADR      r1,|L9.1132|
0012d4  4668              MOV      r0,sp                 ;666
0012d6  f7fffffe          BL       __2sprintf
0012da  4669              MOV      r1,sp                 ;667
0012dc  4628              MOV      r0,r5                 ;667
0012de  f7fffffe          BL       TEXT_SetText
0012e2  f6400182          MOV      r1,#0x882             ;669
0012e6  6860              LDR      r0,[r4,#4]            ;669
0012e8  f7fffffe          BL       WM_GetDialogItem
0012ec  4649              MOV      r1,r9                 ;670
0012ee  f7fffffe          BL       TEXT_SetTextColor
0012f2  f6400183          MOV      r1,#0x883             ;672
0012f6  6860              LDR      r0,[r4,#4]            ;672
0012f8  f7fffffe          BL       WM_GetDialogItem
0012fc  4649              MOV      r1,r9                 ;673
0012fe  f7fffffe          BL       TEXT_SetTextColor
001302  f6400184          MOV      r1,#0x884             ;675
001306  6860              LDR      r0,[r4,#4]            ;675
001308  f7fffffe          BL       WM_GetDialogItem
00130c  f2af11d8          ADR      r1,|L9.4408|
001310  f7fffffe          BL       TEXT_SetText
001314  e048              B        |L9.5032|
                  |L9.4886|
001316  e7ff              B        |L9.4888|
                  |L9.4888|
001318  7978              LDRB     r0,[r7,#5]            ;678  ; cdc_sw
00131a  bbe8              CBNZ     r0,|L9.5016|
00131c  f640017f          MOV      r1,#0x87f             ;679
001320  6860              LDR      r0,[r4,#4]            ;679
001322  f7fffffe          BL       WM_GetDialogItem
001326  4605              MOV      r5,r0                 ;679
001328  ec532b1b          VMOV     r2,r3,d11             ;680
00132c  f6af61c4          ADR      r1,|L9.1132|
001330  4668              MOV      r0,sp                 ;680
001332  f7fffffe          BL       __2sprintf
001336  4669              MOV      r1,sp                 ;681
001338  4628              MOV      r0,r5                 ;681
00133a  f7fffffe          BL       TEXT_SetText
00133e  f44f6108          MOV      r1,#0x880             ;683
001342  6860              LDR      r0,[r4,#4]            ;683
001344  f7fffffe          BL       WM_GetDialogItem
001348  4605              MOV      r5,r0                 ;683
00134a  ec532b1b          VMOV     r2,r3,d11             ;684
00134e  f6af61e4          ADR      r1,|L9.1132|
001352  4668              MOV      r0,sp                 ;684
001354  f7fffffe          BL       __2sprintf
001358  4669              MOV      r1,sp                 ;685
00135a  4628              MOV      r0,r5                 ;685
00135c  f7fffffe          BL       TEXT_SetText
001360  f640310e          MOV      r1,#0xb0e             ;687
001364  6860              LDR      r0,[r4,#4]            ;687
001366  f7fffffe          BL       WM_GetDialogItem
00136a  f2af2134          ADR      r1,|L9.4408|
00136e  f7fffffe          BL       TEXT_SetText
001372  f6400182          MOV      r1,#0x882             ;690
001376  6860              LDR      r0,[r4,#4]            ;690
001378  f7fffffe          BL       WM_GetDialogItem
00137c  4649              MOV      r1,r9                 ;691
00137e  f7fffffe          BL       TEXT_SetTextColor
001382  f6400183          MOV      r1,#0x883             ;693
001386  6860              LDR      r0,[r4,#4]            ;693
001388  f7fffffe          BL       WM_GetDialogItem
00138c  4649              MOV      r1,r9                 ;694
00138e  f7fffffe          BL       TEXT_SetTextColor
001392  f6400184          MOV      r1,#0x884             ;696
001396  e000              B        |L9.5018|
                  |L9.5016|
001398  e006              B        |L9.5032|
                  |L9.5018|
00139a  6860              LDR      r0,[r4,#4]            ;696
00139c  f7fffffe          BL       WM_GetDialogItem
0013a0  f2af216c          ADR      r1,|L9.4408|
0013a4  f7fffffe          BL       TEXT_SetText
                  |L9.5032|
0013a8  f24011f1          MOV      r1,#0x1f1             ;699
0013ac  68e0              LDR      r0,[r4,#0xc]          ;699
0013ae  f7fffffe          BL       WM_RestartTimer
                  |L9.5042|
0013b2  b003              ADD      sp,sp,#0xc
0013b4  ecbd8b0a          VPOP     {d8-d12}
0013b8  e8bd8ff0          POP      {r4-r11,pc}
                  |L9.5052|
0013bc  6866              LDR      r6,[r4,#4]            ;709
0013be  2100              MOVS     r1,#0                 ;710
0013c0  4630              MOV      r0,r6                 ;710
0013c2  f7fffffe          BL       WINDOW_SetBkColor
0013c6  2300              MOVS     r3,#0                 ;711
0013c8  462a              MOV      r2,r5                 ;711
0013ca  2105              MOVS     r1,#5                 ;711
0013cc  4630              MOV      r0,r6                 ;711
0013ce  f7fffffe          BL       WM_CreateTimer
0013d2  f8980000          LDRB     r0,[r8,#0]            ;713  ; lang
0013d6  f640012c          MOV      r1,#0x82c             ;715
0013da  1c4d              ADDS     r5,r1,#1              ;721
0013dc  1c8e              ADDS     r6,r1,#2              ;727
0013de  f6400b2f          MOV      r11,#0x82f            ;733
0013e2  2800              CMP      r0,#0                 ;713
0013e4  d07e              BEQ      |L9.5348|
0013e6  6860              LDR      r0,[r4,#4]            ;746
0013e8  f7fffffe          BL       WM_GetDialogItem
0013ec  9002              STR      r0,[sp,#8]            ;746
0013ee  2200              MOVS     r2,#0                 ;747
0013f0  4611              MOV      r1,r2                 ;747
0013f2  9802              LDR      r0,[sp,#8]            ;747
0013f4  f7fffffe          BL       BUTTON_SetTextColor
0013f8  4998              LDR      r1,|L9.5724|
0013fa  9802              LDR      r0,[sp,#8]            ;748
0013fc  f7fffffe          BL       BUTTON_SetFont
001400  f7fffffe          BL       GUI_UC_SetEncodeUTF8
001404  a196              ADR      r1,|L9.5728|
001406  9802              LDR      r0,[sp,#8]            ;750
001408  f7fffffe          BL       BUTTON_SetText
00140c  4629              MOV      r1,r5                 ;752
00140e  6860              LDR      r0,[r4,#4]            ;752
001410  f7fffffe          BL       WM_GetDialogItem
001414  4605              MOV      r5,r0                 ;752
001416  2200              MOVS     r2,#0                 ;753
001418  4611              MOV      r1,r2                 ;753
00141a  4628              MOV      r0,r5                 ;753
00141c  f7fffffe          BL       BUTTON_SetTextColor
001420  498e              LDR      r1,|L9.5724|
001422  4628              MOV      r0,r5                 ;754
001424  f7fffffe          BL       BUTTON_SetFont
001428  f7fffffe          BL       GUI_UC_SetEncodeUTF8
00142c  a18f              ADR      r1,|L9.5740|
00142e  4628              MOV      r0,r5                 ;756
001430  f7fffffe          BL       BUTTON_SetText
001434  4631              MOV      r1,r6                 ;758
001436  6860              LDR      r0,[r4,#4]            ;758
001438  f7fffffe          BL       WM_GetDialogItem
00143c  4605              MOV      r5,r0                 ;758
00143e  2200              MOVS     r2,#0                 ;759
001440  4611              MOV      r1,r2                 ;759
001442  4628              MOV      r0,r5                 ;759
001444  f7fffffe          BL       BUTTON_SetTextColor
001448  4984              LDR      r1,|L9.5724|
00144a  4628              MOV      r0,r5                 ;760
00144c  f7fffffe          BL       BUTTON_SetFont
001450  f7fffffe          BL       GUI_UC_SetEncodeUTF8
001454  a187              ADR      r1,|L9.5748|
001456  4628              MOV      r0,r5                 ;762
001458  f7fffffe          BL       BUTTON_SetText
00145c  4659              MOV      r1,r11                ;764
00145e  6860              LDR      r0,[r4,#4]            ;764
001460  f7fffffe          BL       WM_GetDialogItem
001464  4605              MOV      r5,r0                 ;764
001466  2101              MOVS     r1,#1                 ;765
001468  4628              MOV      r0,r5                 ;765
00146a  f7fffffe          BL       BUTTON_SetPressed
00146e  2200              MOVS     r2,#0                 ;766
001470  4611              MOV      r1,r2                 ;766
001472  4628              MOV      r0,r5                 ;766
001474  f7fffffe          BL       BUTTON_SetTextColor
001478  4978              LDR      r1,|L9.5724|
00147a  4628              MOV      r0,r5                 ;767
00147c  f7fffffe          BL       BUTTON_SetFont
001480  f7fffffe          BL       GUI_UC_SetEncodeUTF8
001484  a17d              ADR      r1,|L9.5756|
001486  4628              MOV      r0,r5                 ;769
001488  f7fffffe          BL       BUTTON_SetText
00148c  1cb1              ADDS     r1,r6,#2              ;771
00148e  6860              LDR      r0,[r4,#4]            ;771
001490  f7fffffe          BL       WM_GetDialogItem
001494  4605              MOV      r5,r0                 ;771
001496  2200              MOVS     r2,#0                 ;772
001498  4611              MOV      r1,r2                 ;772
00149a  4628              MOV      r0,r5                 ;772
00149c  f7fffffe          BL       BUTTON_SetTextColor
0014a0  496e              LDR      r1,|L9.5724|
0014a2  4628              MOV      r0,r5                 ;773
0014a4  f7fffffe          BL       BUTTON_SetFont
0014a8  f7fffffe          BL       GUI_UC_SetEncodeUTF8
0014ac  a175              ADR      r1,|L9.5764|
0014ae  4628              MOV      r0,r5                 ;775
0014b0  f7fffffe          BL       BUTTON_SetText
                  |L9.5300|
0014b4  f6400131          MOV      r1,#0x831             ;778
0014b8  6860              LDR      r0,[r4,#4]            ;778
0014ba  f7fffffe          BL       WM_GetDialogItem
0014be  4605              MOV      r5,r0                 ;778
0014c0  4651              MOV      r1,r10                ;779
0014c2  4628              MOV      r0,r5                 ;779
0014c4  f7fffffe          BL       TEXT_SetTextColor
0014c8  4970              LDR      r1,|L9.5772|
0014ca  4628              MOV      r0,r5                 ;780
0014cc  f7fffffe          BL       TEXT_SetFont
0014d0  f7fffffe          BL       GUI_UC_SetEncodeUTF8
0014d4  a16e              ADR      r1,|L9.5776|
0014d6  4628              MOV      r0,r5                 ;782
0014d8  f7fffffe          BL       TEXT_SetText
0014dc  f6400132          MOV      r1,#0x832             ;784
0014e0  6860              LDR      r0,[r4,#4]            ;784
0014e2  e000              B        |L9.5350|
                  |L9.5348|
0014e4  e2c3              B        |L9.6766|
                  |L9.5350|
0014e6  f7fffffe          BL       WM_GetDialogItem
0014ea  4605              MOV      r5,r0                 ;784
0014ec  4651              MOV      r1,r10                ;785
0014ee  4628              MOV      r0,r5                 ;785
0014f0  f7fffffe          BL       TEXT_SetTextColor
0014f4  4965              LDR      r1,|L9.5772|
0014f6  4628              MOV      r0,r5                 ;786
0014f8  f7fffffe          BL       TEXT_SetFont
0014fc  f7fffffe          BL       GUI_UC_SetEncodeUTF8
001500  a164              ADR      r1,|L9.5780|
001502  4628              MOV      r0,r5                 ;788
001504  f7fffffe          BL       TEXT_SetText
001508  f6400133          MOV      r1,#0x833             ;790
00150c  6860              LDR      r0,[r4,#4]            ;790
00150e  f7fffffe          BL       WM_GetDialogItem
001512  4605              MOV      r5,r0                 ;790
001514  4651              MOV      r1,r10                ;791
001516  4628              MOV      r0,r5                 ;791
001518  f7fffffe          BL       TEXT_SetTextColor
00151c  495b              LDR      r1,|L9.5772|
00151e  4628              MOV      r0,r5                 ;792
001520  f7fffffe          BL       TEXT_SetFont
001524  f7fffffe          BL       GUI_UC_SetEncodeUTF8
001528  a15b              ADR      r1,|L9.5784|
00152a  4628              MOV      r0,r5                 ;794
00152c  f7fffffe          BL       TEXT_SetText
001530  f6400134          MOV      r1,#0x834             ;796
001534  6860              LDR      r0,[r4,#4]            ;796
001536  f7fffffe          BL       WM_GetDialogItem
00153a  4605              MOV      r5,r0                 ;796
00153c  4651              MOV      r1,r10                ;797
00153e  4628              MOV      r0,r5                 ;797
001540  f7fffffe          BL       TEXT_SetTextColor
001544  4951              LDR      r1,|L9.5772|
001546  4628              MOV      r0,r5                 ;798
001548  f7fffffe          BL       TEXT_SetFont
00154c  f7fffffe          BL       GUI_UC_SetEncodeUTF8
001550  a152              ADR      r1,|L9.5788|
001552  4628              MOV      r0,r5                 ;800
001554  f7fffffe          BL       TEXT_SetText
001558  f8980000          LDRB     r0,[r8,#0]            ;802  ; lang
00155c  f640016f          MOV      r1,#0x86f             ;804
001560  4d4f              LDR      r5,|L9.5792|
001562  1c4e              ADDS     r6,r1,#1              ;811
001564  f6400a77          MOV      r10,#0x877            ;817
001568  f6400b78          MOV      r11,#0x878            ;823
00156c  2800              CMP      r0,#0                 ;802
00156e  d06e              BEQ      |L9.5710|
001570  6860              LDR      r0,[r4,#4]            ;853
001572  f7fffffe          BL       WM_GetDialogItem
001576  9002              STR      r0,[sp,#8]            ;853
001578  2100              MOVS     r1,#0                 ;854
00157a  9802              LDR      r0,[sp,#8]            ;854
00157c  f7fffffe          BL       TEXT_SetTextColor
001580  4629              MOV      r1,r5                 ;855
001582  9802              LDR      r0,[sp,#8]            ;855
001584  f7fffffe          BL       TEXT_SetBkColor
001588  4946              LDR      r1,|L9.5796|
00158a  9802              LDR      r0,[sp,#8]            ;856
00158c  f7fffffe          BL       TEXT_SetFont
001590  f7fffffe          BL       GUI_UC_SetEncodeUTF8
001594  a144              ADR      r1,|L9.5800|
001596  9802              LDR      r0,[sp,#8]            ;858
001598  f7fffffe          BL       TEXT_SetText
00159c  4631              MOV      r1,r6                 ;860
00159e  6860              LDR      r0,[r4,#4]            ;860
0015a0  f7fffffe          BL       WM_GetDialogItem
0015a4  4605              MOV      r5,r0                 ;860
0015a6  4649              MOV      r1,r9                 ;861
0015a8  4628              MOV      r0,r5                 ;861
0015aa  f7fffffe          BL       TEXT_SetTextColor
0015ae  493d              LDR      r1,|L9.5796|
0015b0  4628              MOV      r0,r5                 ;862
0015b2  f7fffffe          BL       TEXT_SetFont
0015b6  f7fffffe          BL       GUI_UC_SetEncodeUTF8
0015ba  a13e              ADR      r1,|L9.5812|
0015bc  4628              MOV      r0,r5                 ;864
0015be  f7fffffe          BL       TEXT_SetText
0015c2  4651              MOV      r1,r10                ;866
0015c4  6860              LDR      r0,[r4,#4]            ;866
0015c6  f7fffffe          BL       WM_GetDialogItem
0015ca  4605              MOV      r5,r0                 ;866
0015cc  4649              MOV      r1,r9                 ;867
0015ce  4628              MOV      r0,r5                 ;867
0015d0  f7fffffe          BL       TEXT_SetTextColor
0015d4  4933              LDR      r1,|L9.5796|
0015d6  4628              MOV      r0,r5                 ;868
0015d8  f7fffffe          BL       TEXT_SetFont
0015dc  f7fffffe          BL       GUI_UC_SetEncodeUTF8
0015e0  a137              ADR      r1,|L9.5824|
0015e2  4628              MOV      r0,r5                 ;870
0015e4  f7fffffe          BL       TEXT_SetText
0015e8  4659              MOV      r1,r11                ;872
0015ea  6860              LDR      r0,[r4,#4]            ;872
0015ec  f7fffffe          BL       WM_GetDialogItem
0015f0  4605              MOV      r5,r0                 ;872
0015f2  4649              MOV      r1,r9                 ;873
0015f4  4628              MOV      r0,r5                 ;873
0015f6  f7fffffe          BL       TEXT_SetTextColor
0015fa  492a              LDR      r1,|L9.5796|
0015fc  4628              MOV      r0,r5                 ;874
0015fe  f7fffffe          BL       TEXT_SetFont
001602  f7fffffe          BL       GUI_UC_SetEncodeUTF8
001606  a131              ADR      r1,|L9.5836|
001608  4628              MOV      r0,r5                 ;876
00160a  f7fffffe          BL       TEXT_SetText
00160e  1c71              ADDS     r1,r6,#1              ;878
001610  6860              LDR      r0,[r4,#4]            ;878
001612  f7fffffe          BL       WM_GetDialogItem
001616  4605              MOV      r5,r0                 ;878
001618  4649              MOV      r1,r9                 ;879
00161a  4628              MOV      r0,r5                 ;879
00161c  f7fffffe          BL       TEXT_SetTextColor
001620  4920              LDR      r1,|L9.5796|
001622  4628              MOV      r0,r5                 ;880
001624  f7fffffe          BL       TEXT_SetFont
001628  f7fffffe          BL       GUI_UC_SetEncodeUTF8
00162c  a12a              ADR      r1,|L9.5848|
00162e  4628              MOV      r0,r5                 ;882
001630  f7fffffe          BL       TEXT_SetText
001634  f6400179          MOV      r1,#0x879             ;884
001638  6860              LDR      r0,[r4,#4]            ;884
00163a  f7fffffe          BL       WM_GetDialogItem
00163e  4605              MOV      r5,r0                 ;884
001640  4649              MOV      r1,r9                 ;885
001642  4628              MOV      r0,r5                 ;885
001644  f7fffffe          BL       TEXT_SetTextColor
001648  4916              LDR      r1,|L9.5796|
00164a  4628              MOV      r0,r5                 ;886
00164c  e048              B        |L9.5856|
                  |L9.5710|
00164e  e2b3              B        |L9.7096|
                  |L9.5712|
                          DCD      Run_Control
                  |L9.5716|
                          DCD      0x40020400
                  |L9.5720|
                          DCD      battery_c
                  |L9.5724|
                          DCD      GUI_Font16B_ASCII
                  |L9.5728|
001660  492e522e          DCB      "I.R. TEST",0
001664  20544553
001668  5400    
00166a  00                DCB      0
00166b  00                DCB      0
                  |L9.5740|
00166c  4c4f4144          DCB      "LOAD",0
001670  00      
001671  00                DCB      0
001672  00                DCB      0
001673  00                DCB      0
                  |L9.5748|
001674  504f5745          DCB      "POWER",0
001678  5200    
00167a  00                DCB      0
00167b  00                DCB      0
                  |L9.5756|
00167c  43264443          DCB      "C&DC",0
001680  00      
001681  00                DCB      0
001682  00                DCB      0
001683  00                DCB      0
                  |L9.5764|
001684  47524150          DCB      "GRAPH",0
001688  4800    
00168a  00                DCB      0
00168b  00                DCB      0
                  |L9.5772|
                          DCD      GUI_FontEN40
                  |L9.5776|
001690  563a00            DCB      "V:",0
001693  00                DCB      0
                  |L9.5780|
001694  493a00            DCB      "I:",0
001697  00                DCB      0
                  |L9.5784|
001698  5600              DCB      "V",0
00169a  00                DCB      0
00169b  00                DCB      0
                  |L9.5788|
00169c  4100              DCB      "A",0
00169e  00                DCB      0
00169f  00                DCB      0
                  |L9.5792|
                          DCD      0x00bfffff
                  |L9.5796|
                          DCD      GUI_Font20_ASCII
                  |L9.5800|
0016a8  4f757470          DCB      "Output V1",0
0016ac  75742056
0016b0  3100    
0016b2  00                DCB      0
0016b3  00                DCB      0
                  |L9.5812|
0016b4  4c696d69          DCB      "Limiting C1",0
0016b8  74696e67
0016bc  20433100
                  |L9.5824|
0016c0  4375746f          DCB      "Cutoff V1",0
0016c4  66662056
0016c8  3100    
0016ca  00                DCB      0
0016cb  00                DCB      0
                  |L9.5836|
0016cc  4375746f          DCB      "Cutoff C1",0
0016d0  66662043
0016d4  3100    
0016d6  00                DCB      0
0016d7  00                DCB      0
                  |L9.5848|
0016d8  4c6f6164          DCB      "Load C",0
0016dc  204300  
0016df  00                DCB      0
                  |L9.5856|
0016e0  f7fffffe          BL       TEXT_SetFont
0016e4  f7fffffe          BL       GUI_UC_SetEncodeUTF8
0016e8  a1fd              ADR      r1,|L9.6880|
0016ea  4628              MOV      r0,r5                 ;888
0016ec  f7fffffe          BL       TEXT_SetText
0016f0  1cb1              ADDS     r1,r6,#2              ;896
0016f2  6860              LDR      r0,[r4,#4]            ;896
0016f4  f7fffffe          BL       WM_GetDialogItem
0016f8  4605              MOV      r5,r0                 ;896
0016fa  4649              MOV      r1,r9                 ;897
0016fc  4628              MOV      r0,r5                 ;897
0016fe  f7fffffe          BL       TEXT_SetTextColor
001702  49fa              LDR      r1,|L9.6892|
001704  4628              MOV      r0,r5                 ;898
001706  f7fffffe          BL       TEXT_SetFont
00170a  f7fffffe          BL       GUI_UC_SetEncodeUTF8
00170e  a1f8              ADR      r1,|L9.6896|
001710  4628              MOV      r0,r5                 ;900
001712  f7fffffe          BL       TEXT_SetText
                  |L9.5910|
001716  f6400173          MOV      r1,#0x873             ;903
00171a  6860              LDR      r0,[r4,#4]            ;903
00171c  f7fffffe          BL       WM_GetDialogItem
001720  4605              MOV      r5,r0                 ;903
001722  ee190a10          VMOV     r0,s18                ;904
001726  f7fffffe          BL       __aeabi_f2d
00172a  ec410b10          VMOV     d0,r0,r1              ;904
00172e  49f3              LDR      r1,|L9.6908|
001730  ec532b10          VMOV     r2,r3,d0              ;904
001734  4668              MOV      r0,sp                 ;904
001736  f7fffffe          BL       __2sprintf
00173a  4649              MOV      r1,r9                 ;905
00173c  4628              MOV      r0,r5                 ;905
00173e  f7fffffe          BL       TEXT_SetTextColor
001742  49ef              LDR      r1,|L9.6912|
001744  4628              MOV      r0,r5                 ;906
001746  f7fffffe          BL       TEXT_SetFont
00174a  f7fffffe          BL       GUI_UC_SetEncodeUTF8
00174e  4669              MOV      r1,sp                 ;908
001750  4628              MOV      r0,r5                 ;908
001752  f7fffffe          BL       TEXT_SetText
001756  f6400174          MOV      r1,#0x874             ;910
00175a  6860              LDR      r0,[r4,#4]            ;910
00175c  f7fffffe          BL       WM_GetDialogItem
001760  4605              MOV      r5,r0                 ;910
001762  ee190a90          VMOV     r0,s19                ;911
001766  f7fffffe          BL       __aeabi_f2d
00176a  ec410b10          VMOV     d0,r0,r1              ;911
00176e  49e3              LDR      r1,|L9.6908|
001770  ec532b10          VMOV     r2,r3,d0              ;911
001774  4668              MOV      r0,sp                 ;911
001776  f7fffffe          BL       __2sprintf
00177a  4649              MOV      r1,r9                 ;912
00177c  4628              MOV      r0,r5                 ;912
00177e  f7fffffe          BL       TEXT_SetTextColor
001782  49df              LDR      r1,|L9.6912|
001784  4628              MOV      r0,r5                 ;913
001786  f7fffffe          BL       TEXT_SetFont
00178a  f7fffffe          BL       GUI_UC_SetEncodeUTF8
00178e  4669              MOV      r1,sp                 ;915
001790  4628              MOV      r0,r5                 ;915
001792  f7fffffe          BL       TEXT_SetText
001796  f6400175          MOV      r1,#0x875             ;917
00179a  6860              LDR      r0,[r4,#4]            ;917
00179c  f7fffffe          BL       WM_GetDialogItem
0017a0  4605              MOV      r5,r0                 ;917
0017a2  ee180a10          VMOV     r0,s16                ;918
0017a6  f7fffffe          BL       __aeabi_f2d
0017aa  ec410b10          VMOV     d0,r0,r1              ;918
0017ae  49d3              LDR      r1,|L9.6908|
0017b0  ec532b10          VMOV     r2,r3,d0              ;918
0017b4  4668              MOV      r0,sp                 ;918
0017b6  f7fffffe          BL       __2sprintf
0017ba  4649              MOV      r1,r9                 ;919
0017bc  4628              MOV      r0,r5                 ;919
0017be  f7fffffe          BL       TEXT_SetTextColor
0017c2  49cf              LDR      r1,|L9.6912|
0017c4  4628              MOV      r0,r5                 ;920
0017c6  f7fffffe          BL       TEXT_SetFont
0017ca  f7fffffe          BL       GUI_UC_SetEncodeUTF8
0017ce  4669              MOV      r1,sp                 ;922
0017d0  4628              MOV      r0,r5                 ;922
0017d2  f7fffffe          BL       TEXT_SetText
0017d6  f6400176          MOV      r1,#0x876             ;924
0017da  6860              LDR      r0,[r4,#4]            ;924
0017dc  f7fffffe          BL       WM_GetDialogItem
0017e0  4605              MOV      r5,r0                 ;924
0017e2  783a              LDRB     r2,[r7,#0]            ;925  ; set_loop_count
0017e4  49c5              LDR      r1,|L9.6908|
0017e6  4668              MOV      r0,sp                 ;925
0017e8  3114              ADDS     r1,r1,#0x14           ;925
0017ea  f7fffffe          BL       __2sprintf
0017ee  4649              MOV      r1,r9                 ;926
0017f0  4628              MOV      r0,r5                 ;926
0017f2  f7fffffe          BL       TEXT_SetTextColor
0017f6  49c2              LDR      r1,|L9.6912|
0017f8  4628              MOV      r0,r5                 ;927
0017fa  f7fffffe          BL       TEXT_SetFont
0017fe  f7fffffe          BL       GUI_UC_SetEncodeUTF8
001802  4669              MOV      r1,sp                 ;929
001804  4628              MOV      r0,r5                 ;929
001806  f7fffffe          BL       TEXT_SetText
00180a  f640017b          MOV      r1,#0x87b             ;933
00180e  6860              LDR      r0,[r4,#4]            ;933
001810  f7fffffe          BL       WM_GetDialogItem
001814  4605              MOV      r5,r0                 ;933
001816  ee1a0a10          VMOV     r0,s20                ;934
00181a  f7fffffe          BL       __aeabi_f2d
00181e  ec410b10          VMOV     d0,r0,r1              ;934
001822  49b6              LDR      r1,|L9.6908|
001824  ec532b10          VMOV     r2,r3,d0              ;934
001828  4668              MOV      r0,sp                 ;934
00182a  f7fffffe          BL       __2sprintf
00182e  4649              MOV      r1,r9                 ;935
001830  4628              MOV      r0,r5                 ;935
001832  f7fffffe          BL       TEXT_SetTextColor
001836  49b2              LDR      r1,|L9.6912|
001838  4628              MOV      r0,r5                 ;936
00183a  f7fffffe          BL       TEXT_SetFont
00183e  f7fffffe          BL       GUI_UC_SetEncodeUTF8
001842  4669              MOV      r1,sp                 ;938
001844  4628              MOV      r0,r5                 ;938
001846  f7fffffe          BL       TEXT_SetText
00184a  f640017c          MOV      r1,#0x87c             ;940
00184e  6860              LDR      r0,[r4,#4]            ;940
001850  f7fffffe          BL       WM_GetDialogItem
001854  4605              MOV      r5,r0                 ;940
001856  ee1a0a90          VMOV     r0,s21                ;941
00185a  f7fffffe          BL       __aeabi_f2d
00185e  ec410b10          VMOV     d0,r0,r1              ;941
001862  49a6              LDR      r1,|L9.6908|
001864  ec532b10          VMOV     r2,r3,d0              ;941
001868  4668              MOV      r0,sp                 ;941
00186a  f7fffffe          BL       __2sprintf
00186e  4649              MOV      r1,r9                 ;942
001870  4628              MOV      r0,r5                 ;942
001872  f7fffffe          BL       TEXT_SetTextColor
001876  49a2              LDR      r1,|L9.6912|
001878  4628              MOV      r0,r5                 ;943
00187a  f7fffffe          BL       TEXT_SetFont
00187e  f7fffffe          BL       GUI_UC_SetEncodeUTF8
001882  4669              MOV      r1,sp                 ;945
001884  4628              MOV      r0,r5                 ;945
001886  f7fffffe          BL       TEXT_SetText
00188a  f640017d          MOV      r1,#0x87d             ;947
00188e  6860              LDR      r0,[r4,#4]            ;947
001890  f7fffffe          BL       WM_GetDialogItem
001894  4605              MOV      r5,r0                 ;947
001896  ee180a90          VMOV     r0,s17                ;948
00189a  f7fffffe          BL       __aeabi_f2d
00189e  ec410b10          VMOV     d0,r0,r1              ;948
0018a2  4996              LDR      r1,|L9.6908|
0018a4  ec532b10          VMOV     r2,r3,d0              ;948
0018a8  4668              MOV      r0,sp                 ;948
0018aa  f7fffffe          BL       __2sprintf
0018ae  4649              MOV      r1,r9                 ;949
0018b0  4628              MOV      r0,r5                 ;949
0018b2  f7fffffe          BL       TEXT_SetTextColor
0018b6  4992              LDR      r1,|L9.6912|
0018b8  4628              MOV      r0,r5                 ;950
0018ba  f7fffffe          BL       TEXT_SetFont
0018be  f7fffffe          BL       GUI_UC_SetEncodeUTF8
0018c2  4669              MOV      r1,sp                 ;952
0018c4  4628              MOV      r0,r5                 ;952
0018c6  f7fffffe          BL       TEXT_SetText
0018ca  f640017f          MOV      r1,#0x87f             ;961
0018ce  6860              LDR      r0,[r4,#4]            ;961
0018d0  f7fffffe          BL       WM_GetDialogItem
0018d4  4605              MOV      r5,r0                 ;961
0018d6  ec532b1b          VMOV     r2,r3,d11             ;962
0018da  4988              LDR      r1,|L9.6908|
0018dc  4668              MOV      r0,sp                 ;962
0018de  f7fffffe          BL       __2sprintf
0018e2  f44f467f          MOV      r6,#0xff00            ;963
0018e6  4631              MOV      r1,r6                 ;963
0018e8  4628              MOV      r0,r5                 ;963
0018ea  f7fffffe          BL       TEXT_SetTextColor
0018ee  4985              LDR      r1,|L9.6916|
0018f0  4628              MOV      r0,r5                 ;964
0018f2  f7fffffe          BL       TEXT_SetFont
0018f6  f7fffffe          BL       GUI_UC_SetEncodeUTF8
0018fa  4669              MOV      r1,sp                 ;966
0018fc  4628              MOV      r0,r5                 ;966
0018fe  f7fffffe          BL       TEXT_SetText
001902  f44f6108          MOV      r1,#0x880             ;968
001906  6860              LDR      r0,[r4,#4]            ;968
001908  f7fffffe          BL       WM_GetDialogItem
00190c  4605              MOV      r5,r0                 ;968
00190e  ec532b1b          VMOV     r2,r3,d11             ;969
001912  497a              LDR      r1,|L9.6908|
001914  4668              MOV      r0,sp                 ;969
001916  f7fffffe          BL       __2sprintf
00191a  4631              MOV      r1,r6                 ;970
00191c  4628              MOV      r0,r5                 ;970
00191e  f7fffffe          BL       TEXT_SetTextColor
001922  4978              LDR      r1,|L9.6916|
001924  4628              MOV      r0,r5                 ;971
001926  f7fffffe          BL       TEXT_SetFont
00192a  f7fffffe          BL       GUI_UC_SetEncodeUTF8
00192e  4669              MOV      r1,sp                 ;973
001930  4628              MOV      r0,r5                 ;973
001932  f7fffffe          BL       TEXT_SetText
001936  f6400181          MOV      r1,#0x881             ;975
00193a  6860              LDR      r0,[r4,#4]            ;975
00193c  f7fffffe          BL       WM_GetDialogItem
001940  4605              MOV      r5,r0                 ;975
001942  496e              LDR      r1,|L9.6908|
001944  2200              MOVS     r2,#0                 ;976
001946  3120              ADDS     r1,r1,#0x20           ;976
001948  4668              MOV      r0,sp                 ;976
00194a  f7fffffe          BL       __2sprintf
00194e  4631              MOV      r1,r6                 ;977
001950  4628              MOV      r0,r5                 ;977
001952  f7fffffe          BL       TEXT_SetTextColor
001956  496b              LDR      r1,|L9.6916|
001958  4628              MOV      r0,r5                 ;978
00195a  f7fffffe          BL       TEXT_SetFont
00195e  f7fffffe          BL       GUI_UC_SetEncodeUTF8
001962  4669              MOV      r1,sp                 ;980
001964  4628              MOV      r0,r5                 ;980
001966  f7fffffe          BL       TEXT_SetText
00196a  f6400182          MOV      r1,#0x882             ;982
00196e  6860              LDR      r0,[r4,#4]            ;982
001970  f7fffffe          BL       WM_GetDialogItem
001974  4605              MOV      r5,r0                 ;982
001976  4649              MOV      r1,r9                 ;983
001978  4628              MOV      r0,r5                 ;983
00197a  f7fffffe          BL       TEXT_SetTextColor
00197e  f8980000          LDRB     r0,[r8,#0]            ;984  ; lang
001982  2800              CMP      r0,#0                 ;984
001984  d072              BEQ      |L9.6764|
001986  4960              LDR      r1,|L9.6920|
001988  4628              MOV      r0,r5                 ;990
00198a  f7fffffe          BL       TEXT_SetFont
00198e  f7fffffe          BL       GUI_UC_SetEncodeUTF8
001992  a15e              ADR      r1,|L9.6924|
001994  4628              MOV      r0,r5                 ;992
001996  f7fffffe          BL       TEXT_SetText
                  |L9.6554|
00199a  f640018a          MOV      r1,#0x88a             ;995
00199e  6860              LDR      r0,[r4,#4]            ;995
0019a0  f7fffffe          BL       WM_GetDialogItem
0019a4  4605              MOV      r5,r0                 ;995
0019a6  4631              MOV      r1,r6                 ;996
0019a8  4628              MOV      r0,r5                 ;996
0019aa  f7fffffe          BL       TEXT_SetTextColor
0019ae  4954              LDR      r1,|L9.6912|
0019b0  4628              MOV      r0,r5                 ;997
0019b2  f7fffffe          BL       TEXT_SetFont
0019b6  f7fffffe          BL       GUI_UC_SetEncodeUTF8
0019ba  a14b              ADR      r1,|L9.6888|
0019bc  4628              MOV      r0,r5                 ;999
0019be  f7fffffe          BL       TEXT_SetText
0019c2  f640018b          MOV      r1,#0x88b             ;1001
0019c6  6860              LDR      r0,[r4,#4]            ;1001
0019c8  f7fffffe          BL       WM_GetDialogItem
0019cc  4605              MOV      r5,r0                 ;1001
0019ce  4631              MOV      r1,r6                 ;1002
0019d0  4628              MOV      r0,r5                 ;1002
0019d2  f7fffffe          BL       TEXT_SetTextColor
0019d6  494a              LDR      r1,|L9.6912|
0019d8  4628              MOV      r0,r5                 ;1003
0019da  f7fffffe          BL       TEXT_SetFont
0019de  f7fffffe          BL       GUI_UC_SetEncodeUTF8
0019e2  a141              ADR      r1,|L9.6888|
0019e4  4628              MOV      r0,r5                 ;1005
0019e6  f7fffffe          BL       TEXT_SetText
0019ea  f640018c          MOV      r1,#0x88c             ;1007
0019ee  6860              LDR      r0,[r4,#4]            ;1007
0019f0  f7fffffe          BL       WM_GetDialogItem
0019f4  4605              MOV      r5,r0                 ;1007
0019f6  4631              MOV      r1,r6                 ;1008
0019f8  4628              MOV      r0,r5                 ;1008
0019fa  f7fffffe          BL       TEXT_SetTextColor
0019fe  4940              LDR      r1,|L9.6912|
001a00  4628              MOV      r0,r5                 ;1009
001a02  f7fffffe          BL       TEXT_SetFont
001a06  f7fffffe          BL       GUI_UC_SetEncodeUTF8
001a0a  a137              ADR      r1,|L9.6888|
001a0c  4628              MOV      r0,r5                 ;1011
001a0e  f7fffffe          BL       TEXT_SetText
001a12  f640310e          MOV      r1,#0xb0e             ;1013
001a16  6860              LDR      r0,[r4,#4]            ;1013
001a18  f7fffffe          BL       WM_GetDialogItem
001a1c  4605              MOV      r5,r0                 ;1013
001a1e  21ff              MOVS     r1,#0xff              ;1014
001a20  4628              MOV      r0,r5                 ;1014
001a22  f7fffffe          BL       TEXT_SetTextColor
001a26  493b              LDR      r1,|L9.6932|
001a28  4628              MOV      r0,r5                 ;1015
001a2a  f7fffffe          BL       TEXT_SetFont
001a2e  f7fffffe          BL       GUI_UC_SetEncodeUTF8
001a32  a12d              ADR      r1,|L9.6888|
001a34  4628              MOV      r0,r5                 ;1017
001a36  f7fffffe          BL       TEXT_SetText
001a3a  f6400183          MOV      r1,#0x883             ;1019
001a3e  6860              LDR      r0,[r4,#4]            ;1019
001a40  f7fffffe          BL       WM_GetDialogItem
001a44  4604              MOV      r4,r0                 ;1019
001a46  4649              MOV      r1,r9                 ;1020
001a48  4620              MOV      r0,r4                 ;1020
001a4a  f7fffffe          BL       TEXT_SetTextColor
001a4e  f8980000          LDRB     r0,[r8,#0]            ;1021  ; lang
001a52  2800              CMP      r0,#0                 ;1021
001a54  d07e              BEQ      |L9.6996|
001a56  492c              LDR      r1,|L9.6920|
001a58  4620              MOV      r0,r4                 ;1027
001a5a  f7fffffe          BL       TEXT_SetFont
001a5e  f7fffffe          BL       GUI_UC_SetEncodeUTF8
001a62  a12d              ADR      r1,|L9.6936|
001a64  4620              MOV      r0,r4                 ;1029
001a66  f7fffffe          BL       TEXT_SetText
                  |L9.6762|
001a6a  e4a2              B        |L9.5042|
                  |L9.6764|
001a6c  e130              B        |L9.7376|
                  |L9.6766|
001a6e  6860              LDR      r0,[r4,#4]            ;715
001a70  f7fffffe          BL       WM_GetDialogItem
001a74  9002              STR      r0,[sp,#8]            ;715
001a76  2200              MOVS     r2,#0                 ;716
001a78  4611              MOV      r1,r2                 ;716
001a7a  9802              LDR      r0,[sp,#8]            ;716
001a7c  f7fffffe          BL       BUTTON_SetTextColor
001a80  4921              LDR      r1,|L9.6920|
001a82  9802              LDR      r0,[sp,#8]            ;717
001a84  f7fffffe          BL       BUTTON_SetFont
001a88  f7fffffe          BL       GUI_UC_SetEncodeUTF8
001a8c  a125              ADR      r1,|L9.6948|
001a8e  9802              LDR      r0,[sp,#8]            ;719
001a90  f7fffffe          BL       BUTTON_SetText
001a94  4629              MOV      r1,r5                 ;721
001a96  6860              LDR      r0,[r4,#4]            ;721
001a98  f7fffffe          BL       WM_GetDialogItem
001a9c  4605              MOV      r5,r0                 ;721
001a9e  2200              MOVS     r2,#0                 ;722
001aa0  4611              MOV      r1,r2                 ;722
001aa2  4628              MOV      r0,r5                 ;722
001aa4  f7fffffe          BL       BUTTON_SetTextColor
001aa8  4917              LDR      r1,|L9.6920|
001aaa  4628              MOV      r0,r5                 ;723
001aac  f7fffffe          BL       BUTTON_SetFont
001ab0  f7fffffe          BL       GUI_UC_SetEncodeUTF8
001ab4  a11f              ADR      r1,|L9.6964|
001ab6  4628              MOV      r0,r5                 ;725
001ab8  f7fffffe          BL       BUTTON_SetText
001abc  4631              MOV      r1,r6                 ;727
001abe  6860              LDR      r0,[r4,#4]            ;727
001ac0  f7fffffe          BL       WM_GetDialogItem
001ac4  4605              MOV      r5,r0                 ;727
001ac6  2200              MOVS     r2,#0                 ;728
001ac8  4611              MOV      r1,r2                 ;728
001aca  4628              MOV      r0,r5                 ;728
001acc  f7fffffe          BL       BUTTON_SetTextColor
001ad0  490d              LDR      r1,|L9.6920|
001ad2  4628              MOV      r0,r5                 ;729
001ad4  f7fffffe          BL       BUTTON_SetFont
001ad8  f7fffffe          BL       GUI_UC_SetEncodeUTF8
001adc  a119              ADR      r1,|L9.6980|
001ade  e03a              B        |L9.6998|
                  |L9.6880|
001ae0  4375746f          DCB      "Cutoff V"
001ae4  66662056
                  |L9.6888|
001ae8  00                DCB      0
001ae9  00                DCB      0
001aea  00                DCB      0
001aeb  00                DCB      0
                  |L9.6892|
                          DCD      GUI_Font20_ASCII
                  |L9.6896|
001af0  4379636c          DCB      "Cycle times",0
001af4  65207469
001af8  6d657300
                  |L9.6908|
                          DCD      ||i._cbDialog||+0x46c
                  |L9.6912|
                          DCD      GUI_Font24_1
                  |L9.6916|
                          DCD      GUI_FontD24x32
                  |L9.6920|
                          DCD      GUI_FontHZ16
                  |L9.6924|
001b0c  43686172          DCB      "Charge",0
001b10  676500  
001b13  00                DCB      0
                  |L9.6932|
                          DCD      GUI_Fontset_font
                  |L9.6936|
001b18  44697363          DCB      "Discharge",0
001b1c  68617267
001b20  6500    
001b22  00                DCB      0
001b23  00                DCB      0
                  |L9.6948|
001b24  e58685e9          DCB      229,134,133,233,152,187,230,181,139,232,175,149,0
001b28  98bbe6b5
001b2c  8be8af95
001b30  00      
001b31  00                DCB      0
001b32  00                DCB      0
001b33  00                DCB      0
                  |L9.6964|
001b34  e7a88be6          DCB      231,168,139,230,142,167,232,180,159,232,189,189,0
001b38  8ea7e8b4
001b3c  9fe8bdbd
001b40  00      
001b41  00                DCB      0
001b42  00                DCB      0
001b43  00                DCB      0
                  |L9.6980|
001b44  e7a88be6          DCB      231,168,139,230,142,167,231,148,181,230,186,144,0
001b48  8ea7e794
001b4c  b5e6ba90
001b50  00      
001b51  00                DCB      0
001b52  00                DCB      0
001b53  00                DCB      0
                  |L9.6996|
001b54  e0c7              B        |L9.7398|
                  |L9.6998|
001b56  4628              MOV      r0,r5                 ;731
001b58  f7fffffe          BL       BUTTON_SetText
001b5c  4659              MOV      r1,r11                ;733
001b5e  6860              LDR      r0,[r4,#4]            ;733
001b60  f7fffffe          BL       WM_GetDialogItem
001b64  4605              MOV      r5,r0                 ;733
001b66  2101              MOVS     r1,#1                 ;734
001b68  4628              MOV      r0,r5                 ;734
001b6a  f7fffffe          BL       BUTTON_SetPressed
001b6e  2200              MOVS     r2,#0                 ;735
001b70  4611              MOV      r1,r2                 ;735
001b72  4628              MOV      r0,r5                 ;735
001b74  f7fffffe          BL       BUTTON_SetTextColor
001b78  4960              LDR      r1,|L9.7420|
001b7a  4628              MOV      r0,r5                 ;736
001b7c  f7fffffe          BL       BUTTON_SetFont
001b80  f7fffffe          BL       GUI_UC_SetEncodeUTF8
001b84  a15e              ADR      r1,|L9.7424|
001b86  4628              MOV      r0,r5                 ;738
001b88  f7fffffe          BL       BUTTON_SetText
001b8c  f44f6103          MOV      r1,#0x830             ;740
001b90  6860              LDR      r0,[r4,#4]            ;740
001b92  f7fffffe          BL       WM_GetDialogItem
001b96  4605              MOV      r5,r0                 ;740
001b98  2200              MOVS     r2,#0                 ;741
001b9a  4611              MOV      r1,r2                 ;741
001b9c  4628              MOV      r0,r5                 ;741
001b9e  f7fffffe          BL       BUTTON_SetTextColor
001ba2  4956              LDR      r1,|L9.7420|
001ba4  4628              MOV      r0,r5                 ;742
001ba6  f7fffffe          BL       BUTTON_SetFont
001baa  f7fffffe          BL       GUI_UC_SetEncodeUTF8
001bae  a157              ADR      r1,|L9.7436|
001bb0  4628              MOV      r0,r5                 ;744
001bb2  f7fffffe          BL       BUTTON_SetText
001bb6  e47d              B        |L9.5300|
                  |L9.7096|
001bb8  6860              LDR      r0,[r4,#4]            ;804
001bba  f7fffffe          BL       WM_GetDialogItem
001bbe  9002              STR      r0,[sp,#8]            ;804
001bc0  2100              MOVS     r1,#0                 ;805
001bc2  9802              LDR      r0,[sp,#8]            ;805
001bc4  f7fffffe          BL       TEXT_SetTextColor
001bc8  4629              MOV      r1,r5                 ;806
001bca  9802              LDR      r0,[sp,#8]            ;806
001bcc  f7fffffe          BL       TEXT_SetBkColor
001bd0  4950              LDR      r1,|L9.7444|
001bd2  9802              LDR      r0,[sp,#8]            ;807
001bd4  f7fffffe          BL       TEXT_SetFont
001bd8  f7fffffe          BL       GUI_UC_SetEncodeUTF8
001bdc  a14e              ADR      r1,|L9.7448|
001bde  9802              LDR      r0,[sp,#8]            ;809
001be0  f7fffffe          BL       TEXT_SetText
001be4  4631              MOV      r1,r6                 ;811
001be6  6860              LDR      r0,[r4,#4]            ;811
001be8  f7fffffe          BL       WM_GetDialogItem
001bec  4605              MOV      r5,r0                 ;811
001bee  4649              MOV      r1,r9                 ;812
001bf0  4628              MOV      r0,r5                 ;812
001bf2  f7fffffe          BL       TEXT_SetTextColor
001bf6  4947              LDR      r1,|L9.7444|
001bf8  4628              MOV      r0,r5                 ;813
001bfa  f7fffffe          BL       TEXT_SetFont
001bfe  f7fffffe          BL       GUI_UC_SetEncodeUTF8
001c02  a149              ADR      r1,|L9.7464|
001c04  4628              MOV      r0,r5                 ;815
001c06  f7fffffe          BL       TEXT_SetText
001c0a  4651              MOV      r1,r10                ;817
001c0c  6860              LDR      r0,[r4,#4]            ;817
001c0e  f7fffffe          BL       WM_GetDialogItem
001c12  4605              MOV      r5,r0                 ;817
001c14  4649              MOV      r1,r9                 ;818
001c16  4628              MOV      r0,r5                 ;818
001c18  f7fffffe          BL       TEXT_SetTextColor
001c1c  493d              LDR      r1,|L9.7444|
001c1e  4628              MOV      r0,r5                 ;819
001c20  f7fffffe          BL       TEXT_SetFont
001c24  f7fffffe          BL       GUI_UC_SetEncodeUTF8
001c28  a143              ADR      r1,|L9.7480|
001c2a  4628              MOV      r0,r5                 ;821
001c2c  f7fffffe          BL       TEXT_SetText
001c30  4659              MOV      r1,r11                ;823
001c32  6860              LDR      r0,[r4,#4]            ;823
001c34  f7fffffe          BL       WM_GetDialogItem
001c38  4605              MOV      r5,r0                 ;823
001c3a  4649              MOV      r1,r9                 ;824
001c3c  4628              MOV      r0,r5                 ;824
001c3e  f7fffffe          BL       TEXT_SetTextColor
001c42  4934              LDR      r1,|L9.7444|
001c44  4628              MOV      r0,r5                 ;825
001c46  f7fffffe          BL       TEXT_SetFont
001c4a  f7fffffe          BL       GUI_UC_SetEncodeUTF8
001c4e  a13e              ADR      r1,|L9.7496|
001c50  4628              MOV      r0,r5                 ;827
001c52  f7fffffe          BL       TEXT_SetText
001c56  f6400171          MOV      r1,#0x871             ;829
001c5a  6860              LDR      r0,[r4,#4]            ;829
001c5c  f7fffffe          BL       WM_GetDialogItem
001c60  4605              MOV      r5,r0                 ;829
001c62  4649              MOV      r1,r9                 ;830
001c64  4628              MOV      r0,r5                 ;830
001c66  f7fffffe          BL       TEXT_SetTextColor
001c6a  492a              LDR      r1,|L9.7444|
001c6c  4628              MOV      r0,r5                 ;831
001c6e  f7fffffe          BL       TEXT_SetFont
001c72  f7fffffe          BL       GUI_UC_SetEncodeUTF8
001c76  a138              ADR      r1,|L9.7512|
001c78  4628              MOV      r0,r5                 ;833
001c7a  f7fffffe          BL       TEXT_SetText
001c7e  f6400179          MOV      r1,#0x879             ;835
001c82  6860              LDR      r0,[r4,#4]            ;835
001c84  f7fffffe          BL       WM_GetDialogItem
001c88  4605              MOV      r5,r0                 ;835
001c8a  4649              MOV      r1,r9                 ;836
001c8c  4628              MOV      r0,r5                 ;836
001c8e  f7fffffe          BL       TEXT_SetTextColor
001c92  4920              LDR      r1,|L9.7444|
001c94  4628              MOV      r0,r5                 ;837
001c96  f7fffffe          BL       TEXT_SetFont
001c9a  f7fffffe          BL       GUI_UC_SetEncodeUTF8
001c9e  a132              ADR      r1,|L9.7528|
001ca0  4628              MOV      r0,r5                 ;839
001ca2  f7fffffe          BL       TEXT_SetText
001ca6  f6400172          MOV      r1,#0x872             ;847
001caa  6860              LDR      r0,[r4,#4]            ;847
001cac  f7fffffe          BL       WM_GetDialogItem
001cb0  4605              MOV      r5,r0                 ;847
001cb2  4649              MOV      r1,r9                 ;848
001cb4  4628              MOV      r0,r5                 ;848
001cb6  f7fffffe          BL       TEXT_SetTextColor
001cba  4916              LDR      r1,|L9.7444|
001cbc  4628              MOV      r0,r5                 ;849
001cbe  f7fffffe          BL       TEXT_SetFont
001cc2  f7fffffe          BL       GUI_UC_SetEncodeUTF8
001cc6  a12c              ADR      r1,|L9.7544|
001cc8  4628              MOV      r0,r5                 ;851
001cca  f7fffffe          BL       TEXT_SetText
001cce  e522              B        |L9.5910|
                  |L9.7376|
001cd0  490a              LDR      r1,|L9.7420|
001cd2  4628              MOV      r0,r5                 ;986
001cd4  f7fffffe          BL       TEXT_SetFont
001cd8  f7fffffe          BL       GUI_UC_SetEncodeUTF8
001cdc  a12a              ADR      r1,|L9.7560|
001cde  4628              MOV      r0,r5                 ;988
001ce0  f7fffffe          BL       TEXT_SetText
001ce4  e659              B        |L9.6554|
                  |L9.7398|
001ce6  4905              LDR      r1,|L9.7420|
001ce8  4620              MOV      r0,r4                 ;1023
001cea  f7fffffe          BL       TEXT_SetFont
001cee  f7fffffe          BL       GUI_UC_SetEncodeUTF8
001cf2  a127              ADR      r1,|L9.7568|
001cf4  4620              MOV      r0,r4                 ;1025
001cf6  f7fffffe          BL       TEXT_SetText
001cfa  e6b6              B        |L9.6762|
;;;1043   
                          ENDP

                  |L9.7420|
                          DCD      GUI_FontHZ16
                  |L9.7424|
001d00  e58585e6          DCB      229,133,133,230,148,190,231,148,181,0
001d04  94bee794
001d08  b500    
001d0a  00                DCB      0
001d0b  00                DCB      0
                  |L9.7436|
001d0c  e69bb2e7          DCB      230,155,178,231,186,191,0
001d10  babf00  
001d13  00                DCB      0
                  |L9.7444|
                          DCD      GUI_Fontset_font
                  |L9.7448|
001d18  e8be93e5          DCB      232,190,147,229,135,186,231,148,181,229,142,139,"1",0
001d1c  87bae794
001d20  b5e58e8b
001d24  3100    
001d26  00                DCB      0
001d27  00                DCB      0
                  |L9.7464|
001d28  e99990e5          DCB      233,153,144,229,136,182,231,148,181,230,181,129,"1",0
001d2c  88b6e794
001d30  b5e6b581
001d34  3100    
001d36  00                DCB      0
001d37  00                DCB      0
                  |L9.7480|
001d38  e688aae6          DCB      230,136,170,230,173,162,231,148,181,229,142,139,"1",0
001d3c  ada2e794
001d40  b5e58e8b
001d44  3100    
001d46  00                DCB      0
001d47  00                DCB      0
                  |L9.7496|
001d48  e688aae6          DCB      230,136,170,230,173,162,231,148,181,230,181,129,"1",0
001d4c  ada2e794
001d50  b5e6b581
001d54  3100    
001d56  00                DCB      0
001d57  00                DCB      0
                  |L9.7512|
001d58  e8b49fe8          DCB      232,180,159,232,189,189,231,148,181,230,181,129,0
001d5c  bdbde794
001d60  b5e6b581
001d64  00      
001d65  00                DCB      0
001d66  00                DCB      0
001d67  00                DCB      0
                  |L9.7528|
001d68  e688aae6          DCB      230,136,170,230,173,162,231,148,181,229,142,139,0
001d6c  ada2e794
001d70  b5e58e8b
001d74  00      
001d75  00                DCB      0
001d76  00                DCB      0
001d77  00                DCB      0
                  |L9.7544|
001d78  e5beaae7          DCB      229,190,170,231,142,175,230,172,161,230,149,176,0
001d7c  8eafe6ac
001d80  a1e695b0
001d84  00      
001d85  00                DCB      0
001d86  00                DCB      0
001d87  00                DCB      0
                  |L9.7560|
001d88  e58585e7          DCB      229,133,133,231,148,181,0
001d8c  94b500  
001d8f  00                DCB      0
                  |L9.7568|
001d90  e694bee7          DCB      230,148,190,231,148,181,0
001d94  94b500  
001d97  00                DCB      0

                          AREA ||i.count_num||, CODE, READONLY, ALIGN=1

                  count_num PROC
;;;2938   
;;;2939   int count_num(int data)
000000  2100              MOVS     r1,#0
;;;2940   {
;;;2941       int count = 0;
;;;2942       while(data != 0){
;;;2943           data/=10;
000002  220a              MOVS     r2,#0xa
;;;2944           count++;
000004  e002              B        |L10.12|
                  |L10.6|
000006  fb90f0f2          SDIV     r0,r0,r2              ;2943
00000a  1c49              ADDS     r1,r1,#1
                  |L10.12|
00000c  2800              CMP      r0,#0                 ;2942
00000e  d1fa              BNE      |L10.6|
;;;2945       }
;;;2946       return count;
000010  4608              MOV      r0,r1
;;;2947   }
000012  4770              BX       lr
;;;2948   
                          ENDP


                          AREA ||.bss||, DATA, NOINIT, ALIGN=1

                  coff
                          %        12

                          AREA ||.constdata||, DATA, READONLY, ALIGN=2

                  _aDialogCreate4
                          DCD      WINDOW_CreateIndirect
                          DCD      ||.conststring||
000008  082a0000          DCW      0x082a,0x0000
00000c  000001e0          DCW      0x0000,0x01e0
000010  01100000          DCW      0x0110,0x0000
                          DCD      0x00000000
                          DCD      0x00000000
                          DCD      BUTTON_CreateIndirect
                          DCD      ||.conststring||+0x2
000024  082c0053          DCW      0x082c,0x0053
000028  00e2004d          DCW      0x00e2,0x004d
00002c  002d0000          DCW      0x002d,0x0000
                          DCD      0x00000000
                          DCD      0x00000000
                          DCD      BUTTON_CreateIndirect
                          DCD      ||.conststring||+0x2
000040  082d00a3          DCW      0x082d,0x00a3
000044  00e2004d          DCW      0x00e2,0x004d
000048  002d0000          DCW      0x002d,0x0000
                          DCD      0x00000000
                          DCD      0x00000000
                          DCD      BUTTON_CreateIndirect
                          DCD      ||.conststring||+0x2
00005c  082e00f3          DCW      0x082e,0x00f3
000060  00e2004d          DCW      0x00e2,0x004d
000064  002d0000          DCW      0x002d,0x0000
                          DCD      0x00000000
                          DCD      0x00000000
                          DCD      BUTTON_CreateIndirect
                          DCD      ||.conststring||+0x2
000078  082f0143          DCW      0x082f,0x0143
00007c  00e2004d          DCW      0x00e2,0x004d
000080  002d0000          DCW      0x002d,0x0000
                          DCD      0x00000000
                          DCD      0x00000000
                          DCD      BUTTON_CreateIndirect
                          DCD      ||.conststring||+0x2
000094  08300193          DCW      0x0830,0x0193
000098  00e2004d          DCW      0x00e2,0x004d
00009c  002d0000          DCW      0x002d,0x0000
                          DCD      0x00000000
                          DCD      0x00000000
                          DCD      TEXT_CreateIndirect
                          DCD      ||.conststring||+0x9
0000b0  0831001c          DCW      0x0831,0x001c
0000b4  00320040          DCW      0x0032,0x0040
0000b8  00200000          DCW      0x0020,0x0000
                          DCD      0x00000064
                          DCD      0x00000000
                          DCD      TEXT_CreateIndirect
                          DCD      ||.conststring||+0x9
0000cc  0832001c          DCW      0x0832,0x001c
0000d0  00780040          DCW      0x0078,0x0040
0000d4  00200000          DCW      0x0020,0x0000
                          DCD      0x00000064
                          DCD      0x00000000
                          DCD      TEXT_CreateIndirect
                          DCD      ||.conststring||+0x9
0000e8  083300d9          DCW      0x0833,0x00d9
0000ec  00320020          DCW      0x0032,0x0020
0000f0  001e0000          DCW      0x001e,0x0000
                          DCD      0x00000000
                          DCD      0x00000000
                          DCD      TEXT_CreateIndirect
                          DCD      ||.conststring||+0x9
000104  083400d9          DCW      0x0834,0x00d9
000108  00790020          DCW      0x0079,0x0020
00010c  001e0000          DCW      0x001e,0x0000
                          DCD      0x00000000
                          DCD      0x00000000
                          DCD      TEXT_CreateIndirect
                          DCD      ||.conststring||+0x9
000120  086f0140          DCW      0x086f,0x0140
000124  001e005a          DCW      0x001e,0x005a
000128  00140000          DCW      0x0014,0x0000
                          DCD      0x00000000
                          DCD      0x00000000
                          DCD      TEXT_CreateIndirect
                          DCD      ||.conststring||+0x9
00013c  08700140          DCW      0x0870,0x0140
000140  0037005a          DCW      0x0037,0x005a
000144  00140000          DCW      0x0014,0x0000
                          DCD      0x00000000
                          DCD      0x00000000
                          DCD      TEXT_CreateIndirect
                          DCD      ||.conststring||+0x9
000158  08770140          DCW      0x0877,0x0140
00015c  0050005a          DCW      0x0050,0x005a
000160  00140000          DCW      0x0014,0x0000
                          DCD      0x00000000
                          DCD      0x00000000
                          DCD      TEXT_CreateIndirect
                          DCD      ||.conststring||+0x9
000174  08780140          DCW      0x0878,0x0140
000178  0069005a          DCW      0x0069,0x005a
00017c  00140000          DCW      0x0014,0x0000
                          DCD      0x00000000
                          DCD      0x00000000
                          DCD      TEXT_CreateIndirect
                          DCD      ||.conststring||+0x9
000190  08710140          DCW      0x0871,0x0140
000194  008e0050          DCW      0x008e,0x0050
000198  00140000          DCW      0x0014,0x0000
                          DCD      0x00000000
                          DCD      0x00000000
                          DCD      TEXT_CreateIndirect
                          DCD      ||.conststring||+0x9
0001ac  08790140          DCW      0x0879,0x0140
0001b0  00a70050          DCW      0x00a7,0x0050
0001b4  00140000          DCW      0x0014,0x0000
                          DCD      0x00000000
                          DCD      0x00000000
                          DCD      TEXT_CreateIndirect
                          DCD      ||.conststring||+0x9
0001c8  08720140          DCW      0x0872,0x0140
0001cc  00cd005f          DCW      0x00cd,0x005f
0001d0  00140000          DCW      0x0014,0x0000
                          DCD      0x00000000
                          DCD      0x00000000
                          DCD      TEXT_CreateIndirect
                          DCD      ||.conststring||+0x9
0001e4  087301a9          DCW      0x0873,0x01a9
0001e8  001e0035          DCW      0x001e,0x0035
0001ec  00140000          DCW      0x0014,0x0000
                          DCD      0x00000000
                          DCD      0x00000000
                          DCD      TEXT_CreateIndirect
                          DCD      ||.conststring||+0x9
000200  087401a9          DCW      0x0874,0x01a9
000204  00370035          DCW      0x0037,0x0035
000208  00140000          DCW      0x0014,0x0000
                          DCD      0x00000000
                          DCD      0x00000000
                          DCD      TEXT_CreateIndirect
                          DCD      ||.conststring||+0x9
00021c  087501a9          DCW      0x0875,0x01a9
000220  008e0035          DCW      0x008e,0x0035
000224  00140000          DCW      0x0014,0x0000
                          DCD      0x00000000
                          DCD      0x00000000
                          DCD      TEXT_CreateIndirect
                          DCD      ||.conststring||+0x9
000238  087601a9          DCW      0x0876,0x01a9
00023c  00cd001a          DCW      0x00cd,0x001a
000240  00140000          DCW      0x0014,0x0000
                          DCD      0x00000000
                          DCD      0x00000000
                          DCD      TEXT_CreateIndirect
                          DCD      ||.conststring||+0x9
000254  087b01a9          DCW      0x087b,0x01a9
000258  00500035          DCW      0x0050,0x0035
00025c  00140000          DCW      0x0014,0x0000
                          DCD      0x00000000
                          DCD      0x00000000
                          DCD      TEXT_CreateIndirect
                          DCD      ||.conststring||+0x9
000270  087c01a9          DCW      0x087c,0x01a9
000274  00690035          DCW      0x0069,0x0035
000278  00140000          DCW      0x0014,0x0000
                          DCD      0x00000000
                          DCD      0x00000000
                          DCD      TEXT_CreateIndirect
                          DCD      ||.conststring||+0x9
00028c  087d01a9          DCW      0x087d,0x01a9
000290  00a70035          DCW      0x00a7,0x0035
000294  00140000          DCW      0x0014,0x0000
                          DCD      0x00000000
                          DCD      0x00000000
                          DCD      TEXT_CreateIndirect
                          DCD      ||.conststring||+0x9
0002a8  087f005f          DCW      0x087f,0x005f
0002ac  00300096          DCW      0x0030,0x0096
0002b0  00280000          DCW      0x0028,0x0000
                          DCD      0x00000000
                          DCD      0x00000000
                          DCD      TEXT_CreateIndirect
                          DCD      ||.conststring||+0x9
0002c4  0880005f          DCW      0x0880,0x005f
0002c8  00740096          DCW      0x0074,0x0096
0002cc  00280000          DCW      0x0028,0x0000
                          DCD      0x00000000
                          DCD      0x00000000
                          DCD      TEXT_CreateIndirect
                          DCD      ||.conststring||+0x9
0002e0  0881005f          DCW      0x0881,0x005f
0002e4  00b80096          DCW      0x00b8,0x0096
0002e8  00280000          DCW      0x0028,0x0000
                          DCD      0x00000000
                          DCD      0x00000000
                          DCD      TEXT_CreateIndirect
                          DCD      ||.conststring||+0x9
0002fc  0882010e          DCW      0x0882,0x010e
000300  00200021          DCW      0x0020,0x0021
000304  00140000          DCW      0x0014,0x0000
                          DCD      0x00000000
                          DCD      0x00000000
                          DCD      TEXT_CreateIndirect
                          DCD      ||.conststring||+0x9
000318  0b0e0104          DCW      0x0b0e,0x0104
00031c  00380032          DCW      0x0038,0x0032
000320  00140000          DCW      0x0014,0x0000
                          DCD      0x00000000
                          DCD      0x00000000
                          DCD      TEXT_CreateIndirect
                          DCD      ||.conststring||+0x9
000334  0883010e          DCW      0x0883,0x010e
000338  008e0021          DCW      0x008e,0x0021
00033c  00140000          DCW      0x0014,0x0000
                          DCD      0x00000000
                          DCD      0x00000000
                          DCD      TEXT_CreateIndirect
                          DCD      ||.conststring||+0x9
000350  08840181          DCW      0x0884,0x0181
000354  00040064          DCW      0x0004,0x0064
000358  00140000          DCW      0x0014,0x0000
                          DCD      0x00000000
                          DCD      0x00000000
                          DCD      TEXT_CreateIndirect
                          DCD      ||.conststring||+0x9
00036c  088500fa          DCW      0x0885,0x00fa
000370  00040021          DCW      0x0004,0x0021
000374  00140000          DCW      0x0014,0x0000
                          DCD      0x00000000
                          DCD      0x00000000
                          DCD      TEXT_CreateIndirect
                          DCD      ||.conststring||+0x9
000388  08860118          DCW      0x0886,0x0118
00038c  00040021          DCW      0x0004,0x0021
000390  00140000          DCW      0x0014,0x0000
                          DCD      0x00000000
                          DCD      0x00000000
                          DCD      TEXT_CreateIndirect
                          DCD      ||.conststring||+0x9
0003a4  08870136          DCW      0x0887,0x0136
0003a8  00040021          DCW      0x0004,0x0021
0003ac  00140000          DCW      0x0014,0x0000
                          DCD      0x00000000
                          DCD      0x00000000
                          DCD      TEXT_CreateIndirect
                          DCD      ||.conststring||+0x9
0003c0  08880113          DCW      0x0888,0x0113
0003c4  0003000a          DCW      0x0003,0x000a
0003c8  00140000          DCW      0x0014,0x0000
                          DCD      0x00000000
                          DCD      0x00000000
                          DCD      TEXT_CreateIndirect
                          DCD      ||.conststring||+0x9
0003dc  08890131          DCW      0x0889,0x0131
0003e0  0003000a          DCW      0x0003,0x000a
0003e4  00140000          DCW      0x0014,0x0000
                          DCD      0x00000000
                          DCD      0x00000000
                          DCD      TEXT_CreateIndirect
                          DCD      ||.conststring||+0x9
0003f8  088a01b8          DCW      0x088a,0x01b8
0003fc  00cb0014          DCW      0x00cb,0x0014
000400  00170000          DCW      0x0017,0x0000
                          DCD      0x00000000
                          DCD      0x00000000
                          DCD      TEXT_CreateIndirect
                          DCD      ||.conststring||+0x9
000414  088b01d1          DCW      0x088b,0x01d1
000418  00cb0014          DCW      0x00cb,0x0014
00041c  00170000          DCW      0x0017,0x0000
                          DCD      0x00000000
                          DCD      0x00000000
                          DCD      TEXT_CreateIndirect
                          DCD      ||.conststring||+0x9
000430  088c01bc          DCW      0x088c,0x01bc
000434  00cd0028          DCW      0x00cd,0x0028
000438  00140000          DCW      0x0014,0x0000
                          DCD      0x00000000
                          DCD      0x00000000

                          AREA ||.conststring||, DATA, READONLY, MERGE=1, STRINGS, ALIGN=0

000000  4700              DCB      "G",0
000002  42757474          DCB      "Button",0
000006  6f6e00  
000009  54657874          DCB      "Text",0
00000d  00      

                          AREA ||.data||, DATA, ALIGN=2

                  set_loop_count
000000  01                DCB      0x01
                  second
000001  00                DCB      0x00
                  minute
000002  00                DCB      0x00
                  hour
000003  00                DCB      0x00
                  cutoff_flag
000004  00                DCB      0x00
                  cdc_sw
000005  00                DCB      0x00
                  c_sum
000006  00                DCB      0x00
                  count
000007  01                DCB      0x01
                  status_flash
000008  00                DCB      0x00
                  pause_flag
000009  00                DCB      0x00
                  paused
00000a  00                DCB      0x00
                  pow_step
00000b  00                DCB      0x00
                  cur_step
00000c  00                DCB      0x00
                  coffv_step
00000d  00                DCB      0x00
                  coffc_step
00000e  00                DCB      0x00
                  charge_step
00000f  00                DCB      0x00
                  cutoff_time
000010  0000              DCB      0x00,0x00
                  pause_time
000012  0000              DCB      0x00,0x00
                  restart_time
000014  00000000          DCB      0x00,0x00,0x00,0x00
                  hWincdc
                          DCD      0x00000000

                          AREA ||area_number.17||, DATA, ALIGN=0

                          EXPORTAS ||area_number.17||, ||.data||
                  c_sw
000000  01                DCB      0x01

                          AREA ||area_number.18||, DATA, ALIGN=0

                          EXPORTAS ||area_number.18||, ||.data||
                  timer_sw
000000  01                DCB      0x01

;*** Start embedded assembler ***

#line 1 "..\\APP\\c_dc.c"
	AREA ||.rev16_text||, CODE, READONLY
	THUMB
	EXPORT |__asm___6_c_dc_c_8be2d497____REV16|
#line 114 "D:\\Keil\\ARM\\CMSIS\\Include\\core_cmInstr.h"
|__asm___6_c_dc_c_8be2d497____REV16| PROC
#line 115

 rev16 r0, r0
 bx lr
	ENDP
	AREA ||.revsh_text||, CODE, READONLY
	THUMB
	EXPORT |__asm___6_c_dc_c_8be2d497____REVSH|
#line 128
|__asm___6_c_dc_c_8be2d497____REVSH| PROC
#line 129

 revsh r0, r0
 bx lr
	ENDP

;*** End   embedded assembler ***
