; generated by ARM C/C++ Compiler, 4.1 [Build 894]
; commandline ArmCC [--list --split_sections --debug -c --asm --interleave -o..\Output\c_dc.o --asm_dir=..\Listing\ --list_dir=..\Listing\ --depend=..\Output\c_dc.d --cpu=Cortex-M4.fp --apcs=interwork -O1 --diag_suppress=870 -I..\APP -I..\drive -I..\Include -I..\Libraries\CMSIS\inc -I..\Libraries\CMSIS\src -I..\Libraries\FWlib\inc -I..\Libraries\FWlib\src -I..\Listing -I..\Output -I..\Project -I..\STemWinLibrary522\Config -I..\STemWinLibrary522\emWinTask -I..\STemWinLibrary522\GUILib -I..\STemWinLibrary522\inc -I..\User -I..\USB\STM32_USB_HOST_Library\Class\HID\inc -I..\USB\STM32_USB_HOST_Library\Class\MSC\src -I..\USB\STM32_USB_HOST_Library\Core\src -I..\USB\USB_APP -I..\USB\STM32_USB_HOST_Library\Class\HID\src -I..\USB\STM32_USB_HOST_Library\Class\MSC\inc -I..\USB\STM32_USB_HOST_Library\Core\inc -I..\USB\STM32_USB_OTG_Driver\inc -I..\FATFS\exfuns -I..\FATFS\src\option -I..\FATFS\src -I..\MALLOC -ID:\Keil\ARM\RV31\Inc -ID:\Keil\ARM\CMSIS\Include -ID:\Keil\ARM\Inc\ST\STM32F4xx -DUSE_STDPERIPH_DRIVER -DSTM32F40XX -DUSE_USB_OTG_FS -DUSE_EMBEDDED_PHY -DUSE_USB_OTG_HS -DSTM32F40XX --omf_browse=..\Output\c_dc.crf ..\APP\c_dc.c]
                          THUMB

                          AREA ||i.CDC_OP_DOWN||, CODE, READONLY, ALIGN=2

                  CDC_OP_DOWN PROC
;;;994    void CDC_OP_DOWN(void);
;;;995    void CDC_OP_DOWN(void)
000000  e92d5ff0          PUSH     {r4-r12,lr}
;;;996    {
;;;997        switch(set_sw)
000004  4d7c              LDR      r5,|L1.504|
000006  7829              LDRB     r1,[r5,#0]  ; set_sw
;;;998        {
;;;999            case set_26:
;;;1000           {
;;;1001               WM_HWIN hItem;
;;;1002   //            WM_InvalidateWindow(hWincdc);
;;;1003               hItem = WM_GetDialogItem(hWincdc, ID_TEXT_50);
000008  487c              LDR      r0,|L1.508|
;;;1004               TEXT_SetBkColor(hItem,GUI_INVALID_COLOR);//选项背景色设为透明
00000a  f06f4670          MVN      r6,#0xf0000000
00000e  3919              SUBS     r1,r1,#0x19           ;997
;;;1005               TEXT_SetTextColor(hItem, GUI_WHITE);
000010  1137              ASRS     r7,r6,#4
000012  6982              LDR      r2,[r0,#0x18]         ;997
000014  f640046f          MOV      r4,#0x86f             ;1003
;;;1006                  
;;;1007               hItem = WM_GetDialogItem(hWincdc, ID_TEXT_51);
000018  f44f6807          MOV      r8,#0x870
;;;1008               TEXT_SetBkColor(hItem,0x00BFFFFF);//选项背景色设为米色
;;;1009               TEXT_SetTextColor(hItem, GUI_BLACK);
;;;1010               
;;;1011               
;;;1012               set_sw = set_27;
;;;1013               break;
;;;1014           }
;;;1015           case set_27:
;;;1016           {
;;;1017               WM_HWIN hItem;
;;;1018   //            WM_InvalidateWindow(hWincdc);
;;;1019               hItem = WM_GetDialogItem(hWincdc, ID_TEXT_51);
;;;1020               TEXT_SetBkColor(hItem,GUI_INVALID_COLOR);//选项背景色设为透明
;;;1021               TEXT_SetTextColor(hItem, GUI_WHITE);
;;;1022                  
;;;1023               hItem = WM_GetDialogItem(hWincdc, ID_TEXT_58);
00001c  f6400977          MOV      r9,#0x877
;;;1024               TEXT_SetBkColor(hItem,0x00BFFFFF);//选项背景色设为米色
;;;1025               TEXT_SetTextColor(hItem, GUI_BLACK);
;;;1026   
;;;1027               set_sw = set_28;
;;;1028               break;
;;;1029           }
;;;1030           case set_28:
;;;1031           {
;;;1032               WM_HWIN hItem;
;;;1033   //            WM_InvalidateWindow(hWincdc);
;;;1034               hItem = WM_GetDialogItem(hWincdc, ID_TEXT_58);
;;;1035               TEXT_SetBkColor(hItem,GUI_INVALID_COLOR);//选项背景色设为透明
;;;1036               TEXT_SetTextColor(hItem, GUI_WHITE);
;;;1037                  
;;;1038               hItem = WM_GetDialogItem(hWincdc, ID_TEXT_59);
000020  f6400a78          MOV      r10,#0x878
;;;1039               TEXT_SetBkColor(hItem,0x00BFFFFF);//选项背景色设为米色
;;;1040               TEXT_SetTextColor(hItem, GUI_BLACK);
;;;1041   
;;;1042               set_sw = set_29;
;;;1043               break;
;;;1044           }
;;;1045           case set_29:
;;;1046           {
;;;1047               WM_HWIN hItem;
;;;1048   //            WM_InvalidateWindow(hWincdc);
;;;1049               hItem = WM_GetDialogItem(hWincdc, ID_TEXT_59);
;;;1050               TEXT_SetBkColor(hItem,GUI_INVALID_COLOR);//选项背景色设为透明
;;;1051               TEXT_SetTextColor(hItem, GUI_WHITE);
;;;1052                  
;;;1053               hItem = WM_GetDialogItem(hWincdc, ID_TEXT_52);
000024  f6400b71          MOV      r11,#0x871
000028  290c              CMP      r1,#0xc               ;997
00002a  d225              BCS      |L1.120|
00002c  e8dff001          TBB      [pc,r1]               ;997
000030  06264564          DCB      0x06,0x26,0x45,0x64
000034  24242424          DCB      0x24,0x24,0x24,0x24
000038  83a324c4          DCB      0x83,0xa3,0x24,0xc4
00003c  4681              MOV      r9,r0                 ;1003
00003e  4621              MOV      r1,r4                 ;1003
000040  4610              MOV      r0,r2                 ;1003
000042  f7fffffe          BL       WM_GetDialogItem
000046  4604              MOV      r4,r0                 ;1003
000048  4631              MOV      r1,r6                 ;1004
00004a  4620              MOV      r0,r4                 ;1004
00004c  f7fffffe          BL       TEXT_SetBkColor
000050  4639              MOV      r1,r7                 ;1005
000052  4620              MOV      r0,r4                 ;1005
000054  f7fffffe          BL       TEXT_SetTextColor
000058  4641              MOV      r1,r8                 ;1007
00005a  f8d90018          LDR      r0,[r9,#0x18]         ;1007  ; hWincdc
00005e  f7fffffe          BL       WM_GetDialogItem
000062  4604              MOV      r4,r0                 ;1007
000064  4966              LDR      r1,|L1.512|
000066  4620              MOV      r0,r4                 ;1008
000068  f7fffffe          BL       TEXT_SetBkColor
00006c  2100              MOVS     r1,#0                 ;1009
00006e  4620              MOV      r0,r4                 ;1009
000070  f7fffffe          BL       TEXT_SetTextColor
000074  201a              MOVS     r0,#0x1a              ;1012
000076  7028              STRB     r0,[r5,#0]            ;1012
                  |L1.120|
;;;1054               TEXT_SetBkColor(hItem,0x00BFFFFF);//选项背景色设为米色
;;;1055               TEXT_SetTextColor(hItem, GUI_BLACK);
;;;1056   
;;;1057               set_sw = set_34;
;;;1058               break;
;;;1059           }
;;;1060           case set_34:
;;;1061           {
;;;1062               WM_HWIN hItem;
;;;1063   //            WM_InvalidateWindow(hWincdc);
;;;1064               hItem = WM_GetDialogItem(hWincdc, ID_TEXT_52);
;;;1065               TEXT_SetBkColor(hItem,GUI_INVALID_COLOR);//选项背景色设为透明
;;;1066               TEXT_SetTextColor(hItem, GUI_WHITE);
;;;1067                  
;;;1068               hItem = WM_GetDialogItem(hWincdc, ID_TEXT_60);
;;;1069               TEXT_SetBkColor(hItem,0x00BFFFFF);//选项背景色设为米色
;;;1070               TEXT_SetTextColor(hItem, GUI_BLACK);
;;;1071   
;;;1072               set_sw = set_35;
;;;1073               break;
;;;1074           }
;;;1075           case set_35:
;;;1076           {
;;;1077               WM_HWIN hItem;
;;;1078   //            WM_InvalidateWindow(hWincdc);
;;;1079               hItem = WM_GetDialogItem(hWincdc, ID_TEXT_60);
;;;1080               TEXT_SetBkColor(hItem,GUI_INVALID_COLOR);//选项背景色设为透明
;;;1081               TEXT_SetTextColor(hItem, GUI_WHITE);
;;;1082                  
;;;1083               hItem = WM_GetDialogItem(hWincdc, ID_TEXT_53);
;;;1084               TEXT_SetBkColor(hItem,0x00BFFFFF);//选项背景色设为米色
;;;1085               TEXT_SetTextColor(hItem, GUI_BLACK);
;;;1086   
;;;1087               set_sw = set_37;
;;;1088               break;
;;;1089           }
;;;1090   //         case set_36:
;;;1091   //         {
;;;1092   //             WM_HWIN hItem;
;;;1093   //             WM_InvalidateWindow(hWincdc);
;;;1094   //             hItem = WM_GetDialogItem(hWincdc, ID_TEXT_61);
;;;1095   //             TEXT_SetBkColor(hItem,GUI_INVALID_COLOR);//选项背景色设为透明
;;;1096   //                
;;;1097   //             hItem = WM_GetDialogItem(hWincdc, ID_TEXT_53);
;;;1098   //             TEXT_SetBkColor(hItem,0x00BFFFFF);//选项背景色设为米色
;;;1099   
;;;1100   //             set_sw = set_37;
;;;1101   //             break;
;;;1102   //         }
;;;1103           case set_37:
;;;1104           {
;;;1105               WM_HWIN hItem;
;;;1106   //            WM_InvalidateWindow(hWincdc);
;;;1107               hItem = WM_GetDialogItem(hWincdc, ID_TEXT_53);
;;;1108               TEXT_SetBkColor(hItem,GUI_INVALID_COLOR);//选项背景色设为透明
;;;1109               TEXT_SetTextColor(hItem, GUI_WHITE);
;;;1110                  
;;;1111               hItem = WM_GetDialogItem(hWincdc, ID_TEXT_50);
;;;1112               TEXT_SetBkColor(hItem,0x00BFFFFF);//选项背景色设为米色
;;;1113               TEXT_SetTextColor(hItem, GUI_BLACK);
;;;1114   
;;;1115               set_sw = set_26;
;;;1116               break;
;;;1117           }
;;;1118           default: break;
;;;1119       }
;;;1120   }
000078  e8bd9ff0          POP      {r4-r12,pc}
00007c  4641              MOV      r1,r8                 ;1019
00007e  4680              MOV      r8,r0                 ;1019
000080  4610              MOV      r0,r2                 ;1019
000082  f7fffffe          BL       WM_GetDialogItem
000086  4604              MOV      r4,r0                 ;1019
000088  4631              MOV      r1,r6                 ;1020
00008a  4620              MOV      r0,r4                 ;1020
00008c  f7fffffe          BL       TEXT_SetBkColor
000090  4639              MOV      r1,r7                 ;1021
000092  4620              MOV      r0,r4                 ;1021
000094  f7fffffe          BL       TEXT_SetTextColor
000098  4649              MOV      r1,r9                 ;1023
00009a  f8d80018          LDR      r0,[r8,#0x18]         ;1023  ; hWincdc
00009e  f7fffffe          BL       WM_GetDialogItem
0000a2  4604              MOV      r4,r0                 ;1023
0000a4  4956              LDR      r1,|L1.512|
0000a6  4620              MOV      r0,r4                 ;1024
0000a8  f7fffffe          BL       TEXT_SetBkColor
0000ac  2100              MOVS     r1,#0                 ;1025
0000ae  4620              MOV      r0,r4                 ;1025
0000b0  f7fffffe          BL       TEXT_SetTextColor
0000b4  201b              MOVS     r0,#0x1b              ;1027
0000b6  7028              STRB     r0,[r5,#0]            ;1027
0000b8  e7de              B        |L1.120|
0000ba  4680              MOV      r8,r0                 ;1034
0000bc  4649              MOV      r1,r9                 ;1034
0000be  4610              MOV      r0,r2                 ;1034
0000c0  f7fffffe          BL       WM_GetDialogItem
0000c4  4604              MOV      r4,r0                 ;1034
0000c6  4631              MOV      r1,r6                 ;1035
0000c8  4620              MOV      r0,r4                 ;1035
0000ca  f7fffffe          BL       TEXT_SetBkColor
0000ce  4639              MOV      r1,r7                 ;1036
0000d0  4620              MOV      r0,r4                 ;1036
0000d2  f7fffffe          BL       TEXT_SetTextColor
0000d6  4651              MOV      r1,r10                ;1038
0000d8  f8d80018          LDR      r0,[r8,#0x18]         ;1038  ; hWincdc
0000dc  f7fffffe          BL       WM_GetDialogItem
0000e0  4604              MOV      r4,r0                 ;1038
0000e2  4947              LDR      r1,|L1.512|
0000e4  4620              MOV      r0,r4                 ;1039
0000e6  f7fffffe          BL       TEXT_SetBkColor
0000ea  2100              MOVS     r1,#0                 ;1040
0000ec  4620              MOV      r0,r4                 ;1040
0000ee  f7fffffe          BL       TEXT_SetTextColor
0000f2  201c              MOVS     r0,#0x1c              ;1042
0000f4  7028              STRB     r0,[r5,#0]            ;1042
0000f6  e7bf              B        |L1.120|
0000f8  4680              MOV      r8,r0                 ;1049
0000fa  4651              MOV      r1,r10                ;1049
0000fc  4610              MOV      r0,r2                 ;1049
0000fe  f7fffffe          BL       WM_GetDialogItem
000102  4604              MOV      r4,r0                 ;1049
000104  4631              MOV      r1,r6                 ;1050
000106  4620              MOV      r0,r4                 ;1050
000108  f7fffffe          BL       TEXT_SetBkColor
00010c  4639              MOV      r1,r7                 ;1051
00010e  4620              MOV      r0,r4                 ;1051
000110  f7fffffe          BL       TEXT_SetTextColor
000114  4659              MOV      r1,r11                ;1053
000116  f8d80018          LDR      r0,[r8,#0x18]         ;1053  ; hWincdc
00011a  f7fffffe          BL       WM_GetDialogItem
00011e  4604              MOV      r4,r0                 ;1053
000120  4937              LDR      r1,|L1.512|
000122  4620              MOV      r0,r4                 ;1054
000124  f7fffffe          BL       TEXT_SetBkColor
000128  2100              MOVS     r1,#0                 ;1055
00012a  4620              MOV      r0,r4                 ;1055
00012c  f7fffffe          BL       TEXT_SetTextColor
000130  2021              MOVS     r0,#0x21              ;1057
000132  7028              STRB     r0,[r5,#0]            ;1057
000134  e7a0              B        |L1.120|
000136  4680              MOV      r8,r0                 ;1064
000138  4659              MOV      r1,r11                ;1064
00013a  4610              MOV      r0,r2                 ;1064
00013c  f7fffffe          BL       WM_GetDialogItem
000140  4604              MOV      r4,r0                 ;1064
000142  4631              MOV      r1,r6                 ;1065
000144  4620              MOV      r0,r4                 ;1065
000146  f7fffffe          BL       TEXT_SetBkColor
00014a  4639              MOV      r1,r7                 ;1066
00014c  4620              MOV      r0,r4                 ;1066
00014e  f7fffffe          BL       TEXT_SetTextColor
000152  f6400179          MOV      r1,#0x879             ;1068
000156  f8d80018          LDR      r0,[r8,#0x18]         ;1068  ; hWincdc
00015a  f7fffffe          BL       WM_GetDialogItem
00015e  4604              MOV      r4,r0                 ;1068
000160  4927              LDR      r1,|L1.512|
000162  4620              MOV      r0,r4                 ;1069
000164  f7fffffe          BL       TEXT_SetBkColor
000168  2100              MOVS     r1,#0                 ;1070
00016a  4620              MOV      r0,r4                 ;1070
00016c  f7fffffe          BL       TEXT_SetTextColor
000170  2022              MOVS     r0,#0x22              ;1072
000172  7028              STRB     r0,[r5,#0]            ;1072
000174  e780              B        |L1.120|
000176  4680              MOV      r8,r0                 ;1079
000178  f6400179          MOV      r1,#0x879             ;1079
00017c  4610              MOV      r0,r2                 ;1079
00017e  f7fffffe          BL       WM_GetDialogItem
000182  4604              MOV      r4,r0                 ;1079
000184  4631              MOV      r1,r6                 ;1080
000186  4620              MOV      r0,r4                 ;1080
000188  f7fffffe          BL       TEXT_SetBkColor
00018c  4639              MOV      r1,r7                 ;1081
00018e  4620              MOV      r0,r4                 ;1081
000190  f7fffffe          BL       TEXT_SetTextColor
000194  f6400172          MOV      r1,#0x872             ;1083
000198  f8d80018          LDR      r0,[r8,#0x18]         ;1083  ; hWincdc
00019c  f7fffffe          BL       WM_GetDialogItem
0001a0  4604              MOV      r4,r0                 ;1083
0001a2  4917              LDR      r1,|L1.512|
0001a4  4620              MOV      r0,r4                 ;1084
0001a6  f7fffffe          BL       TEXT_SetBkColor
0001aa  2100              MOVS     r1,#0                 ;1085
0001ac  4620              MOV      r0,r4                 ;1085
0001ae  f7fffffe          BL       TEXT_SetTextColor
0001b2  2024              MOVS     r0,#0x24              ;1087
0001b4  7028              STRB     r0,[r5,#0]            ;1087
0001b6  e75f              B        |L1.120|
0001b8  4681              MOV      r9,r0                 ;1107
0001ba  f6400172          MOV      r1,#0x872             ;1107
0001be  4610              MOV      r0,r2                 ;1107
0001c0  f7fffffe          BL       WM_GetDialogItem
0001c4  4680              MOV      r8,r0                 ;1107
0001c6  4631              MOV      r1,r6                 ;1108
0001c8  4640              MOV      r0,r8                 ;1108
0001ca  f7fffffe          BL       TEXT_SetBkColor
0001ce  4639              MOV      r1,r7                 ;1109
0001d0  4640              MOV      r0,r8                 ;1109
0001d2  f7fffffe          BL       TEXT_SetTextColor
0001d6  4621              MOV      r1,r4                 ;1111
0001d8  f8d90018          LDR      r0,[r9,#0x18]         ;1111  ; hWincdc
0001dc  f7fffffe          BL       WM_GetDialogItem
0001e0  4604              MOV      r4,r0                 ;1111
0001e2  4907              LDR      r1,|L1.512|
0001e4  4620              MOV      r0,r4                 ;1112
0001e6  f7fffffe          BL       TEXT_SetBkColor
0001ea  2100              MOVS     r1,#0                 ;1113
0001ec  4620              MOV      r0,r4                 ;1113
0001ee  f7fffffe          BL       TEXT_SetTextColor
0001f2  2019              MOVS     r0,#0x19              ;1115
0001f4  7028              STRB     r0,[r5,#0]            ;1115
0001f6  e73f              B        |L1.120|
;;;1121   
                          ENDP

                  |L1.504|
                          DCD      set_sw
                  |L1.508|
                          DCD      ||.data||
                  |L1.512|
                          DCD      0x00bfffff

                          AREA ||i.CDC_OP_LEFT||, CODE, READONLY, ALIGN=2

                          REQUIRE _printf_percent
                          REQUIRE _printf_widthprec
                          REQUIRE _printf_f
                          REQUIRE _printf_fp_dec
                  CDC_OP_LEFT PROC
;;;1249   void CDC_OP_LEFT(void);
;;;1250   void CDC_OP_LEFT(void)
000000  e92d47f0          PUSH     {r4-r10,lr}
;;;1251   {
000004  ed2d8b02          VPUSH    {d8}
000008  b082              SUB      sp,sp,#8
;;;1252       float buffer;
;;;1253       char buf[5];
;;;1254       WM_HWIN hItem;
;;;1255       switch(set_sw)
00000a  48f7              LDR      r0,|L2.1000|
00000c  7801              LDRB     r1,[r0,#0]  ; set_sw
;;;1256       {
;;;1257           case set_26:
;;;1258           {
;;;1259               
;;;1260               if(pow_step == step2)
00000e  f8df93e4          LDR      r9,|L2.1012|
;;;1261               {
;;;1262                   buffer = (float)opv1/100;
000012  4af6              LDR      r2,|L2.1004|
;;;1263                   hItem = WM_GetDialogItem(hWincdc, ID_TEXT_50);
;;;1264                   if(lang == 0)
000014  4df6              LDR      r5,|L2.1008|
;;;1265                   {
;;;1266                       TEXT_SetFont(hItem, &GUI_Fontset_font);
;;;1267                       TEXT_SetText(hItem,"输出电压1");
;;;1268                   }else{
;;;1269                       TEXT_SetFont(hItem, &GUI_Font20_ASCII);
;;;1270                       TEXT_SetText(hItem,"Output V1");
;;;1271                   }
;;;1272                   hItem = WM_GetDialogItem(hWincdc, ID_TEXT_54);
;;;1273                   sprintf(buf,"%.2f",buffer);
;;;1274                   TEXT_SetText(hItem,buf);
;;;1275                   pow_step = step1;
;;;1276               }else if(pow_step == step3){
;;;1277                   buffer = (float)opv2/100;
;;;1278                   hItem = WM_GetDialogItem(hWincdc, ID_TEXT_50);
;;;1279                   if(lang == 0)
;;;1280                   {
;;;1281                       TEXT_SetFont(hItem, &GUI_Fontset_font);
;;;1282                       TEXT_SetText(hItem,"输出电压2");
;;;1283                   }else{
;;;1284                       TEXT_SetFont(hItem, &GUI_Font20_ASCII);
;;;1285                       TEXT_SetText(hItem,"Output V2");
;;;1286                   }
;;;1287                   hItem = WM_GetDialogItem(hWincdc, ID_TEXT_54);
;;;1288                   sprintf(buf,"%.2f",buffer);
;;;1289                   TEXT_SetText(hItem,buf);
;;;1290                   pow_step = step2;
000016  2701              MOVS     r7,#1
000018  f8d90018          LDR      r0,[r9,#0x18]         ;1255
00001c  f04f0800          MOV      r8,#0                 ;1275
000020  2919              CMP      r1,#0x19              ;1255
000022  d03d              BEQ      |L2.160|
000024  291a              CMP      r1,#0x1a              ;1255
000026  d078              BEQ      |L2.282|
;;;1291               }
;;;1292           }break;
;;;1293           case set_27:
;;;1294           {
;;;1295               if(cur_step == step3)
;;;1296               {
;;;1297                   buffer = (float)opc2/1000;
;;;1298                   hItem = WM_GetDialogItem(hWincdc, ID_TEXT_51);
;;;1299                   if(lang == 0)
;;;1300                   {
;;;1301                       TEXT_SetFont(hItem, &GUI_Fontset_font);
;;;1302                       TEXT_SetText(hItem,"限制电流2");
;;;1303                   }else{
;;;1304                       TEXT_SetFont(hItem, &GUI_Font20_ASCII);
;;;1305                       TEXT_SetText(hItem,"Limiting C2");
;;;1306                   }
;;;1307                   
;;;1308                   hItem = WM_GetDialogItem(hWincdc, ID_TEXT_55);
;;;1309                   sprintf(buf,"%.2f",buffer);
;;;1310                   TEXT_SetText(hItem,buf);
;;;1311                   
;;;1312                   cur_step = step2;
;;;1313               }else if(cur_step == step2){
;;;1314                   buffer = (float)opc1/1000;
;;;1315                   hItem = WM_GetDialogItem(hWincdc, ID_TEXT_51);
;;;1316                   if(lang == 0)
;;;1317                   {
;;;1318                       TEXT_SetFont(hItem, &GUI_Fontset_font);
;;;1319                       TEXT_SetText(hItem,"限制电流1");
;;;1320                   }else{
;;;1321                       TEXT_SetFont(hItem, &GUI_Font20_ASCII);
;;;1322                       TEXT_SetText(hItem,"Limiting C1");
;;;1323                   }
;;;1324                   hItem = WM_GetDialogItem(hWincdc, ID_TEXT_55);
;;;1325                   sprintf(buf,"%.2f",buffer);
;;;1326                   TEXT_SetText(hItem,buf);
;;;1327                   cur_step = step1;
;;;1328               }
;;;1329           }break;
;;;1330           case set_28:
;;;1331           {
;;;1332               
;;;1333               if(coffv_step == step3)
;;;1334               {
;;;1335                   buffer = cov2;
000028  4af3              LDR      r2,|L2.1016|
00002a  291b              CMP      r1,#0x1b              ;1255
00002c  d076              BEQ      |L2.284|
00002e  291c              CMP      r1,#0x1c              ;1255
000030  d131              BNE      |L2.150|
;;;1336                   hItem = WM_GetDialogItem(hWincdc, ID_TEXT_58);
;;;1337                   
;;;1338                   if(lang == 0)
;;;1339                   {
;;;1340                       TEXT_SetFont(hItem, &GUI_Fontset_font);
;;;1341                       TEXT_SetText(hItem,"截止电压2");
;;;1342                   }else{
;;;1343                       TEXT_SetFont(hItem, &GUI_Font20_ASCII);
;;;1344                       TEXT_SetText(hItem,"Cutoff V2");
;;;1345                   }
;;;1346                   hItem = WM_GetDialogItem(hWincdc, ID_TEXT_62);
;;;1347                   sprintf(buf,"%.2f",buffer);
;;;1348                   TEXT_SetText(hItem,buf);
;;;1349                   coffv_step = step2;
;;;1350               }else if(coffv_step == step2){
;;;1351                   buffer = cov1;
;;;1352                   hItem = WM_GetDialogItem(hWincdc, ID_TEXT_58);
;;;1353                   if(lang == 0)
;;;1354                   {
;;;1355                       TEXT_SetFont(hItem, &GUI_Fontset_font);
;;;1356                       TEXT_SetText(hItem,"截止电压1");
;;;1357                   }else{
;;;1358                       TEXT_SetFont(hItem, &GUI_Font20_ASCII);
;;;1359                       TEXT_SetText(hItem,"Cutoff V1");
;;;1360                   }
;;;1361                   hItem = WM_GetDialogItem(hWincdc, ID_TEXT_62);
;;;1362                   sprintf(buf,"%.2f",buffer);
;;;1363                   TEXT_SetText(hItem,buf);
;;;1364                   coffv_step = step1;
;;;1365               }
;;;1366           }break;
;;;1367           case set_29:
;;;1368           {
;;;1369               
;;;1370               if(coffc_step == step3)
000032  f899300e          LDRB     r3,[r9,#0xe]  ; coffc_step
;;;1371               {
;;;1372                   buffer = coc2;
;;;1373                   hItem = WM_GetDialogItem(hWincdc, ID_TEXT_59);
000036  f6400178          MOV      r1,#0x878
;;;1374                   if(lang == 0)
;;;1375                   {
;;;1376                       TEXT_SetFont(hItem, &GUI_Fontset_font);
;;;1377                       TEXT_SetText(hItem,"截止电流2");
;;;1378                   }else{
;;;1379                       TEXT_SetFont(hItem, &GUI_Font20_ASCII);
;;;1380                       TEXT_SetText(hItem,"Cutoff C2");
;;;1381                   }
;;;1382                   
;;;1383                   hItem = WM_GetDialogItem(hWincdc, ID_TEXT_63);
00003a  f6400a7c          MOV      r10,#0x87c
00003e  2b02              CMP      r3,#2                 ;1370
000040  d06d              BEQ      |L2.286|
;;;1384                   sprintf(buf,"%.2f",buffer);
;;;1385                   TEXT_SetText(hItem,buf);
;;;1386                   coffc_step = step2;
;;;1387               }else if(coffc_step == step2){
000042  f899300e          LDRB     r3,[r9,#0xe]  ; coffc_step
000046  2b01              CMP      r3,#1
000048  d125              BNE      |L2.150|
;;;1388                   buffer = coc1;
00004a  68d4              LDR      r4,[r2,#0xc]  ; coff
;;;1389                   hItem = WM_GetDialogItem(hWincdc, ID_TEXT_59);
00004c  f7fffffe          BL       WM_GetDialogItem
000050  4606              MOV      r6,r0
;;;1390                   if(lang == 0)
000052  7828              LDRB     r0,[r5,#0]  ; lang
000054  2800              CMP      r0,#0
000056  d07c              BEQ      |L2.338|
;;;1391                   {
;;;1392                       TEXT_SetFont(hItem, &GUI_Fontset_font);
;;;1393                       TEXT_SetText(hItem,"截止电流1");
;;;1394                   }else{
;;;1395                       TEXT_SetFont(hItem, &GUI_Font20_ASCII);
000058  49e8              LDR      r1,|L2.1020|
00005a  4630              MOV      r0,r6
00005c  f7fffffe          BL       TEXT_SetFont
;;;1396                       TEXT_SetText(hItem,"Cutoff C1");
000060  a1e7              ADR      r1,|L2.1024|
000062  4630              MOV      r0,r6
000064  f7fffffe          BL       TEXT_SetText
                  |L2.104|
;;;1397                   }
;;;1398                   hItem = WM_GetDialogItem(hWincdc, ID_TEXT_63);
000068  4651              MOV      r1,r10
00006a  f8d90018          LDR      r0,[r9,#0x18]  ; hWincdc
00006e  f7fffffe          BL       WM_GetDialogItem
000072  4605              MOV      r5,r0
;;;1399                   sprintf(buf,"%.2f",buffer);
000074  4620              MOV      r0,r4
000076  f7fffffe          BL       __aeabi_f2d
00007a  ec410b10          VMOV     d0,r0,r1
00007e  a1e3              ADR      r1,|L2.1036|
000080  ec532b10          VMOV     r2,r3,d0
000084  4668              MOV      r0,sp
000086  f7fffffe          BL       __2sprintf
;;;1400                   TEXT_SetText(hItem,buf);
00008a  4669              MOV      r1,sp
00008c  4628              MOV      r0,r5
00008e  f7fffffe          BL       TEXT_SetText
;;;1401                   coffc_step = step1;
000092  f889800e          STRB     r8,[r9,#0xe]
                  |L2.150|
;;;1402               }
;;;1403           }break;
;;;1404       }
;;;1405   }
000096  b002              ADD      sp,sp,#8
000098  ecbd8b02          VPOP     {d8}
00009c  e8bd87f0          POP      {r4-r10,pc}
                  |L2.160|
0000a0  f899100b          LDRB     r1,[r9,#0xb]          ;1260  ; pow_step
0000a4  ed9f0adb          VLDR     s0,|L2.1044|
0000a8  f640036f          MOV      r3,#0x86f             ;1263
0000ac  1d1e              ADDS     r6,r3,#4              ;1272
0000ae  2901              CMP      r1,#1                 ;1260
0000b0  d036              BEQ      |L2.288|
0000b2  f899100b          LDRB     r1,[r9,#0xb]          ;1276  ; pow_step
0000b6  2902              CMP      r1,#2                 ;1276
0000b8  d1ed              BNE      |L2.150|
0000ba  f8b21040          LDRH     r1,[r2,#0x40]         ;1277  ; Run_Control
0000be  ee001a90          VMOV     s1,r1                 ;1277
0000c2  eef80a60          VCVT.F32.U32 s1,s1                 ;1277
0000c6  ee808a80          VDIV.F32 s16,s1,s0             ;1277
0000ca  4619              MOV      r1,r3                 ;1278
0000cc  f7fffffe          BL       WM_GetDialogItem
0000d0  4604              MOV      r4,r0                 ;1278
0000d2  7828              LDRB     r0,[r5,#0]            ;1279  ; lang
0000d4  2800              CMP      r0,#0                 ;1279
0000d6  d05c              BEQ      |L2.402|
0000d8  49c8              LDR      r1,|L2.1020|
0000da  4620              MOV      r0,r4                 ;1284
0000dc  f7fffffe          BL       TEXT_SetFont
0000e0  a1cd              ADR      r1,|L2.1048|
0000e2  4620              MOV      r0,r4                 ;1285
0000e4  f7fffffe          BL       TEXT_SetText
                  |L2.232|
0000e8  4631              MOV      r1,r6                 ;1287
0000ea  f8d90018          LDR      r0,[r9,#0x18]         ;1287  ; hWincdc
0000ee  f7fffffe          BL       WM_GetDialogItem
0000f2  4604              MOV      r4,r0                 ;1287
0000f4  ee180a10          VMOV     r0,s16                ;1288
0000f8  f7fffffe          BL       __aeabi_f2d
0000fc  ec410b10          VMOV     d0,r0,r1              ;1288
000100  a1c2              ADR      r1,|L2.1036|
000102  ec532b10          VMOV     r2,r3,d0              ;1288
000106  4668              MOV      r0,sp                 ;1288
000108  f7fffffe          BL       __2sprintf
00010c  4669              MOV      r1,sp                 ;1289
00010e  4620              MOV      r0,r4                 ;1289
000110  f7fffffe          BL       TEXT_SetText
000114  f889700b          STRB     r7,[r9,#0xb]          ;1290
                  |L2.280|
000118  e7bd              B        |L2.150|
                  |L2.282|
00011a  e043              B        |L2.420|
                  |L2.284|
00011c  e0c0              B        |L2.672|
                  |L2.286|
00011e  e12a              B        |L2.886|
                  |L2.288|
000120  8fd1              LDRH     r1,[r2,#0x3e]         ;1262  ; Run_Control
000122  ee001a90          VMOV     s1,r1                 ;1262
000126  eef80a60          VCVT.F32.U32 s1,s1                 ;1262
00012a  ee808a80          VDIV.F32 s16,s1,s0             ;1262
00012e  4619              MOV      r1,r3                 ;1263
000130  f7fffffe          BL       WM_GetDialogItem
000134  4604              MOV      r4,r0                 ;1263
000136  7828              LDRB     r0,[r5,#0]            ;1264  ; lang
000138  b310              CBZ      r0,|L2.384|
00013a  49b0              LDR      r1,|L2.1020|
00013c  4620              MOV      r0,r4                 ;1269
00013e  f7fffffe          BL       TEXT_SetFont
000142  a1b8              ADR      r1,|L2.1060|
000144  4620              MOV      r0,r4                 ;1270
000146  f7fffffe          BL       TEXT_SetText
                  |L2.330|
00014a  4631              MOV      r1,r6                 ;1272
00014c  f8d90018          LDR      r0,[r9,#0x18]         ;1272  ; hWincdc
000150  e000              B        |L2.340|
                  |L2.338|
000152  e13f              B        |L2.980|
                  |L2.340|
000154  f7fffffe          BL       WM_GetDialogItem
000158  4604              MOV      r4,r0                 ;1272
00015a  ee180a10          VMOV     r0,s16                ;1273
00015e  f7fffffe          BL       __aeabi_f2d
000162  ec410b10          VMOV     d0,r0,r1              ;1273
000166  a1a9              ADR      r1,|L2.1036|
000168  ec532b10          VMOV     r2,r3,d0              ;1273
00016c  4668              MOV      r0,sp                 ;1273
00016e  f7fffffe          BL       __2sprintf
000172  4669              MOV      r1,sp                 ;1274
000174  4620              MOV      r0,r4                 ;1274
000176  f7fffffe          BL       TEXT_SetText
00017a  f889800b          STRB     r8,[r9,#0xb]          ;1275
00017e  e78a              B        |L2.150|
                  |L2.384|
000180  49ab              LDR      r1,|L2.1072|
000182  4620              MOV      r0,r4                 ;1266
000184  f7fffffe          BL       TEXT_SetFont
000188  a1aa              ADR      r1,|L2.1076|
00018a  4620              MOV      r0,r4                 ;1267
00018c  f7fffffe          BL       TEXT_SetText
000190  e7db              B        |L2.330|
                  |L2.402|
000192  49a7              LDR      r1,|L2.1072|
000194  4620              MOV      r0,r4                 ;1281
000196  f7fffffe          BL       TEXT_SetFont
00019a  a1aa              ADR      r1,|L2.1092|
00019c  4620              MOV      r0,r4                 ;1282
00019e  f7fffffe          BL       TEXT_SetText
0001a2  e7a1              B        |L2.232|
                  |L2.420|
0001a4  f899100c          LDRB     r1,[r9,#0xc]          ;1295  ; cur_step
0001a8  ed9f0aaa          VLDR     s0,|L2.1108|
0001ac  f44f6307          MOV      r3,#0x870             ;1298
0001b0  1d1e              ADDS     r6,r3,#4              ;1308
0001b2  2902              CMP      r1,#2                 ;1295
0001b4  d033              BEQ      |L2.542|
0001b6  f899100c          LDRB     r1,[r9,#0xc]          ;1313  ; cur_step
0001ba  2901              CMP      r1,#1                 ;1313
0001bc  d1ac              BNE      |L2.280|
0001be  f8b21044          LDRH     r1,[r2,#0x44]         ;1314  ; Run_Control
0001c2  ee001a90          VMOV     s1,r1                 ;1314
0001c6  eef80a60          VCVT.F32.U32 s1,s1                 ;1314
0001ca  ee808a80          VDIV.F32 s16,s1,s0             ;1314
0001ce  4619              MOV      r1,r3                 ;1315
0001d0  f7fffffe          BL       WM_GetDialogItem
0001d4  4604              MOV      r4,r0                 ;1315
0001d6  7828              LDRB     r0,[r5,#0]            ;1316  ; lang
0001d8  2800              CMP      r0,#0                 ;1316
0001da  d058              BEQ      |L2.654|
0001dc  4987              LDR      r1,|L2.1020|
0001de  4620              MOV      r0,r4                 ;1321
0001e0  f7fffffe          BL       TEXT_SetFont
0001e4  a19c              ADR      r1,|L2.1112|
0001e6  4620              MOV      r0,r4                 ;1322
0001e8  f7fffffe          BL       TEXT_SetText
                  |L2.492|
0001ec  4631              MOV      r1,r6                 ;1324
0001ee  f8d90018          LDR      r0,[r9,#0x18]         ;1324  ; hWincdc
0001f2  f7fffffe          BL       WM_GetDialogItem
0001f6  4604              MOV      r4,r0                 ;1324
0001f8  ee180a10          VMOV     r0,s16                ;1325
0001fc  f7fffffe          BL       __aeabi_f2d
000200  ec410b10          VMOV     d0,r0,r1              ;1325
000204  a181              ADR      r1,|L2.1036|
000206  ec532b10          VMOV     r2,r3,d0              ;1325
00020a  4668              MOV      r0,sp                 ;1325
00020c  f7fffffe          BL       __2sprintf
000210  4669              MOV      r1,sp                 ;1326
000212  4620              MOV      r0,r4                 ;1326
000214  f7fffffe          BL       TEXT_SetText
000218  f889800c          STRB     r8,[r9,#0xc]          ;1327
                  |L2.540|
00021c  e73b              B        |L2.150|
                  |L2.542|
00021e  f8b21046          LDRH     r1,[r2,#0x46]         ;1297  ; Run_Control
000222  ee001a90          VMOV     s1,r1                 ;1297
000226  eef80a60          VCVT.F32.U32 s1,s1                 ;1297
00022a  ee808a80          VDIV.F32 s16,s1,s0             ;1297
00022e  4619              MOV      r1,r3                 ;1298
000230  f7fffffe          BL       WM_GetDialogItem
000234  4604              MOV      r4,r0                 ;1298
000236  7828              LDRB     r0,[r5,#0]            ;1299  ; lang
000238  b300              CBZ      r0,|L2.636|
00023a  4970              LDR      r1,|L2.1020|
00023c  4620              MOV      r0,r4                 ;1304
00023e  f7fffffe          BL       TEXT_SetFont
000242  a188              ADR      r1,|L2.1124|
000244  4620              MOV      r0,r4                 ;1305
000246  f7fffffe          BL       TEXT_SetText
                  |L2.586|
00024a  4631              MOV      r1,r6                 ;1308
00024c  f8d90018          LDR      r0,[r9,#0x18]         ;1308  ; hWincdc
000250  f7fffffe          BL       WM_GetDialogItem
000254  4604              MOV      r4,r0                 ;1308
000256  ee180a10          VMOV     r0,s16                ;1309
00025a  f7fffffe          BL       __aeabi_f2d
00025e  ec410b10          VMOV     d0,r0,r1              ;1309
000262  a16a              ADR      r1,|L2.1036|
000264  ec532b10          VMOV     r2,r3,d0              ;1309
000268  4668              MOV      r0,sp                 ;1309
00026a  f7fffffe          BL       __2sprintf
00026e  4669              MOV      r1,sp                 ;1310
000270  4620              MOV      r0,r4                 ;1310
000272  f7fffffe          BL       TEXT_SetText
000276  f889700c          STRB     r7,[r9,#0xc]          ;1312
00027a  e70c              B        |L2.150|
                  |L2.636|
00027c  496c              LDR      r1,|L2.1072|
00027e  4620              MOV      r0,r4                 ;1301
000280  f7fffffe          BL       TEXT_SetFont
000284  a17a              ADR      r1,|L2.1136|
000286  4620              MOV      r0,r4                 ;1302
000288  f7fffffe          BL       TEXT_SetText
00028c  e7dd              B        |L2.586|
                  |L2.654|
00028e  4968              LDR      r1,|L2.1072|
000290  4620              MOV      r0,r4                 ;1318
000292  f7fffffe          BL       TEXT_SetFont
000296  a17a              ADR      r1,|L2.1152|
000298  4620              MOV      r0,r4                 ;1319
00029a  f7fffffe          BL       TEXT_SetText
00029e  e7a5              B        |L2.492|
                  |L2.672|
0002a0  f899300d          LDRB     r3,[r9,#0xd]          ;1333  ; coffv_step
0002a4  f6400177          MOV      r1,#0x877             ;1336
0002a8  f6400a7b          MOV      r10,#0x87b            ;1346
0002ac  2b02              CMP      r3,#2                 ;1333
0002ae  d02a              BEQ      |L2.774|
0002b0  f899300d          LDRB     r3,[r9,#0xd]          ;1350  ; coffv_step
0002b4  2b01              CMP      r3,#1                 ;1350
0002b6  d1b1              BNE      |L2.540|
0002b8  6814              LDR      r4,[r2,#0]            ;1351  ; coff
0002ba  f7fffffe          BL       WM_GetDialogItem
0002be  4606              MOV      r6,r0                 ;1352
0002c0  7828              LDRB     r0,[r5,#0]            ;1353  ; lang
0002c2  2800              CMP      r0,#0                 ;1353
0002c4  d04e              BEQ      |L2.868|
0002c6  494d              LDR      r1,|L2.1020|
0002c8  4630              MOV      r0,r6                 ;1358
0002ca  f7fffffe          BL       TEXT_SetFont
0002ce  a170              ADR      r1,|L2.1168|
0002d0  4630              MOV      r0,r6                 ;1359
0002d2  f7fffffe          BL       TEXT_SetText
                  |L2.726|
0002d6  4651              MOV      r1,r10                ;1361
0002d8  f8d90018          LDR      r0,[r9,#0x18]         ;1361  ; hWincdc
0002dc  f7fffffe          BL       WM_GetDialogItem
0002e0  4605              MOV      r5,r0                 ;1361
0002e2  4620              MOV      r0,r4                 ;1362
0002e4  f7fffffe          BL       __aeabi_f2d
0002e8  ec410b10          VMOV     d0,r0,r1              ;1362
0002ec  a147              ADR      r1,|L2.1036|
0002ee  ec532b10          VMOV     r2,r3,d0              ;1362
0002f2  4668              MOV      r0,sp                 ;1362
0002f4  f7fffffe          BL       __2sprintf
0002f8  4669              MOV      r1,sp                 ;1363
0002fa  4628              MOV      r0,r5                 ;1363
0002fc  f7fffffe          BL       TEXT_SetText
000300  f889800d          STRB     r8,[r9,#0xd]          ;1364
000304  e6c7              B        |L2.150|
                  |L2.774|
000306  6854              LDR      r4,[r2,#4]            ;1335  ; coff
000308  f7fffffe          BL       WM_GetDialogItem
00030c  4606              MOV      r6,r0                 ;1336
00030e  7828              LDRB     r0,[r5,#0]            ;1338  ; lang
000310  b1f8              CBZ      r0,|L2.850|
000312  493a              LDR      r1,|L2.1020|
000314  4630              MOV      r0,r6                 ;1343
000316  f7fffffe          BL       TEXT_SetFont
00031a  a160              ADR      r1,|L2.1180|
00031c  4630              MOV      r0,r6                 ;1344
00031e  f7fffffe          BL       TEXT_SetText
                  |L2.802|
000322  4651              MOV      r1,r10                ;1346
000324  f8d90018          LDR      r0,[r9,#0x18]         ;1346  ; hWincdc
000328  f7fffffe          BL       WM_GetDialogItem
00032c  4605              MOV      r5,r0                 ;1346
00032e  4620              MOV      r0,r4                 ;1347
000330  f7fffffe          BL       __aeabi_f2d
000334  ec410b10          VMOV     d0,r0,r1              ;1347
000338  a134              ADR      r1,|L2.1036|
00033a  ec532b10          VMOV     r2,r3,d0              ;1347
00033e  4668              MOV      r0,sp                 ;1347
000340  f7fffffe          BL       __2sprintf
000344  4669              MOV      r1,sp                 ;1348
000346  4628              MOV      r0,r5                 ;1348
000348  f7fffffe          BL       TEXT_SetText
00034c  f889700d          STRB     r7,[r9,#0xd]          ;1349
000350  e6a1              B        |L2.150|
                  |L2.850|
000352  4937              LDR      r1,|L2.1072|
000354  4630              MOV      r0,r6                 ;1340
000356  f7fffffe          BL       TEXT_SetFont
00035a  a153              ADR      r1,|L2.1192|
00035c  4630              MOV      r0,r6                 ;1341
00035e  f7fffffe          BL       TEXT_SetText
000362  e7de              B        |L2.802|
                  |L2.868|
000364  4932              LDR      r1,|L2.1072|
000366  4630              MOV      r0,r6                 ;1355
000368  f7fffffe          BL       TEXT_SetFont
00036c  a152              ADR      r1,|L2.1208|
00036e  4630              MOV      r0,r6                 ;1356
000370  f7fffffe          BL       TEXT_SetText
000374  e7af              B        |L2.726|
                  |L2.886|
000376  6914              LDR      r4,[r2,#0x10]         ;1372  ; coff
000378  f7fffffe          BL       WM_GetDialogItem
00037c  4606              MOV      r6,r0                 ;1373
00037e  7828              LDRB     r0,[r5,#0]            ;1374  ; lang
000380  b1f8              CBZ      r0,|L2.962|
000382  491e              LDR      r1,|L2.1020|
000384  4630              MOV      r0,r6                 ;1379
000386  f7fffffe          BL       TEXT_SetFont
00038a  a14f              ADR      r1,|L2.1224|
00038c  4630              MOV      r0,r6                 ;1380
00038e  f7fffffe          BL       TEXT_SetText
                  |L2.914|
000392  4651              MOV      r1,r10                ;1383
000394  f8d90018          LDR      r0,[r9,#0x18]         ;1383  ; hWincdc
000398  f7fffffe          BL       WM_GetDialogItem
00039c  4605              MOV      r5,r0                 ;1383
00039e  4620              MOV      r0,r4                 ;1384
0003a0  f7fffffe          BL       __aeabi_f2d
0003a4  ec410b10          VMOV     d0,r0,r1              ;1384
0003a8  a118              ADR      r1,|L2.1036|
0003aa  ec532b10          VMOV     r2,r3,d0              ;1384
0003ae  4668              MOV      r0,sp                 ;1384
0003b0  f7fffffe          BL       __2sprintf
0003b4  4669              MOV      r1,sp                 ;1385
0003b6  4628              MOV      r0,r5                 ;1385
0003b8  f7fffffe          BL       TEXT_SetText
0003bc  f889700e          STRB     r7,[r9,#0xe]          ;1386
0003c0  e669              B        |L2.150|
                  |L2.962|
0003c2  491b              LDR      r1,|L2.1072|
0003c4  4630              MOV      r0,r6                 ;1376
0003c6  f7fffffe          BL       TEXT_SetFont
0003ca  a142              ADR      r1,|L2.1236|
0003cc  4630              MOV      r0,r6                 ;1377
0003ce  f7fffffe          BL       TEXT_SetText
0003d2  e7de              B        |L2.914|
                  |L2.980|
0003d4  4916              LDR      r1,|L2.1072|
0003d6  4630              MOV      r0,r6                 ;1392
0003d8  f7fffffe          BL       TEXT_SetFont
0003dc  a141              ADR      r1,|L2.1252|
0003de  4630              MOV      r0,r6                 ;1393
0003e0  f7fffffe          BL       TEXT_SetText
0003e4  e640              B        |L2.104|
0003e6  0000              DCW      0x0000
                  |L2.1000|
                          DCD      set_sw
                  |L2.1004|
                          DCD      Run_Control
                  |L2.1008|
                          DCD      lang
                  |L2.1012|
                          DCD      ||.data||
                  |L2.1016|
                          DCD      ||.bss||
                  |L2.1020|
                          DCD      GUI_Font20_ASCII
                  |L2.1024|
000400  4375746f          DCB      "Cutoff C1",0
000404  66662043
000408  3100    
00040a  00                DCB      0
00040b  00                DCB      0
                  |L2.1036|
00040c  252e3266          DCB      "%.2f",0
000410  00      
000411  00                DCB      0
000412  00                DCB      0
000413  00                DCB      0
                  |L2.1044|
000414  42c80000          DCFS     0x42c80000 ; 100
                  |L2.1048|
000418  4f757470          DCB      "Output V2",0
00041c  75742056
000420  3200    
000422  00                DCB      0
000423  00                DCB      0
                  |L2.1060|
000424  4f757470          DCB      "Output V1",0
000428  75742056
00042c  3100    
00042e  00                DCB      0
00042f  00                DCB      0
                  |L2.1072|
                          DCD      GUI_Fontset_font
                  |L2.1076|
000434  e8be93e5          DCB      232,190,147,229,135,186,231,148,181,229,142,139,"1",0
000438  87bae794
00043c  b5e58e8b
000440  3100    
000442  00                DCB      0
000443  00                DCB      0
                  |L2.1092|
000444  e8be93e5          DCB      232,190,147,229,135,186,231,148,181,229,142,139,"2",0
000448  87bae794
00044c  b5e58e8b
000450  3200    
000452  00                DCB      0
000453  00                DCB      0
                  |L2.1108|
000454  447a0000          DCFS     0x447a0000 ; 1000
                  |L2.1112|
000458  4c696d69          DCB      "Limiting C1",0
00045c  74696e67
000460  20433100
                  |L2.1124|
000464  4c696d69          DCB      "Limiting C2",0
000468  74696e67
00046c  20433200
                  |L2.1136|
000470  e99990e5          DCB      233,153,144,229,136,182,231,148,181,230,181,129,"2",0
000474  88b6e794
000478  b5e6b581
00047c  3200    
00047e  00                DCB      0
00047f  00                DCB      0
                  |L2.1152|
000480  e99990e5          DCB      233,153,144,229,136,182,231,148,181,230,181,129,"1",0
000484  88b6e794
000488  b5e6b581
00048c  3100    
00048e  00                DCB      0
00048f  00                DCB      0
                  |L2.1168|
000490  4375746f          DCB      "Cutoff V1",0
000494  66662056
000498  3100    
00049a  00                DCB      0
00049b  00                DCB      0
                  |L2.1180|
00049c  4375746f          DCB      "Cutoff V2",0
0004a0  66662056
0004a4  3200    
0004a6  00                DCB      0
0004a7  00                DCB      0
                  |L2.1192|
0004a8  e688aae6          DCB      230,136,170,230,173,162,231,148,181,229,142,139,"2",0
0004ac  ada2e794
0004b0  b5e58e8b
0004b4  3200    
0004b6  00                DCB      0
0004b7  00                DCB      0
                  |L2.1208|
0004b8  e688aae6          DCB      230,136,170,230,173,162,231,148,181,229,142,139,"1",0
0004bc  ada2e794
0004c0  b5e58e8b
0004c4  3100    
0004c6  00                DCB      0
0004c7  00                DCB      0
                  |L2.1224|
0004c8  4375746f          DCB      "Cutoff C2",0
0004cc  66662043
0004d0  3200    
0004d2  00                DCB      0
0004d3  00                DCB      0
                  |L2.1236|
0004d4  e688aae6          DCB      230,136,170,230,173,162,231,148,181,230,181,129,"2",0
0004d8  ada2e794
0004dc  b5e6b581
0004e0  3200    
0004e2  00                DCB      0
0004e3  00                DCB      0
                  |L2.1252|
0004e4  e688aae6          DCB      230,136,170,230,173,162,231,148,181,230,181,129,"1",0
0004e8  ada2e794
0004ec  b5e6b581
0004f0  3100    
0004f2  00                DCB      0
0004f3  00                DCB      0
                          ENDP


                          AREA ||i.CDC_OP_RIGHT||, CODE, READONLY, ALIGN=2

                          REQUIRE _printf_percent
                          REQUIRE _printf_widthprec
                          REQUIRE _printf_f
                          REQUIRE _printf_fp_dec
                  CDC_OP_RIGHT PROC
;;;1407   void CDC_OP_RIGHT(void);
;;;1408   void CDC_OP_RIGHT(void)
000000  e92d47f0          PUSH     {r4-r10,lr}
;;;1409   {
000004  ed2d8b02          VPUSH    {d8}
000008  b082              SUB      sp,sp,#8
;;;1410       float buffer;
;;;1411       char buf[5];
;;;1412       WM_HWIN hItem;
;;;1413       switch(set_sw)
00000a  48f7              LDR      r0,|L3.1000|
00000c  7801              LDRB     r1,[r0,#0]  ; set_sw
;;;1414       {
;;;1415           case set_26:
;;;1416           {
;;;1417               
;;;1418               if(pow_step == step1)
00000e  f8df93e4          LDR      r9,|L3.1012|
;;;1419               {
;;;1420                   buffer = (float)opv2/100;
000012  4af6              LDR      r2,|L3.1004|
;;;1421                   hItem = WM_GetDialogItem(hWincdc, ID_TEXT_50);
;;;1422                   if(lang == 0)
000014  4df6              LDR      r5,|L3.1008|
;;;1423                   {
;;;1424                       TEXT_SetFont(hItem, &GUI_Fontset_font);
;;;1425                       TEXT_SetText(hItem,"输出电压2");
;;;1426                   }else{
;;;1427                       TEXT_SetFont(hItem, &GUI_Font20_ASCII);
;;;1428                       TEXT_SetText(hItem,"Output V2");
;;;1429                   }
;;;1430                   hItem = WM_GetDialogItem(hWincdc, ID_TEXT_54);
;;;1431                   sprintf(buf,"%.2f",buffer);
;;;1432                   TEXT_SetText(hItem,buf);
;;;1433                   pow_step = step2;
000016  2701              MOVS     r7,#1
000018  f8d90018          LDR      r0,[r9,#0x18]         ;1413
;;;1434               }else if(pow_step == step2){
;;;1435                   buffer = (float)opv3/100;
;;;1436                   hItem = WM_GetDialogItem(hWincdc, ID_TEXT_50);
;;;1437                   if(lang == 0)
;;;1438                   {
;;;1439                       TEXT_SetFont(hItem, &GUI_Fontset_font);
;;;1440                       TEXT_SetText(hItem,"输出电压3");
;;;1441                   }else{
;;;1442                       TEXT_SetFont(hItem, &GUI_Font20_ASCII);
;;;1443                       TEXT_SetText(hItem,"Output V3");
;;;1444                   }
;;;1445                   hItem = WM_GetDialogItem(hWincdc, ID_TEXT_54);
;;;1446                   sprintf(buf,"%.2f",buffer);
;;;1447                   TEXT_SetText(hItem,buf);
;;;1448                   pow_step = step3;
00001c  f04f0802          MOV      r8,#2
000020  2919              CMP      r1,#0x19              ;1413
000022  d03d              BEQ      |L3.160|
000024  291a              CMP      r1,#0x1a              ;1413
000026  d077              BEQ      |L3.280|
;;;1449               }
;;;1450           }break;
;;;1451           case set_27:
;;;1452           {
;;;1453               
;;;1454               if(cur_step == step1)
;;;1455               {
;;;1456                   buffer = (float)opc2/1000;
;;;1457                   hItem = WM_GetDialogItem(hWincdc, ID_TEXT_51);
;;;1458                   if(lang == 0)
;;;1459                   {
;;;1460                       TEXT_SetFont(hItem, &GUI_Fontset_font);
;;;1461                       TEXT_SetText(hItem,"限制电流2");
;;;1462                   }else{
;;;1463                       TEXT_SetFont(hItem, &GUI_Font20_ASCII);
;;;1464                       TEXT_SetText(hItem,"Limiting C2");
;;;1465                   }
;;;1466                   hItem = WM_GetDialogItem(hWincdc, ID_TEXT_55);
;;;1467                   sprintf(buf,"%.2f",buffer);
;;;1468                   TEXT_SetText(hItem,buf);
;;;1469                   cur_step = step2;
;;;1470               }else if(cur_step == step2){
;;;1471                   buffer = (float)opc3/1000;
;;;1472                   hItem = WM_GetDialogItem(hWincdc, ID_TEXT_51);
;;;1473                   if(lang == 0)
;;;1474                   {
;;;1475                       TEXT_SetFont(hItem, &GUI_Fontset_font);
;;;1476                       TEXT_SetText(hItem,"限制电流3");
;;;1477                   }else{
;;;1478                       TEXT_SetFont(hItem, &GUI_Font20_ASCII);
;;;1479                       TEXT_SetText(hItem,"Limiting C3");
;;;1480                   }
;;;1481                   hItem = WM_GetDialogItem(hWincdc, ID_TEXT_55);
;;;1482                   sprintf(buf,"%.2f",buffer);
;;;1483                   TEXT_SetText(hItem,buf);
;;;1484                   cur_step = step3;
;;;1485               }
;;;1486           }break;
;;;1487           case set_28:
;;;1488           {
;;;1489               
;;;1490               if(coffv_step == step1)
;;;1491               {
;;;1492                   buffer = cov2;
000028  4af3              LDR      r2,|L3.1016|
00002a  291b              CMP      r1,#0x1b              ;1413
00002c  d075              BEQ      |L3.282|
00002e  291c              CMP      r1,#0x1c              ;1413
000030  d131              BNE      |L3.150|
;;;1493                   hItem = WM_GetDialogItem(hWincdc, ID_TEXT_58);
;;;1494                   if(lang == 0)
;;;1495                   {
;;;1496                       TEXT_SetFont(hItem, &GUI_Fontset_font);
;;;1497                       TEXT_SetText(hItem,"截止电压2");
;;;1498                   }else{
;;;1499                       TEXT_SetFont(hItem, &GUI_Font20_ASCII);
;;;1500                       TEXT_SetText(hItem,"Cutoff V2");
;;;1501                   }
;;;1502                   hItem = WM_GetDialogItem(hWincdc, ID_TEXT_62);
;;;1503                   sprintf(buf,"%.2f",buffer);
;;;1504                   TEXT_SetText(hItem,buf);
;;;1505                   coffv_step = step2;
;;;1506               }else if(coffv_step == step2){
;;;1507                   buffer = cov3;
;;;1508                   hItem = WM_GetDialogItem(hWincdc, ID_TEXT_58);
;;;1509                   if(lang == 0)
;;;1510                   {
;;;1511                       TEXT_SetFont(hItem, &GUI_Fontset_font);
;;;1512                       TEXT_SetText(hItem,"截止电压3");
;;;1513                   }else{
;;;1514                       TEXT_SetFont(hItem, &GUI_Font20_ASCII);
;;;1515                       TEXT_SetText(hItem,"Cutoff V3");
;;;1516                   }
;;;1517                   hItem = WM_GetDialogItem(hWincdc, ID_TEXT_62);
;;;1518                   sprintf(buf,"%.2f",buffer);
;;;1519                   TEXT_SetText(hItem,buf);
;;;1520                   coffv_step = step3;
;;;1521               }
;;;1522           }break;
;;;1523           case set_29:
;;;1524           {
;;;1525               
;;;1526               if(coffc_step == step1)
000032  f899300e          LDRB     r3,[r9,#0xe]  ; coffc_step
;;;1527               {
;;;1528                   buffer = coc2;
;;;1529                   hItem = WM_GetDialogItem(hWincdc, ID_TEXT_59);
000036  f6400178          MOV      r1,#0x878
;;;1530                   if(lang == 0)
;;;1531                   {
;;;1532                       TEXT_SetFont(hItem, &GUI_Fontset_font);
;;;1533                       TEXT_SetText(hItem,"截止电流2");
;;;1534                   }else{
;;;1535                       TEXT_SetFont(hItem, &GUI_Font20_ASCII);
;;;1536                       TEXT_SetText(hItem,"Cutoff C2");
;;;1537                   }
;;;1538                   hItem = WM_GetDialogItem(hWincdc, ID_TEXT_63);
00003a  f6400a7c          MOV      r10,#0x87c
00003e  2b00              CMP      r3,#0                 ;1526
000040  d06d              BEQ      |L3.286|
;;;1539                   sprintf(buf,"%.2f",buffer);
;;;1540                   TEXT_SetText(hItem,buf);
;;;1541                   coffc_step = step2;
;;;1542               }else if(coffc_step == step2){
000042  f899300e          LDRB     r3,[r9,#0xe]  ; coffc_step
000046  2b01              CMP      r3,#1
000048  d125              BNE      |L3.150|
;;;1543                   buffer = coc3;
00004a  6954              LDR      r4,[r2,#0x14]  ; coff
;;;1544                   hItem = WM_GetDialogItem(hWincdc, ID_TEXT_59);
00004c  f7fffffe          BL       WM_GetDialogItem
000050  4606              MOV      r6,r0
;;;1545                   if(lang == 0)
000052  7828              LDRB     r0,[r5,#0]  ; lang
000054  2800              CMP      r0,#0
000056  d07d              BEQ      |L3.340|
;;;1546                   {
;;;1547                       TEXT_SetFont(hItem, &GUI_Fontset_font);
;;;1548                       TEXT_SetText(hItem,"截止电流3");
;;;1549                   }else{
;;;1550                       TEXT_SetFont(hItem, &GUI_Font20_ASCII);
000058  49e8              LDR      r1,|L3.1020|
00005a  4630              MOV      r0,r6
00005c  f7fffffe          BL       TEXT_SetFont
;;;1551                       TEXT_SetText(hItem,"Cutoff C3");
000060  a1e7              ADR      r1,|L3.1024|
000062  4630              MOV      r0,r6
000064  f7fffffe          BL       TEXT_SetText
                  |L3.104|
;;;1552                   }
;;;1553                   hItem = WM_GetDialogItem(hWincdc, ID_TEXT_63);
000068  4651              MOV      r1,r10
00006a  f8d90018          LDR      r0,[r9,#0x18]  ; hWincdc
00006e  f7fffffe          BL       WM_GetDialogItem
000072  4605              MOV      r5,r0
;;;1554                   sprintf(buf,"%.2f",buffer);
000074  4620              MOV      r0,r4
000076  f7fffffe          BL       __aeabi_f2d
00007a  ec410b10          VMOV     d0,r0,r1
00007e  a1e3              ADR      r1,|L3.1036|
000080  ec532b10          VMOV     r2,r3,d0
000084  4668              MOV      r0,sp
000086  f7fffffe          BL       __2sprintf
;;;1555                   TEXT_SetText(hItem,buf);
00008a  4669              MOV      r1,sp
00008c  4628              MOV      r0,r5
00008e  f7fffffe          BL       TEXT_SetText
;;;1556                   coffc_step = step3;
000092  f889800e          STRB     r8,[r9,#0xe]
                  |L3.150|
;;;1557               }
;;;1558           }break;
;;;1559       }
;;;1560   }
000096  b002              ADD      sp,sp,#8
000098  ecbd8b02          VPOP     {d8}
00009c  e8bd87f0          POP      {r4-r10,pc}
                  |L3.160|
0000a0  f899100b          LDRB     r1,[r9,#0xb]          ;1418  ; pow_step
0000a4  ed9f0adb          VLDR     s0,|L3.1044|
0000a8  f640036f          MOV      r3,#0x86f             ;1421
0000ac  1d1e              ADDS     r6,r3,#4              ;1430
0000ae  b3a9              CBZ      r1,|L3.284|
0000b0  f899100b          LDRB     r1,[r9,#0xb]          ;1434  ; pow_step
0000b4  2901              CMP      r1,#1                 ;1434
0000b6  d1ee              BNE      |L3.150|
0000b8  f8b21042          LDRH     r1,[r2,#0x42]         ;1435  ; Run_Control
0000bc  ee001a90          VMOV     s1,r1                 ;1435
0000c0  eef80a60          VCVT.F32.U32 s1,s1                 ;1435
0000c4  ee808a80          VDIV.F32 s16,s1,s0             ;1435
0000c8  4619              MOV      r1,r3                 ;1436
0000ca  f7fffffe          BL       WM_GetDialogItem
0000ce  4604              MOV      r4,r0                 ;1436
0000d0  7828              LDRB     r0,[r5,#0]            ;1437  ; lang
0000d2  2800              CMP      r0,#0                 ;1437
0000d4  d05e              BEQ      |L3.404|
0000d6  49c9              LDR      r1,|L3.1020|
0000d8  4620              MOV      r0,r4                 ;1442
0000da  f7fffffe          BL       TEXT_SetFont
0000de  a1ce              ADR      r1,|L3.1048|
0000e0  4620              MOV      r0,r4                 ;1443
0000e2  f7fffffe          BL       TEXT_SetText
                  |L3.230|
0000e6  4631              MOV      r1,r6                 ;1445
0000e8  f8d90018          LDR      r0,[r9,#0x18]         ;1445  ; hWincdc
0000ec  f7fffffe          BL       WM_GetDialogItem
0000f0  4604              MOV      r4,r0                 ;1445
0000f2  ee180a10          VMOV     r0,s16                ;1446
0000f6  f7fffffe          BL       __aeabi_f2d
0000fa  ec410b10          VMOV     d0,r0,r1              ;1446
0000fe  a1c3              ADR      r1,|L3.1036|
000100  ec532b10          VMOV     r2,r3,d0              ;1446
000104  4668              MOV      r0,sp                 ;1446
000106  f7fffffe          BL       __2sprintf
00010a  4669              MOV      r1,sp                 ;1447
00010c  4620              MOV      r0,r4                 ;1447
00010e  f7fffffe          BL       TEXT_SetText
000112  f889800b          STRB     r8,[r9,#0xb]          ;1448
                  |L3.278|
000116  e7be              B        |L3.150|
                  |L3.280|
000118  e045              B        |L3.422|
                  |L3.282|
00011a  e0c2              B        |L3.674|
                  |L3.284|
00011c  e000              B        |L3.288|
                  |L3.286|
00011e  e12a              B        |L3.886|
                  |L3.288|
000120  f8b21040          LDRH     r1,[r2,#0x40]         ;1420  ; Run_Control
000124  ee001a90          VMOV     s1,r1                 ;1420
000128  eef80a60          VCVT.F32.U32 s1,s1                 ;1420
00012c  ee808a80          VDIV.F32 s16,s1,s0             ;1420
000130  4619              MOV      r1,r3                 ;1421
000132  f7fffffe          BL       WM_GetDialogItem
000136  4604              MOV      r4,r0                 ;1421
000138  7828              LDRB     r0,[r5,#0]            ;1422  ; lang
00013a  b310              CBZ      r0,|L3.386|
00013c  49af              LDR      r1,|L3.1020|
00013e  4620              MOV      r0,r4                 ;1427
000140  f7fffffe          BL       TEXT_SetFont
000144  a1b7              ADR      r1,|L3.1060|
000146  4620              MOV      r0,r4                 ;1428
000148  f7fffffe          BL       TEXT_SetText
                  |L3.332|
00014c  4631              MOV      r1,r6                 ;1430
00014e  f8d90018          LDR      r0,[r9,#0x18]         ;1430  ; hWincdc
000152  e000              B        |L3.342|
                  |L3.340|
000154  e13e              B        |L3.980|
                  |L3.342|
000156  f7fffffe          BL       WM_GetDialogItem
00015a  4604              MOV      r4,r0                 ;1430
00015c  ee180a10          VMOV     r0,s16                ;1431
000160  f7fffffe          BL       __aeabi_f2d
000164  ec410b10          VMOV     d0,r0,r1              ;1431
000168  a1a8              ADR      r1,|L3.1036|
00016a  ec532b10          VMOV     r2,r3,d0              ;1431
00016e  4668              MOV      r0,sp                 ;1431
000170  f7fffffe          BL       __2sprintf
000174  4669              MOV      r1,sp                 ;1432
000176  4620              MOV      r0,r4                 ;1432
000178  f7fffffe          BL       TEXT_SetText
00017c  f889700b          STRB     r7,[r9,#0xb]          ;1433
000180  e789              B        |L3.150|
                  |L3.386|
000182  49ab              LDR      r1,|L3.1072|
000184  4620              MOV      r0,r4                 ;1424
000186  f7fffffe          BL       TEXT_SetFont
00018a  a1aa              ADR      r1,|L3.1076|
00018c  4620              MOV      r0,r4                 ;1425
00018e  f7fffffe          BL       TEXT_SetText
000192  e7db              B        |L3.332|
                  |L3.404|
000194  49a6              LDR      r1,|L3.1072|
000196  4620              MOV      r0,r4                 ;1439
000198  f7fffffe          BL       TEXT_SetFont
00019c  a1a9              ADR      r1,|L3.1092|
00019e  4620              MOV      r0,r4                 ;1440
0001a0  f7fffffe          BL       TEXT_SetText
0001a4  e79f              B        |L3.230|
                  |L3.422|
0001a6  f899100c          LDRB     r1,[r9,#0xc]          ;1454  ; cur_step
0001aa  ed9f0aaa          VLDR     s0,|L3.1108|
0001ae  f44f6307          MOV      r3,#0x870             ;1457
0001b2  1d1e              ADDS     r6,r3,#4              ;1466
0001b4  b399              CBZ      r1,|L3.542|
0001b6  f899100c          LDRB     r1,[r9,#0xc]          ;1470  ; cur_step
0001ba  2901              CMP      r1,#1                 ;1470
0001bc  d1ab              BNE      |L3.278|
0001be  f8b21048          LDRH     r1,[r2,#0x48]         ;1471  ; Run_Control
0001c2  ee001a90          VMOV     s1,r1                 ;1471
0001c6  eef80a60          VCVT.F32.U32 s1,s1                 ;1471
0001ca  ee808a80          VDIV.F32 s16,s1,s0             ;1471
0001ce  4619              MOV      r1,r3                 ;1472
0001d0  f7fffffe          BL       WM_GetDialogItem
0001d4  4604              MOV      r4,r0                 ;1472
0001d6  7828              LDRB     r0,[r5,#0]            ;1473  ; lang
0001d8  2800              CMP      r0,#0                 ;1473
0001da  d059              BEQ      |L3.656|
0001dc  4987              LDR      r1,|L3.1020|
0001de  4620              MOV      r0,r4                 ;1478
0001e0  f7fffffe          BL       TEXT_SetFont
0001e4  a19c              ADR      r1,|L3.1112|
0001e6  4620              MOV      r0,r4                 ;1479
0001e8  f7fffffe          BL       TEXT_SetText
                  |L3.492|
0001ec  4631              MOV      r1,r6                 ;1481
0001ee  f8d90018          LDR      r0,[r9,#0x18]         ;1481  ; hWincdc
0001f2  f7fffffe          BL       WM_GetDialogItem
0001f6  4604              MOV      r4,r0                 ;1481
0001f8  ee180a10          VMOV     r0,s16                ;1482
0001fc  f7fffffe          BL       __aeabi_f2d
000200  ec410b10          VMOV     d0,r0,r1              ;1482
000204  a181              ADR      r1,|L3.1036|
000206  ec532b10          VMOV     r2,r3,d0              ;1482
00020a  4668              MOV      r0,sp                 ;1482
00020c  f7fffffe          BL       __2sprintf
000210  4669              MOV      r1,sp                 ;1483
000212  4620              MOV      r0,r4                 ;1483
000214  f7fffffe          BL       TEXT_SetText
000218  f889800c          STRB     r8,[r9,#0xc]          ;1484
                  |L3.540|
00021c  e73b              B        |L3.150|
                  |L3.542|
00021e  e7ff              B        |L3.544|
                  |L3.544|
000220  f8b21046          LDRH     r1,[r2,#0x46]         ;1456  ; Run_Control
000224  ee001a90          VMOV     s1,r1                 ;1456
000228  eef80a60          VCVT.F32.U32 s1,s1                 ;1456
00022c  ee808a80          VDIV.F32 s16,s1,s0             ;1456
000230  4619              MOV      r1,r3                 ;1457
000232  f7fffffe          BL       WM_GetDialogItem
000236  4604              MOV      r4,r0                 ;1457
000238  7828              LDRB     r0,[r5,#0]            ;1458  ; lang
00023a  b300              CBZ      r0,|L3.638|
00023c  496f              LDR      r1,|L3.1020|
00023e  4620              MOV      r0,r4                 ;1463
000240  f7fffffe          BL       TEXT_SetFont
000244  a187              ADR      r1,|L3.1124|
000246  4620              MOV      r0,r4                 ;1464
000248  f7fffffe          BL       TEXT_SetText
                  |L3.588|
00024c  4631              MOV      r1,r6                 ;1466
00024e  f8d90018          LDR      r0,[r9,#0x18]         ;1466  ; hWincdc
000252  f7fffffe          BL       WM_GetDialogItem
000256  4604              MOV      r4,r0                 ;1466
000258  ee180a10          VMOV     r0,s16                ;1467
00025c  f7fffffe          BL       __aeabi_f2d
000260  ec410b10          VMOV     d0,r0,r1              ;1467
000264  a169              ADR      r1,|L3.1036|
000266  ec532b10          VMOV     r2,r3,d0              ;1467
00026a  4668              MOV      r0,sp                 ;1467
00026c  f7fffffe          BL       __2sprintf
000270  4669              MOV      r1,sp                 ;1468
000272  4620              MOV      r0,r4                 ;1468
000274  f7fffffe          BL       TEXT_SetText
000278  f889700c          STRB     r7,[r9,#0xc]          ;1469
00027c  e70b              B        |L3.150|
                  |L3.638|
00027e  496c              LDR      r1,|L3.1072|
000280  4620              MOV      r0,r4                 ;1460
000282  f7fffffe          BL       TEXT_SetFont
000286  a17a              ADR      r1,|L3.1136|
000288  4620              MOV      r0,r4                 ;1461
00028a  f7fffffe          BL       TEXT_SetText
00028e  e7dd              B        |L3.588|
                  |L3.656|
000290  4967              LDR      r1,|L3.1072|
000292  4620              MOV      r0,r4                 ;1475
000294  f7fffffe          BL       TEXT_SetFont
000298  a179              ADR      r1,|L3.1152|
00029a  4620              MOV      r0,r4                 ;1476
00029c  f7fffffe          BL       TEXT_SetText
0002a0  e7a4              B        |L3.492|
                  |L3.674|
0002a2  f899300d          LDRB     r3,[r9,#0xd]          ;1490  ; coffv_step
0002a6  f6400177          MOV      r1,#0x877             ;1493
0002aa  f6400a7b          MOV      r10,#0x87b            ;1502
0002ae  b353              CBZ      r3,|L3.774|
0002b0  f899300d          LDRB     r3,[r9,#0xd]          ;1506  ; coffv_step
0002b4  2b01              CMP      r3,#1                 ;1506
0002b6  d1b1              BNE      |L3.540|
0002b8  6894              LDR      r4,[r2,#8]            ;1507  ; coff
0002ba  f7fffffe          BL       WM_GetDialogItem
0002be  4606              MOV      r6,r0                 ;1508
0002c0  7828              LDRB     r0,[r5,#0]            ;1509  ; lang
0002c2  2800              CMP      r0,#0                 ;1509
0002c4  d04e              BEQ      |L3.868|
0002c6  494d              LDR      r1,|L3.1020|
0002c8  4630              MOV      r0,r6                 ;1514
0002ca  f7fffffe          BL       TEXT_SetFont
0002ce  a170              ADR      r1,|L3.1168|
0002d0  4630              MOV      r0,r6                 ;1515
0002d2  f7fffffe          BL       TEXT_SetText
                  |L3.726|
0002d6  4651              MOV      r1,r10                ;1517
0002d8  f8d90018          LDR      r0,[r9,#0x18]         ;1517  ; hWincdc
0002dc  f7fffffe          BL       WM_GetDialogItem
0002e0  4605              MOV      r5,r0                 ;1517
0002e2  4620              MOV      r0,r4                 ;1518
0002e4  f7fffffe          BL       __aeabi_f2d
0002e8  ec410b10          VMOV     d0,r0,r1              ;1518
0002ec  a147              ADR      r1,|L3.1036|
0002ee  ec532b10          VMOV     r2,r3,d0              ;1518
0002f2  4668              MOV      r0,sp                 ;1518
0002f4  f7fffffe          BL       __2sprintf
0002f8  4669              MOV      r1,sp                 ;1519
0002fa  4628              MOV      r0,r5                 ;1519
0002fc  f7fffffe          BL       TEXT_SetText
000300  f889800d          STRB     r8,[r9,#0xd]          ;1520
000304  e6c7              B        |L3.150|
                  |L3.774|
000306  6854              LDR      r4,[r2,#4]            ;1492  ; coff
000308  f7fffffe          BL       WM_GetDialogItem
00030c  4606              MOV      r6,r0                 ;1493
00030e  7828              LDRB     r0,[r5,#0]            ;1494  ; lang
000310  b1f8              CBZ      r0,|L3.850|
000312  493a              LDR      r1,|L3.1020|
000314  4630              MOV      r0,r6                 ;1499
000316  f7fffffe          BL       TEXT_SetFont
00031a  a160              ADR      r1,|L3.1180|
00031c  4630              MOV      r0,r6                 ;1500
00031e  f7fffffe          BL       TEXT_SetText
                  |L3.802|
000322  4651              MOV      r1,r10                ;1502
000324  f8d90018          LDR      r0,[r9,#0x18]         ;1502  ; hWincdc
000328  f7fffffe          BL       WM_GetDialogItem
00032c  4605              MOV      r5,r0                 ;1502
00032e  4620              MOV      r0,r4                 ;1503
000330  f7fffffe          BL       __aeabi_f2d
000334  ec410b10          VMOV     d0,r0,r1              ;1503
000338  a134              ADR      r1,|L3.1036|
00033a  ec532b10          VMOV     r2,r3,d0              ;1503
00033e  4668              MOV      r0,sp                 ;1503
000340  f7fffffe          BL       __2sprintf
000344  4669              MOV      r1,sp                 ;1504
000346  4628              MOV      r0,r5                 ;1504
000348  f7fffffe          BL       TEXT_SetText
00034c  f889700d          STRB     r7,[r9,#0xd]          ;1505
000350  e6a1              B        |L3.150|
                  |L3.850|
000352  4937              LDR      r1,|L3.1072|
000354  4630              MOV      r0,r6                 ;1496
000356  f7fffffe          BL       TEXT_SetFont
00035a  a153              ADR      r1,|L3.1192|
00035c  4630              MOV      r0,r6                 ;1497
00035e  f7fffffe          BL       TEXT_SetText
000362  e7de              B        |L3.802|
                  |L3.868|
000364  4932              LDR      r1,|L3.1072|
000366  4630              MOV      r0,r6                 ;1511
000368  f7fffffe          BL       TEXT_SetFont
00036c  a152              ADR      r1,|L3.1208|
00036e  4630              MOV      r0,r6                 ;1512
000370  f7fffffe          BL       TEXT_SetText
000374  e7af              B        |L3.726|
                  |L3.886|
000376  6914              LDR      r4,[r2,#0x10]         ;1528  ; coff
000378  f7fffffe          BL       WM_GetDialogItem
00037c  4606              MOV      r6,r0                 ;1529
00037e  7828              LDRB     r0,[r5,#0]            ;1530  ; lang
000380  b1f8              CBZ      r0,|L3.962|
000382  491e              LDR      r1,|L3.1020|
000384  4630              MOV      r0,r6                 ;1535
000386  f7fffffe          BL       TEXT_SetFont
00038a  a14f              ADR      r1,|L3.1224|
00038c  4630              MOV      r0,r6                 ;1536
00038e  f7fffffe          BL       TEXT_SetText
                  |L3.914|
000392  4651              MOV      r1,r10                ;1538
000394  f8d90018          LDR      r0,[r9,#0x18]         ;1538  ; hWincdc
000398  f7fffffe          BL       WM_GetDialogItem
00039c  4605              MOV      r5,r0                 ;1538
00039e  4620              MOV      r0,r4                 ;1539
0003a0  f7fffffe          BL       __aeabi_f2d
0003a4  ec410b10          VMOV     d0,r0,r1              ;1539
0003a8  a118              ADR      r1,|L3.1036|
0003aa  ec532b10          VMOV     r2,r3,d0              ;1539
0003ae  4668              MOV      r0,sp                 ;1539
0003b0  f7fffffe          BL       __2sprintf
0003b4  4669              MOV      r1,sp                 ;1540
0003b6  4628              MOV      r0,r5                 ;1540
0003b8  f7fffffe          BL       TEXT_SetText
0003bc  f889700e          STRB     r7,[r9,#0xe]          ;1541
0003c0  e669              B        |L3.150|
                  |L3.962|
0003c2  491b              LDR      r1,|L3.1072|
0003c4  4630              MOV      r0,r6                 ;1532
0003c6  f7fffffe          BL       TEXT_SetFont
0003ca  a142              ADR      r1,|L3.1236|
0003cc  4630              MOV      r0,r6                 ;1533
0003ce  f7fffffe          BL       TEXT_SetText
0003d2  e7de              B        |L3.914|
                  |L3.980|
0003d4  4916              LDR      r1,|L3.1072|
0003d6  4630              MOV      r0,r6                 ;1547
0003d8  f7fffffe          BL       TEXT_SetFont
0003dc  a141              ADR      r1,|L3.1252|
0003de  4630              MOV      r0,r6                 ;1548
0003e0  f7fffffe          BL       TEXT_SetText
0003e4  e640              B        |L3.104|
0003e6  0000              DCW      0x0000
                  |L3.1000|
                          DCD      set_sw
                  |L3.1004|
                          DCD      Run_Control
                  |L3.1008|
                          DCD      lang
                  |L3.1012|
                          DCD      ||.data||
                  |L3.1016|
                          DCD      ||.bss||
                  |L3.1020|
                          DCD      GUI_Font20_ASCII
                  |L3.1024|
000400  4375746f          DCB      "Cutoff C3",0
000404  66662043
000408  3300    
00040a  00                DCB      0
00040b  00                DCB      0
                  |L3.1036|
00040c  252e3266          DCB      "%.2f",0
000410  00      
000411  00                DCB      0
000412  00                DCB      0
000413  00                DCB      0
                  |L3.1044|
000414  42c80000          DCFS     0x42c80000 ; 100
                  |L3.1048|
000418  4f757470          DCB      "Output V3",0
00041c  75742056
000420  3300    
000422  00                DCB      0
000423  00                DCB      0
                  |L3.1060|
000424  4f757470          DCB      "Output V2",0
000428  75742056
00042c  3200    
00042e  00                DCB      0
00042f  00                DCB      0
                  |L3.1072|
                          DCD      GUI_Fontset_font
                  |L3.1076|
000434  e8be93e5          DCB      232,190,147,229,135,186,231,148,181,229,142,139,"2",0
000438  87bae794
00043c  b5e58e8b
000440  3200    
000442  00                DCB      0
000443  00                DCB      0
                  |L3.1092|
000444  e8be93e5          DCB      232,190,147,229,135,186,231,148,181,229,142,139,"3",0
000448  87bae794
00044c  b5e58e8b
000450  3300    
000452  00                DCB      0
000453  00                DCB      0
                  |L3.1108|
000454  447a0000          DCFS     0x447a0000 ; 1000
                  |L3.1112|
000458  4c696d69          DCB      "Limiting C3",0
00045c  74696e67
000460  20433300
                  |L3.1124|
000464  4c696d69          DCB      "Limiting C2",0
000468  74696e67
00046c  20433200
                  |L3.1136|
000470  e99990e5          DCB      233,153,144,229,136,182,231,148,181,230,181,129,"2",0
000474  88b6e794
000478  b5e6b581
00047c  3200    
00047e  00                DCB      0
00047f  00                DCB      0
                  |L3.1152|
000480  e99990e5          DCB      233,153,144,229,136,182,231,148,181,230,181,129,"3",0
000484  88b6e794
000488  b5e6b581
00048c  3300    
00048e  00                DCB      0
00048f  00                DCB      0
                  |L3.1168|
000490  4375746f          DCB      "Cutoff V3",0
000494  66662056
000498  3300    
00049a  00                DCB      0
00049b  00                DCB      0
                  |L3.1180|
00049c  4375746f          DCB      "Cutoff V2",0
0004a0  66662056
0004a4  3200    
0004a6  00                DCB      0
0004a7  00                DCB      0
                  |L3.1192|
0004a8  e688aae6          DCB      230,136,170,230,173,162,231,148,181,229,142,139,"2",0
0004ac  ada2e794
0004b0  b5e58e8b
0004b4  3200    
0004b6  00                DCB      0
0004b7  00                DCB      0
                  |L3.1208|
0004b8  e688aae6          DCB      230,136,170,230,173,162,231,148,181,229,142,139,"3",0
0004bc  ada2e794
0004c0  b5e58e8b
0004c4  3300    
0004c6  00                DCB      0
0004c7  00                DCB      0
                  |L3.1224|
0004c8  4375746f          DCB      "Cutoff C2",0
0004cc  66662043
0004d0  3200    
0004d2  00                DCB      0
0004d3  00                DCB      0
                  |L3.1236|
0004d4  e688aae6          DCB      230,136,170,230,173,162,231,148,181,230,181,129,"2",0
0004d8  ada2e794
0004dc  b5e6b581
0004e0  3200    
0004e2  00                DCB      0
0004e3  00                DCB      0
                  |L3.1252|
0004e4  e688aae6          DCB      230,136,170,230,173,162,231,148,181,230,181,129,"3",0
0004e8  ada2e794
0004ec  b5e6b581
0004f0  3300    
0004f2  00                DCB      0
0004f3  00                DCB      0
                          ENDP


                          AREA ||i.CDC_OP_UP||, CODE, READONLY, ALIGN=2

                  CDC_OP_UP PROC
;;;1122   void CDC_OP_UP(void);
;;;1123   void CDC_OP_UP(void)
000000  e92d5ff0          PUSH     {r4-r12,lr}
;;;1124   {
;;;1125       switch(set_sw)
000004  4d7d              LDR      r5,|L4.508|
000006  7829              LDRB     r1,[r5,#0]  ; set_sw
;;;1126       {
;;;1127           case set_26:
;;;1128           {
;;;1129               WM_HWIN hItem;
;;;1130   //            WM_InvalidateWindow(hWincdc);
;;;1131               hItem = WM_GetDialogItem(hWincdc, ID_TEXT_50);
000008  487d              LDR      r0,|L4.512|
00000a  3919              SUBS     r1,r1,#0x19           ;1125
00000c  f640076f          MOV      r7,#0x86f
000010  6982              LDR      r2,[r0,#0x18]         ;1125
;;;1132               TEXT_SetBkColor(hItem,GUI_INVALID_COLOR);//选项背景色设为透明
000012  f06f4670          MVN      r6,#0xf0000000
;;;1133               TEXT_SetTextColor(hItem, GUI_WHITE);
;;;1134                  
;;;1135               hItem = WM_GetDialogItem(hWincdc, ID_TEXT_53);
;;;1136               TEXT_SetBkColor(hItem,0x00BFFFFF);//选项背景色设为米色
;;;1137               TEXT_SetTextColor(hItem, GUI_BLACK);
;;;1138   
;;;1139               set_sw = set_37;
;;;1140               break;
;;;1141           }
;;;1142           case set_27:
;;;1143           {
;;;1144               WM_HWIN hItem;
;;;1145   //            WM_InvalidateWindow(hWincdc);
;;;1146               hItem = WM_GetDialogItem(hWincdc, ID_TEXT_51);
000016  f44f6807          MOV      r8,#0x870
;;;1147               TEXT_SetBkColor(hItem,GUI_INVALID_COLOR);//选项背景色设为透明
;;;1148               TEXT_SetTextColor(hItem, GUI_WHITE);
;;;1149                  
;;;1150               hItem = WM_GetDialogItem(hWincdc, ID_TEXT_50);
;;;1151               TEXT_SetBkColor(hItem,0x00BFFFFF);//选项背景色设为米色
;;;1152               TEXT_SetTextColor(hItem, GUI_BLACK);
;;;1153   
;;;1154               set_sw = set_26;
;;;1155               break;
;;;1156           }
;;;1157           case set_28:
;;;1158           {
;;;1159               WM_HWIN hItem;
;;;1160   //            WM_InvalidateWindow(hWincdc);
;;;1161               hItem = WM_GetDialogItem(hWincdc, ID_TEXT_58);
00001a  f6400977          MOV      r9,#0x877
;;;1162               TEXT_SetBkColor(hItem,GUI_INVALID_COLOR);//选项背景色设为透明
;;;1163               TEXT_SetTextColor(hItem, GUI_WHITE);
;;;1164                  
;;;1165               hItem = WM_GetDialogItem(hWincdc, ID_TEXT_51);
;;;1166               TEXT_SetBkColor(hItem,0x00BFFFFF);//选项背景色设为米色
;;;1167               TEXT_SetTextColor(hItem, GUI_BLACK);
;;;1168   
;;;1169               set_sw = set_27;
;;;1170               break;
;;;1171           }
;;;1172           case set_29:
;;;1173           {
;;;1174               WM_HWIN hItem;
;;;1175   //            WM_InvalidateWindow(hWincdc);
;;;1176               hItem = WM_GetDialogItem(hWincdc, ID_TEXT_59);
00001e  f6400a78          MOV      r10,#0x878
;;;1177               TEXT_SetBkColor(hItem,GUI_INVALID_COLOR);//选项背景色设为透明
;;;1178               TEXT_SetTextColor(hItem, GUI_WHITE);
;;;1179                  
;;;1180               hItem = WM_GetDialogItem(hWincdc, ID_TEXT_58);
;;;1181               TEXT_SetBkColor(hItem,0x00BFFFFF);//选项背景色设为米色
;;;1182               TEXT_SetTextColor(hItem, GUI_BLACK);
;;;1183   
;;;1184               set_sw = set_28;
;;;1185               break;
;;;1186           }
;;;1187           case set_34:
;;;1188           {
;;;1189               WM_HWIN hItem;
;;;1190   //            WM_InvalidateWindow(hWincdc);
;;;1191               hItem = WM_GetDialogItem(hWincdc, ID_TEXT_52);
000022  f6400b71          MOV      r11,#0x871
;;;1192               TEXT_SetBkColor(hItem,GUI_INVALID_COLOR);//选项背景色设为透明
;;;1193               TEXT_SetTextColor(hItem, GUI_WHITE);
;;;1194                  
;;;1195               hItem = WM_GetDialogItem(hWincdc, ID_TEXT_59);
;;;1196               TEXT_SetBkColor(hItem,0x00BFFFFF);//选项背景色设为米色
;;;1197               TEXT_SetTextColor(hItem, GUI_BLACK);
;;;1198   
;;;1199               set_sw = set_29;
;;;1200               break;
;;;1201           }
;;;1202           case set_35:
;;;1203           {
;;;1204               WM_HWIN hItem;
;;;1205   //            WM_InvalidateWindow(hWincdc);
;;;1206               hItem = WM_GetDialogItem(hWincdc, ID_TEXT_60);
000026  f6400479          MOV      r4,#0x879
00002a  290c              CMP      r1,#0xc               ;1125
00002c  d226              BCS      |L4.124|
00002e  e8dff001          TBB      [pc,r1]               ;1125
000032  0627              DCB      0x06,0x27
000034  47662525          DCB      0x47,0x66,0x25,0x25
000038  252585a4          DCB      0x25,0x25,0x85,0xa4
00003c  25c3              DCB      0x25,0xc3
00003e  4639              MOV      r1,r7                 ;1131
000040  4607              MOV      r7,r0                 ;1131
000042  4610              MOV      r0,r2                 ;1131
000044  f7fffffe          BL       WM_GetDialogItem
000048  4604              MOV      r4,r0                 ;1131
00004a  4631              MOV      r1,r6                 ;1132
00004c  4620              MOV      r0,r4                 ;1132
00004e  f7fffffe          BL       TEXT_SetBkColor
000052  f06f417f          MVN      r1,#0xff000000        ;1133
000056  4620              MOV      r0,r4                 ;1133
000058  f7fffffe          BL       TEXT_SetTextColor
00005c  f6400172          MOV      r1,#0x872             ;1135
000060  69b8              LDR      r0,[r7,#0x18]         ;1135  ; hWincdc
000062  f7fffffe          BL       WM_GetDialogItem
000066  4604              MOV      r4,r0                 ;1135
000068  4966              LDR      r1,|L4.516|
00006a  4620              MOV      r0,r4                 ;1136
00006c  f7fffffe          BL       TEXT_SetBkColor
000070  2100              MOVS     r1,#0                 ;1137
000072  4620              MOV      r0,r4                 ;1137
000074  f7fffffe          BL       TEXT_SetTextColor
000078  2024              MOVS     r0,#0x24              ;1139
00007a  7028              STRB     r0,[r5,#0]            ;1139
                  |L4.124|
;;;1207               TEXT_SetBkColor(hItem,GUI_INVALID_COLOR);//选项背景色设为透明
;;;1208               TEXT_SetTextColor(hItem, GUI_WHITE);
;;;1209                  
;;;1210               hItem = WM_GetDialogItem(hWincdc, ID_TEXT_52);
;;;1211               TEXT_SetBkColor(hItem,0x00BFFFFF);//选项背景色设为米色
;;;1212               TEXT_SetTextColor(hItem, GUI_BLACK);
;;;1213   
;;;1214               set_sw = set_34;
;;;1215               break;
;;;1216           }
;;;1217   //         case set_36:
;;;1218   //         {
;;;1219   //             WM_HWIN hItem;
;;;1220   //             WM_InvalidateWindow(hWincdc);
;;;1221   //             hItem = WM_GetDialogItem(hWincdc, ID_TEXT_61);
;;;1222   //             TEXT_SetBkColor(hItem,GUI_INVALID_COLOR);//选项背景色设为透明
;;;1223   //                
;;;1224   //             hItem = WM_GetDialogItem(hWincdc, ID_TEXT_60);
;;;1225   //             TEXT_SetBkColor(hItem,0x00BFFFFF);//选项背景色设为米色
;;;1226   
;;;1227   //             set_sw = set_35;
;;;1228   //             break;
;;;1229   //         }
;;;1230           case set_37:
;;;1231           {
;;;1232               WM_HWIN hItem;
;;;1233   //            WM_InvalidateWindow(hWincdc);
;;;1234               hItem = WM_GetDialogItem(hWincdc, ID_TEXT_53);
;;;1235               TEXT_SetBkColor(hItem,GUI_INVALID_COLOR);//选项背景色设为透明
;;;1236               TEXT_SetTextColor(hItem, GUI_WHITE);
;;;1237                  
;;;1238               hItem = WM_GetDialogItem(hWincdc, ID_TEXT_60);
;;;1239               TEXT_SetBkColor(hItem,0x00BFFFFF);//选项背景色设为米色
;;;1240               TEXT_SetTextColor(hItem, GUI_BLACK);
;;;1241   
;;;1242               set_sw = set_35;
;;;1243               break;
;;;1244           }
;;;1245           default: break;
;;;1246       }
;;;1247   }
00007c  e8bd9ff0          POP      {r4-r12,pc}
000080  4641              MOV      r1,r8                 ;1146
000082  4680              MOV      r8,r0                 ;1146
000084  4610              MOV      r0,r2                 ;1146
000086  f7fffffe          BL       WM_GetDialogItem
00008a  4604              MOV      r4,r0                 ;1146
00008c  4631              MOV      r1,r6                 ;1147
00008e  4620              MOV      r0,r4                 ;1147
000090  f7fffffe          BL       TEXT_SetBkColor
000094  f06f417f          MVN      r1,#0xff000000        ;1148
000098  4620              MOV      r0,r4                 ;1148
00009a  f7fffffe          BL       TEXT_SetTextColor
00009e  4639              MOV      r1,r7                 ;1150
0000a0  f8d80018          LDR      r0,[r8,#0x18]         ;1150  ; hWincdc
0000a4  f7fffffe          BL       WM_GetDialogItem
0000a8  4604              MOV      r4,r0                 ;1150
0000aa  4956              LDR      r1,|L4.516|
0000ac  4620              MOV      r0,r4                 ;1151
0000ae  f7fffffe          BL       TEXT_SetBkColor
0000b2  2100              MOVS     r1,#0                 ;1152
0000b4  4620              MOV      r0,r4                 ;1152
0000b6  f7fffffe          BL       TEXT_SetTextColor
0000ba  2019              MOVS     r0,#0x19              ;1154
0000bc  7028              STRB     r0,[r5,#0]            ;1154
0000be  e7dd              B        |L4.124|
0000c0  4607              MOV      r7,r0                 ;1161
0000c2  4649              MOV      r1,r9                 ;1161
0000c4  4610              MOV      r0,r2                 ;1161
0000c6  f7fffffe          BL       WM_GetDialogItem
0000ca  4604              MOV      r4,r0                 ;1161
0000cc  4631              MOV      r1,r6                 ;1162
0000ce  4620              MOV      r0,r4                 ;1162
0000d0  f7fffffe          BL       TEXT_SetBkColor
0000d4  f06f417f          MVN      r1,#0xff000000        ;1163
0000d8  4620              MOV      r0,r4                 ;1163
0000da  f7fffffe          BL       TEXT_SetTextColor
0000de  4641              MOV      r1,r8                 ;1165
0000e0  69b8              LDR      r0,[r7,#0x18]         ;1165  ; hWincdc
0000e2  f7fffffe          BL       WM_GetDialogItem
0000e6  4604              MOV      r4,r0                 ;1165
0000e8  4946              LDR      r1,|L4.516|
0000ea  4620              MOV      r0,r4                 ;1166
0000ec  f7fffffe          BL       TEXT_SetBkColor
0000f0  2100              MOVS     r1,#0                 ;1167
0000f2  4620              MOV      r0,r4                 ;1167
0000f4  f7fffffe          BL       TEXT_SetTextColor
0000f8  201a              MOVS     r0,#0x1a              ;1169
0000fa  7028              STRB     r0,[r5,#0]            ;1169
0000fc  e7be              B        |L4.124|
0000fe  4607              MOV      r7,r0                 ;1176
000100  4651              MOV      r1,r10                ;1176
000102  4610              MOV      r0,r2                 ;1176
000104  f7fffffe          BL       WM_GetDialogItem
000108  4604              MOV      r4,r0                 ;1176
00010a  4631              MOV      r1,r6                 ;1177
00010c  4620              MOV      r0,r4                 ;1177
00010e  f7fffffe          BL       TEXT_SetBkColor
000112  f06f417f          MVN      r1,#0xff000000        ;1178
000116  4620              MOV      r0,r4                 ;1178
000118  f7fffffe          BL       TEXT_SetTextColor
00011c  4649              MOV      r1,r9                 ;1180
00011e  69b8              LDR      r0,[r7,#0x18]         ;1180  ; hWincdc
000120  f7fffffe          BL       WM_GetDialogItem
000124  4604              MOV      r4,r0                 ;1180
000126  4937              LDR      r1,|L4.516|
000128  4620              MOV      r0,r4                 ;1181
00012a  f7fffffe          BL       TEXT_SetBkColor
00012e  2100              MOVS     r1,#0                 ;1182
000130  4620              MOV      r0,r4                 ;1182
000132  f7fffffe          BL       TEXT_SetTextColor
000136  201b              MOVS     r0,#0x1b              ;1184
000138  7028              STRB     r0,[r5,#0]            ;1184
00013a  e79f              B        |L4.124|
00013c  4607              MOV      r7,r0                 ;1191
00013e  4659              MOV      r1,r11                ;1191
000140  4610              MOV      r0,r2                 ;1191
000142  f7fffffe          BL       WM_GetDialogItem
000146  4604              MOV      r4,r0                 ;1191
000148  4631              MOV      r1,r6                 ;1192
00014a  4620              MOV      r0,r4                 ;1192
00014c  f7fffffe          BL       TEXT_SetBkColor
000150  f06f417f          MVN      r1,#0xff000000        ;1193
000154  4620              MOV      r0,r4                 ;1193
000156  f7fffffe          BL       TEXT_SetTextColor
00015a  4651              MOV      r1,r10                ;1195
00015c  69b8              LDR      r0,[r7,#0x18]         ;1195  ; hWincdc
00015e  f7fffffe          BL       WM_GetDialogItem
000162  4604              MOV      r4,r0                 ;1195
000164  4927              LDR      r1,|L4.516|
000166  4620              MOV      r0,r4                 ;1196
000168  f7fffffe          BL       TEXT_SetBkColor
00016c  2100              MOVS     r1,#0                 ;1197
00016e  4620              MOV      r0,r4                 ;1197
000170  f7fffffe          BL       TEXT_SetTextColor
000174  201c              MOVS     r0,#0x1c              ;1199
000176  7028              STRB     r0,[r5,#0]            ;1199
000178  e780              B        |L4.124|
00017a  4607              MOV      r7,r0                 ;1206
00017c  4621              MOV      r1,r4                 ;1206
00017e  4610              MOV      r0,r2                 ;1206
000180  f7fffffe          BL       WM_GetDialogItem
000184  4604              MOV      r4,r0                 ;1206
000186  4631              MOV      r1,r6                 ;1207
000188  4620              MOV      r0,r4                 ;1207
00018a  f7fffffe          BL       TEXT_SetBkColor
00018e  f06f417f          MVN      r1,#0xff000000        ;1208
000192  4620              MOV      r0,r4                 ;1208
000194  f7fffffe          BL       TEXT_SetTextColor
000198  4659              MOV      r1,r11                ;1210
00019a  69b8              LDR      r0,[r7,#0x18]         ;1210  ; hWincdc
00019c  f7fffffe          BL       WM_GetDialogItem
0001a0  4604              MOV      r4,r0                 ;1210
0001a2  4918              LDR      r1,|L4.516|
0001a4  4620              MOV      r0,r4                 ;1211
0001a6  f7fffffe          BL       TEXT_SetBkColor
0001aa  2100              MOVS     r1,#0                 ;1212
0001ac  4620              MOV      r0,r4                 ;1212
0001ae  f7fffffe          BL       TEXT_SetTextColor
0001b2  2021              MOVS     r0,#0x21              ;1214
0001b4  7028              STRB     r0,[r5,#0]            ;1214
0001b6  e761              B        |L4.124|
0001b8  4680              MOV      r8,r0                 ;1234
0001ba  f6400172          MOV      r1,#0x872             ;1234
0001be  4610              MOV      r0,r2                 ;1234
0001c0  f7fffffe          BL       WM_GetDialogItem
0001c4  4607              MOV      r7,r0                 ;1234
0001c6  4631              MOV      r1,r6                 ;1235
0001c8  4638              MOV      r0,r7                 ;1235
0001ca  f7fffffe          BL       TEXT_SetBkColor
0001ce  f06f417f          MVN      r1,#0xff000000        ;1236
0001d2  4638              MOV      r0,r7                 ;1236
0001d4  f7fffffe          BL       TEXT_SetTextColor
0001d8  4621              MOV      r1,r4                 ;1238
0001da  f8d80018          LDR      r0,[r8,#0x18]         ;1238  ; hWincdc
0001de  f7fffffe          BL       WM_GetDialogItem
0001e2  4604              MOV      r4,r0                 ;1238
0001e4  4907              LDR      r1,|L4.516|
0001e6  4620              MOV      r0,r4                 ;1239
0001e8  f7fffffe          BL       TEXT_SetBkColor
0001ec  2100              MOVS     r1,#0                 ;1240
0001ee  4620              MOV      r0,r4                 ;1240
0001f0  f7fffffe          BL       TEXT_SetTextColor
0001f4  2022              MOVS     r0,#0x22              ;1242
0001f6  7028              STRB     r0,[r5,#0]            ;1242
0001f8  e740              B        |L4.124|
;;;1248   
                          ENDP

0001fa  0000              DCW      0x0000
                  |L4.508|
                          DCD      set_sw
                  |L4.512|
                          DCD      ||.data||
                  |L4.516|
                          DCD      0x00bfffff

                          AREA ||i.CDC_SET||, CODE, READONLY, ALIGN=2

                          REQUIRE _printf_percent
                          REQUIRE _printf_widthprec
                          REQUIRE _printf_f
                          REQUIRE _printf_fp_dec
                  CDC_SET PROC
;;;1563   void CDC_SET(void);
;;;1564   void CDC_SET(void)
000000  e92d4ff0          PUSH     {r4-r11,lr}
;;;1565   {
000004  ed2d8b04          VPUSH    {d8-d9}
000008  b083              SUB      sp,sp,#0xc
;;;1566       vu8 i;
;;;1567       char buf[5];
;;;1568       
;;;1569       float dis_load_c;
;;;1570       float dis_output_v;
;;;1571       float dis_output_c;
;;;1572       float dis_c_cutoff_v = (float)set_c_cutoff_v/100;
00000a  48f8              LDR      r0,|L5.1004|
00000c  8e40              LDRH     r0,[r0,#0x32]  ; Run_Control
00000e  ee000a10          VMOV     s0,r0
000012  eeb80a40          VCVT.F32.U32 s0,s0
000016  eddf0af6          VLDR     s1,|L5.1008|
00001a  ee808a20          VDIV.F32 s16,s0,s1
;;;1573       float dis_c_cutoff_c = (float)set_c_cutoff_c/100;
00001e  48f3              LDR      r0,|L5.1004|
000020  8e80              LDRH     r0,[r0,#0x34]  ; Run_Control
000022  ee000a10          VMOV     s0,r0
000026  eeb80a40          VCVT.F32.U32 s0,s0
00002a  eddf0af1          VLDR     s1,|L5.1008|
00002e  eec08a20          VDIV.F32 s17,s0,s1
;;;1574       float dis_dc_cutoff_v = (float)set_dc_cutoff_v/100;
000032  48ee              LDR      r0,|L5.1004|
000034  8ec0              LDRH     r0,[r0,#0x36]  ; Run_Control
000036  ee000a10          VMOV     s0,r0
00003a  eeb80a40          VCVT.F32.U32 s0,s0
00003e  eddf0aec          VLDR     s1,|L5.1008|
000042  ee809a20          VDIV.F32 s18,s0,s1
;;;1575       float dis_dc_cutoff_c = (float)set_dc_cutoff_c/100;
000046  48e9              LDR      r0,|L5.1004|
000048  8f00              LDRH     r0,[r0,#0x38]  ; Run_Control
00004a  ee000a10          VMOV     s0,r0
00004e  eeb80a40          VCVT.F32.U32 s0,s0
000052  eddf0ae7          VLDR     s1,|L5.1008|
000056  eec09a20          VDIV.F32 s19,s0,s1
;;;1576       switch(set_sw)
00005a  48e6              LDR      r0,|L5.1012|
00005c  7801              LDRB     r1,[r0,#0]  ; set_sw
;;;1577       {
;;;1578           case set_26:
;;;1579           {
;;;1580               
;;;1581               WM_HWIN hItem;
;;;1582   //            WM_InvalidateWindow(hWincdc);
;;;1583               hItem = WM_GetDialogItem(hWincdc, ID_TEXT_50);
00005e  48e9              LDR      r0,|L5.1028|
000060  3919              SUBS     r1,r1,#0x19           ;1576
;;;1584               TEXT_SetBkColor(hItem,GUI_INVALID_COLOR);//选项背景色设为透明
;;;1585               TEXT_SetTextColor(hItem, GUI_WHITE);
;;;1586                  
;;;1587               hItem = WM_GetDialogItem(hWincdc, ID_TEXT_54);
;;;1588               TEXT_SetBkColor(hItem,0x00BFFFFF);//选项背景色设为米色
;;;1589               TEXT_SetTextColor(hItem, GUI_BLACK);
;;;1590               for(i=0;i<5;i++)
;;;1591               {
;;;1592                   set_limit[i] = '\0';
;;;1593               }
;;;1594               
;;;1595               set_sw = set_30;
;;;1596               bit = 1;
000062  2401              MOVS     r4,#1
000064  4de4              LDR      r5,|L5.1016|
;;;1597               break;
;;;1598           }
;;;1599           case set_30:
;;;1600           {
;;;1601               WM_HWIN hItem;
;;;1602   //            WM_InvalidateWindow(hWincdc);
;;;1603               hItem = WM_GetDialogItem(hWincdc, ID_TEXT_54);
;;;1604               TEXT_SetBkColor(hItem,GUI_INVALID_COLOR);//选项背景色设为透明
;;;1605               TEXT_SetTextColor(hItem, GUI_WHITE);
;;;1606               if(pow_step == step1)
;;;1607               {
;;;1608                   SET_Voltage = opv1;
;;;1609               }else if(pow_step == step2){
;;;1610                   SET_Voltage = opv2;
;;;1611               }else if(pow_step == step3){
;;;1612                   SET_Voltage = opv3;
;;;1613               }
;;;1614   //            SET_Voltage = opv1;
;;;1615               dis_output_v = (float)SET_Voltage/100;
;;;1616               sprintf(buf,"%.2f",dis_output_v);
;;;1617               TEXT_SetText(hItem,buf);
;;;1618               
;;;1619               
;;;1620               hItem = WM_GetDialogItem(hWincdc, ID_TEXT_50);
;;;1621               TEXT_SetBkColor(hItem,0x00BFFFFF);//选项背景色设为米色
;;;1622               TEXT_SetTextColor(hItem, GUI_BLACK);
;;;1623   
;;;1624               set_sw = set_26;
;;;1625               bit = 1;
;;;1626               dot_flag = 0;
000066  4ee5              LDR      r6,|L5.1020|
;;;1627               Write_Limits();
;;;1628               break;
;;;1629           }
;;;1630           case set_27:
;;;1631           {
;;;1632               WM_HWIN hItem;
;;;1633   //            WM_InvalidateWindow(hWincdc);
;;;1634               hItem = WM_GetDialogItem(hWincdc, ID_TEXT_51);
;;;1635               TEXT_SetBkColor(hItem,GUI_INVALID_COLOR);//选项背景色设为透明
;;;1636               TEXT_SetTextColor(hItem, GUI_WHITE);
;;;1637               for(i=0;i<5;i++)
;;;1638               {
;;;1639                   set_limit[i] = '\0';
;;;1640               }
;;;1641               
;;;1642               hItem = WM_GetDialogItem(hWincdc, ID_TEXT_55);
;;;1643               TEXT_SetBkColor(hItem,0x00BFFFFF);//选项背景色设为米色
;;;1644               TEXT_SetTextColor(hItem, GUI_BLACK);
;;;1645   
;;;1646               set_sw = set_31;
;;;1647               break;
;;;1648           }
;;;1649           case set_31:
;;;1650           {
;;;1651               WM_HWIN hItem;
;;;1652   //            WM_InvalidateWindow(hWincdc);
;;;1653               hItem = WM_GetDialogItem(hWincdc, ID_TEXT_55);
;;;1654               TEXT_SetBkColor(hItem,GUI_INVALID_COLOR);//选项背景色设为透明
;;;1655               TEXT_SetTextColor(hItem, GUI_WHITE);
;;;1656               if(cur_step == step1)
;;;1657               {
;;;1658                   SET_Current = opc1;
;;;1659               }else if(cur_step == step2){
;;;1660                   SET_Current = opc2;
;;;1661               }else if(cur_step == step3){
;;;1662                   SET_Current = opc3;
;;;1663               }
;;;1664   //            SET_Current = cdc_cc;
;;;1665               if(SET_Current > 5000)
;;;1666               {
;;;1667                   SET_Current = 5000;               
;;;1668               }
;;;1669               dis_output_c = (float)SET_Current/1000;
;;;1670               sprintf(buf,"%.2f",dis_output_c);
;;;1671               TEXT_SetText(hItem,buf);
;;;1672               
;;;1673               
;;;1674               
;;;1675               hItem = WM_GetDialogItem(hWincdc, ID_TEXT_51);
;;;1676               TEXT_SetBkColor(hItem,0x00BFFFFF);//选项背景色设为米色
;;;1677               TEXT_SetTextColor(hItem, GUI_BLACK);
;;;1678   
;;;1679               set_sw = set_27;
;;;1680               bit = 1;
;;;1681               dot_flag = 0;
;;;1682               Write_Limits();
;;;1683               break;
;;;1684           }
;;;1685           case set_28:
;;;1686           {
;;;1687               WM_HWIN hItem;
;;;1688   //            WM_InvalidateWindow(hWincdc);
;;;1689               hItem = WM_GetDialogItem(hWincdc, ID_TEXT_58);
;;;1690               TEXT_SetBkColor(hItem,GUI_INVALID_COLOR);//选项背景色设为透明
;;;1691               TEXT_SetTextColor(hItem, GUI_WHITE);
;;;1692               for(i=0;i<5;i++)
;;;1693               {
;;;1694                   set_limit[i] = '\0';
;;;1695               }
;;;1696                  
;;;1697               hItem = WM_GetDialogItem(hWincdc, ID_TEXT_62);
;;;1698               TEXT_SetBkColor(hItem,0x00BFFFFF);//选项背景色设为米色
;;;1699               TEXT_SetTextColor(hItem, GUI_BLACK);
;;;1700   
;;;1701               set_sw = set_38;
;;;1702               break;
;;;1703           }
;;;1704           case set_38:
;;;1705           {
;;;1706               WM_HWIN hItem;
;;;1707   //            WM_InvalidateWindow(hWincdc);
;;;1708               hItem = WM_GetDialogItem(hWincdc, ID_TEXT_62);
;;;1709               TEXT_SetBkColor(hItem,GUI_INVALID_COLOR);//选项背景色设为透明
;;;1710               TEXT_SetTextColor(hItem, GUI_WHITE);
;;;1711               
;;;1712               sprintf(buf,"%.2f",dis_c_cutoff_v);
;;;1713               TEXT_SetText(hItem,buf);
;;;1714               if(coffv_step == step1)
;;;1715               {
;;;1716                   cov1 = dis_c_cutoff_v;
000068  4fe5              LDR      r7,|L5.1024|
00006a  6980              LDR      r0,[r0,#0x18]         ;1583
00006c  f640096f          MOV      r9,#0x86f             ;1583
000070  f6400a73          MOV      r10,#0x873            ;1587
000074  f44f6b07          MOV      r11,#0x870            ;1634
;;;1717               }else if(coffv_step == step2){
;;;1718                   cov2 = dis_c_cutoff_v;
;;;1719               }else if(coffv_step == step3){
;;;1720                   cov3 = dis_c_cutoff_v;
;;;1721               }
;;;1722               
;;;1723               hItem = WM_GetDialogItem(hWincdc, ID_TEXT_58);
;;;1724               TEXT_SetBkColor(hItem,0x00BFFFFF);//选项背景色设为米色
;;;1725               TEXT_SetTextColor(hItem, GUI_BLACK);
;;;1726   
;;;1727               set_sw = set_28;
;;;1728               bit = 1;
;;;1729               dot_flag = 0;
;;;1730               break;
;;;1731           }
;;;1732           case set_29:
;;;1733           {
;;;1734               WM_HWIN hItem;
;;;1735   //            WM_InvalidateWindow(hWincdc);
;;;1736               hItem = WM_GetDialogItem(hWincdc, ID_TEXT_59);
;;;1737               TEXT_SetBkColor(hItem,GUI_INVALID_COLOR);//选项背景色设为透明
;;;1738               TEXT_SetTextColor(hItem, GUI_WHITE);
;;;1739               for(i=0;i<5;i++)
;;;1740               {
;;;1741                   set_limit[i] = '\0';
;;;1742               }
;;;1743                  
;;;1744               hItem = WM_GetDialogItem(hWincdc, ID_TEXT_63);
;;;1745               TEXT_SetBkColor(hItem,0x00BFFFFF);//选项背景色设为米色
;;;1746               TEXT_SetTextColor(hItem, GUI_BLACK);
;;;1747   
;;;1748               set_sw = set_39;
;;;1749               break;
;;;1750           }
;;;1751           case set_39:
;;;1752           {
;;;1753               WM_HWIN hItem;
;;;1754   //            WM_InvalidateWindow(hWincdc);
;;;1755               hItem = WM_GetDialogItem(hWincdc, ID_TEXT_63);
;;;1756               TEXT_SetBkColor(hItem,GUI_INVALID_COLOR);//选项背景色设为透明
;;;1757               TEXT_SetTextColor(hItem, GUI_WHITE);
;;;1758               
;;;1759               sprintf(buf,"%.2f",dis_c_cutoff_c);
;;;1760               TEXT_SetText(hItem,buf);
;;;1761               if(coffc_step == step1)
;;;1762               {
;;;1763                   coc1 = dis_c_cutoff_c;
;;;1764               }else if(coffc_step == step2){
;;;1765                   coc2 = dis_c_cutoff_c;
;;;1766               }else if(coffc_step == step3){
;;;1767                   coc3 = dis_c_cutoff_c;
;;;1768               }   
;;;1769               hItem = WM_GetDialogItem(hWincdc, ID_TEXT_59);
;;;1770               TEXT_SetBkColor(hItem,0x00BFFFFF);//选项背景色设为米色
;;;1771               TEXT_SetTextColor(hItem, GUI_BLACK);
;;;1772   
;;;1773               set_sw = set_29;
;;;1774               bit = 1;
;;;1775               dot_flag = 0;
;;;1776               break;
;;;1777           }
;;;1778           case set_35:
;;;1779           {
;;;1780               WM_HWIN hItem;
;;;1781   //            WM_InvalidateWindow(hWincdc);
;;;1782               hItem = WM_GetDialogItem(hWincdc, ID_TEXT_60);
000078  f6400879          MOV      r8,#0x879
00007c  2910              CMP      r1,#0x10              ;1576
00007e  d232              BCS      |L5.230|
000080  e8dff001          TBB      [pc,r1]               ;1576
000084  0890fdfc          DCB      0x08,0x90,0xfd,0xfc
000088  36bafbfa          DCB      0x36,0xba,0xfb,0xfa
00008c  f9f8f7f6          DCB      0xf9,0xf8,0xf7,0xf6
000090  f5f4f3f2          DCB      0xf5,0xf4,0xf3,0xf2
000094  4649              MOV      r1,r9                 ;1583
000096  4fdb              LDR      r7,|L5.1028|
000098  f7fffffe          BL       WM_GetDialogItem
00009c  4606              MOV      r6,r0                 ;1583
00009e  f06f4170          MVN      r1,#0xf0000000        ;1584
0000a2  4630              MOV      r0,r6                 ;1584
0000a4  f7fffffe          BL       TEXT_SetBkColor
0000a8  f06f417f          MVN      r1,#0xff000000        ;1585
0000ac  4630              MOV      r0,r6                 ;1585
0000ae  f7fffffe          BL       TEXT_SetTextColor
0000b2  4651              MOV      r1,r10                ;1587
0000b4  69b8              LDR      r0,[r7,#0x18]         ;1587  ; hWincdc
0000b6  f7fffffe          BL       WM_GetDialogItem
0000ba  4606              MOV      r6,r0                 ;1587
0000bc  49d2              LDR      r1,|L5.1032|
0000be  4630              MOV      r0,r6                 ;1588
0000c0  f7fffffe          BL       TEXT_SetBkColor
0000c4  2100              MOVS     r1,#0                 ;1589
0000c6  4630              MOV      r0,r6                 ;1589
0000c8  f7fffffe          BL       TEXT_SetTextColor
0000cc  2000              MOVS     r0,#0                 ;1590
0000ce  4acf              LDR      r2,|L5.1036|
0000d0  2100              MOVS     r1,#0                 ;1589
0000d2  e002              B        |L5.218|
                  |L5.212|
0000d4  5411              STRB     r1,[r2,r0]            ;1592
0000d6  1c40              ADDS     r0,r0,#1              ;1590
0000d8  b2c0              UXTB     r0,r0                 ;1590
                  |L5.218|
0000da  2805              CMP      r0,#5                 ;1590
0000dc  d3fa              BCC      |L5.212|
0000de  49c5              LDR      r1,|L5.1012|
0000e0  201d              MOVS     r0,#0x1d              ;1595
0000e2  7008              STRB     r0,[r1,#0]            ;1595
0000e4  702c              STRB     r4,[r5,#0]            ;1596
                  |L5.230|
;;;1783               TEXT_SetBkColor(hItem,GUI_INVALID_COLOR);//选项背景色设为透明
;;;1784               TEXT_SetTextColor(hItem, GUI_WHITE);
;;;1785               for(i=0;i<5;i++)
;;;1786               {
;;;1787                   set_limit[i] = '\0';
;;;1788               }
;;;1789                  
;;;1790               hItem = WM_GetDialogItem(hWincdc, ID_TEXT_64);
;;;1791               TEXT_SetBkColor(hItem,0x00BFFFFF);//选项背景色设为米色
;;;1792               TEXT_SetTextColor(hItem, GUI_BLACK);
;;;1793   
;;;1794               set_sw = set_40;
;;;1795               break;
;;;1796           }
;;;1797           case set_40:
;;;1798           {
;;;1799               WM_HWIN hItem;
;;;1800   //            WM_InvalidateWindow(hWincdc);
;;;1801               hItem = WM_GetDialogItem(hWincdc, ID_TEXT_64);
;;;1802               TEXT_SetBkColor(hItem,GUI_INVALID_COLOR);//选项背景色设为透明
;;;1803               TEXT_SetTextColor(hItem, GUI_WHITE);
;;;1804               
;;;1805               sprintf(buf,"%.2f",dis_dc_cutoff_v);
;;;1806               TEXT_SetText(hItem,buf);
;;;1807                  
;;;1808               hItem = WM_GetDialogItem(hWincdc, ID_TEXT_60);
;;;1809               TEXT_SetBkColor(hItem,0x00BFFFFF);//选项背景色设为米色
;;;1810               TEXT_SetTextColor(hItem, GUI_BLACK);
;;;1811   
;;;1812               set_sw = set_35;
;;;1813               bit = 1;
;;;1814               dot_flag = 0;
;;;1815               break;
;;;1816           }
;;;1817           case set_36:
;;;1818           {
;;;1819               WM_HWIN hItem;
;;;1820   //            WM_InvalidateWindow(hWincdc);
;;;1821               hItem = WM_GetDialogItem(hWincdc, ID_TEXT_61);
;;;1822               TEXT_SetBkColor(hItem,GUI_INVALID_COLOR);//选项背景色设为透明
;;;1823               TEXT_SetTextColor(hItem, GUI_WHITE);
;;;1824               for(i=0;i<5;i++)
;;;1825               {
;;;1826                   set_limit[i] = '\0';
;;;1827               }
;;;1828                  
;;;1829               hItem = WM_GetDialogItem(hWincdc, ID_TEXT_65);
;;;1830               TEXT_SetBkColor(hItem,0x00BFFFFF);//选项背景色设为米色
;;;1831               TEXT_SetTextColor(hItem, GUI_BLACK);
;;;1832   
;;;1833               set_sw = set_41;
;;;1834               break;
;;;1835           }
;;;1836           case set_41:
;;;1837           {
;;;1838               WM_HWIN hItem;
;;;1839   //            WM_InvalidateWindow(hWincdc);
;;;1840               hItem = WM_GetDialogItem(hWincdc, ID_TEXT_65);
;;;1841               TEXT_SetBkColor(hItem,GUI_INVALID_COLOR);//选项背景色设为透明
;;;1842               TEXT_SetTextColor(hItem, GUI_WHITE);
;;;1843               
;;;1844               sprintf(buf,"%.2f",dis_dc_cutoff_c);
;;;1845               TEXT_SetText(hItem,buf);
;;;1846                  
;;;1847               hItem = WM_GetDialogItem(hWincdc, ID_TEXT_61);
;;;1848               TEXT_SetBkColor(hItem,0x00BFFFFF);//选项背景色设为米色
;;;1849               TEXT_SetTextColor(hItem, GUI_BLACK);
;;;1850   
;;;1851               set_sw = set_36;
;;;1852               bit = 1;
;;;1853               dot_flag = 0;
;;;1854               break;
;;;1855           }
;;;1856           case set_34:
;;;1857           {
;;;1858               WM_HWIN hItem;
;;;1859   //            WM_InvalidateWindow(hWincdc);
;;;1860               hItem = WM_GetDialogItem(hWincdc, ID_TEXT_52);
;;;1861               TEXT_SetBkColor(hItem,GUI_INVALID_COLOR);//选项背景色设为透明
;;;1862               TEXT_SetTextColor(hItem, GUI_WHITE);
;;;1863               for(i=0;i<5;i++)
;;;1864               {
;;;1865                   set_limit[i] = '\0';
;;;1866               }
;;;1867                  
;;;1868               hItem = WM_GetDialogItem(hWincdc, ID_TEXT_56);
;;;1869               TEXT_SetBkColor(hItem,0x00BFFFFF);//选项背景色设为米色
;;;1870               TEXT_SetTextColor(hItem, GUI_BLACK);
;;;1871   
;;;1872               set_sw = set_32;
;;;1873               break;
;;;1874           }
;;;1875           case set_32:
;;;1876           {
;;;1877               WM_HWIN hItem;
;;;1878   //            WM_InvalidateWindow(hWincdc);
;;;1879               hItem = WM_GetDialogItem(hWincdc, ID_TEXT_56);
;;;1880               TEXT_SetBkColor(hItem,GUI_INVALID_COLOR);//选项背景色设为透明
;;;1881               TEXT_SetTextColor(hItem, GUI_WHITE);
;;;1882               SET_Current_Laod = cdc_dc;
;;;1883               if(SET_Current_Laod > 1500){
;;;1884                   SET_Current_Laod = 0;
;;;1885               }
;;;1886               dis_load_c = (float)SET_Current_Laod/100;
;;;1887               sprintf(buf,"%.2f",dis_load_c);
;;;1888               TEXT_SetText(hItem,buf);
;;;1889                  
;;;1890               hItem = WM_GetDialogItem(hWincdc, ID_TEXT_52);
;;;1891               TEXT_SetBkColor(hItem,0x00BFFFFF);//选项背景色设为米色
;;;1892               TEXT_SetTextColor(hItem, GUI_BLACK);
;;;1893               
;;;1894               set_sw = set_34;
;;;1895               bit = 1;
;;;1896               dot_flag = 0;
;;;1897               Write_Limits();
;;;1898               break;
;;;1899           }
;;;1900           case set_37:
;;;1901           {
;;;1902               WM_HWIN hItem;
;;;1903   //            WM_InvalidateWindow(hWincdc);
;;;1904               hItem = WM_GetDialogItem(hWincdc, ID_TEXT_53);
;;;1905               TEXT_SetBkColor(hItem,GUI_INVALID_COLOR);//选项背景色设为透明
;;;1906               TEXT_SetTextColor(hItem, GUI_WHITE);
;;;1907                  
;;;1908               hItem = WM_GetDialogItem(hWincdc, ID_TEXT_57);
;;;1909               TEXT_SetBkColor(hItem,0x00BFFFFF);//选项背景色设为米色
;;;1910               TEXT_SetTextColor(hItem, GUI_BLACK);
;;;1911   
;;;1912               set_sw = set_33;
;;;1913               break;
;;;1914           }
;;;1915           case set_33:
;;;1916           {
;;;1917               WM_HWIN hItem;
;;;1918   //            WM_InvalidateWindow(hWincdc);
;;;1919               hItem = WM_GetDialogItem(hWincdc, ID_TEXT_57);
;;;1920               TEXT_SetBkColor(hItem,GUI_INVALID_COLOR);//选项背景色设为透明
;;;1921               TEXT_SetTextColor(hItem, GUI_WHITE);
;;;1922                  
;;;1923               hItem = WM_GetDialogItem(hWincdc, ID_TEXT_53);
;;;1924               TEXT_SetBkColor(hItem,0x00BFFFFF);//选项背景色设为米色
;;;1925               TEXT_SetTextColor(hItem, GUI_BLACK);
;;;1926   
;;;1927               set_sw = set_37;
;;;1928               bit = 1;
;;;1929               dot_flag = 0;
;;;1930               break;
;;;1931           }        
;;;1932           default: break;
;;;1933       }
;;;1934   }
0000e6  b003              ADD      sp,sp,#0xc
0000e8  ecbd8b04          VPOP     {d8-d9}
0000ec  e8bd8ff0          POP      {r4-r11,pc}
0000f0  4651              MOV      r1,r10                ;1603
0000f2  f8df8310          LDR      r8,|L5.1028|
0000f6  f7fffffe          BL       WM_GetDialogItem
0000fa  4607              MOV      r7,r0                 ;1603
0000fc  f06f4170          MVN      r1,#0xf0000000        ;1604
000100  4638              MOV      r0,r7                 ;1604
000102  f7fffffe          BL       TEXT_SetBkColor
000106  f06f417f          MVN      r1,#0xff000000        ;1605
00010a  4638              MOV      r0,r7                 ;1605
00010c  f7fffffe          BL       TEXT_SetTextColor
000110  f898000b          LDRB     r0,[r8,#0xb]          ;1606  ; pow_step
000114  b140              CBZ      r0,|L5.296|
000116  f898000b          LDRB     r0,[r8,#0xb]          ;1609  ; pow_step
00011a  2801              CMP      r0,#1                 ;1609
00011c  d008              BEQ      |L5.304|
00011e  f898000b          LDRB     r0,[r8,#0xb]          ;1611  ; pow_step
000122  2802              CMP      r0,#2                 ;1611
000124  d009              BEQ      |L5.314|
000126  e00c              B        |L5.322|
                  |L5.296|
000128  48b0              LDR      r0,|L5.1004|
00012a  8fc1              LDRH     r1,[r0,#0x3e]         ;1608  ; Run_Control
00012c  8041              STRH     r1,[r0,#2]            ;1608
00012e  e008              B        |L5.322|
                  |L5.304|
000130  48ae              LDR      r0,|L5.1004|
000132  f8b01040          LDRH     r1,[r0,#0x40]         ;1610  ; Run_Control
000136  8041              STRH     r1,[r0,#2]            ;1610
000138  e003              B        |L5.322|
                  |L5.314|
00013a  48ac              LDR      r0,|L5.1004|
00013c  f8b01042          LDRH     r1,[r0,#0x42]         ;1612  ; Run_Control
000140  8041              STRH     r1,[r0,#2]            ;1612
                  |L5.322|
000142  48aa              LDR      r0,|L5.1004|
000144  8840              LDRH     r0,[r0,#2]            ;1615  ; Run_Control
000146  ee000a10          VMOV     s0,r0                 ;1615
00014a  eef80a40          VCVT.F32.U32 s1,s0                 ;1615
00014e  ed9f1aa8          VLDR     s2,|L5.1008|
000152  ee800a81          VDIV.F32 s0,s1,s2              ;1615
000156  ee100a10          VMOV     r0,s0                 ;1616
00015a  f7fffffe          BL       __aeabi_f2d
00015e  ec410b10          VMOV     d0,r0,r1              ;1616
000162  a1ab              ADR      r1,|L5.1040|
000164  ec532b10          VMOV     r2,r3,d0              ;1616
000168  a801              ADD      r0,sp,#4              ;1616
00016a  f7fffffe          BL       __2sprintf
00016e  a901              ADD      r1,sp,#4              ;1617
000170  4638              MOV      r0,r7                 ;1617
000172  f7fffffe          BL       TEXT_SetText
000176  4649              MOV      r1,r9                 ;1620
000178  f8d80018          LDR      r0,[r8,#0x18]         ;1620  ; hWincdc
00017c  f7fffffe          BL       WM_GetDialogItem
000180  4607              MOV      r7,r0                 ;1620
000182  49a1              LDR      r1,|L5.1032|
000184  4638              MOV      r0,r7                 ;1621
000186  f7fffffe          BL       TEXT_SetBkColor
00018a  2100              MOVS     r1,#0                 ;1622
00018c  4638              MOV      r0,r7                 ;1622
00018e  f7fffffe          BL       TEXT_SetTextColor
000192  4998              LDR      r1,|L5.1012|
000194  2019              MOVS     r0,#0x19              ;1624
000196  7008              STRB     r0,[r1,#0]            ;1624
000198  702c              STRB     r4,[r5,#0]            ;1625
00019a  2000              MOVS     r0,#0                 ;1626
00019c  7030              STRB     r0,[r6,#0]            ;1626
00019e  f7fffffe          BL       Write_Limits
0001a2  e7a0              B        |L5.230|
0001a4  4659              MOV      r1,r11                ;1634
0001a6  4d97              LDR      r5,|L5.1028|
0001a8  f7fffffe          BL       WM_GetDialogItem
0001ac  4604              MOV      r4,r0                 ;1634
0001ae  f06f4170          MVN      r1,#0xf0000000        ;1635
0001b2  4620              MOV      r0,r4                 ;1635
0001b4  f7fffffe          BL       TEXT_SetBkColor
0001b8  f06f417f          MVN      r1,#0xff000000        ;1636
0001bc  4620              MOV      r0,r4                 ;1636
0001be  f7fffffe          BL       TEXT_SetTextColor
0001c2  2000              MOVS     r0,#0                 ;1637
0001c4  4991              LDR      r1,|L5.1036|
0001c6  2200              MOVS     r2,#0                 ;1589
0001c8  e002              B        |L5.464|
                  |L5.458|
0001ca  540a              STRB     r2,[r1,r0]            ;1639
0001cc  1c40              ADDS     r0,r0,#1              ;1637
0001ce  b2c0              UXTB     r0,r0                 ;1637
                  |L5.464|
0001d0  2805              CMP      r0,#5                 ;1637
0001d2  d3fa              BCC      |L5.458|
0001d4  f6400174          MOV      r1,#0x874             ;1642
0001d8  69a8              LDR      r0,[r5,#0x18]         ;1642  ; hWincdc
0001da  f7fffffe          BL       WM_GetDialogItem
0001de  4604              MOV      r4,r0                 ;1642
0001e0  4989              LDR      r1,|L5.1032|
0001e2  4620              MOV      r0,r4                 ;1643
0001e4  f7fffffe          BL       TEXT_SetBkColor
0001e8  2100              MOVS     r1,#0                 ;1644
0001ea  4620              MOV      r0,r4                 ;1644
0001ec  f7fffffe          BL       TEXT_SetTextColor
0001f0  4980              LDR      r1,|L5.1012|
0001f2  201e              MOVS     r0,#0x1e              ;1646
0001f4  7008              STRB     r0,[r1,#0]            ;1646
0001f6  e776              B        |L5.230|
0001f8  f6400174          MOV      r1,#0x874             ;1653
0001fc  f8df8204          LDR      r8,|L5.1028|
000200  f7fffffe          BL       WM_GetDialogItem
000204  4607              MOV      r7,r0                 ;1653
000206  f06f4170          MVN      r1,#0xf0000000        ;1654
00020a  4638              MOV      r0,r7                 ;1654
00020c  f7fffffe          BL       TEXT_SetBkColor
000210  f06f417f          MVN      r1,#0xff000000        ;1655
000214  4638              MOV      r0,r7                 ;1655
000216  f7fffffe          BL       TEXT_SetTextColor
00021a  f898000c          LDRB     r0,[r8,#0xc]          ;1656  ; cur_step
00021e  b140              CBZ      r0,|L5.562|
000220  f898000c          LDRB     r0,[r8,#0xc]          ;1659  ; cur_step
000224  2801              CMP      r0,#1                 ;1659
000226  d009              BEQ      |L5.572|
000228  f898000c          LDRB     r0,[r8,#0xc]          ;1661  ; cur_step
00022c  2802              CMP      r0,#2                 ;1661
00022e  d00a              BEQ      |L5.582|
000230  e00d              B        |L5.590|
                  |L5.562|
000232  486e              LDR      r0,|L5.1004|
000234  f8b01044          LDRH     r1,[r0,#0x44]         ;1658  ; Run_Control
000238  8081              STRH     r1,[r0,#4]            ;1658
00023a  e008              B        |L5.590|
                  |L5.572|
00023c  486b              LDR      r0,|L5.1004|
00023e  f8b01046          LDRH     r1,[r0,#0x46]         ;1660  ; Run_Control
000242  8081              STRH     r1,[r0,#4]            ;1660
000244  e003              B        |L5.590|
                  |L5.582|
000246  4869              LDR      r0,|L5.1004|
000248  f8b01048          LDRH     r1,[r0,#0x48]         ;1662  ; Run_Control
00024c  8081              STRH     r1,[r0,#4]            ;1662
                  |L5.590|
00024e  4867              LDR      r0,|L5.1004|
000250  8882              LDRH     r2,[r0,#4]            ;1665  ; Run_Control
000252  f2413188          MOV      r1,#0x1388            ;1665
000256  428a              CMP      r2,r1                 ;1665
000258  d900              BLS      |L5.604|
00025a  8081              STRH     r1,[r0,#4]            ;1667
                  |L5.604|
00025c  8880              LDRH     r0,[r0,#4]            ;1669  ; Run_Control
00025e  ee000a10          VMOV     s0,r0                 ;1669
000262  eef80a40          VCVT.F32.U32 s1,s0                 ;1669
000266  e00b              B        |L5.640|
000268  e1c7              B        |L5.1530|
00026a  e164              B        |L5.1334|
00026c  e0ed              B        |L5.1098|
00026e  e05d              B        |L5.812|
000270  e274              B        |L5.1884|
000272  e197              B        |L5.1444|
000274  e135              B        |L5.1250|
000276  e1f8              B        |L5.1642|
000278  e292              B        |L5.1952|
00027a  e221              B        |L5.1728|
00027c  e0a1              B        |L5.962|
00027e  e02a              B        |L5.726|
                  |L5.640|
000280  ed9f1a65          VLDR     s2,|L5.1048|
000284  ee800a81          VDIV.F32 s0,s1,s2              ;1669
000288  ee100a10          VMOV     r0,s0                 ;1670
00028c  f7fffffe          BL       __aeabi_f2d
000290  ec410b10          VMOV     d0,r0,r1              ;1670
000294  a15e              ADR      r1,|L5.1040|
000296  ec532b10          VMOV     r2,r3,d0              ;1670
00029a  a801              ADD      r0,sp,#4              ;1670
00029c  f7fffffe          BL       __2sprintf
0002a0  a901              ADD      r1,sp,#4              ;1671
0002a2  4638              MOV      r0,r7                 ;1671
0002a4  f7fffffe          BL       TEXT_SetText
0002a8  4659              MOV      r1,r11                ;1675
0002aa  f8d80018          LDR      r0,[r8,#0x18]         ;1675  ; hWincdc
0002ae  f7fffffe          BL       WM_GetDialogItem
0002b2  4607              MOV      r7,r0                 ;1675
0002b4  4954              LDR      r1,|L5.1032|
0002b6  4638              MOV      r0,r7                 ;1676
0002b8  f7fffffe          BL       TEXT_SetBkColor
0002bc  2100              MOVS     r1,#0                 ;1677
0002be  4638              MOV      r0,r7                 ;1677
0002c0  f7fffffe          BL       TEXT_SetTextColor
0002c4  494b              LDR      r1,|L5.1012|
0002c6  201a              MOVS     r0,#0x1a              ;1679
0002c8  7008              STRB     r0,[r1,#0]            ;1679
0002ca  702c              STRB     r4,[r5,#0]            ;1680
0002cc  2000              MOVS     r0,#0                 ;1681
0002ce  7030              STRB     r0,[r6,#0]            ;1681
0002d0  f7fffffe          BL       Write_Limits
0002d4  e707              B        |L5.230|
                  |L5.726|
0002d6  f6400177          MOV      r1,#0x877             ;1689
0002da  4d4a              LDR      r5,|L5.1028|
0002dc  f7fffffe          BL       WM_GetDialogItem
0002e0  4604              MOV      r4,r0                 ;1689
0002e2  f06f4170          MVN      r1,#0xf0000000        ;1690
0002e6  4620              MOV      r0,r4                 ;1690
0002e8  f7fffffe          BL       TEXT_SetBkColor
0002ec  f06f417f          MVN      r1,#0xff000000        ;1691
0002f0  4620              MOV      r0,r4                 ;1691
0002f2  f7fffffe          BL       TEXT_SetTextColor
0002f6  2000              MOVS     r0,#0                 ;1692
0002f8  4944              LDR      r1,|L5.1036|
0002fa  2200              MOVS     r2,#0                 ;1589
0002fc  e002              B        |L5.772|
                  |L5.766|
0002fe  540a              STRB     r2,[r1,r0]            ;1694
000300  1c40              ADDS     r0,r0,#1              ;1692
000302  b2c0              UXTB     r0,r0                 ;1692
                  |L5.772|
000304  2805              CMP      r0,#5                 ;1692
000306  d3fa              BCC      |L5.766|
000308  f640017b          MOV      r1,#0x87b             ;1697
00030c  69a8              LDR      r0,[r5,#0x18]         ;1697  ; hWincdc
00030e  f7fffffe          BL       WM_GetDialogItem
000312  4604              MOV      r4,r0                 ;1697
000314  493c              LDR      r1,|L5.1032|
000316  4620              MOV      r0,r4                 ;1698
000318  f7fffffe          BL       TEXT_SetBkColor
00031c  2100              MOVS     r1,#0                 ;1699
00031e  4620              MOV      r0,r4                 ;1699
000320  f7fffffe          BL       TEXT_SetTextColor
000324  4933              LDR      r1,|L5.1012|
000326  2025              MOVS     r0,#0x25              ;1701
000328  7008              STRB     r0,[r1,#0]            ;1701
00032a  e6dc              B        |L5.230|
                  |L5.812|
00032c  f640017b          MOV      r1,#0x87b             ;1708
000330  f8df90d0          LDR      r9,|L5.1028|
000334  f7fffffe          BL       WM_GetDialogItem
000338  4680              MOV      r8,r0                 ;1708
00033a  f06f4170          MVN      r1,#0xf0000000        ;1709
00033e  4640              MOV      r0,r8                 ;1709
000340  f7fffffe          BL       TEXT_SetBkColor
000344  f06f417f          MVN      r1,#0xff000000        ;1710
000348  4640              MOV      r0,r8                 ;1710
00034a  f7fffffe          BL       TEXT_SetTextColor
00034e  ee180a10          VMOV     r0,s16                ;1712
000352  f7fffffe          BL       __aeabi_f2d
000356  ec410b10          VMOV     d0,r0,r1              ;1712
00035a  a12d              ADR      r1,|L5.1040|
00035c  ec532b10          VMOV     r2,r3,d0              ;1712
000360  a801              ADD      r0,sp,#4              ;1712
000362  f7fffffe          BL       __2sprintf
000366  a901              ADD      r1,sp,#4              ;1713
000368  4640              MOV      r0,r8                 ;1713
00036a  f7fffffe          BL       TEXT_SetText
00036e  f899000d          LDRB     r0,[r9,#0xd]          ;1714  ; coffv_step
000372  b140              CBZ      r0,|L5.902|
000374  f899000d          LDRB     r0,[r9,#0xd]          ;1717  ; coffv_step
000378  2801              CMP      r0,#1                 ;1717
00037a  d007              BEQ      |L5.908|
00037c  f899000d          LDRB     r0,[r9,#0xd]          ;1719  ; coffv_step
000380  2802              CMP      r0,#2                 ;1719
000382  d006              BEQ      |L5.914|
000384  e007              B        |L5.918|
                  |L5.902|
000386  ed878a00          VSTR     s16,[r7,#0]           ;1716
00038a  e004              B        |L5.918|
                  |L5.908|
00038c  ed878a01          VSTR     s16,[r7,#4]           ;1718
000390  e001              B        |L5.918|
                  |L5.914|
000392  ed878a02          VSTR     s16,[r7,#8]           ;1720
                  |L5.918|
000396  f6400177          MOV      r1,#0x877             ;1723
00039a  f8d90018          LDR      r0,[r9,#0x18]         ;1723  ; hWincdc
00039e  f7fffffe          BL       WM_GetDialogItem
0003a2  4607              MOV      r7,r0                 ;1723
0003a4  4918              LDR      r1,|L5.1032|
0003a6  4638              MOV      r0,r7                 ;1724
0003a8  f7fffffe          BL       TEXT_SetBkColor
0003ac  2100              MOVS     r1,#0                 ;1725
0003ae  4638              MOV      r0,r7                 ;1725
0003b0  f7fffffe          BL       TEXT_SetTextColor
0003b4  490f              LDR      r1,|L5.1012|
0003b6  201b              MOVS     r0,#0x1b              ;1727
0003b8  7008              STRB     r0,[r1,#0]            ;1727
0003ba  702c              STRB     r4,[r5,#0]            ;1728
0003bc  2000              MOVS     r0,#0                 ;1729
0003be  7030              STRB     r0,[r6,#0]            ;1729
0003c0  e691              B        |L5.230|
                  |L5.962|
0003c2  f6400178          MOV      r1,#0x878             ;1736
0003c6  4d0f              LDR      r5,|L5.1028|
0003c8  f7fffffe          BL       WM_GetDialogItem
0003cc  4604              MOV      r4,r0                 ;1736
0003ce  f06f4170          MVN      r1,#0xf0000000        ;1737
0003d2  4620              MOV      r0,r4                 ;1737
0003d4  f7fffffe          BL       TEXT_SetBkColor
0003d8  f06f417f          MVN      r1,#0xff000000        ;1738
0003dc  4620              MOV      r0,r4                 ;1738
0003de  f7fffffe          BL       TEXT_SetTextColor
0003e2  2000              MOVS     r0,#0                 ;1739
0003e4  4909              LDR      r1,|L5.1036|
0003e6  2200              MOVS     r2,#0                 ;1589
0003e8  e01b              B        |L5.1058|
0003ea  0000              DCW      0x0000
                  |L5.1004|
                          DCD      Run_Control
                  |L5.1008|
0003f0  42c80000          DCFS     0x42c80000 ; 100
                  |L5.1012|
                          DCD      set_sw
                  |L5.1016|
                          DCD      bit
                  |L5.1020|
                          DCD      dot_flag
                  |L5.1024|
                          DCD      ||.bss||
                  |L5.1028|
                          DCD      ||.data||
                  |L5.1032|
                          DCD      0x00bfffff
                  |L5.1036|
                          DCD      set_limit
                  |L5.1040|
000410  252e3266          DCB      "%.2f",0
000414  00      
000415  00                DCB      0
000416  00                DCB      0
000417  00                DCB      0
                  |L5.1048|
000418  447a0000          DCFS     0x447a0000 ; 1000
                  |L5.1052|
00041c  540a              STRB     r2,[r1,r0]            ;1741
00041e  1c40              ADDS     r0,r0,#1              ;1739
000420  b2c0              UXTB     r0,r0                 ;1739
                  |L5.1058|
000422  2805              CMP      r0,#5                 ;1739
000424  d3fa              BCC      |L5.1052|
000426  f640017c          MOV      r1,#0x87c             ;1744
00042a  69a8              LDR      r0,[r5,#0x18]         ;1744  ; hWincdc
00042c  f7fffffe          BL       WM_GetDialogItem
000430  4604              MOV      r4,r0                 ;1744
000432  49ef              LDR      r1,|L5.2032|
000434  4620              MOV      r0,r4                 ;1745
000436  f7fffffe          BL       TEXT_SetBkColor
00043a  2100              MOVS     r1,#0                 ;1746
00043c  4620              MOV      r0,r4                 ;1746
00043e  f7fffffe          BL       TEXT_SetTextColor
000442  49ec              LDR      r1,|L5.2036|
000444  2026              MOVS     r0,#0x26              ;1748
000446  7008              STRB     r0,[r1,#0]            ;1748
000448  e64d              B        |L5.230|
                  |L5.1098|
00044a  f640017c          MOV      r1,#0x87c             ;1755
00044e  f8df93a8          LDR      r9,|L5.2040|
000452  f7fffffe          BL       WM_GetDialogItem
000456  4680              MOV      r8,r0                 ;1755
000458  f06f4170          MVN      r1,#0xf0000000        ;1756
00045c  4640              MOV      r0,r8                 ;1756
00045e  f7fffffe          BL       TEXT_SetBkColor
000462  f06f417f          MVN      r1,#0xff000000        ;1757
000466  4640              MOV      r0,r8                 ;1757
000468  f7fffffe          BL       TEXT_SetTextColor
00046c  ee180a90          VMOV     r0,s17                ;1759
000470  f7fffffe          BL       __aeabi_f2d
000474  ec410b10          VMOV     d0,r0,r1              ;1759
000478  ec532b10          VMOV     r2,r3,d0              ;1759
00047c  f2af0170          ADR      r1,|L5.1040|
000480  a801              ADD      r0,sp,#4              ;1759
000482  f7fffffe          BL       __2sprintf
000486  a901              ADD      r1,sp,#4              ;1760
000488  4640              MOV      r0,r8                 ;1760
00048a  f7fffffe          BL       TEXT_SetText
00048e  f899000e          LDRB     r0,[r9,#0xe]          ;1761  ; coffc_step
000492  b140              CBZ      r0,|L5.1190|
000494  f899000e          LDRB     r0,[r9,#0xe]          ;1764  ; coffc_step
000498  2801              CMP      r0,#1                 ;1764
00049a  d007              BEQ      |L5.1196|
00049c  f899000e          LDRB     r0,[r9,#0xe]          ;1766  ; coffc_step
0004a0  2802              CMP      r0,#2                 ;1766
0004a2  d006              BEQ      |L5.1202|
0004a4  e007              B        |L5.1206|
                  |L5.1190|
0004a6  edc78a03          VSTR     s17,[r7,#0xc]         ;1763
0004aa  e004              B        |L5.1206|
                  |L5.1196|
0004ac  edc78a04          VSTR     s17,[r7,#0x10]        ;1765
0004b0  e001              B        |L5.1206|
                  |L5.1202|
0004b2  edc78a05          VSTR     s17,[r7,#0x14]        ;1767
                  |L5.1206|
0004b6  f6400178          MOV      r1,#0x878             ;1769
0004ba  f8d90018          LDR      r0,[r9,#0x18]         ;1769  ; hWincdc
0004be  f7fffffe          BL       WM_GetDialogItem
0004c2  4607              MOV      r7,r0                 ;1769
0004c4  49ca              LDR      r1,|L5.2032|
0004c6  4638              MOV      r0,r7                 ;1770
0004c8  f7fffffe          BL       TEXT_SetBkColor
0004cc  2100              MOVS     r1,#0                 ;1771
0004ce  4638              MOV      r0,r7                 ;1771
0004d0  f7fffffe          BL       TEXT_SetTextColor
0004d4  49c7              LDR      r1,|L5.2036|
0004d6  201c              MOVS     r0,#0x1c              ;1773
0004d8  7008              STRB     r0,[r1,#0]            ;1773
0004da  702c              STRB     r4,[r5,#0]            ;1774
0004dc  2000              MOVS     r0,#0                 ;1775
0004de  7030              STRB     r0,[r6,#0]            ;1775
0004e0  e601              B        |L5.230|
                  |L5.1250|
0004e2  4641              MOV      r1,r8                 ;1782
0004e4  4dc4              LDR      r5,|L5.2040|
0004e6  f7fffffe          BL       WM_GetDialogItem
0004ea  4604              MOV      r4,r0                 ;1782
0004ec  f06f4170          MVN      r1,#0xf0000000        ;1783
0004f0  4620              MOV      r0,r4                 ;1783
0004f2  f7fffffe          BL       TEXT_SetBkColor
0004f6  f06f417f          MVN      r1,#0xff000000        ;1784
0004fa  4620              MOV      r0,r4                 ;1784
0004fc  f7fffffe          BL       TEXT_SetTextColor
000500  2000              MOVS     r0,#0                 ;1785
000502  4abe              LDR      r2,|L5.2044|
000504  2100              MOVS     r1,#0                 ;1589
000506  e002              B        |L5.1294|
                  |L5.1288|
000508  5411              STRB     r1,[r2,r0]            ;1787
00050a  1c40              ADDS     r0,r0,#1              ;1785
00050c  b2c0              UXTB     r0,r0                 ;1785
                  |L5.1294|
00050e  2805              CMP      r0,#5                 ;1785
000510  d3fa              BCC      |L5.1288|
000512  f640017d          MOV      r1,#0x87d             ;1790
000516  69a8              LDR      r0,[r5,#0x18]         ;1790  ; hWincdc
000518  f7fffffe          BL       WM_GetDialogItem
00051c  4604              MOV      r4,r0                 ;1790
00051e  49b4              LDR      r1,|L5.2032|
000520  4620              MOV      r0,r4                 ;1791
000522  f7fffffe          BL       TEXT_SetBkColor
000526  2100              MOVS     r1,#0                 ;1792
000528  4620              MOV      r0,r4                 ;1792
00052a  f7fffffe          BL       TEXT_SetTextColor
00052e  49b1              LDR      r1,|L5.2036|
000530  2027              MOVS     r0,#0x27              ;1794
000532  7008              STRB     r0,[r1,#0]            ;1794
000534  e5d7              B        |L5.230|
                  |L5.1334|
000536  f640017d          MOV      r1,#0x87d             ;1801
00053a  f8df92bc          LDR      r9,|L5.2040|
00053e  f7fffffe          BL       WM_GetDialogItem
000542  4607              MOV      r7,r0                 ;1801
000544  f06f4170          MVN      r1,#0xf0000000        ;1802
000548  4638              MOV      r0,r7                 ;1802
00054a  f7fffffe          BL       TEXT_SetBkColor
00054e  f06f417f          MVN      r1,#0xff000000        ;1803
000552  4638              MOV      r0,r7                 ;1803
000554  f7fffffe          BL       TEXT_SetTextColor
000558  ee190a10          VMOV     r0,s18                ;1805
00055c  f7fffffe          BL       __aeabi_f2d
000560  ec410b10          VMOV     d0,r0,r1              ;1805
000564  ec532b10          VMOV     r2,r3,d0              ;1805
000568  f2af115c          ADR      r1,|L5.1040|
00056c  a801              ADD      r0,sp,#4              ;1805
00056e  f7fffffe          BL       __2sprintf
000572  a901              ADD      r1,sp,#4              ;1806
000574  4638              MOV      r0,r7                 ;1806
000576  f7fffffe          BL       TEXT_SetText
00057a  4641              MOV      r1,r8                 ;1808
00057c  f8d90018          LDR      r0,[r9,#0x18]         ;1808  ; hWincdc
000580  f7fffffe          BL       WM_GetDialogItem
000584  4607              MOV      r7,r0                 ;1808
000586  499a              LDR      r1,|L5.2032|
000588  4638              MOV      r0,r7                 ;1809
00058a  f7fffffe          BL       TEXT_SetBkColor
00058e  2100              MOVS     r1,#0                 ;1810
000590  4638              MOV      r0,r7                 ;1810
000592  f7fffffe          BL       TEXT_SetTextColor
000596  4997              LDR      r1,|L5.2036|
000598  2022              MOVS     r0,#0x22              ;1812
00059a  7008              STRB     r0,[r1,#0]            ;1812
00059c  702c              STRB     r4,[r5,#0]            ;1813
00059e  2000              MOVS     r0,#0                 ;1814
0005a0  7030              STRB     r0,[r6,#0]            ;1814
0005a2  e5a0              B        |L5.230|
                  |L5.1444|
0005a4  f640017a          MOV      r1,#0x87a             ;1821
0005a8  4d93              LDR      r5,|L5.2040|
0005aa  f7fffffe          BL       WM_GetDialogItem
0005ae  4604              MOV      r4,r0                 ;1821
0005b0  f06f4170          MVN      r1,#0xf0000000        ;1822
0005b4  4620              MOV      r0,r4                 ;1822
0005b6  f7fffffe          BL       TEXT_SetBkColor
0005ba  f06f417f          MVN      r1,#0xff000000        ;1823
0005be  4620              MOV      r0,r4                 ;1823
0005c0  f7fffffe          BL       TEXT_SetTextColor
0005c4  2000              MOVS     r0,#0                 ;1824
0005c6  4a8d              LDR      r2,|L5.2044|
0005c8  2100              MOVS     r1,#0                 ;1589
0005ca  e002              B        |L5.1490|
                  |L5.1484|
0005cc  5411              STRB     r1,[r2,r0]            ;1826
0005ce  1c40              ADDS     r0,r0,#1              ;1824
0005d0  b2c0              UXTB     r0,r0                 ;1824
                  |L5.1490|
0005d2  2805              CMP      r0,#5                 ;1824
0005d4  d3fa              BCC      |L5.1484|
0005d6  f640017e          MOV      r1,#0x87e             ;1829
0005da  69a8              LDR      r0,[r5,#0x18]         ;1829  ; hWincdc
0005dc  f7fffffe          BL       WM_GetDialogItem
0005e0  4604              MOV      r4,r0                 ;1829
0005e2  4983              LDR      r1,|L5.2032|
0005e4  4620              MOV      r0,r4                 ;1830
0005e6  f7fffffe          BL       TEXT_SetBkColor
0005ea  2100              MOVS     r1,#0                 ;1831
0005ec  4620              MOV      r0,r4                 ;1831
0005ee  f7fffffe          BL       TEXT_SetTextColor
0005f2  4980              LDR      r1,|L5.2036|
0005f4  2028              MOVS     r0,#0x28              ;1833
0005f6  7008              STRB     r0,[r1,#0]            ;1833
0005f8  e575              B        |L5.230|
                  |L5.1530|
0005fa  f640017e          MOV      r1,#0x87e             ;1840
0005fe  f8df81f8          LDR      r8,|L5.2040|
000602  f7fffffe          BL       WM_GetDialogItem
000606  4607              MOV      r7,r0                 ;1840
000608  f06f4170          MVN      r1,#0xf0000000        ;1841
00060c  4638              MOV      r0,r7                 ;1841
00060e  f7fffffe          BL       TEXT_SetBkColor
000612  f06f417f          MVN      r1,#0xff000000        ;1842
000616  4638              MOV      r0,r7                 ;1842
000618  f7fffffe          BL       TEXT_SetTextColor
00061c  ee190a90          VMOV     r0,s19                ;1844
000620  f7fffffe          BL       __aeabi_f2d
000624  ec410b10          VMOV     d0,r0,r1              ;1844
000628  ec532b10          VMOV     r2,r3,d0              ;1844
00062c  f2af2120          ADR      r1,|L5.1040|
000630  a801              ADD      r0,sp,#4              ;1844
000632  f7fffffe          BL       __2sprintf
000636  a901              ADD      r1,sp,#4              ;1845
000638  4638              MOV      r0,r7                 ;1845
00063a  f7fffffe          BL       TEXT_SetText
00063e  f640017a          MOV      r1,#0x87a             ;1847
000642  f8d80018          LDR      r0,[r8,#0x18]         ;1847  ; hWincdc
000646  f7fffffe          BL       WM_GetDialogItem
00064a  4607              MOV      r7,r0                 ;1847
00064c  4968              LDR      r1,|L5.2032|
00064e  4638              MOV      r0,r7                 ;1848
000650  f7fffffe          BL       TEXT_SetBkColor
000654  2100              MOVS     r1,#0                 ;1849
000656  4638              MOV      r0,r7                 ;1849
000658  f7fffffe          BL       TEXT_SetTextColor
00065c  4965              LDR      r1,|L5.2036|
00065e  2023              MOVS     r0,#0x23              ;1851
000660  7008              STRB     r0,[r1,#0]            ;1851
000662  702c              STRB     r4,[r5,#0]            ;1852
000664  2000              MOVS     r0,#0                 ;1853
000666  7030              STRB     r0,[r6,#0]            ;1853
000668  e53d              B        |L5.230|
                  |L5.1642|
00066a  f6400171          MOV      r1,#0x871             ;1860
00066e  4d62              LDR      r5,|L5.2040|
000670  f7fffffe          BL       WM_GetDialogItem
000674  4604              MOV      r4,r0                 ;1860
000676  f06f4170          MVN      r1,#0xf0000000        ;1861
00067a  4620              MOV      r0,r4                 ;1861
00067c  f7fffffe          BL       TEXT_SetBkColor
000680  f06f417f          MVN      r1,#0xff000000        ;1862
000684  4620              MOV      r0,r4                 ;1862
000686  f7fffffe          BL       TEXT_SetTextColor
00068a  2000              MOVS     r0,#0                 ;1863
00068c  4a5b              LDR      r2,|L5.2044|
00068e  2100              MOVS     r1,#0                 ;1589
000690  e002              B        |L5.1688|
                  |L5.1682|
000692  5411              STRB     r1,[r2,r0]            ;1865
000694  1c40              ADDS     r0,r0,#1              ;1863
000696  b2c0              UXTB     r0,r0                 ;1863
                  |L5.1688|
000698  2805              CMP      r0,#5                 ;1863
00069a  d3fa              BCC      |L5.1682|
00069c  f6400175          MOV      r1,#0x875             ;1868
0006a0  69a8              LDR      r0,[r5,#0x18]         ;1868  ; hWincdc
0006a2  f7fffffe          BL       WM_GetDialogItem
0006a6  4604              MOV      r4,r0                 ;1868
0006a8  4951              LDR      r1,|L5.2032|
0006aa  4620              MOV      r0,r4                 ;1869
0006ac  f7fffffe          BL       TEXT_SetBkColor
0006b0  2100              MOVS     r1,#0                 ;1870
0006b2  4620              MOV      r0,r4                 ;1870
0006b4  f7fffffe          BL       TEXT_SetTextColor
0006b8  494e              LDR      r1,|L5.2036|
0006ba  201f              MOVS     r0,#0x1f              ;1872
0006bc  7008              STRB     r0,[r1,#0]            ;1872
0006be  e512              B        |L5.230|
                  |L5.1728|
0006c0  f6400175          MOV      r1,#0x875             ;1879
0006c4  f8df8130          LDR      r8,|L5.2040|
0006c8  f7fffffe          BL       WM_GetDialogItem
0006cc  4607              MOV      r7,r0                 ;1879
0006ce  f06f4170          MVN      r1,#0xf0000000        ;1880
0006d2  4638              MOV      r0,r7                 ;1880
0006d4  f7fffffe          BL       TEXT_SetBkColor
0006d8  f06f417f          MVN      r1,#0xff000000        ;1881
0006dc  4638              MOV      r0,r7                 ;1881
0006de  f7fffffe          BL       TEXT_SetTextColor
0006e2  4847              LDR      r0,|L5.2048|
0006e4  f8b01052          LDRH     r1,[r0,#0x52]         ;1882  ; Run_Control
0006e8  8101              STRH     r1,[r0,#8]            ;1882
0006ea  8901              LDRH     r1,[r0,#8]            ;1883  ; Run_Control
0006ec  f24052dc          MOV      r2,#0x5dc             ;1883
0006f0  4291              CMP      r1,r2                 ;1883
0006f2  d901              BLS      |L5.1784|
0006f4  2100              MOVS     r1,#0                 ;1884
0006f6  8101              STRH     r1,[r0,#8]            ;1884
                  |L5.1784|
0006f8  8900              LDRH     r0,[r0,#8]            ;1886  ; Run_Control
0006fa  ee000a10          VMOV     s0,r0                 ;1886
0006fe  eef80a40          VCVT.F32.U32 s1,s0                 ;1886
000702  ed1f1ac5          VLDR     s2,|L5.1008|
000706  ee800a81          VDIV.F32 s0,s1,s2              ;1886
00070a  ee100a10          VMOV     r0,s0                 ;1887
00070e  f7fffffe          BL       __aeabi_f2d
000712  ec410b10          VMOV     d0,r0,r1              ;1887
000716  ec532b10          VMOV     r2,r3,d0              ;1887
00071a  f2af310c          ADR      r1,|L5.1040|
00071e  a801              ADD      r0,sp,#4              ;1887
000720  f7fffffe          BL       __2sprintf
000724  a901              ADD      r1,sp,#4              ;1888
000726  4638              MOV      r0,r7                 ;1888
000728  f7fffffe          BL       TEXT_SetText
00072c  f6400171          MOV      r1,#0x871             ;1890
000730  f8d80018          LDR      r0,[r8,#0x18]         ;1890  ; hWincdc
000734  f7fffffe          BL       WM_GetDialogItem
000738  4607              MOV      r7,r0                 ;1890
00073a  492d              LDR      r1,|L5.2032|
00073c  4638              MOV      r0,r7                 ;1891
00073e  f7fffffe          BL       TEXT_SetBkColor
000742  2100              MOVS     r1,#0                 ;1892
000744  4638              MOV      r0,r7                 ;1892
000746  f7fffffe          BL       TEXT_SetTextColor
00074a  492a              LDR      r1,|L5.2036|
00074c  2021              MOVS     r0,#0x21              ;1894
00074e  7008              STRB     r0,[r1,#0]            ;1894
000750  702c              STRB     r4,[r5,#0]            ;1895
000752  2000              MOVS     r0,#0                 ;1896
000754  7030              STRB     r0,[r6,#0]            ;1896
000756  f7fffffe          BL       Write_Limits
00075a  e4c4              B        |L5.230|
                  |L5.1884|
00075c  f6400172          MOV      r1,#0x872             ;1904
000760  4d25              LDR      r5,|L5.2040|
000762  f7fffffe          BL       WM_GetDialogItem
000766  4604              MOV      r4,r0                 ;1904
000768  f06f4170          MVN      r1,#0xf0000000        ;1905
00076c  4620              MOV      r0,r4                 ;1905
00076e  f7fffffe          BL       TEXT_SetBkColor
000772  f06f417f          MVN      r1,#0xff000000        ;1906
000776  4620              MOV      r0,r4                 ;1906
000778  f7fffffe          BL       TEXT_SetTextColor
00077c  f6400176          MOV      r1,#0x876             ;1908
000780  69a8              LDR      r0,[r5,#0x18]         ;1908  ; hWincdc
000782  f7fffffe          BL       WM_GetDialogItem
000786  4604              MOV      r4,r0                 ;1908
000788  4919              LDR      r1,|L5.2032|
00078a  4620              MOV      r0,r4                 ;1909
00078c  f7fffffe          BL       TEXT_SetBkColor
000790  2100              MOVS     r1,#0                 ;1910
000792  4620              MOV      r0,r4                 ;1910
000794  f7fffffe          BL       TEXT_SetTextColor
000798  4916              LDR      r1,|L5.2036|
00079a  2020              MOVS     r0,#0x20              ;1912
00079c  7008              STRB     r0,[r1,#0]            ;1912
00079e  e4a2              B        |L5.230|
                  |L5.1952|
0007a0  f6400176          MOV      r1,#0x876             ;1919
0007a4  f8df8050          LDR      r8,|L5.2040|
0007a8  f7fffffe          BL       WM_GetDialogItem
0007ac  4607              MOV      r7,r0                 ;1919
0007ae  f06f4170          MVN      r1,#0xf0000000        ;1920
0007b2  4638              MOV      r0,r7                 ;1920
0007b4  f7fffffe          BL       TEXT_SetBkColor
0007b8  f06f417f          MVN      r1,#0xff000000        ;1921
0007bc  4638              MOV      r0,r7                 ;1921
0007be  f7fffffe          BL       TEXT_SetTextColor
0007c2  f6400172          MOV      r1,#0x872             ;1923
0007c6  f8d80018          LDR      r0,[r8,#0x18]         ;1923  ; hWincdc
0007ca  f7fffffe          BL       WM_GetDialogItem
0007ce  4607              MOV      r7,r0                 ;1923
0007d0  4907              LDR      r1,|L5.2032|
0007d2  4638              MOV      r0,r7                 ;1924
0007d4  f7fffffe          BL       TEXT_SetBkColor
0007d8  2100              MOVS     r1,#0                 ;1925
0007da  4638              MOV      r0,r7                 ;1925
0007dc  f7fffffe          BL       TEXT_SetTextColor
0007e0  4904              LDR      r1,|L5.2036|
0007e2  2024              MOVS     r0,#0x24              ;1927
0007e4  7008              STRB     r0,[r1,#0]            ;1927
0007e6  702c              STRB     r4,[r5,#0]            ;1928
0007e8  2000              MOVS     r0,#0                 ;1929
0007ea  7030              STRB     r0,[r6,#0]            ;1929
0007ec  e47b              B        |L5.230|
;;;1935   
                          ENDP

0007ee  0000              DCW      0x0000
                  |L5.2032|
                          DCD      0x00bfffff
                  |L5.2036|
                          DCD      set_sw
                  |L5.2040|
                          DCD      ||.data||
                  |L5.2044|
                          DCD      set_limit
                  |L5.2048|
                          DCD      Run_Control

                          AREA ||i.CreateCDC||, CODE, READONLY, ALIGN=2

                  CreateCDC PROC
;;;972    WM_HWIN CreateCDC(void);
;;;973    WM_HWIN CreateCDC(void) {
000000  b51c              PUSH     {r2-r4,lr}
;;;974      page_sw = face_cdc;
000002  4915              LDR      r1,|L6.88|
000004  2001              MOVS     r0,#1
000006  7008              STRB     r0,[r1,#0]
;;;975      set_sw = set_26;
000008  4a14              LDR      r2,|L6.92|
00000a  2119              MOVS     r1,#0x19
00000c  7011              STRB     r1,[r2,#0]
;;;976      pass = 0;
00000e  4914              LDR      r1,|L6.96|
000010  2400              MOVS     r4,#0
000012  700c              STRB     r4,[r1,#0]
;;;977      track = face_cdc;
000014  4913              LDR      r1,|L6.100|
000016  7008              STRB     r0,[r1,#0]
;;;978      SET_Voltage = opv1;
000018  4813              LDR      r0,|L6.104|
00001a  8fc1              LDRH     r1,[r0,#0x3e]  ; Run_Control
00001c  8041              STRH     r1,[r0,#2]
;;;979      SET_Current = opc1;
00001e  f8b01044          LDRH     r1,[r0,#0x44]  ; Run_Control
000022  8081              STRH     r1,[r0,#4]
;;;980      SET_Current_Laod = cdc_dc;
000024  f8b01052          LDRH     r1,[r0,#0x52]  ; Run_Control
000028  8101              STRH     r1,[r0,#8]
;;;981      TM1650_SET_LED(0x68,0x70);
00002a  2170              MOVS     r1,#0x70
00002c  2068              MOVS     r0,#0x68
00002e  f7fffffe          BL       TM1650_SET_LED
;;;982      GPIO_ResetBits(GPIOD,GPIO_Pin_12);//
000032  f44f5180          MOV      r1,#0x1000
000036  480d              LDR      r0,|L6.108|
000038  f7fffffe          BL       GPIO_ResetBits
;;;983    //  double_sw = face_cdc;
;;;984      hWincdc = GUI_CreateDialogBox(_aDialogCreate4, GUI_COUNTOF(_aDialogCreate4), _cbDialog, WM_HBKWIN, 0, 0);
00003c  f7fffffe          BL       WM_GetDesktopWindow
000040  4603              MOV      r3,r0
000042  9400              STR      r4,[sp,#0]
000044  4a0a              LDR      r2,|L6.112|
000046  2127              MOVS     r1,#0x27
000048  480a              LDR      r0,|L6.116|
00004a  9401              STR      r4,[sp,#4]
00004c  f7fffffe          BL       GUI_CreateDialogBox
000050  4909              LDR      r1,|L6.120|
000052  6188              STR      r0,[r1,#0x18]  ; hWincdc
;;;985      return hWincdc;
;;;986    }
000054  bd1c              POP      {r2-r4,pc}
;;;987    
                          ENDP

000056  0000              DCW      0x0000
                  |L6.88|
                          DCD      page_sw
                  |L6.92|
                          DCD      set_sw
                  |L6.96|
                          DCD      pass
                  |L6.100|
                          DCD      track
                  |L6.104|
                          DCD      Run_Control
                  |L6.108|
                          DCD      0x40020c00
                  |L6.112|
                          DCD      _cbDialog
                  |L6.116|
                          DCD      ||.constdata||
                  |L6.120|
                          DCD      ||.data||

                          AREA ||i.INPUT_CDC||, CODE, READONLY, ALIGN=2

                          REQUIRE _printf_pre_padding
                          REQUIRE _printf_percent
                          REQUIRE _printf_widthprec
                          REQUIRE _printf_d
                          REQUIRE _printf_int_dec
                  INPUT_CDC PROC
;;;1937              
;;;1938   void INPUT_CDC(char* num){
000000  e92d4ff1          PUSH     {r0,r4-r11,lr}
000004  b082              SUB      sp,sp,#8
;;;1939       char loop_count[2];
;;;1940       switch(set_sw){
000006  48fa              LDR      r0,|L7.1008|
000008  7801              LDRB     r1,[r0,#0]  ; set_sw
;;;1941           case set_30:
;;;1942           {
;;;1943               WM_HWIN hItem;
;;;1944   //            WM_InvalidateWindow(hWincdc);
;;;1945               hItem = WM_GetDialogItem(hWincdc, ID_TEXT_54);
00000a  4afc              LDR      r2,|L7.1020|
00000c  391d              SUBS     r1,r1,#0x1d           ;1940
;;;1946               
;;;1947               switch(bit){
;;;1948                   case 1:
;;;1949                   {
;;;1950                       if(pow_step == step1)
;;;1951                       {
;;;1952                           opv1 = atoi(num) * 100;
00000e  4cf9              LDR      r4,|L7.1012|
;;;1953                       }else if(pow_step == step2){
;;;1954                           opv2 = atoi(num) * 100;
;;;1955                       }else if(pow_step == step3){
;;;1956                           opv3 = atoi(num) * 100;
;;;1957                       }
;;;1958                       strcat(set_limit,num);            
000010  f8df83e4          LDR      r8,|L7.1016|
;;;1959                       TEXT_SetText(hItem,set_limit);
;;;1960                       bit = 2;
000014  2602              MOVS     r6,#2
;;;1961                       break;
;;;1962                   }
;;;1963                   case 2:
;;;1964                   {
;;;1965                       strcat(set_limit,num);            
;;;1966                       TEXT_SetText(hItem,set_limit);
;;;1967                       if(set_limit[1] == 0x2e)//判断输入是否为小数点
;;;1968                       {
;;;1969                           dot_flag = 1;
000016  2701              MOVS     r7,#1
000018  f8df93e4          LDR      r9,|L7.1024|
00001c  4df9              LDR      r5,|L7.1028|
00001e  6990              LDR      r0,[r2,#0x18]         ;1940
;;;1970                       }else{
;;;1971                           if(pow_step == step1)
;;;1972                           {
;;;1973                               opv1 = opv1 * 10 + atoi(num) * 100;
;;;1974                           }else if(pow_step == step2){
;;;1975                               opv2 = opv2 * 10 + atoi(num) * 100;
;;;1976                           }else if(pow_step == step3){
;;;1977                              opv3 = opv3 * 10 + atoi(num) * 100;
;;;1978                           }
;;;1979                           
;;;1980                       }
;;;1981                       bit = 3;
000020  f04f0a03          MOV      r10,#3
;;;1982                       break;
;;;1983                   }
;;;1984                   case 3:
;;;1985                   {
;;;1986                       strcat(set_limit,num);
;;;1987                       TEXT_SetText(hItem,set_limit);
;;;1988                       if(dot_flag == 0)
;;;1989                       {
;;;1990                           if(set_limit[2] == 0x2e)//判断输入是否为小数点
;;;1991                           {                            
;;;1992                               dot_flag = 2;
;;;1993                           }else{
;;;1994                               if(pow_step == step1)
;;;1995                               {
;;;1996                                  opv1 = /*3000*/ 6000;
;;;1997                               }else if(pow_step == step2){
;;;1998                                   opv2 = /*3000*/ 6000;
;;;1999                               }else if(pow_step == step3){
;;;2000                                  opv3 =  /*3000*/ 6000;
;;;2001                               }
;;;2002                               
;;;2003                           }
;;;2004                       }else{
;;;2005                           if(pow_step == step1)
;;;2006                               {
;;;2007                                  opv1 = opv1 + atoi(num) * 10;
;;;2008                               }else if(pow_step == step2){
;;;2009                                   opv2 = opv2 + atoi(num) * 10;
;;;2010                               }else if(pow_step == step3){
;;;2011                                  opv3 = opv3 + atoi(num) * 10;
;;;2012                               }
;;;2013                           
;;;2014                       }
;;;2015                                          
;;;2016                       bit = 4;
;;;2017                       break;
;;;2018                   }
;;;2019                   case 4:
;;;2020                   {
;;;2021                       strcat(set_limit,num);
;;;2022                       TEXT_SetText(hItem,set_limit);
;;;2023                       if(dot_flag == 0)
;;;2024                       {
;;;2025                           if(pow_step == step1)
;;;2026                               {
;;;2027                                  opv1 = /*3000*/ 6000;
;;;2028                               }else if(pow_step == step2){
;;;2029                                   opv2 = /*3000*/ 6000;
;;;2030                               }else if(pow_step == step3){
;;;2031                                  opv3 =  /*3000*/ 6000;
;;;2032                               }
;;;2033                       }else if(dot_flag == 2){
;;;2034                           if(pow_step == step1)
;;;2035                               {
;;;2036                                  opv1 = opv1 + atoi(num) * 10;
;;;2037                               }else if(pow_step == step2){
;;;2038                                   opv2 = opv2 + atoi(num) * 10;
;;;2039                               }else if(pow_step == step3){
;;;2040                                  opv3 = opv3 + atoi(num) * 10;
;;;2041                               }
;;;2042                       }else{
;;;2043                           if(pow_step == step1)
;;;2044                               {
;;;2045                                  opv1 = opv1 + atoi(num);
;;;2046                               }else if(pow_step == step2){
;;;2047                                   opv2 = opv2 + atoi(num);
;;;2048                               }else if(pow_step == step3){
;;;2049                                  opv3 = opv3 + atoi(num);
;;;2050                               }
;;;2051   //                        cdc_cv = cdc_cv + atoi(num);
;;;2052                       }
;;;2053                                          
;;;2054                       bit = 5;
;;;2055                       break;
;;;2056                   }
;;;2057                   case 5:
;;;2058                   {
;;;2059                       strcat(set_limit,num);
;;;2060                       TEXT_SetText(hItem,set_limit);
;;;2061                       if(dot_flag == 0)
;;;2062                       {
;;;2063                           if(pow_step == step1)
;;;2064                               {
;;;2065                                  opv1 = /*3000*/ 6000;
;;;2066                               }else if(pow_step == step2){
;;;2067                                   opv2 = /*3000*/ 6000;
;;;2068                               }else if(pow_step == step3){
;;;2069                                  opv3 =  /*3000*/ 6000;
;;;2070                               }
;;;2071                       }else if(dot_flag == 1){
;;;2072                           if(pow_step == step1)
;;;2073                               {
;;;2074                                  opv1 = opv1;
;;;2075                               }else if(pow_step == step2){
;;;2076                                   opv2 =opv2;
;;;2077                               }else if(pow_step == step3){
;;;2078                                  opv3 =  opv3;
;;;2079                               }
;;;2080   //                        cdc_cv = cdc_cv;
;;;2081                       }else{
;;;2082                           if(pow_step == step1)
;;;2083                               {
;;;2084                                  opv1 = opv1 + atoi(num);
;;;2085                               }else if(pow_step == step2){
;;;2086                                   opv2 = opv2 + atoi(num);
;;;2087                               }else if(pow_step == step3){
;;;2088                                  opv3 = opv3 + atoi(num);
;;;2089                               }
;;;2090   //                        cdc_cv = cdc_cv + atoi(num);
;;;2091                       }
;;;2092                                          
;;;2093                       bit = 1;
;;;2094                       break;
;;;2095                   }
;;;2096               }
;;;2097               break;
;;;2098           }
;;;2099           case set_31:
;;;2100           {
;;;2101               WM_HWIN hItem;
;;;2102   //            WM_InvalidateWindow(hWincdc);
;;;2103               hItem = WM_GetDialogItem(hWincdc, ID_TEXT_55);
;;;2104               switch(bit){
;;;2105                   case 1:
;;;2106                   {
;;;2107                       if(cur_step == step1)
;;;2108                       {
;;;2109                           opc1 = atoi(num) * 1000;
;;;2110                       }else if(cur_step == step2){
;;;2111                           opc2 = atoi(num) * 1000;
;;;2112                       }else if(cur_step == step3){
;;;2113                           opc3 = atoi(num) * 1000;
;;;2114                       }
;;;2115                       strcat(set_limit,num);            
;;;2116                       TEXT_SetText(hItem,set_limit);
;;;2117                       bit = 2;
;;;2118                       break;
;;;2119                   }
;;;2120                   case 2:
;;;2121                   {
;;;2122                       strcat(set_limit,num);            
;;;2123                       TEXT_SetText(hItem,set_limit);
;;;2124                       if(set_limit[1] == 0x2e)//判断输入是否为小数点
;;;2125                       {
;;;2126                           dot_flag = 1;
;;;2127                       }else{
;;;2128                           if(cur_step == step1)
;;;2129                           {
;;;2130                               opc1 = opc1 * 10 + atoi(num) * 1000;
;;;2131                           }else if(cur_step == step2){
;;;2132                               opc2 = opc2 * 10 + atoi(num) * 1000;
;;;2133                           }else if(cur_step == step3){
;;;2134                               opc2 = opc2 * 10 + atoi(num) * 1000;
;;;2135                           }
;;;2136   //                        opc1 = opc1 * 10 + atoi(num) * 1000;
;;;2137                       }
;;;2138                       bit = 3;
;;;2139                       break;
;;;2140                   }
;;;2141                   case 3:
;;;2142                   {
;;;2143                       strcat(set_limit,num);
;;;2144                       TEXT_SetText(hItem,set_limit);
;;;2145                       if(dot_flag == 0)
;;;2146                       {
;;;2147                           if(set_limit[2] == 0x2e)//判断输入是否为小数点
;;;2148                           {                            
;;;2149                               dot_flag = 2;
;;;2150                           }else{
;;;2151                               if(cur_step == step1)
;;;2152                               {
;;;2153                                   opc1 = 5000;
;;;2154                               }else if(cur_step == step2){
;;;2155                                   opc2 = 5000;
;;;2156                               }else if(cur_step == step3){
;;;2157                                   opc3 = 5000;
;;;2158                               }
;;;2159                           }
;;;2160                       }else{
;;;2161   //                        opc1 = opc1 + atoi(num) * 100;
;;;2162                           if(cur_step == step1)
;;;2163                           {
;;;2164                               opc1 = opc1 + atoi(num) * 100;
;;;2165                           }else if(cur_step == step2){
;;;2166                               opc2 = opc2 + atoi(num) * 100;
;;;2167                           }else if(cur_step == step3){
;;;2168                               opc3 = opc3 + atoi(num) * 100;
;;;2169                           }
;;;2170                       }
;;;2171                                          
;;;2172                       bit = 4;
;;;2173                       break;
;;;2174                   }
;;;2175                   case 4:
;;;2176                   {
;;;2177                       strcat(set_limit,num);
;;;2178                       TEXT_SetText(hItem,set_limit);
;;;2179                       if(dot_flag == 0)
;;;2180                       {
;;;2181                           if(cur_step == step1)
;;;2182                           {
;;;2183                               opc1 = 5000;
;;;2184                           }else if(cur_step == step2){
;;;2185                               opc2 = 5000;
;;;2186                           }else if(cur_step == step3){
;;;2187                               opc3 = 5000;
;;;2188                           }
;;;2189                       }else if(dot_flag == 2){
;;;2190                           if(cur_step == step1)
;;;2191                           {
;;;2192                               opc1 = opc1 + atoi(num) * 100;
;;;2193                           }else if(cur_step == step2){
;;;2194                               opc2 = opc2 + atoi(num) * 100;
;;;2195                           }else if(cur_step == step3){
;;;2196                               opc3 = opc3 + atoi(num) * 100;
;;;2197                           }
;;;2198                       }else{
;;;2199                           if(cur_step == step1)
;;;2200                           {
;;;2201                               opc1 = opc1 + atoi(num) * 10;
;;;2202                           }else if(cur_step == step2){
;;;2203                               opc2 = opc2 + atoi(num) * 10;
;;;2204                           }else if(cur_step == step3){
;;;2205                               opc3 = opc3 + atoi(num) * 10;
;;;2206                           }
;;;2207                       }
;;;2208                                          
;;;2209                       bit = 5;
;;;2210                       break;
;;;2211                   }
;;;2212                   case 5:
;;;2213                   {
;;;2214                       strcat(set_limit,num);
;;;2215                       TEXT_SetText(hItem,set_limit);
;;;2216                       if(dot_flag == 0)
;;;2217                       {
;;;2218                          if(cur_step == step1)
;;;2219                           {
;;;2220                               opc1 = 5000;
;;;2221                           }else if(cur_step == step2){
;;;2222                               opc2 = 5000;
;;;2223                           }else if(cur_step == step3){
;;;2224                               opc3 = 5000;
;;;2225                           }
;;;2226                       }else if(dot_flag == 1){
;;;2227                           if(cur_step == step1)
;;;2228                           {
;;;2229                               opc1 = opc1;
;;;2230                           }else if(cur_step == step2){
;;;2231                               opc2 = opc2;
;;;2232                           }else if(cur_step == step3){
;;;2233                               opc3 = opc3;
;;;2234                           }
;;;2235                       }else{
;;;2236                          if(cur_step == step1)
;;;2237                           {
;;;2238                               opc1 = opc1 + atoi(num) * 10;
;;;2239                           }else if(cur_step == step2){
;;;2240                               opc2 = opc2 + atoi(num) * 10;
;;;2241                           }else if(cur_step == step3){
;;;2242                               opc3 = opc3 + atoi(num) * 10;
;;;2243                           }
;;;2244                       }
;;;2245                                          
;;;2246                       bit = 1;
;;;2247                       break;
;;;2248                   }
;;;2249               }
;;;2250               break;
;;;2251           }
;;;2252           case set_32:
;;;2253           {
;;;2254               WM_HWIN hItem;
;;;2255   //            WM_InvalidateWindow(hWincdc);
;;;2256               hItem = WM_GetDialogItem(hWincdc, ID_TEXT_56);
;;;2257               switch(bit){
;;;2258                   case 1:
;;;2259                   {
;;;2260                       cdc_dc = atoi(num) * 100;
;;;2261                       strcat(set_limit,num);            
;;;2262                       TEXT_SetText(hItem,set_limit);
;;;2263                       
;;;2264                       bit = 2;
;;;2265                       break;
;;;2266                   }
;;;2267                   case 2:
;;;2268                   {
;;;2269                       strcat(set_limit,num);            
;;;2270                       TEXT_SetText(hItem,set_limit);
;;;2271                       if(set_limit[1] == 0x2e)//判断输入是否为小数点
;;;2272                       {
;;;2273                           dot_flag = 1;
;;;2274                       }else{
;;;2275                           cdc_dc = cdc_dc * 10 + atoi(num) * 100;
;;;2276                       }
;;;2277                       bit = 3;
;;;2278                       break;
;;;2279                   }
;;;2280                   case 3:
;;;2281                   {
;;;2282                       strcat(set_limit,num);
;;;2283                       TEXT_SetText(hItem,set_limit);
;;;2284                       if(dot_flag == 0)
;;;2285                       {
;;;2286                           if(set_limit[2] == 0x2e)//判断输入是否为小数点
;;;2287                           {                            
;;;2288                               dot_flag = 2;
;;;2289                           }else{
;;;2290                               cdc_dc = 0;
;;;2291                           }
;;;2292                       }else{
;;;2293                           cdc_dc = cdc_dc + atoi(num) * 10;
;;;2294                       }                  
;;;2295                       bit = 4;
;;;2296                       break;
;;;2297                   }
;;;2298                   case 4:
;;;2299                   {
;;;2300                       strcat(set_limit,num);
;;;2301                       TEXT_SetText(hItem,set_limit);
;;;2302                       if(dot_flag == 0)
;;;2303                       {
;;;2304                           cdc_dc = 0;
;;;2305                       }else if(dot_flag == 2){
;;;2306                           cdc_dc = cdc_dc + atoi(num) * 10;
;;;2307                       }else{
;;;2308                           cdc_dc = cdc_dc + atoi(num);
;;;2309                       }                  
;;;2310                       bit = 5;
;;;2311                       break;
;;;2312                   }
;;;2313                   case 5:
;;;2314                   {
;;;2315                       strcat(set_limit,num);
;;;2316                       TEXT_SetText(hItem,set_limit);
;;;2317                       if(dot_flag == 0)
;;;2318                       {
;;;2319                           cdc_dc = 0;
;;;2320                       }else if(dot_flag == 1){
;;;2321                           cdc_dc = cdc_dc;
;;;2322                       }else{
;;;2323                           cdc_dc = cdc_dc + atoi(num);
;;;2324                       }                 
;;;2325                       bit = 1;
;;;2326                       break;
;;;2327                   }
;;;2328               }
;;;2329               break;
;;;2330           }
;;;2331           case set_33:
;;;2332           {
;;;2333               WM_HWIN hItem;
;;;2334   //            WM_InvalidateWindow(hWincdc);
;;;2335               hItem = WM_GetDialogItem(hWincdc, ID_TEXT_57);
;;;2336               switch(bit){
;;;2337                   case 1:
;;;2338                   {
;;;2339                       set_loop_count = atoi(num);                    
;;;2340                       sprintf(loop_count,"%2d",set_loop_count);
;;;2341                       TEXT_SetText(hItem,loop_count);
;;;2342                       bit = 2;
;;;2343                       break;
;;;2344                   }
;;;2345                   case 2:
;;;2346                   {
;;;2347                       set_loop_count = set_loop_count*10 + atoi(num);                    
;;;2348                       sprintf(loop_count,"%2d",set_loop_count);
;;;2349                       TEXT_SetText(hItem,loop_count);
;;;2350                       bit = 1;
;;;2351                       break;
;;;2352                   }                
;;;2353               }
;;;2354               break;
;;;2355           }
;;;2356           case set_38:
;;;2357           {
;;;2358               WM_HWIN hItem;
;;;2359   //            WM_InvalidateWindow(hWincdc);
;;;2360               hItem = WM_GetDialogItem(hWincdc, ID_TEXT_62);
;;;2361               switch(bit){
;;;2362                   case 1:
;;;2363                   {
;;;2364                       set_c_cutoff_v = atoi(num) * 100;
;;;2365                       strcat(set_limit,num);            
;;;2366                       TEXT_SetText(hItem,set_limit);
;;;2367                       bit = 2;
;;;2368                       break;
;;;2369                   }
;;;2370                   case 2:
;;;2371                   {
;;;2372                       strcat(set_limit,num);            
;;;2373                       TEXT_SetText(hItem,set_limit);
;;;2374                       if(set_limit[1] == 0x2e)//判断输入是否为小数点
;;;2375                       {
;;;2376                           dot_flag = 1;
;;;2377                       }else{
;;;2378                           set_c_cutoff_v = set_c_cutoff_v * 10 + atoi(num) * 100;
;;;2379                       }
;;;2380                       bit = 3;
;;;2381                       break;
;;;2382                   }
;;;2383                   case 3:
;;;2384                   {
;;;2385                       strcat(set_limit,num);
;;;2386                       TEXT_SetText(hItem,set_limit);
;;;2387                       if(dot_flag == 0)
;;;2388                       {
;;;2389                           if(set_limit[2] == 0x2e)//判断输入是否为小数点
;;;2390                           {                            
;;;2391                               dot_flag = 2;
;;;2392                           }else{
;;;2393                               set_c_cutoff_v = 1600;
000024  f44f6bc8          MOV      r11,#0x640
000028  290c              CMP      r1,#0xc               ;1940
00002a  d244              BCS      |L7.182|
00002c  e8dff001          TBB      [pc,r1]               ;1940
000030  06fbfaf9          DCB      0x06,0xfb,0xfa,0xf9
000034  43434343          DCB      0x43,0x43,0x43,0x43
000038  f8f7f6f5          DCB      0xf8,0xf7,0xf6,0xf5
00003c  f6400173          MOV      r1,#0x873             ;1945
000040  4693              MOV      r11,r2                ;1945
000042  f7fffffe          BL       WM_GetDialogItem
000046  9000              STR      r0,[sp,#0]            ;1945
000048  48ed              LDR      r0,|L7.1024|
00004a  7800              LDRB     r0,[r0,#0]            ;1947  ; bit
00004c  f2417970          MOV      r9,#0x1770            ;1996
000050  2806              CMP      r0,#6                 ;1947
000052  d230              BCS      |L7.182|
000054  e8dff000          TBB      [pc,r0]               ;1947
000058  2f033174          DCB      0x2f,0x03,0x31,0x74
00005c  c8e8              DCB      0xc8,0xe8
00005e  f89b000b          LDRB     r0,[r11,#0xb]         ;1950  ; pow_step
000062  b140              CBZ      r0,|L7.118|
000064  f89b000b          LDRB     r0,[r11,#0xb]         ;1953  ; pow_step
000068  2801              CMP      r0,#1                 ;1953
00006a  d00b              BEQ      |L7.132|
00006c  f89b000b          LDRB     r0,[r11,#0xb]         ;1955  ; pow_step
000070  2802              CMP      r0,#2                 ;1955
000072  d00f              BEQ      |L7.148|
000074  e015              B        |L7.162|
                  |L7.118|
000076  9802              LDR      r0,[sp,#8]            ;1952
000078  f7fffffe          BL       atoi
00007c  2164              MOVS     r1,#0x64              ;1952
00007e  4348              MULS     r0,r1,r0              ;1952
000080  87e0              STRH     r0,[r4,#0x3e]         ;1952
000082  e00e              B        |L7.162|
                  |L7.132|
000084  9802              LDR      r0,[sp,#8]            ;1954
000086  f7fffffe          BL       atoi
00008a  2164              MOVS     r1,#0x64              ;1954
00008c  4348              MULS     r0,r1,r0              ;1954
00008e  f8a40040          STRH     r0,[r4,#0x40]         ;1954
000092  e006              B        |L7.162|
                  |L7.148|
000094  9802              LDR      r0,[sp,#8]            ;1956
000096  f7fffffe          BL       atoi
00009a  2164              MOVS     r1,#0x64              ;1956
00009c  4348              MULS     r0,r1,r0              ;1956
00009e  f8a40042          STRH     r0,[r4,#0x42]         ;1956
                  |L7.162|
0000a2  48d5              LDR      r0,|L7.1016|
0000a4  9902              LDR      r1,[sp,#8]            ;1958
0000a6  f7fffffe          BL       strcat
0000aa  49d3              LDR      r1,|L7.1016|
0000ac  9800              LDR      r0,[sp,#0]            ;1959
0000ae  f7fffffe          BL       TEXT_SetText
0000b2  48d3              LDR      r0,|L7.1024|
0000b4  7006              STRB     r6,[r0,#0]            ;1960
                  |L7.182|
;;;2394                           }
;;;2395                       }else{
;;;2396                           set_c_cutoff_v = set_c_cutoff_v + atoi(num) * 10;
;;;2397                       }
;;;2398                                          
;;;2399                       bit = 4;
;;;2400                       break;
;;;2401                   }
;;;2402                   case 4:
;;;2403                   {
;;;2404                       strcat(set_limit,num);
;;;2405                       TEXT_SetText(hItem,set_limit);
;;;2406                       if(dot_flag == 0)
;;;2407                       {
;;;2408                           set_c_cutoff_v = 1600;
;;;2409                       }else if(dot_flag == 2){
;;;2410                           set_c_cutoff_v = set_c_cutoff_v + atoi(num) * 10;
;;;2411                       }else{
;;;2412                           set_c_cutoff_v = set_c_cutoff_v + atoi(num);
;;;2413                       }
;;;2414                                          
;;;2415                       bit = 5;
;;;2416                       break;
;;;2417                   }
;;;2418                   case 5:
;;;2419                   {   
;;;2420                       strcat(set_limit,num);
;;;2421                       TEXT_SetText(hItem,set_limit);
;;;2422                       if(dot_flag == 0)
;;;2423                       {
;;;2424                           set_c_cutoff_v = 1600;
;;;2425                       }else if(dot_flag == 1){
;;;2426                           set_c_cutoff_v = set_c_cutoff_v;
;;;2427                       }else{
;;;2428                           set_c_cutoff_v = set_c_cutoff_v + atoi(num);
;;;2429                       }
;;;2430                                          
;;;2431                       bit = 1;
;;;2432                       break;
;;;2433                   }
;;;2434               }
;;;2435               break;
;;;2436           }
;;;2437           case set_39:
;;;2438           {
;;;2439               WM_HWIN hItem;
;;;2440   //            WM_InvalidateWindow(hWincdc);
;;;2441               hItem = WM_GetDialogItem(hWincdc, ID_TEXT_63);
;;;2442               switch(bit){
;;;2443                   case 1:
;;;2444                   {
;;;2445                       set_c_cutoff_c = atoi(num) * 100;
;;;2446                       strcat(set_limit,num);            
;;;2447                       TEXT_SetText(hItem,set_limit);
;;;2448                       bit = 2;
;;;2449                       break;
;;;2450                   }
;;;2451                   case 2:
;;;2452                   {
;;;2453                       strcat(set_limit,num);            
;;;2454                       TEXT_SetText(hItem,set_limit);
;;;2455                       if(set_limit[1] == 0x2e)//判断输入是否为小数点
;;;2456                       {
;;;2457                           dot_flag = 1;
;;;2458                       }else{
;;;2459                           set_c_cutoff_c = set_c_cutoff_c * 10 + atoi(num) * 100;
;;;2460                       }
;;;2461                       bit = 3;
;;;2462                       break;
;;;2463                   }
;;;2464                   case 3:
;;;2465                   {
;;;2466                       strcat(set_limit,num);
;;;2467                       TEXT_SetText(hItem,set_limit);
;;;2468                       if(dot_flag == 0)
;;;2469                       {
;;;2470                           if(set_limit[2] == 0x2e)//判断输入是否为小数点
;;;2471                           {                            
;;;2472                               dot_flag = 2;
;;;2473                           }else{
;;;2474                               set_c_cutoff_c = 500;
;;;2475                           }
;;;2476                       }else{
;;;2477                           set_c_cutoff_c = set_c_cutoff_c + atoi(num) * 10;
;;;2478                       }
;;;2479                                          
;;;2480                       bit = 4;
;;;2481                       break;
;;;2482                   }
;;;2483                   case 4:
;;;2484                   {
;;;2485                       strcat(set_limit,num);
;;;2486                       TEXT_SetText(hItem,set_limit);
;;;2487                       if(dot_flag == 0)
;;;2488                       {
;;;2489                           set_c_cutoff_c = 500;
;;;2490                       }else if(dot_flag == 2){
;;;2491                           set_c_cutoff_c = set_c_cutoff_c + atoi(num) * 10;
;;;2492                       }else{
;;;2493                           set_c_cutoff_c = set_c_cutoff_c + atoi(num);
;;;2494                       }
;;;2495                                          
;;;2496                       bit = 5;
;;;2497                       break;
;;;2498                   }
;;;2499                   case 5:
;;;2500                   {
;;;2501                       strcat(set_limit,num);
;;;2502                       TEXT_SetText(hItem,set_limit);
;;;2503                       if(dot_flag == 0)
;;;2504                       {
;;;2505                           set_c_cutoff_c = 500;
;;;2506                       }else if(dot_flag == 1){
;;;2507                           set_c_cutoff_c = set_c_cutoff_c;
;;;2508                       }else{
;;;2509                           set_c_cutoff_c = set_c_cutoff_c + atoi(num);
;;;2510                       }
;;;2511                                          
;;;2512                       bit = 1;
;;;2513                       break;
;;;2514                   }
;;;2515               }
;;;2516               break;
;;;2517           }
;;;2518           case set_40:
;;;2519           {
;;;2520               WM_HWIN hItem;
;;;2521   //            WM_InvalidateWindow(hWincdc);
;;;2522               hItem = WM_GetDialogItem(hWincdc, ID_TEXT_64);
;;;2523               switch(bit){
;;;2524                   case 1:
;;;2525                   {
;;;2526                       set_dc_cutoff_v = atoi(num) * 100;
;;;2527                       strcat(set_limit,num);            
;;;2528                       TEXT_SetText(hItem,set_limit);
;;;2529                       bit = 2;
;;;2530                       break;
;;;2531                   }
;;;2532                   case 2:
;;;2533                   {
;;;2534                       strcat(set_limit,num);            
;;;2535                       TEXT_SetText(hItem,set_limit);
;;;2536                       if(set_limit[1] == 0x2e)//判断输入是否为小数点
;;;2537                       {
;;;2538                           dot_flag = 1;
;;;2539                       }else{
;;;2540                           set_dc_cutoff_v = set_dc_cutoff_v * 10 + atoi(num) * 100;
;;;2541                       }
;;;2542                       bit = 3;
;;;2543                       break;
;;;2544                   }
;;;2545                   case 3:
;;;2546                   {
;;;2547                       strcat(set_limit,num);
;;;2548                       TEXT_SetText(hItem,set_limit);
;;;2549                       if(dot_flag == 0)
;;;2550                       {
;;;2551                           if(set_limit[2] == 0x2e)//判断输入是否为小数点
;;;2552                           {                            
;;;2553                               dot_flag = 2;
;;;2554                           }else{
;;;2555                               set_dc_cutoff_v = 1600;
;;;2556                           }
;;;2557                       }else{
;;;2558                           set_dc_cutoff_v = set_dc_cutoff_v + atoi(num) * 10;
;;;2559                       }
;;;2560                                          
;;;2561                       bit = 4;
;;;2562                       break;
;;;2563                   }
;;;2564                   case 4:
;;;2565                   {
;;;2566                       strcat(set_limit,num);
;;;2567                       TEXT_SetText(hItem,set_limit);
;;;2568                       if(dot_flag == 0)
;;;2569                       {
;;;2570                           set_dc_cutoff_v = 1600;
;;;2571                       }else if(dot_flag == 2){
;;;2572                           set_dc_cutoff_v = set_dc_cutoff_v + atoi(num) * 10;
;;;2573                       }else{
;;;2574                           set_dc_cutoff_v = set_dc_cutoff_v + atoi(num);
;;;2575                       }
;;;2576                                          
;;;2577                       bit = 5;
;;;2578                       break;
;;;2579                   }
;;;2580                   case 5:
;;;2581                   {
;;;2582                       strcat(set_limit,num);
;;;2583                       TEXT_SetText(hItem,set_limit);
;;;2584                       if(dot_flag == 0)
;;;2585                       {
;;;2586                           set_dc_cutoff_v = 1600;
;;;2587                       }else if(dot_flag == 1){
;;;2588                           set_dc_cutoff_v = set_dc_cutoff_v;
;;;2589                       }else{
;;;2590                           set_dc_cutoff_v = set_dc_cutoff_v + atoi(num);
;;;2591                       }
;;;2592                                          
;;;2593                       bit = 1;
;;;2594                       break;
;;;2595                   }
;;;2596               }
;;;2597               break;
;;;2598           }
;;;2599           case set_41:
;;;2600           {
;;;2601               WM_HWIN hItem;
;;;2602   //            WM_InvalidateWindow(hWincdc);
;;;2603               hItem = WM_GetDialogItem(hWincdc, ID_TEXT_65);
;;;2604               switch(bit){
;;;2605                   case 1:
;;;2606                   {
;;;2607                       set_dc_cutoff_c = atoi(num) * 100;
;;;2608                       strcat(set_limit,num);            
;;;2609                       TEXT_SetText(hItem,set_limit);
;;;2610                       bit = 2;
;;;2611                       break;
;;;2612                   }
;;;2613                   case 2:
;;;2614                   {
;;;2615                       strcat(set_limit,num);            
;;;2616                       TEXT_SetText(hItem,set_limit);
;;;2617                       if(set_limit[1] == 0x2e)//判断输入是否为小数点
;;;2618                       {
;;;2619                           dot_flag = 1;
;;;2620                       }else{
;;;2621                           set_dc_cutoff_c = set_dc_cutoff_c * 10 + atoi(num) * 100;
;;;2622                       }
;;;2623                       bit = 3;
;;;2624                       break;
;;;2625                   }
;;;2626                   case 3:
;;;2627                   {
;;;2628                       strcat(set_limit,num);
;;;2629                       TEXT_SetText(hItem,set_limit);
;;;2630                       if(dot_flag == 0)
;;;2631                       {
;;;2632                           if(set_limit[2] == 0x2e)//判断输入是否为小数点
;;;2633                           {                            
;;;2634                               dot_flag = 2;
;;;2635                           }else{
;;;2636                               set_dc_cutoff_c = 1500;
;;;2637                           }
;;;2638                       }else{
;;;2639                           set_dc_cutoff_c = set_dc_cutoff_c + atoi(num) * 10;
;;;2640                       }
;;;2641                                          
;;;2642                       bit = 4;
;;;2643                       break;
;;;2644                   }
;;;2645                   case 4:
;;;2646                   {
;;;2647                       strcat(set_limit,num);
;;;2648                       TEXT_SetText(hItem,set_limit);
;;;2649                       if(dot_flag == 0)
;;;2650                       {
;;;2651                           set_dc_cutoff_c = 1500;
;;;2652                       }else if(dot_flag == 2){
;;;2653                           set_dc_cutoff_c = set_dc_cutoff_c + atoi(num) * 10;
;;;2654                       }else{
;;;2655                           set_dc_cutoff_c = set_dc_cutoff_c + atoi(num);
;;;2656                       }
;;;2657                                          
;;;2658                       bit = 5;
;;;2659                       break;
;;;2660                   }
;;;2661                   case 5:
;;;2662                   {
;;;2663                       strcat(set_limit,num);
;;;2664                       TEXT_SetText(hItem,set_limit);
;;;2665                       if(dot_flag == 0)
;;;2666                       {
;;;2667                           set_dc_cutoff_c = 1500;
;;;2668                       }else if(dot_flag == 1){
;;;2669                           set_dc_cutoff_c = set_dc_cutoff_c;
;;;2670                       }else{
;;;2671                           set_dc_cutoff_c = set_dc_cutoff_c + atoi(num);
;;;2672                       }
;;;2673                                          
;;;2674                       bit = 1;
;;;2675                       break;
;;;2676                   }
;;;2677               }
;;;2678               break;
;;;2679           }
;;;2680           
;;;2681       }    
;;;2682   }
0000b6  e8bd8ffe          POP      {r1-r11,pc}
0000ba  48cf              LDR      r0,|L7.1016|
0000bc  9902              LDR      r1,[sp,#8]            ;1965
0000be  f7fffffe          BL       strcat
0000c2  49cd              LDR      r1,|L7.1016|
0000c4  9800              LDR      r0,[sp,#0]            ;1966
0000c6  f7fffffe          BL       TEXT_SetText
0000ca  f8980001          LDRB     r0,[r8,#1]            ;1967  ; set_limit
0000ce  282e              CMP      r0,#0x2e              ;1967
0000d0  d00b              BEQ      |L7.234|
0000d2  f89b000b          LDRB     r0,[r11,#0xb]         ;1971  ; pow_step
0000d6  b150              CBZ      r0,|L7.238|
0000d8  f89b000b          LDRB     r0,[r11,#0xb]         ;1974  ; pow_step
0000dc  2801              CMP      r0,#1                 ;1974
0000de  d012              BEQ      |L7.262|
0000e0  f89b000b          LDRB     r0,[r11,#0xb]         ;1976  ; pow_step
0000e4  2802              CMP      r0,#2                 ;1976
0000e6  d01b              BEQ      |L7.288|
0000e8  e026              B        |L7.312|
                  |L7.234|
0000ea  702f              STRB     r7,[r5,#0]            ;1969
0000ec  e024              B        |L7.312|
                  |L7.238|
0000ee  9802              LDR      r0,[sp,#8]            ;1973
0000f0  f7fffffe          BL       atoi
0000f4  2164              MOVS     r1,#0x64              ;1973
0000f6  4348              MULS     r0,r1,r0              ;1973
0000f8  8fe1              LDRH     r1,[r4,#0x3e]         ;1973  ; Run_Control
0000fa  eb010181          ADD      r1,r1,r1,LSL #2       ;1973
0000fe  eb000041          ADD      r0,r0,r1,LSL #1       ;1973
000102  87e0              STRH     r0,[r4,#0x3e]         ;1973
000104  e018              B        |L7.312|
                  |L7.262|
000106  9802              LDR      r0,[sp,#8]            ;1975
000108  f7fffffe          BL       atoi
00010c  2164              MOVS     r1,#0x64              ;1975
00010e  4348              MULS     r0,r1,r0              ;1975
000110  f8341f40          LDRH     r1,[r4,#0x40]!        ;1975  ; Run_Control
000114  eb010181          ADD      r1,r1,r1,LSL #2       ;1975
000118  eb000041          ADD      r0,r0,r1,LSL #1       ;1975
00011c  8020              STRH     r0,[r4,#0]            ;1975
00011e  e00b              B        |L7.312|
                  |L7.288|
000120  9802              LDR      r0,[sp,#8]            ;1977
000122  f7fffffe          BL       atoi
000126  2164              MOVS     r1,#0x64              ;1977
000128  4348              MULS     r0,r1,r0              ;1977
00012a  f8341f42          LDRH     r1,[r4,#0x42]!        ;1977  ; Run_Control
00012e  eb010181          ADD      r1,r1,r1,LSL #2       ;1977
000132  eb000041          ADD      r0,r0,r1,LSL #1       ;1977
000136  8020              STRH     r0,[r4,#0]            ;1977
                  |L7.312|
000138  48b1              LDR      r0,|L7.1024|
00013a  f880a000          STRB     r10,[r0,#0]           ;1981
                  |L7.318|
00013e  e7ba              B        |L7.182|
000140  48ad              LDR      r0,|L7.1016|
000142  9902              LDR      r1,[sp,#8]            ;1986
000144  f7fffffe          BL       strcat
000148  49ab              LDR      r1,|L7.1016|
00014a  9800              LDR      r0,[sp,#0]            ;1987
00014c  f7fffffe          BL       TEXT_SetText
000150  7828              LDRB     r0,[r5,#0]            ;1988  ; dot_flag
000152  b158              CBZ      r0,|L7.364|
000154  f89b000b          LDRB     r0,[r11,#0xb]         ;2005  ; pow_step
000158  b318              CBZ      r0,|L7.418|
00015a  f89b000b          LDRB     r0,[r11,#0xb]         ;2008  ; pow_step
00015e  2801              CMP      r0,#1                 ;2008
000160  d029              BEQ      |L7.438|
000162  f89b000b          LDRB     r0,[r11,#0xb]         ;2010  ; pow_step
000166  2802              CMP      r0,#2                 ;2010
000168  d030              BEQ      |L7.460|
00016a  e039              B        |L7.480|
                  |L7.364|
00016c  f8980002          LDRB     r0,[r8,#2]            ;1990  ; set_limit
000170  282e              CMP      r0,#0x2e              ;1990
000172  d00b              BEQ      |L7.396|
000174  f89b000b          LDRB     r0,[r11,#0xb]         ;1994  ; pow_step
000178  b150              CBZ      r0,|L7.400|
00017a  f89b000b          LDRB     r0,[r11,#0xb]         ;1997  ; pow_step
00017e  2801              CMP      r0,#1                 ;1997
000180  d009              BEQ      |L7.406|
000182  f89b000b          LDRB     r0,[r11,#0xb]         ;1999  ; pow_step
000186  2802              CMP      r0,#2                 ;1999
000188  d008              BEQ      |L7.412|
00018a  e029              B        |L7.480|
                  |L7.396|
00018c  702e              STRB     r6,[r5,#0]            ;1992
00018e  e027              B        |L7.480|
                  |L7.400|
000190  f8a4903e          STRH     r9,[r4,#0x3e]         ;1996
000194  e024              B        |L7.480|
                  |L7.406|
000196  f8a49040          STRH     r9,[r4,#0x40]         ;1998
00019a  e021              B        |L7.480|
                  |L7.412|
00019c  f8a49042          STRH     r9,[r4,#0x42]         ;2000
0001a0  e01e              B        |L7.480|
                  |L7.418|
0001a2  9802              LDR      r0,[sp,#8]            ;2007
0001a4  f7fffffe          BL       atoi
0001a8  8fe1              LDRH     r1,[r4,#0x3e]         ;2007  ; Run_Control
0001aa  eb000080          ADD      r0,r0,r0,LSL #2       ;2007
0001ae  eb010040          ADD      r0,r1,r0,LSL #1       ;2007
0001b2  87e0              STRH     r0,[r4,#0x3e]         ;2007
0001b4  e014              B        |L7.480|
                  |L7.438|
0001b6  9802              LDR      r0,[sp,#8]            ;2009
0001b8  f7fffffe          BL       atoi
0001bc  f8341f40          LDRH     r1,[r4,#0x40]!        ;2009  ; Run_Control
0001c0  eb000080          ADD      r0,r0,r0,LSL #2       ;2009
0001c4  eb010040          ADD      r0,r1,r0,LSL #1       ;2009
0001c8  8020              STRH     r0,[r4,#0]            ;2009
0001ca  e009              B        |L7.480|
                  |L7.460|
0001cc  9802              LDR      r0,[sp,#8]            ;2011
0001ce  f7fffffe          BL       atoi
0001d2  f8341f42          LDRH     r1,[r4,#0x42]!        ;2011  ; Run_Control
0001d6  eb000080          ADD      r0,r0,r0,LSL #2       ;2011
0001da  eb010040          ADD      r0,r1,r0,LSL #1       ;2011
0001de  8020              STRH     r0,[r4,#0]            ;2011
                  |L7.480|
0001e0  4987              LDR      r1,|L7.1024|
0001e2  2004              MOVS     r0,#4                 ;2016
0001e4  7008              STRB     r0,[r1,#0]            ;2016
                  |L7.486|
0001e6  e766              B        |L7.182|
0001e8  4883              LDR      r0,|L7.1016|
0001ea  9902              LDR      r1,[sp,#8]            ;2021
0001ec  f7fffffe          BL       strcat
0001f0  4981              LDR      r1,|L7.1016|
0001f2  9800              LDR      r0,[sp,#0]            ;2022
0001f4  f7fffffe          BL       TEXT_SetText
0001f8  7828              LDRB     r0,[r5,#0]            ;2023  ; dot_flag
0001fa  b1b0              CBZ      r0,|L7.554|
0001fc  7828              LDRB     r0,[r5,#0]            ;2033  ; dot_flag
0001fe  2802              CMP      r0,#2                 ;2033
000200  d028              BEQ      |L7.596|
000202  f89b000b          LDRB     r0,[r11,#0xb]         ;2043  ; pow_step
000206  b388              CBZ      r0,|L7.620|
000208  f89b000b          LDRB     r0,[r11,#0xb]         ;2046  ; pow_step
00020c  2801              CMP      r0,#1                 ;2046
00020e  d055              BEQ      |L7.700|
000210  f89b000b          LDRB     r0,[r11,#0xb]         ;2048  ; pow_step
000214  2802              CMP      r0,#2                 ;2048
000216  d059              BEQ      |L7.716|
000218  e05f              B        |L7.730|
00021a  e3f8              B        |L7.2574|
00021c  e3f8              B        |L7.2576|
00021e  e3f8              B        |L7.2578|
000220  e382              B        |L7.2344|
000222  e34a              B        |L7.2234|
000224  e29f              B        |L7.1894|
000226  e0bb              B        |L7.928|
000228  e05b              B        |L7.738|
                  |L7.554|
00022a  f89b000b          LDRB     r0,[r11,#0xb]         ;2025  ; pow_step
00022e  b140              CBZ      r0,|L7.578|
000230  f89b000b          LDRB     r0,[r11,#0xb]         ;2028  ; pow_step
000234  2801              CMP      r0,#1                 ;2028
000236  d007              BEQ      |L7.584|
000238  f89b000b          LDRB     r0,[r11,#0xb]         ;2030  ; pow_step
00023c  2802              CMP      r0,#2                 ;2030
00023e  d006              BEQ      |L7.590|
000240  e04b              B        |L7.730|
                  |L7.578|
000242  f8a4903e          STRH     r9,[r4,#0x3e]         ;2027
000246  e048              B        |L7.730|
                  |L7.584|
000248  f8a49040          STRH     r9,[r4,#0x40]         ;2029
00024c  e045              B        |L7.730|
                  |L7.590|
00024e  f8a49042          STRH     r9,[r4,#0x42]         ;2031
000252  e042              B        |L7.730|
                  |L7.596|
000254  f89b000b          LDRB     r0,[r11,#0xb]         ;2034  ; pow_step
000258  b148              CBZ      r0,|L7.622|
00025a  f89b000b          LDRB     r0,[r11,#0xb]         ;2037  ; pow_step
00025e  2801              CMP      r0,#1                 ;2037
000260  d00f              BEQ      |L7.642|
000262  f89b000b          LDRB     r0,[r11,#0xb]         ;2039  ; pow_step
000266  2802              CMP      r0,#2                 ;2039
000268  d016              BEQ      |L7.664|
00026a  e036              B        |L7.730|
                  |L7.620|
00026c  e01f              B        |L7.686|
                  |L7.622|
00026e  9802              LDR      r0,[sp,#8]            ;2036
000270  f7fffffe          BL       atoi
000274  eb000180          ADD      r1,r0,r0,LSL #2       ;2036
000278  8fe0              LDRH     r0,[r4,#0x3e]         ;2036  ; Run_Control
00027a  eb000041          ADD      r0,r0,r1,LSL #1       ;2036
00027e  87e0              STRH     r0,[r4,#0x3e]         ;2036
000280  e02b              B        |L7.730|
                  |L7.642|
000282  9802              LDR      r0,[sp,#8]            ;2038
000284  f7fffffe          BL       atoi
000288  eb000180          ADD      r1,r0,r0,LSL #2       ;2038
00028c  f8340f40          LDRH     r0,[r4,#0x40]!        ;2038  ; Run_Control
000290  eb000041          ADD      r0,r0,r1,LSL #1       ;2038
000294  8020              STRH     r0,[r4,#0]            ;2038
000296  e020              B        |L7.730|
                  |L7.664|
000298  9802              LDR      r0,[sp,#8]            ;2040
00029a  f7fffffe          BL       atoi
00029e  f8341f42          LDRH     r1,[r4,#0x42]!        ;2040  ; Run_Control
0002a2  eb000080          ADD      r0,r0,r0,LSL #2       ;2040
0002a6  eb010040          ADD      r0,r1,r0,LSL #1       ;2040
0002aa  8020              STRH     r0,[r4,#0]            ;2040
0002ac  e015              B        |L7.730|
                  |L7.686|
0002ae  9802              LDR      r0,[sp,#8]            ;2045
0002b0  f7fffffe          BL       atoi
0002b4  8fe1              LDRH     r1,[r4,#0x3e]         ;2045  ; Run_Control
0002b6  4408              ADD      r0,r0,r1              ;2045
0002b8  87e0              STRH     r0,[r4,#0x3e]         ;2045
0002ba  e00e              B        |L7.730|
                  |L7.700|
0002bc  9802              LDR      r0,[sp,#8]            ;2047
0002be  f7fffffe          BL       atoi
0002c2  f8341f40          LDRH     r1,[r4,#0x40]!        ;2047  ; Run_Control
0002c6  4408              ADD      r0,r0,r1              ;2047
0002c8  8020              STRH     r0,[r4,#0]            ;2047
0002ca  e006              B        |L7.730|
                  |L7.716|
0002cc  9802              LDR      r0,[sp,#8]            ;2049
0002ce  f7fffffe          BL       atoi
0002d2  f8341f42          LDRH     r1,[r4,#0x42]!        ;2049  ; Run_Control
0002d6  4408              ADD      r0,r0,r1              ;2049
0002d8  8020              STRH     r0,[r4,#0]            ;2049
                  |L7.730|
0002da  4949              LDR      r1,|L7.1024|
0002dc  2005              MOVS     r0,#5                 ;2054
0002de  7008              STRB     r0,[r1,#0]            ;2054
                  |L7.736|
0002e0  e6e9              B        |L7.182|
                  |L7.738|
0002e2  4845              LDR      r0,|L7.1016|
0002e4  9902              LDR      r1,[sp,#8]            ;2059
0002e6  f7fffffe          BL       strcat
0002ea  4943              LDR      r1,|L7.1016|
0002ec  9800              LDR      r0,[sp,#0]            ;2060
0002ee  f7fffffe          BL       TEXT_SetText
0002f2  7828              LDRB     r0,[r5,#0]            ;2061  ; dot_flag
0002f4  b170              CBZ      r0,|L7.788|
0002f6  7828              LDRB     r0,[r5,#0]            ;2071  ; dot_flag
0002f8  2801              CMP      r0,#1                 ;2071
0002fa  d020              BEQ      |L7.830|
0002fc  f89b000b          LDRB     r0,[r11,#0xb]         ;2082  ; pow_step
000300  b380              CBZ      r0,|L7.868|
000302  f89b000b          LDRB     r0,[r11,#0xb]         ;2085  ; pow_step
000306  2801              CMP      r0,#1                 ;2085
000308  d038              BEQ      |L7.892|
00030a  f89b000b          LDRB     r0,[r11,#0xb]         ;2087  ; pow_step
00030e  2802              CMP      r0,#2                 ;2087
000310  d03c              BEQ      |L7.908|
000312  e042              B        |L7.922|
                  |L7.788|
000314  f89b000b          LDRB     r0,[r11,#0xb]         ;2063  ; pow_step
000318  b140              CBZ      r0,|L7.812|
00031a  f89b000b          LDRB     r0,[r11,#0xb]         ;2066  ; pow_step
00031e  2801              CMP      r0,#1                 ;2066
000320  d007              BEQ      |L7.818|
000322  f89b000b          LDRB     r0,[r11,#0xb]         ;2068  ; pow_step
000326  2802              CMP      r0,#2                 ;2068
000328  d006              BEQ      |L7.824|
00032a  e036              B        |L7.922|
                  |L7.812|
00032c  f8a4903e          STRH     r9,[r4,#0x3e]         ;2065
000330  e033              B        |L7.922|
                  |L7.818|
000332  f8a49040          STRH     r9,[r4,#0x40]         ;2067
000336  e030              B        |L7.922|
                  |L7.824|
000338  f8a49042          STRH     r9,[r4,#0x42]         ;2069
00033c  e02d              B        |L7.922|
                  |L7.830|
00033e  f89b000b          LDRB     r0,[r11,#0xb]         ;2072  ; pow_step
000342  b140              CBZ      r0,|L7.854|
000344  f89b000b          LDRB     r0,[r11,#0xb]         ;2075  ; pow_step
000348  2801              CMP      r0,#1                 ;2075
00034a  d007              BEQ      |L7.860|
00034c  f89b000b          LDRB     r0,[r11,#0xb]         ;2077  ; pow_step
000350  2802              CMP      r0,#2                 ;2077
000352  d008              BEQ      |L7.870|
000354  e021              B        |L7.922|
                  |L7.854|
000356  8fe0              LDRH     r0,[r4,#0x3e]         ;2074  ; Run_Control
000358  87e0              STRH     r0,[r4,#0x3e]         ;2074
00035a  e01e              B        |L7.922|
                  |L7.860|
00035c  f8340f40          LDRH     r0,[r4,#0x40]!        ;2076  ; Run_Control
000360  8020              STRH     r0,[r4,#0]            ;2076
000362  e01a              B        |L7.922|
                  |L7.868|
000364  e003              B        |L7.878|
                  |L7.870|
000366  f8340f42          LDRH     r0,[r4,#0x42]!        ;2078  ; Run_Control
00036a  8020              STRH     r0,[r4,#0]            ;2078
00036c  e015              B        |L7.922|
                  |L7.878|
00036e  9802              LDR      r0,[sp,#8]            ;2084
000370  f7fffffe          BL       atoi
000374  8fe1              LDRH     r1,[r4,#0x3e]         ;2084  ; Run_Control
000376  4408              ADD      r0,r0,r1              ;2084
000378  87e0              STRH     r0,[r4,#0x3e]         ;2084
00037a  e00e              B        |L7.922|
                  |L7.892|
00037c  9802              LDR      r0,[sp,#8]            ;2086
00037e  f7fffffe          BL       atoi
000382  f8341f40          LDRH     r1,[r4,#0x40]!        ;2086  ; Run_Control
000386  4408              ADD      r0,r0,r1              ;2086
000388  8020              STRH     r0,[r4,#0]            ;2086
00038a  e006              B        |L7.922|
                  |L7.908|
00038c  9802              LDR      r0,[sp,#8]            ;2088
00038e  f7fffffe          BL       atoi
000392  f8341f42          LDRH     r1,[r4,#0x42]!        ;2088  ; Run_Control
000396  4408              ADD      r0,r0,r1              ;2088
000398  8020              STRH     r0,[r4,#0]            ;2088
                  |L7.922|
00039a  4819              LDR      r0,|L7.1024|
00039c  7007              STRB     r7,[r0,#0]            ;2093
                  |L7.926|
00039e  e68a              B        |L7.182|
                  |L7.928|
0003a0  f6400174          MOV      r1,#0x874             ;2103
0003a4  4693              MOV      r11,r2                ;2103
0003a6  f7fffffe          BL       WM_GetDialogItem
0003aa  9000              STR      r0,[sp,#0]            ;2103
0003ac  4814              LDR      r0,|L7.1024|
0003ae  7800              LDRB     r0,[r0,#0]            ;2104  ; bit
0003b0  f2413988          MOV      r9,#0x1388            ;2153
0003b4  2806              CMP      r0,#6                 ;2104
0003b6  d293              BCS      |L7.736|
0003b8  e8dff000          TBB      [pc,r0]               ;2104
0003bc  03044289          DCB      0x03,0x04,0x42,0x89
0003c0  e4fd              DCB      0xe4,0xfd
0003c2  e678              B        |L7.182|
0003c4  f89b000c          LDRB     r0,[r11,#0xc]         ;2107  ; cur_step
0003c8  b140              CBZ      r0,|L7.988|
0003ca  f89b000c          LDRB     r0,[r11,#0xc]         ;2110  ; cur_step
0003ce  2801              CMP      r0,#1                 ;2110
0003d0  d01a              BEQ      |L7.1032|
0003d2  f89b000c          LDRB     r0,[r11,#0xc]         ;2112  ; cur_step
0003d6  2802              CMP      r0,#2                 ;2112
0003d8  d01f              BEQ      |L7.1050|
0003da  e026              B        |L7.1066|
                  |L7.988|
0003dc  9802              LDR      r0,[sp,#8]            ;2109
0003de  f7fffffe          BL       atoi
0003e2  f44f717a          MOV      r1,#0x3e8             ;2109
0003e6  4348              MULS     r0,r1,r0              ;2109
0003e8  f8a40044          STRH     r0,[r4,#0x44]         ;2109
0003ec  e01d              B        |L7.1066|
0003ee  0000              DCW      0x0000
                  |L7.1008|
                          DCD      set_sw
                  |L7.1012|
                          DCD      Run_Control
                  |L7.1016|
                          DCD      set_limit
                  |L7.1020|
                          DCD      ||.data||
                  |L7.1024|
                          DCD      bit
                  |L7.1028|
                          DCD      dot_flag
                  |L7.1032|
000408  9802              LDR      r0,[sp,#8]            ;2111
00040a  f7fffffe          BL       atoi
00040e  f44f717a          MOV      r1,#0x3e8             ;2111
000412  4348              MULS     r0,r1,r0              ;2111
000414  f8a40046          STRH     r0,[r4,#0x46]         ;2111
000418  e007              B        |L7.1066|
                  |L7.1050|
00041a  9802              LDR      r0,[sp,#8]            ;2113
00041c  f7fffffe          BL       atoi
000420  f44f717a          MOV      r1,#0x3e8             ;2113
000424  4348              MULS     r0,r1,r0              ;2113
000426  f8a40048          STRH     r0,[r4,#0x48]         ;2113
                  |L7.1066|
00042a  48fb              LDR      r0,|L7.2072|
00042c  9902              LDR      r1,[sp,#8]            ;2115
00042e  f7fffffe          BL       strcat
000432  49f9              LDR      r1,|L7.2072|
000434  9800              LDR      r0,[sp,#0]            ;2116
000436  f7fffffe          BL       TEXT_SetText
00043a  48f8              LDR      r0,|L7.2076|
00043c  7006              STRB     r6,[r0,#0]            ;2117
                  |L7.1086|
00043e  e63a              B        |L7.182|
000440  48f5              LDR      r0,|L7.2072|
000442  9902              LDR      r1,[sp,#8]            ;2122
000444  f7fffffe          BL       strcat
000448  49f3              LDR      r1,|L7.2072|
00044a  9800              LDR      r0,[sp,#0]            ;2123
00044c  f7fffffe          BL       TEXT_SetText
000450  f8980001          LDRB     r0,[r8,#1]            ;2124  ; set_limit
000454  282e              CMP      r0,#0x2e              ;2124
000456  d00b              BEQ      |L7.1136|
000458  f89b000c          LDRB     r0,[r11,#0xc]         ;2128  ; cur_step
00045c  b150              CBZ      r0,|L7.1140|
00045e  f89b000c          LDRB     r0,[r11,#0xc]         ;2131  ; cur_step
000462  2801              CMP      r0,#1                 ;2131
000464  d014              BEQ      |L7.1168|
000466  f89b000c          LDRB     r0,[r11,#0xc]         ;2133  ; cur_step
00046a  2802              CMP      r0,#2                 ;2133
00046c  d01e              BEQ      |L7.1196|
00046e  e02a              B        |L7.1222|
                  |L7.1136|
000470  702f              STRB     r7,[r5,#0]            ;2126
000472  e028              B        |L7.1222|
                  |L7.1140|
000474  9802              LDR      r0,[sp,#8]            ;2130
000476  f7fffffe          BL       atoi
00047a  f44f717a          MOV      r1,#0x3e8             ;2130
00047e  4348              MULS     r0,r1,r0              ;2130
000480  f8341f44          LDRH     r1,[r4,#0x44]!        ;2130  ; Run_Control
000484  eb010181          ADD      r1,r1,r1,LSL #2       ;2130
000488  eb000041          ADD      r0,r0,r1,LSL #1       ;2130
00048c  8020              STRH     r0,[r4,#0]            ;2130
00048e  e01a              B        |L7.1222|
                  |L7.1168|
000490  9802              LDR      r0,[sp,#8]            ;2132
000492  f7fffffe          BL       atoi
000496  f44f717a          MOV      r1,#0x3e8             ;2132
00049a  4348              MULS     r0,r1,r0              ;2132
00049c  f8341f46          LDRH     r1,[r4,#0x46]!        ;2132  ; Run_Control
0004a0  eb010181          ADD      r1,r1,r1,LSL #2       ;2132
0004a4  eb000041          ADD      r0,r0,r1,LSL #1       ;2132
0004a8  8020              STRH     r0,[r4,#0]            ;2132
0004aa  e00c              B        |L7.1222|
                  |L7.1196|
0004ac  9802              LDR      r0,[sp,#8]            ;2134
0004ae  f7fffffe          BL       atoi
0004b2  f44f717a          MOV      r1,#0x3e8             ;2134
0004b6  4348              MULS     r0,r1,r0              ;2134
0004b8  f8341f46          LDRH     r1,[r4,#0x46]!        ;2134  ; Run_Control
0004bc  eb010181          ADD      r1,r1,r1,LSL #2       ;2134
0004c0  eb000041          ADD      r0,r0,r1,LSL #1       ;2134
0004c4  8020              STRH     r0,[r4,#0]            ;2134
                  |L7.1222|
0004c6  48d5              LDR      r0,|L7.2076|
0004c8  f880a000          STRB     r10,[r0,#0]           ;2138
                  |L7.1228|
0004cc  e5f3              B        |L7.182|
0004ce  48d2              LDR      r0,|L7.2072|
0004d0  9902              LDR      r1,[sp,#8]            ;2143
0004d2  f7fffffe          BL       strcat
0004d6  49d0              LDR      r1,|L7.2072|
0004d8  9800              LDR      r0,[sp,#0]            ;2144
0004da  f7fffffe          BL       TEXT_SetText
0004de  7828              LDRB     r0,[r5,#0]            ;2145  ; dot_flag
0004e0  b158              CBZ      r0,|L7.1274|
0004e2  f89b000c          LDRB     r0,[r11,#0xc]         ;2162  ; cur_step
0004e6  b318              CBZ      r0,|L7.1328|
0004e8  f89b000c          LDRB     r0,[r11,#0xc]         ;2165  ; cur_step
0004ec  2801              CMP      r0,#1                 ;2165
0004ee  d02c              BEQ      |L7.1354|
0004f0  f89b000c          LDRB     r0,[r11,#0xc]         ;2167  ; cur_step
0004f4  2802              CMP      r0,#2                 ;2167
0004f6  d035              BEQ      |L7.1380|
0004f8  e040              B        |L7.1404|
                  |L7.1274|
0004fa  f8980002          LDRB     r0,[r8,#2]            ;2147  ; set_limit
0004fe  282e              CMP      r0,#0x2e              ;2147
000500  d00b              BEQ      |L7.1306|
000502  f89b000c          LDRB     r0,[r11,#0xc]         ;2151  ; cur_step
000506  b150              CBZ      r0,|L7.1310|
000508  f89b000c          LDRB     r0,[r11,#0xc]         ;2154  ; cur_step
00050c  2801              CMP      r0,#1                 ;2154
00050e  d009              BEQ      |L7.1316|
000510  f89b000c          LDRB     r0,[r11,#0xc]         ;2156  ; cur_step
000514  2802              CMP      r0,#2                 ;2156
000516  d008              BEQ      |L7.1322|
000518  e030              B        |L7.1404|
                  |L7.1306|
00051a  702e              STRB     r6,[r5,#0]            ;2149
00051c  e02e              B        |L7.1404|
                  |L7.1310|
00051e  f8a49044          STRH     r9,[r4,#0x44]         ;2153
000522  e02b              B        |L7.1404|
                  |L7.1316|
000524  f8a49046          STRH     r9,[r4,#0x46]         ;2155
000528  e028              B        |L7.1404|
                  |L7.1322|
00052a  f8a49048          STRH     r9,[r4,#0x48]         ;2157
00052e  e025              B        |L7.1404|
                  |L7.1328|
000530  9802              LDR      r0,[sp,#8]            ;2164
000532  f7fffffe          BL       atoi
000536  eb0001c0          ADD      r1,r0,r0,LSL #3       ;2164
00053a  eb011000          ADD      r0,r1,r0,LSL #4       ;2164
00053e  f8341f44          LDRH     r1,[r4,#0x44]!        ;2164  ; Run_Control
000542  eb010080          ADD      r0,r1,r0,LSL #2       ;2164
000546  8020              STRH     r0,[r4,#0]            ;2164
000548  e018              B        |L7.1404|
                  |L7.1354|
00054a  9802              LDR      r0,[sp,#8]            ;2166
00054c  f7fffffe          BL       atoi
000550  eb0001c0          ADD      r1,r0,r0,LSL #3       ;2166
000554  eb011000          ADD      r0,r1,r0,LSL #4       ;2166
000558  f8341f46          LDRH     r1,[r4,#0x46]!        ;2166  ; Run_Control
00055c  eb010080          ADD      r0,r1,r0,LSL #2       ;2166
000560  8020              STRH     r0,[r4,#0]            ;2166
000562  e00b              B        |L7.1404|
                  |L7.1380|
000564  9802              LDR      r0,[sp,#8]            ;2168
000566  f7fffffe          BL       atoi
00056a  eb0001c0          ADD      r1,r0,r0,LSL #3       ;2168
00056e  eb011100          ADD      r1,r1,r0,LSL #4       ;2168
000572  f8340f48          LDRH     r0,[r4,#0x48]!        ;2168  ; Run_Control
000576  eb000081          ADD      r0,r0,r1,LSL #2       ;2168
00057a  8020              STRH     r0,[r4,#0]            ;2168
                  |L7.1404|
00057c  49a7              LDR      r1,|L7.2076|
00057e  2004              MOVS     r0,#4                 ;2172
000580  7008              STRB     r0,[r1,#0]            ;2172
                  |L7.1410|
000582  e598              B        |L7.182|
000584  48a4              LDR      r0,|L7.2072|
000586  9902              LDR      r1,[sp,#8]            ;2177
000588  f7fffffe          BL       strcat
00058c  49a2              LDR      r1,|L7.2072|
00058e  9800              LDR      r0,[sp,#0]            ;2178
000590  f7fffffe          BL       TEXT_SetText
000594  7828              LDRB     r0,[r5,#0]            ;2179  ; dot_flag
000596  b178              CBZ      r0,|L7.1464|
000598  7828              LDRB     r0,[r5,#0]            ;2189  ; dot_flag
00059a  2802              CMP      r0,#2                 ;2189
00059c  d021              BEQ      |L7.1506|
00059e  f89b000c          LDRB     r0,[r11,#0xc]         ;2199  ; cur_step
0005a2  b3b8              CBZ      r0,|L7.1556|
0005a4  f89b000c          LDRB     r0,[r11,#0xc]         ;2202  ; cur_step
0005a8  2801              CMP      r0,#1                 ;2202
0005aa  d059              BEQ      |L7.1632|
0005ac  f89b000c          LDRB     r0,[r11,#0xc]         ;2204  ; cur_step
0005b0  2802              CMP      r0,#2                 ;2204
0005b2  d060              BEQ      |L7.1654|
0005b4  e069              B        |L7.1674|
0005b6  e06c              B        |L7.1682|
                  |L7.1464|
0005b8  f89b000c          LDRB     r0,[r11,#0xc]         ;2181  ; cur_step
0005bc  b140              CBZ      r0,|L7.1488|
0005be  f89b000c          LDRB     r0,[r11,#0xc]         ;2184  ; cur_step
0005c2  2801              CMP      r0,#1                 ;2184
0005c4  d007              BEQ      |L7.1494|
0005c6  f89b000c          LDRB     r0,[r11,#0xc]         ;2186  ; cur_step
0005ca  2802              CMP      r0,#2                 ;2186
0005cc  d006              BEQ      |L7.1500|
0005ce  e05c              B        |L7.1674|
                  |L7.1488|
0005d0  f8a49044          STRH     r9,[r4,#0x44]         ;2183
0005d4  e059              B        |L7.1674|
                  |L7.1494|
0005d6  f8a49046          STRH     r9,[r4,#0x46]         ;2185
0005da  e056              B        |L7.1674|
                  |L7.1500|
0005dc  f8a49048          STRH     r9,[r4,#0x48]         ;2187
0005e0  e053              B        |L7.1674|
                  |L7.1506|
0005e2  f89b000c          LDRB     r0,[r11,#0xc]         ;2190  ; cur_step
0005e6  b140              CBZ      r0,|L7.1530|
0005e8  f89b000c          LDRB     r0,[r11,#0xc]         ;2193  ; cur_step
0005ec  2801              CMP      r0,#1                 ;2193
0005ee  d012              BEQ      |L7.1558|
0005f0  f89b000c          LDRB     r0,[r11,#0xc]         ;2195  ; cur_step
0005f4  2802              CMP      r0,#2                 ;2195
0005f6  d01b              BEQ      |L7.1584|
0005f8  e047              B        |L7.1674|
                  |L7.1530|
0005fa  9802              LDR      r0,[sp,#8]            ;2192
0005fc  f7fffffe          BL       atoi
000600  eb0001c0          ADD      r1,r0,r0,LSL #3       ;2192
000604  eb011000          ADD      r0,r1,r0,LSL #4       ;2192
000608  f8341f44          LDRH     r1,[r4,#0x44]!        ;2192  ; Run_Control
00060c  eb010080          ADD      r0,r1,r0,LSL #2       ;2192
000610  8020              STRH     r0,[r4,#0]            ;2192
000612  e03a              B        |L7.1674|
                  |L7.1556|
000614  e019              B        |L7.1610|
                  |L7.1558|
000616  9802              LDR      r0,[sp,#8]            ;2194
000618  f7fffffe          BL       atoi
00061c  eb0001c0          ADD      r1,r0,r0,LSL #3       ;2194
000620  eb011000          ADD      r0,r1,r0,LSL #4       ;2194
000624  f8341f46          LDRH     r1,[r4,#0x46]!        ;2194  ; Run_Control
000628  eb010080          ADD      r0,r1,r0,LSL #2       ;2194
00062c  8020              STRH     r0,[r4,#0]            ;2194
00062e  e02c              B        |L7.1674|
                  |L7.1584|
000630  9802              LDR      r0,[sp,#8]            ;2196
000632  f7fffffe          BL       atoi
000636  eb0001c0          ADD      r1,r0,r0,LSL #3       ;2196
00063a  eb011000          ADD      r0,r1,r0,LSL #4       ;2196
00063e  f8341f48          LDRH     r1,[r4,#0x48]!        ;2196  ; Run_Control
000642  eb010080          ADD      r0,r1,r0,LSL #2       ;2196
000646  8020              STRH     r0,[r4,#0]            ;2196
000648  e01f              B        |L7.1674|
                  |L7.1610|
00064a  9802              LDR      r0,[sp,#8]            ;2201
00064c  f7fffffe          BL       atoi
000650  eb000180          ADD      r1,r0,r0,LSL #2       ;2201
000654  f8340f44          LDRH     r0,[r4,#0x44]!        ;2201  ; Run_Control
000658  eb000041          ADD      r0,r0,r1,LSL #1       ;2201
00065c  8020              STRH     r0,[r4,#0]            ;2201
00065e  e014              B        |L7.1674|
                  |L7.1632|
000660  9802              LDR      r0,[sp,#8]            ;2203
000662  f7fffffe          BL       atoi
000666  f8341f46          LDRH     r1,[r4,#0x46]!        ;2203  ; Run_Control
00066a  eb000080          ADD      r0,r0,r0,LSL #2       ;2203
00066e  eb010040          ADD      r0,r1,r0,LSL #1       ;2203
000672  8020              STRH     r0,[r4,#0]            ;2203
000674  e009              B        |L7.1674|
                  |L7.1654|
000676  9802              LDR      r0,[sp,#8]            ;2205
000678  f7fffffe          BL       atoi
00067c  f8341f48          LDRH     r1,[r4,#0x48]!        ;2205  ; Run_Control
000680  eb000080          ADD      r0,r0,r0,LSL #2       ;2205
000684  eb010040          ADD      r0,r1,r0,LSL #1       ;2205
000688  8020              STRH     r0,[r4,#0]            ;2205
                  |L7.1674|
00068a  4964              LDR      r1,|L7.2076|
00068c  2005              MOVS     r0,#5                 ;2209
00068e  7008              STRB     r0,[r1,#0]            ;2209
                  |L7.1680|
000690  e511              B        |L7.182|
                  |L7.1682|
000692  4861              LDR      r0,|L7.2072|
000694  9902              LDR      r1,[sp,#8]            ;2214
000696  f7fffffe          BL       strcat
00069a  495f              LDR      r1,|L7.2072|
00069c  9800              LDR      r0,[sp,#0]            ;2215
00069e  f7fffffe          BL       TEXT_SetText
0006a2  7828              LDRB     r0,[r5,#0]            ;2216  ; dot_flag
0006a4  b170              CBZ      r0,|L7.1732|
0006a6  7828              LDRB     r0,[r5,#0]            ;2226  ; dot_flag
0006a8  2801              CMP      r0,#1                 ;2226
0006aa  d020              BEQ      |L7.1774|
0006ac  f89b000c          LDRB     r0,[r11,#0xc]         ;2236  ; cur_step
0006b0  b388              CBZ      r0,|L7.1814|
0006b2  f89b000c          LDRB     r0,[r11,#0xc]         ;2239  ; cur_step
0006b6  2801              CMP      r0,#1                 ;2239
0006b8  d03d              BEQ      |L7.1846|
0006ba  f89b000c          LDRB     r0,[r11,#0xc]         ;2241  ; cur_step
0006be  2802              CMP      r0,#2                 ;2241
0006c0  d044              BEQ      |L7.1868|
0006c2  e04d              B        |L7.1888|
                  |L7.1732|
0006c4  f89b000c          LDRB     r0,[r11,#0xc]         ;2218  ; cur_step
0006c8  b140              CBZ      r0,|L7.1756|
0006ca  f89b000c          LDRB     r0,[r11,#0xc]         ;2221  ; cur_step
0006ce  2801              CMP      r0,#1                 ;2221
0006d0  d007              BEQ      |L7.1762|
0006d2  f89b000c          LDRB     r0,[r11,#0xc]         ;2223  ; cur_step
0006d6  2802              CMP      r0,#2                 ;2223
0006d8  d006              BEQ      |L7.1768|
0006da  e041              B        |L7.1888|
                  |L7.1756|
0006dc  f8a49044          STRH     r9,[r4,#0x44]         ;2220
0006e0  e03e              B        |L7.1888|
                  |L7.1762|
0006e2  f8a49046          STRH     r9,[r4,#0x46]         ;2222
0006e6  e03b              B        |L7.1888|
                  |L7.1768|
0006e8  f8a49048          STRH     r9,[r4,#0x48]         ;2224
0006ec  e038              B        |L7.1888|
                  |L7.1774|
0006ee  f89b000c          LDRB     r0,[r11,#0xc]         ;2227  ; cur_step
0006f2  b140              CBZ      r0,|L7.1798|
0006f4  f89b000c          LDRB     r0,[r11,#0xc]         ;2230  ; cur_step
0006f8  2801              CMP      r0,#1                 ;2230
0006fa  d008              BEQ      |L7.1806|
0006fc  f89b000c          LDRB     r0,[r11,#0xc]         ;2232  ; cur_step
000700  2802              CMP      r0,#2                 ;2232
000702  d009              BEQ      |L7.1816|
000704  e02c              B        |L7.1888|
                  |L7.1798|
000706  f8340f44          LDRH     r0,[r4,#0x44]!        ;2229  ; Run_Control
00070a  8020              STRH     r0,[r4,#0]            ;2229
00070c  e028              B        |L7.1888|
                  |L7.1806|
00070e  f8340f46          LDRH     r0,[r4,#0x46]!        ;2231  ; Run_Control
000712  8020              STRH     r0,[r4,#0]            ;2231
000714  e024              B        |L7.1888|
                  |L7.1814|
000716  e003              B        |L7.1824|
                  |L7.1816|
000718  f8340f48          LDRH     r0,[r4,#0x48]!        ;2233  ; Run_Control
00071c  8020              STRH     r0,[r4,#0]            ;2233
00071e  e01f              B        |L7.1888|
                  |L7.1824|
000720  9802              LDR      r0,[sp,#8]            ;2238
000722  f7fffffe          BL       atoi
000726  f8341f44          LDRH     r1,[r4,#0x44]!        ;2238  ; Run_Control
00072a  eb000080          ADD      r0,r0,r0,LSL #2       ;2238
00072e  eb010040          ADD      r0,r1,r0,LSL #1       ;2238
000732  8020              STRH     r0,[r4,#0]            ;2238
000734  e014              B        |L7.1888|
                  |L7.1846|
000736  9802              LDR      r0,[sp,#8]            ;2240
000738  f7fffffe          BL       atoi
00073c  f8341f46          LDRH     r1,[r4,#0x46]!        ;2240  ; Run_Control
000740  eb000080          ADD      r0,r0,r0,LSL #2       ;2240
000744  eb010040          ADD      r0,r1,r0,LSL #1       ;2240
000748  8020              STRH     r0,[r4,#0]            ;2240
00074a  e009              B        |L7.1888|
                  |L7.1868|
00074c  9802              LDR      r0,[sp,#8]            ;2242
00074e  f7fffffe          BL       atoi
000752  f8341f48          LDRH     r1,[r4,#0x48]!        ;2242  ; Run_Control
000756  eb000080          ADD      r0,r0,r0,LSL #2       ;2242
00075a  eb010040          ADD      r0,r1,r0,LSL #1       ;2242
00075e  8020              STRH     r0,[r4,#0]            ;2242
                  |L7.1888|
000760  482e              LDR      r0,|L7.2076|
000762  7007              STRB     r7,[r0,#0]            ;2246
000764  e4a7              B        |L7.182|
                  |L7.1894|
000766  f6400175          MOV      r1,#0x875             ;2256
00076a  f7fffffe          BL       WM_GetDialogItem
00076e  9000              STR      r0,[sp,#0]            ;2256
000770  f8990000          LDRB     r0,[r9,#0]            ;2257  ; bit
000774  f04f0b00          MOV      r11,#0                ;2290
000778  2806              CMP      r0,#6                 ;2257
00077a  d289              BCS      |L7.1680|
00077c  e8dff000          TBB      [pc,r0]               ;2257
000780  03041633          DCB      0x03,0x04,0x16,0x33
000784  597f              DCB      0x59,0x7f
000786  e496              B        |L7.182|
000788  9802              LDR      r0,[sp,#8]            ;2260
00078a  f7fffffe          BL       atoi
00078e  2164              MOVS     r1,#0x64              ;2260
000790  4348              MULS     r0,r1,r0              ;2260
000792  f8a40052          STRH     r0,[r4,#0x52]         ;2260
000796  4820              LDR      r0,|L7.2072|
000798  9902              LDR      r1,[sp,#8]            ;2261
00079a  f7fffffe          BL       strcat
00079e  491e              LDR      r1,|L7.2072|
0007a0  9800              LDR      r0,[sp,#0]            ;2262
0007a2  f7fffffe          BL       TEXT_SetText
0007a6  f8896000          STRB     r6,[r9,#0]            ;2264
0007aa  e484              B        |L7.182|
0007ac  481a              LDR      r0,|L7.2072|
0007ae  9902              LDR      r1,[sp,#8]            ;2269
0007b0  f7fffffe          BL       strcat
0007b4  4918              LDR      r1,|L7.2072|
0007b6  9800              LDR      r0,[sp,#0]            ;2270
0007b8  f7fffffe          BL       TEXT_SetText
0007bc  f8980001          LDRB     r0,[r8,#1]            ;2271  ; set_limit
0007c0  282e              CMP      r0,#0x2e              ;2271
0007c2  d00e              BEQ      |L7.2018|
0007c4  9802              LDR      r0,[sp,#8]            ;2275
0007c6  f7fffffe          BL       atoi
0007ca  2164              MOVS     r1,#0x64              ;2275
0007cc  4348              MULS     r0,r1,r0              ;2275
0007ce  f8341f52          LDRH     r1,[r4,#0x52]!        ;2275  ; Run_Control
0007d2  eb010181          ADD      r1,r1,r1,LSL #2       ;2275
0007d6  eb000041          ADD      r0,r0,r1,LSL #1       ;2275
0007da  8020              STRH     r0,[r4,#0]            ;2275
                  |L7.2012|
0007dc  f889a000          STRB     r10,[r9,#0]           ;2277
                  |L7.2016|
0007e0  e469              B        |L7.182|
                  |L7.2018|
0007e2  702f              STRB     r7,[r5,#0]            ;2273
0007e4  e7fa              B        |L7.2012|
0007e6  480c              LDR      r0,|L7.2072|
0007e8  9902              LDR      r1,[sp,#8]            ;2282
0007ea  f7fffffe          BL       strcat
0007ee  490a              LDR      r1,|L7.2072|
0007f0  9800              LDR      r0,[sp,#0]            ;2283
0007f2  f7fffffe          BL       TEXT_SetText
0007f6  7828              LDRB     r0,[r5,#0]            ;2284  ; dot_flag
0007f8  b190              CBZ      r0,|L7.2080|
0007fa  9802              LDR      r0,[sp,#8]            ;2293
0007fc  f7fffffe          BL       atoi
000800  f8341f52          LDRH     r1,[r4,#0x52]!        ;2293  ; Run_Control
000804  eb000080          ADD      r0,r0,r0,LSL #2       ;2293
000808  eb010040          ADD      r0,r1,r0,LSL #1       ;2293
00080c  8020              STRH     r0,[r4,#0]            ;2293
                  |L7.2062|
00080e  2004              MOVS     r0,#4                 ;2295
000810  f8890000          STRB     r0,[r9,#0]            ;2295
000814  e44f              B        |L7.182|
000816  0000              DCW      0x0000
                  |L7.2072|
                          DCD      set_limit
                  |L7.2076|
                          DCD      bit
                  |L7.2080|
000820  f8980002          LDRB     r0,[r8,#2]            ;2286  ; set_limit
000824  282e              CMP      r0,#0x2e              ;2286
000826  d002              BEQ      |L7.2094|
000828  f8a4b052          STRH     r11,[r4,#0x52]        ;2290
00082c  e7ef              B        |L7.2062|
                  |L7.2094|
00082e  702e              STRB     r6,[r5,#0]            ;2288
000830  e7ed              B        |L7.2062|
000832  48f9              LDR      r0,|L7.3096|
000834  9902              LDR      r1,[sp,#8]            ;2300
000836  f7fffffe          BL       strcat
00083a  49f7              LDR      r1,|L7.3096|
00083c  9800              LDR      r0,[sp,#0]            ;2301
00083e  f7fffffe          BL       TEXT_SetText
000842  7828              LDRB     r0,[r5,#0]            ;2302  ; dot_flag
000844  b168              CBZ      r0,|L7.2146|
000846  7828              LDRB     r0,[r5,#0]            ;2305  ; dot_flag
000848  2802              CMP      r0,#2                 ;2305
00084a  d00d              BEQ      |L7.2152|
00084c  9802              LDR      r0,[sp,#8]            ;2308
00084e  f7fffffe          BL       atoi
000852  f8341f52          LDRH     r1,[r4,#0x52]!        ;2308  ; Run_Control
000856  4408              ADD      r0,r0,r1              ;2308
000858  8020              STRH     r0,[r4,#0]            ;2308
                  |L7.2138|
00085a  2005              MOVS     r0,#5                 ;2310
00085c  f8890000          STRB     r0,[r9,#0]            ;2310
000860  e429              B        |L7.182|
                  |L7.2146|
000862  f8a4b052          STRH     r11,[r4,#0x52]        ;2304
000866  e7f8              B        |L7.2138|
                  |L7.2152|
000868  9802              LDR      r0,[sp,#8]            ;2306
00086a  f7fffffe          BL       atoi
00086e  f8341f52          LDRH     r1,[r4,#0x52]!        ;2306  ; Run_Control
000872  eb000080          ADD      r0,r0,r0,LSL #2       ;2306
000876  eb010040          ADD      r0,r1,r0,LSL #1       ;2306
00087a  8020              STRH     r0,[r4,#0]            ;2306
00087c  e7ed              B        |L7.2138|
00087e  48e6              LDR      r0,|L7.3096|
000880  9902              LDR      r1,[sp,#8]            ;2315
000882  f7fffffe          BL       strcat
000886  49e4              LDR      r1,|L7.3096|
000888  9800              LDR      r0,[sp,#0]            ;2316
00088a  f7fffffe          BL       TEXT_SetText
00088e  7828              LDRB     r0,[r5,#0]            ;2317  ; dot_flag
000890  b160              CBZ      r0,|L7.2220|
000892  7828              LDRB     r0,[r5,#0]            ;2320  ; dot_flag
000894  2801              CMP      r0,#1                 ;2320
000896  d00c              BEQ      |L7.2226|
000898  9802              LDR      r0,[sp,#8]            ;2323
00089a  f7fffffe          BL       atoi
00089e  f8341f52          LDRH     r1,[r4,#0x52]!        ;2323  ; Run_Control
0008a2  4408              ADD      r0,r0,r1              ;2323
0008a4  8020              STRH     r0,[r4,#0]            ;2323
                  |L7.2214|
0008a6  f8897000          STRB     r7,[r9,#0]            ;2325
0008aa  e404              B        |L7.182|
                  |L7.2220|
0008ac  f8a4b052          STRH     r11,[r4,#0x52]        ;2319
0008b0  e7f9              B        |L7.2214|
                  |L7.2226|
0008b2  f8340f52          LDRH     r0,[r4,#0x52]!        ;2321  ; Run_Control
0008b6  8020              STRH     r0,[r4,#0]            ;2321
0008b8  e7f5              B        |L7.2214|
                  |L7.2234|
0008ba  f6400176          MOV      r1,#0x876             ;2335
0008be  4693              MOV      r11,r2                ;2335
0008c0  f7fffffe          BL       WM_GetDialogItem
0008c4  4604              MOV      r4,r0                 ;2335
0008c6  f8990000          LDRB     r0,[r9,#0]            ;2336  ; bit
0008ca  2801              CMP      r0,#1                 ;2336
0008cc  d01a              BEQ      |L7.2308|
0008ce  2802              CMP      r0,#2                 ;2336
0008d0  d186              BNE      |L7.2016|
0008d2  9802              LDR      r0,[sp,#8]            ;2347
0008d4  f7fffffe          BL       atoi
0008d8  4601              MOV      r1,r0                 ;2347
0008da  f89b0000          LDRB     r0,[r11,#0]           ;2347  ; set_loop_count
0008de  eb000080          ADD      r0,r0,r0,LSL #2       ;2347
0008e2  eb010040          ADD      r0,r1,r0,LSL #1       ;2347
0008e6  f88b0000          STRB     r0,[r11,#0]           ;2347
0008ea  f89b2000          LDRB     r2,[r11,#0]           ;2348  ; set_loop_count
0008ee  a1cb              ADR      r1,|L7.3100|
0008f0  a801              ADD      r0,sp,#4              ;2348
0008f2  f7fffffe          BL       __2sprintf
0008f6  a901              ADD      r1,sp,#4              ;2349
0008f8  4620              MOV      r0,r4                 ;2349
0008fa  f7fffffe          BL       TEXT_SetText
0008fe  f8897000          STRB     r7,[r9,#0]            ;2350
                  |L7.2306|
000902  e41c              B        |L7.318|
                  |L7.2308|
000904  9802              LDR      r0,[sp,#8]            ;2339
000906  f7fffffe          BL       atoi
00090a  f88b0000          STRB     r0,[r11,#0]           ;2339
00090e  f89b2000          LDRB     r2,[r11,#0]           ;2340  ; set_loop_count
000912  a1c2              ADR      r1,|L7.3100|
000914  a801              ADD      r0,sp,#4              ;2340
000916  f7fffffe          BL       __2sprintf
00091a  a901              ADD      r1,sp,#4              ;2341
00091c  4620              MOV      r0,r4                 ;2341
00091e  f7fffffe          BL       TEXT_SetText
000922  f8896000          STRB     r6,[r9,#0]            ;2342
000926  e40a              B        |L7.318|
                  |L7.2344|
000928  f640017b          MOV      r1,#0x87b             ;2360
00092c  f7fffffe          BL       WM_GetDialogItem
000930  9000              STR      r0,[sp,#0]            ;2360
000932  f8990000          LDRB     r0,[r9,#0]            ;2361  ; bit
000936  2806              CMP      r0,#6                 ;2361
000938  d2e3              BCS      |L7.2306|
00093a  e8dff000          TBB      [pc,r0]               ;2361
00093e  0304              DCB      0x03,0x04
000940  15315178          DCB      0x15,0x31,0x51,0x78
000944  e7dd              B        |L7.2306|
000946  9802              LDR      r0,[sp,#8]            ;2364
000948  f7fffffe          BL       atoi
00094c  2164              MOVS     r1,#0x64              ;2364
00094e  4348              MULS     r0,r1,r0              ;2364
000950  8660              STRH     r0,[r4,#0x32]         ;2364
000952  48b1              LDR      r0,|L7.3096|
000954  9902              LDR      r1,[sp,#8]            ;2365
000956  f7fffffe          BL       strcat
00095a  49af              LDR      r1,|L7.3096|
00095c  9800              LDR      r0,[sp,#0]            ;2366
00095e  f7fffffe          BL       TEXT_SetText
000962  f8896000          STRB     r6,[r9,#0]            ;2367
000966  e43e              B        |L7.486|
000968  48ab              LDR      r0,|L7.3096|
00096a  9902              LDR      r1,[sp,#8]            ;2372
00096c  f7fffffe          BL       strcat
000970  49a9              LDR      r1,|L7.3096|
000972  9800              LDR      r0,[sp,#0]            ;2373
000974  f7fffffe          BL       TEXT_SetText
000978  f8980001          LDRB     r0,[r8,#1]            ;2374  ; set_limit
00097c  282e              CMP      r0,#0x2e              ;2374
00097e  d00d              BEQ      |L7.2460|
000980  9802              LDR      r0,[sp,#8]            ;2378
000982  f7fffffe          BL       atoi
000986  2164              MOVS     r1,#0x64              ;2378
000988  4348              MULS     r0,r1,r0              ;2378
00098a  8e61              LDRH     r1,[r4,#0x32]         ;2378  ; Run_Control
00098c  eb010181          ADD      r1,r1,r1,LSL #2       ;2378
000990  eb000041          ADD      r0,r0,r1,LSL #1       ;2378
000994  8660              STRH     r0,[r4,#0x32]         ;2378
                  |L7.2454|
000996  f889a000          STRB     r10,[r9,#0]           ;2380
00099a  e424              B        |L7.486|
                  |L7.2460|
00099c  702f              STRB     r7,[r5,#0]            ;2376
00099e  e7fa              B        |L7.2454|
0009a0  489d              LDR      r0,|L7.3096|
0009a2  9902              LDR      r1,[sp,#8]            ;2385
0009a4  f7fffffe          BL       strcat
0009a8  499b              LDR      r1,|L7.3096|
0009aa  9800              LDR      r0,[sp,#0]            ;2386
0009ac  f7fffffe          BL       TEXT_SetText
0009b0  7828              LDRB     r0,[r5,#0]            ;2387  ; dot_flag
0009b2  b160              CBZ      r0,|L7.2510|
0009b4  9802              LDR      r0,[sp,#8]            ;2396
0009b6  f7fffffe          BL       atoi
0009ba  8e61              LDRH     r1,[r4,#0x32]         ;2396  ; Run_Control
0009bc  eb000080          ADD      r0,r0,r0,LSL #2       ;2396
0009c0  eb010040          ADD      r0,r1,r0,LSL #1       ;2396
0009c4  8660              STRH     r0,[r4,#0x32]         ;2396
                  |L7.2502|
0009c6  2004              MOVS     r0,#4                 ;2399
0009c8  f8890000          STRB     r0,[r9,#0]            ;2399
0009cc  e40b              B        |L7.486|
                  |L7.2510|
0009ce  f8980002          LDRB     r0,[r8,#2]            ;2389  ; set_limit
0009d2  282e              CMP      r0,#0x2e              ;2389
0009d4  d002              BEQ      |L7.2524|
0009d6  f8a4b032          STRH     r11,[r4,#0x32]        ;2393
0009da  e7f4              B        |L7.2502|
                  |L7.2524|
0009dc  702e              STRB     r6,[r5,#0]            ;2391
0009de  e7f2              B        |L7.2502|
0009e0  488d              LDR      r0,|L7.3096|
0009e2  9902              LDR      r1,[sp,#8]            ;2404
0009e4  f7fffffe          BL       strcat
0009e8  498b              LDR      r1,|L7.3096|
0009ea  9800              LDR      r0,[sp,#0]            ;2405
0009ec  f7fffffe          BL       TEXT_SetText
0009f0  7828              LDRB     r0,[r5,#0]            ;2406  ; dot_flag
0009f2  b178              CBZ      r0,|L7.2580|
0009f4  7828              LDRB     r0,[r5,#0]            ;2409  ; dot_flag
0009f6  2802              CMP      r0,#2                 ;2409
0009f8  d00f              BEQ      |L7.2586|
0009fa  9802              LDR      r0,[sp,#8]            ;2412
0009fc  f7fffffe          BL       atoi
000a00  8e61              LDRH     r1,[r4,#0x32]         ;2412  ; Run_Control
000a02  4408              ADD      r0,r0,r1              ;2412
000a04  8660              STRH     r0,[r4,#0x32]         ;2412
                  |L7.2566|
000a06  2005              MOVS     r0,#5                 ;2415
000a08  f8890000          STRB     r0,[r9,#0]            ;2415
                  |L7.2572|
000a0c  e468              B        |L7.736|
                  |L7.2574|
000a0e  e169              B        |L7.3300|
                  |L7.2576|
000a10  e0c7              B        |L7.2978|
                  |L7.2578|
000a12  e028              B        |L7.2662|
                  |L7.2580|
000a14  f8a4b032          STRH     r11,[r4,#0x32]        ;2408
000a18  e7f5              B        |L7.2566|
                  |L7.2586|
000a1a  9802              LDR      r0,[sp,#8]            ;2410
000a1c  f7fffffe          BL       atoi
000a20  8e61              LDRH     r1,[r4,#0x32]         ;2410  ; Run_Control
000a22  eb000080          ADD      r0,r0,r0,LSL #2       ;2410
000a26  eb010040          ADD      r0,r1,r0,LSL #1       ;2410
000a2a  8660              STRH     r0,[r4,#0x32]         ;2410
000a2c  e7eb              B        |L7.2566|
000a2e  487a              LDR      r0,|L7.3096|
000a30  9902              LDR      r1,[sp,#8]            ;2420
000a32  f7fffffe          BL       strcat
000a36  4978              LDR      r1,|L7.3096|
000a38  9800              LDR      r0,[sp,#0]            ;2421
000a3a  f7fffffe          BL       TEXT_SetText
000a3e  7828              LDRB     r0,[r5,#0]            ;2422  ; dot_flag
000a40  b158              CBZ      r0,|L7.2650|
000a42  7828              LDRB     r0,[r5,#0]            ;2425  ; dot_flag
000a44  2801              CMP      r0,#1                 ;2425
000a46  d00b              BEQ      |L7.2656|
000a48  9802              LDR      r0,[sp,#8]            ;2428
000a4a  f7fffffe          BL       atoi
000a4e  8e61              LDRH     r1,[r4,#0x32]         ;2428  ; Run_Control
000a50  4408              ADD      r0,r0,r1              ;2428
000a52  8660              STRH     r0,[r4,#0x32]         ;2428
                  |L7.2644|
000a54  f8897000          STRB     r7,[r9,#0]            ;2431
000a58  e442              B        |L7.736|
                  |L7.2650|
000a5a  f8a4b032          STRH     r11,[r4,#0x32]        ;2424
000a5e  e7f9              B        |L7.2644|
                  |L7.2656|
000a60  8e60              LDRH     r0,[r4,#0x32]         ;2426  ; Run_Control
000a62  8660              STRH     r0,[r4,#0x32]         ;2426
000a64  e7f6              B        |L7.2644|
                  |L7.2662|
000a66  f640017c          MOV      r1,#0x87c             ;2441
000a6a  f7fffffe          BL       WM_GetDialogItem
000a6e  9000              STR      r0,[sp,#0]            ;2441
000a70  f8990000          LDRB     r0,[r9,#0]            ;2442  ; bit
000a74  f44f7bfa          MOV      r11,#0x1f4            ;2474
000a78  2806              CMP      r0,#6                 ;2442
000a7a  d2c7              BCS      |L7.2572|
000a7c  e8dff000          TBB      [pc,r0]               ;2442
000a80  03041531          DCB      0x03,0x04,0x15,0x31
000a84  5175              DCB      0x51,0x75
000a86  e42b              B        |L7.736|
000a88  9802              LDR      r0,[sp,#8]            ;2445
000a8a  f7fffffe          BL       atoi
000a8e  2164              MOVS     r1,#0x64              ;2445
000a90  4348              MULS     r0,r1,r0              ;2445
000a92  86a0              STRH     r0,[r4,#0x34]         ;2445
000a94  4860              LDR      r0,|L7.3096|
000a96  9902              LDR      r1,[sp,#8]            ;2446
000a98  f7fffffe          BL       strcat
000a9c  495e              LDR      r1,|L7.3096|
000a9e  9800              LDR      r0,[sp,#0]            ;2447
000aa0  f7fffffe          BL       TEXT_SetText
000aa4  f8896000          STRB     r6,[r9,#0]            ;2448
000aa8  e41a              B        |L7.736|
000aaa  485b              LDR      r0,|L7.3096|
000aac  9902              LDR      r1,[sp,#8]            ;2453
000aae  f7fffffe          BL       strcat
000ab2  4959              LDR      r1,|L7.3096|
000ab4  9800              LDR      r0,[sp,#0]            ;2454
000ab6  f7fffffe          BL       TEXT_SetText
000aba  f8980001          LDRB     r0,[r8,#1]            ;2455  ; set_limit
000abe  282e              CMP      r0,#0x2e              ;2455
000ac0  d00d              BEQ      |L7.2782|
000ac2  9802              LDR      r0,[sp,#8]            ;2459
000ac4  f7fffffe          BL       atoi
000ac8  2164              MOVS     r1,#0x64              ;2459
000aca  4348              MULS     r0,r1,r0              ;2459
000acc  8ea1              LDRH     r1,[r4,#0x34]         ;2459  ; Run_Control
000ace  eb010181          ADD      r1,r1,r1,LSL #2       ;2459
000ad2  eb000041          ADD      r0,r0,r1,LSL #1       ;2459
000ad6  86a0              STRH     r0,[r4,#0x34]         ;2459
                  |L7.2776|
000ad8  f889a000          STRB     r10,[r9,#0]           ;2461
                  |L7.2780|
000adc  e45f              B        |L7.926|
                  |L7.2782|
000ade  702f              STRB     r7,[r5,#0]            ;2457
000ae0  e7fa              B        |L7.2776|
000ae2  484d              LDR      r0,|L7.3096|
000ae4  9902              LDR      r1,[sp,#8]            ;2466
000ae6  f7fffffe          BL       strcat
000aea  494b              LDR      r1,|L7.3096|
000aec  9800              LDR      r0,[sp,#0]            ;2467
000aee  f7fffffe          BL       TEXT_SetText
000af2  7828              LDRB     r0,[r5,#0]            ;2468  ; dot_flag
000af4  b160              CBZ      r0,|L7.2832|
000af6  9802              LDR      r0,[sp,#8]            ;2477
000af8  f7fffffe          BL       atoi
000afc  8ea1              LDRH     r1,[r4,#0x34]         ;2477  ; Run_Control
000afe  eb000080          ADD      r0,r0,r0,LSL #2       ;2477
000b02  eb010040          ADD      r0,r1,r0,LSL #1       ;2477
000b06  86a0              STRH     r0,[r4,#0x34]         ;2477
                  |L7.2824|
000b08  2004              MOVS     r0,#4                 ;2480
000b0a  f8890000          STRB     r0,[r9,#0]            ;2480
000b0e  e446              B        |L7.926|
                  |L7.2832|
000b10  f8980002          LDRB     r0,[r8,#2]            ;2470  ; set_limit
000b14  282e              CMP      r0,#0x2e              ;2470
000b16  d002              BEQ      |L7.2846|
000b18  f8a4b034          STRH     r11,[r4,#0x34]        ;2474
000b1c  e7f4              B        |L7.2824|
                  |L7.2846|
000b1e  702e              STRB     r6,[r5,#0]            ;2472
000b20  e7f2              B        |L7.2824|
000b22  483d              LDR      r0,|L7.3096|
000b24  9902              LDR      r1,[sp,#8]            ;2485
000b26  f7fffffe          BL       strcat
000b2a  493b              LDR      r1,|L7.3096|
000b2c  9800              LDR      r0,[sp,#0]            ;2486
000b2e  f7fffffe          BL       TEXT_SetText
000b32  7828              LDRB     r0,[r5,#0]            ;2487  ; dot_flag
000b34  b160              CBZ      r0,|L7.2896|
000b36  7828              LDRB     r0,[r5,#0]            ;2490  ; dot_flag
000b38  2802              CMP      r0,#2                 ;2490
000b3a  d00c              BEQ      |L7.2902|
000b3c  9802              LDR      r0,[sp,#8]            ;2493
000b3e  f7fffffe          BL       atoi
000b42  8ea1              LDRH     r1,[r4,#0x34]         ;2493  ; Run_Control
000b44  4408              ADD      r0,r0,r1              ;2493
000b46  86a0              STRH     r0,[r4,#0x34]         ;2493
                  |L7.2888|
000b48  2005              MOVS     r0,#5                 ;2496
000b4a  f8890000          STRB     r0,[r9,#0]            ;2496
000b4e  e426              B        |L7.926|
                  |L7.2896|
000b50  f8a4b034          STRH     r11,[r4,#0x34]        ;2489
000b54  e7f8              B        |L7.2888|
                  |L7.2902|
000b56  9802              LDR      r0,[sp,#8]            ;2491
000b58  f7fffffe          BL       atoi
000b5c  8ea1              LDRH     r1,[r4,#0x34]         ;2491  ; Run_Control
000b5e  eb000080          ADD      r0,r0,r0,LSL #2       ;2491
000b62  eb010040          ADD      r0,r1,r0,LSL #1       ;2491
000b66  86a0              STRH     r0,[r4,#0x34]         ;2491
000b68  e7ee              B        |L7.2888|
000b6a  482b              LDR      r0,|L7.3096|
000b6c  9902              LDR      r1,[sp,#8]            ;2501
000b6e  f7fffffe          BL       strcat
000b72  4929              LDR      r1,|L7.3096|
000b74  9800              LDR      r0,[sp,#0]            ;2502
000b76  f7fffffe          BL       TEXT_SetText
000b7a  7828              LDRB     r0,[r5,#0]            ;2503  ; dot_flag
000b7c  b158              CBZ      r0,|L7.2966|
000b7e  7828              LDRB     r0,[r5,#0]            ;2506  ; dot_flag
000b80  2801              CMP      r0,#1                 ;2506
000b82  d00b              BEQ      |L7.2972|
000b84  9802              LDR      r0,[sp,#8]            ;2509
000b86  f7fffffe          BL       atoi
000b8a  8ea1              LDRH     r1,[r4,#0x34]         ;2509  ; Run_Control
000b8c  4408              ADD      r0,r0,r1              ;2509
000b8e  86a0              STRH     r0,[r4,#0x34]         ;2509
                  |L7.2960|
000b90  f8897000          STRB     r7,[r9,#0]            ;2512
000b94  e403              B        |L7.926|
                  |L7.2966|
000b96  f8a4b034          STRH     r11,[r4,#0x34]        ;2505
000b9a  e7f9              B        |L7.2960|
                  |L7.2972|
000b9c  8ea0              LDRH     r0,[r4,#0x34]         ;2507  ; Run_Control
000b9e  86a0              STRH     r0,[r4,#0x34]         ;2507
000ba0  e7f6              B        |L7.2960|
                  |L7.2978|
000ba2  f640017d          MOV      r1,#0x87d             ;2522
000ba6  f7fffffe          BL       WM_GetDialogItem
000baa  9000              STR      r0,[sp,#0]            ;2522
000bac  f8990000          LDRB     r0,[r9,#0]            ;2523  ; bit
000bb0  2806              CMP      r0,#6                 ;2523
000bb2  d293              BCS      |L7.2780|
000bb4  e8dff000          TBB      [pc,r0]               ;2523
000bb8  03041536          DCB      0x03,0x04,0x15,0x36
000bbc  567a              DCB      0x56,0x7a
000bbe  e78d              B        |L7.2780|
000bc0  9802              LDR      r0,[sp,#8]            ;2526
000bc2  f7fffffe          BL       atoi
000bc6  2164              MOVS     r1,#0x64              ;2526
000bc8  4348              MULS     r0,r1,r0              ;2526
000bca  86e0              STRH     r0,[r4,#0x36]         ;2526
000bcc  4812              LDR      r0,|L7.3096|
000bce  9902              LDR      r1,[sp,#8]            ;2527
000bd0  f7fffffe          BL       strcat
000bd4  4910              LDR      r1,|L7.3096|
000bd6  9800              LDR      r0,[sp,#0]            ;2528
000bd8  f7fffffe          BL       TEXT_SetText
000bdc  f8896000          STRB     r6,[r9,#0]            ;2529
000be0  e42d              B        |L7.1086|
000be2  480d              LDR      r0,|L7.3096|
000be4  9902              LDR      r1,[sp,#8]            ;2534
000be6  f7fffffe          BL       strcat
000bea  490b              LDR      r1,|L7.3096|
000bec  9800              LDR      r0,[sp,#0]            ;2535
000bee  f7fffffe          BL       TEXT_SetText
000bf2  f8980001          LDRB     r0,[r8,#1]            ;2536  ; set_limit
000bf6  282e              CMP      r0,#0x2e              ;2536
000bf8  d012              BEQ      |L7.3104|
000bfa  9802              LDR      r0,[sp,#8]            ;2540
000bfc  f7fffffe          BL       atoi
000c00  2164              MOVS     r1,#0x64              ;2540
000c02  4348              MULS     r0,r1,r0              ;2540
000c04  8ee1              LDRH     r1,[r4,#0x36]         ;2540  ; Run_Control
000c06  eb010181          ADD      r1,r1,r1,LSL #2       ;2540
000c0a  eb000041          ADD      r0,r0,r1,LSL #1       ;2540
000c0e  86e0              STRH     r0,[r4,#0x36]         ;2540
                  |L7.3088|
000c10  f889a000          STRB     r10,[r9,#0]           ;2542
000c14  e413              B        |L7.1086|
000c16  0000              DCW      0x0000
                  |L7.3096|
                          DCD      set_limit
                  |L7.3100|
000c1c  25326400          DCB      "%2d",0
                  |L7.3104|
000c20  702f              STRB     r7,[r5,#0]            ;2538
000c22  e7f5              B        |L7.3088|
000c24  487e              LDR      r0,|L7.3616|
000c26  9902              LDR      r1,[sp,#8]            ;2547
000c28  f7fffffe          BL       strcat
000c2c  497c              LDR      r1,|L7.3616|
000c2e  9800              LDR      r0,[sp,#0]            ;2548
000c30  f7fffffe          BL       TEXT_SetText
000c34  7828              LDRB     r0,[r5,#0]            ;2549  ; dot_flag
000c36  b160              CBZ      r0,|L7.3154|
000c38  9802              LDR      r0,[sp,#8]            ;2558
000c3a  f7fffffe          BL       atoi
000c3e  8ee1              LDRH     r1,[r4,#0x36]         ;2558  ; Run_Control
000c40  eb000080          ADD      r0,r0,r0,LSL #2       ;2558
000c44  eb010040          ADD      r0,r1,r0,LSL #1       ;2558
000c48  86e0              STRH     r0,[r4,#0x36]         ;2558
                  |L7.3146|
000c4a  2004              MOVS     r0,#4                 ;2561
000c4c  f8890000          STRB     r0,[r9,#0]            ;2561
000c50  e43c              B        |L7.1228|
                  |L7.3154|
000c52  f8980002          LDRB     r0,[r8,#2]            ;2551  ; set_limit
000c56  282e              CMP      r0,#0x2e              ;2551
000c58  d002              BEQ      |L7.3168|
000c5a  f8a4b036          STRH     r11,[r4,#0x36]        ;2555
000c5e  e7f4              B        |L7.3146|
                  |L7.3168|
000c60  702e              STRB     r6,[r5,#0]            ;2553
000c62  e7f2              B        |L7.3146|
000c64  486e              LDR      r0,|L7.3616|
000c66  9902              LDR      r1,[sp,#8]            ;2566
000c68  f7fffffe          BL       strcat
000c6c  496c              LDR      r1,|L7.3616|
000c6e  9800              LDR      r0,[sp,#0]            ;2567
000c70  f7fffffe          BL       TEXT_SetText
000c74  7828              LDRB     r0,[r5,#0]            ;2568  ; dot_flag
000c76  b160              CBZ      r0,|L7.3218|
000c78  7828              LDRB     r0,[r5,#0]            ;2571  ; dot_flag
000c7a  2802              CMP      r0,#2                 ;2571
000c7c  d00c              BEQ      |L7.3224|
000c7e  9802              LDR      r0,[sp,#8]            ;2574
000c80  f7fffffe          BL       atoi
000c84  8ee1              LDRH     r1,[r4,#0x36]         ;2574  ; Run_Control
000c86  4408              ADD      r0,r0,r1              ;2574
000c88  86e0              STRH     r0,[r4,#0x36]         ;2574
                  |L7.3210|
000c8a  2005              MOVS     r0,#5                 ;2577
000c8c  f8890000          STRB     r0,[r9,#0]            ;2577
000c90  e41c              B        |L7.1228|
                  |L7.3218|
000c92  f8a4b036          STRH     r11,[r4,#0x36]        ;2570
000c96  e7f8              B        |L7.3210|
                  |L7.3224|
000c98  9802              LDR      r0,[sp,#8]            ;2572
000c9a  f7fffffe          BL       atoi
000c9e  8ee1              LDRH     r1,[r4,#0x36]         ;2572  ; Run_Control
000ca0  eb000080          ADD      r0,r0,r0,LSL #2       ;2572
000ca4  eb010040          ADD      r0,r1,r0,LSL #1       ;2572
000ca8  86e0              STRH     r0,[r4,#0x36]         ;2572
000caa  e7ee              B        |L7.3210|
000cac  485c              LDR      r0,|L7.3616|
000cae  9902              LDR      r1,[sp,#8]            ;2582
000cb0  f7fffffe          BL       strcat
000cb4  495a              LDR      r1,|L7.3616|
000cb6  9800              LDR      r0,[sp,#0]            ;2583
000cb8  f7fffffe          BL       TEXT_SetText
000cbc  7828              LDRB     r0,[r5,#0]            ;2584  ; dot_flag
000cbe  b158              CBZ      r0,|L7.3288|
000cc0  7828              LDRB     r0,[r5,#0]            ;2587  ; dot_flag
000cc2  2801              CMP      r0,#1                 ;2587
000cc4  d00b              BEQ      |L7.3294|
000cc6  9802              LDR      r0,[sp,#8]            ;2590
000cc8  f7fffffe          BL       atoi
000ccc  8ee1              LDRH     r1,[r4,#0x36]         ;2590  ; Run_Control
000cce  4408              ADD      r0,r0,r1              ;2590
000cd0  86e0              STRH     r0,[r4,#0x36]         ;2590
                  |L7.3282|
000cd2  f8897000          STRB     r7,[r9,#0]            ;2593
                  |L7.3286|
000cd6  e454              B        |L7.1410|
                  |L7.3288|
000cd8  f8a4b036          STRH     r11,[r4,#0x36]        ;2586
000cdc  e7f9              B        |L7.3282|
                  |L7.3294|
000cde  8ee0              LDRH     r0,[r4,#0x36]         ;2588  ; Run_Control
000ce0  86e0              STRH     r0,[r4,#0x36]         ;2588
000ce2  e7f6              B        |L7.3282|
                  |L7.3300|
000ce4  f640017e          MOV      r1,#0x87e             ;2603
000ce8  f7fffffe          BL       WM_GetDialogItem
000cec  9000              STR      r0,[sp,#0]            ;2603
000cee  f8990000          LDRB     r0,[r9,#0]            ;2604  ; bit
000cf2  f2405bdc          MOV      r11,#0x5dc            ;2636
000cf6  2806              CMP      r0,#6                 ;2604
000cf8  d2ed              BCS      |L7.3286|
000cfa  e8dff000          TBB      [pc,r0]               ;2604
000cfe  0304              DCB      0x03,0x04
000d00  15315175          DCB      0x15,0x31,0x51,0x75
000d04  e43d              B        |L7.1410|
000d06  9802              LDR      r0,[sp,#8]            ;2607
000d08  f7fffffe          BL       atoi
000d0c  2164              MOVS     r1,#0x64              ;2607
000d0e  4348              MULS     r0,r1,r0              ;2607
000d10  8720              STRH     r0,[r4,#0x38]         ;2607
000d12  4843              LDR      r0,|L7.3616|
000d14  9902              LDR      r1,[sp,#8]            ;2608
000d16  f7fffffe          BL       strcat
000d1a  4941              LDR      r1,|L7.3616|
000d1c  9800              LDR      r0,[sp,#0]            ;2609
000d1e  f7fffffe          BL       TEXT_SetText
000d22  f8896000          STRB     r6,[r9,#0]            ;2610
000d26  e42c              B        |L7.1410|
000d28  483d              LDR      r0,|L7.3616|
000d2a  9902              LDR      r1,[sp,#8]            ;2615
000d2c  f7fffffe          BL       strcat
000d30  493b              LDR      r1,|L7.3616|
000d32  9800              LDR      r0,[sp,#0]            ;2616
000d34  f7fffffe          BL       TEXT_SetText
000d38  f8980001          LDRB     r0,[r8,#1]            ;2617  ; set_limit
000d3c  282e              CMP      r0,#0x2e              ;2617
000d3e  d00d              BEQ      |L7.3420|
000d40  9802              LDR      r0,[sp,#8]            ;2621
000d42  f7fffffe          BL       atoi
000d46  2164              MOVS     r1,#0x64              ;2621
000d48  4348              MULS     r0,r1,r0              ;2621
000d4a  8f21              LDRH     r1,[r4,#0x38]         ;2621  ; Run_Control
000d4c  eb010181          ADD      r1,r1,r1,LSL #2       ;2621
000d50  eb000041          ADD      r0,r0,r1,LSL #1       ;2621
000d54  8720              STRH     r0,[r4,#0x38]         ;2621
                  |L7.3414|
000d56  f889a000          STRB     r10,[r9,#0]           ;2623
000d5a  e412              B        |L7.1410|
                  |L7.3420|
000d5c  702f              STRB     r7,[r5,#0]            ;2619
000d5e  e7fa              B        |L7.3414|
000d60  482f              LDR      r0,|L7.3616|
000d62  9902              LDR      r1,[sp,#8]            ;2628
000d64  f7fffffe          BL       strcat
000d68  492d              LDR      r1,|L7.3616|
000d6a  9800              LDR      r0,[sp,#0]            ;2629
000d6c  f7fffffe          BL       TEXT_SetText
000d70  7828              LDRB     r0,[r5,#0]            ;2630  ; dot_flag
000d72  b160              CBZ      r0,|L7.3470|
000d74  9802              LDR      r0,[sp,#8]            ;2639
000d76  f7fffffe          BL       atoi
000d7a  8f21              LDRH     r1,[r4,#0x38]         ;2639  ; Run_Control
000d7c  eb000080          ADD      r0,r0,r0,LSL #2       ;2639
000d80  eb010040          ADD      r0,r1,r0,LSL #1       ;2639
000d84  8720              STRH     r0,[r4,#0x38]         ;2639
                  |L7.3462|
000d86  2004              MOVS     r0,#4                 ;2642
000d88  f8890000          STRB     r0,[r9,#0]            ;2642
000d8c  e480              B        |L7.1680|
                  |L7.3470|
000d8e  f8980002          LDRB     r0,[r8,#2]            ;2632  ; set_limit
000d92  282e              CMP      r0,#0x2e              ;2632
000d94  d002              BEQ      |L7.3484|
000d96  f8a4b038          STRH     r11,[r4,#0x38]        ;2636
000d9a  e7f4              B        |L7.3462|
                  |L7.3484|
000d9c  702e              STRB     r6,[r5,#0]            ;2634
000d9e  e7f2              B        |L7.3462|
000da0  481f              LDR      r0,|L7.3616|
000da2  9902              LDR      r1,[sp,#8]            ;2647
000da4  f7fffffe          BL       strcat
000da8  491d              LDR      r1,|L7.3616|
000daa  9800              LDR      r0,[sp,#0]            ;2648
000dac  f7fffffe          BL       TEXT_SetText
000db0  7828              LDRB     r0,[r5,#0]            ;2649  ; dot_flag
000db2  b160              CBZ      r0,|L7.3534|
000db4  7828              LDRB     r0,[r5,#0]            ;2652  ; dot_flag
000db6  2802              CMP      r0,#2                 ;2652
000db8  d00c              BEQ      |L7.3540|
000dba  9802              LDR      r0,[sp,#8]            ;2655
000dbc  f7fffffe          BL       atoi
000dc0  8f21              LDRH     r1,[r4,#0x38]         ;2655  ; Run_Control
000dc2  4408              ADD      r0,r0,r1              ;2655
000dc4  8720              STRH     r0,[r4,#0x38]         ;2655
                  |L7.3526|
000dc6  2005              MOVS     r0,#5                 ;2658
000dc8  f8890000          STRB     r0,[r9,#0]            ;2658
000dcc  e460              B        |L7.1680|
                  |L7.3534|
000dce  f8a4b038          STRH     r11,[r4,#0x38]        ;2651
000dd2  e7f8              B        |L7.3526|
                  |L7.3540|
000dd4  9802              LDR      r0,[sp,#8]            ;2653
000dd6  f7fffffe          BL       atoi
000dda  8f21              LDRH     r1,[r4,#0x38]         ;2653  ; Run_Control
000ddc  eb000080          ADD      r0,r0,r0,LSL #2       ;2653
000de0  eb010040          ADD      r0,r1,r0,LSL #1       ;2653
000de4  8720              STRH     r0,[r4,#0x38]         ;2653
000de6  e7ee              B        |L7.3526|
000de8  480d              LDR      r0,|L7.3616|
000dea  9902              LDR      r1,[sp,#8]            ;2663
000dec  f7fffffe          BL       strcat
000df0  490b              LDR      r1,|L7.3616|
000df2  9800              LDR      r0,[sp,#0]            ;2664
000df4  f7fffffe          BL       TEXT_SetText
000df8  7828              LDRB     r0,[r5,#0]            ;2665  ; dot_flag
000dfa  b158              CBZ      r0,|L7.3604|
000dfc  7828              LDRB     r0,[r5,#0]            ;2668  ; dot_flag
000dfe  2801              CMP      r0,#1                 ;2668
000e00  d00b              BEQ      |L7.3610|
000e02  9802              LDR      r0,[sp,#8]            ;2671
000e04  f7fffffe          BL       atoi
000e08  8f21              LDRH     r1,[r4,#0x38]         ;2671  ; Run_Control
000e0a  4408              ADD      r0,r0,r1              ;2671
000e0c  8720              STRH     r0,[r4,#0x38]         ;2671
                  |L7.3598|
000e0e  f8897000          STRB     r7,[r9,#0]            ;2674
000e12  e43d              B        |L7.1680|
                  |L7.3604|
000e14  f8a4b038          STRH     r11,[r4,#0x38]        ;2667
000e18  e7f9              B        |L7.3598|
                  |L7.3610|
000e1a  8f20              LDRH     r0,[r4,#0x38]         ;2669  ; Run_Control
000e1c  8720              STRH     r0,[r4,#0x38]         ;2669
000e1e  e7f6              B        |L7.3598|
;;;2683   
                          ENDP

                  |L7.3616|
                          DCD      set_limit

                          AREA ||i.ResetCDC||, CODE, READONLY, ALIGN=2

                  ResetCDC PROC
;;;987    
;;;988    WM_HWIN ResetCDC(void) {
000000  b51c              PUSH     {r2-r4,lr}
;;;989      hWincdc = GUI_CreateDialogBox(_aDialogCreate4, GUI_COUNTOF(_aDialogCreate4), _cbDialog, WM_HBKWIN, 0, 0);
000002  f7fffffe          BL       WM_GetDesktopWindow
000006  4603              MOV      r3,r0
000008  2000              MOVS     r0,#0
00000a  9000              STR      r0,[sp,#0]
00000c  9001              STR      r0,[sp,#4]
00000e  4a04              LDR      r2,|L8.32|
000010  2127              MOVS     r1,#0x27
000012  4804              LDR      r0,|L8.36|
000014  f7fffffe          BL       GUI_CreateDialogBox
000018  4903              LDR      r1,|L8.40|
00001a  6188              STR      r0,[r1,#0x18]  ; hWincdc
;;;990      return hWincdc;
;;;991    }
00001c  bd1c              POP      {r2-r4,pc}
;;;992    
                          ENDP

00001e  0000              DCW      0x0000
                  |L8.32|
                          DCD      _cbDialog
                  |L8.36|
                          DCD      ||.constdata||
                  |L8.40|
                          DCD      ||.data||

                          AREA ||i._cbDialog||, CODE, READONLY, ALIGN=2

                          REQUIRE _printf_percent
                          REQUIRE _printf_widthprec
                          REQUIRE _printf_f
                          REQUIRE _printf_fp_dec
                          REQUIRE _printf_pre_padding
                          REQUIRE _printf_d
                          REQUIRE _printf_int_dec
                          REQUIRE _printf_flags
                  _cbDialog PROC
;;;182    */
;;;183    static void _cbDialog(WM_MESSAGE * pMsg) {
000000  e92d4ff0          PUSH     {r4-r11,lr}
000004  ed2d8b0a          VPUSH    {d8-d12}
000008  b083              SUB      sp,sp,#0xc
00000a  4604              MOV      r4,r0
;;;184      WM_HWIN hItem;
;;;185      
;;;186      char buf[5];    
;;;187      
;;;188      float dis_load_c = (float)SET_Current_Laod/100;
00000c  f8dfa404          LDR      r10,|L9.1044|
000010  f8ba0008          LDRH     r0,[r10,#8]  ; Run_Control
000014  ee000a10          VMOV     s0,r0
000018  eef80a40          VCVT.F32.U32 s1,s0
00001c  ed9f0afe          VLDR     s0,|L9.1048|
000020  ee808a80          VDIV.F32 s16,s1,s0
;;;189      float dis_output_v = (float)SET_Voltage/100;
000024  f8ba0002          LDRH     r0,[r10,#2]  ; Run_Control
000028  ee000a90          VMOV     s1,r0
00002c  eef80a60          VCVT.F32.U32 s1,s1
000030  ee809a80          VDIV.F32 s18,s1,s0
;;;190      float dis_output_c = (float)SET_Current/1000;
000034  f8ba0004          LDRH     r0,[r10,#4]  ; Run_Control
000038  ee000a90          VMOV     s1,r0
00003c  eef80a60          VCVT.F32.U32 s1,s1
000040  ed9fcaf6          VLDR     s24,|L9.1052|
000044  eec09a8c          VDIV.F32 s19,s1,s24
;;;191      float dis_c_cutoff_v = (float)set_c_cutoff_v/100;
000048  f8ba0032          LDRH     r0,[r10,#0x32]  ; Run_Control
00004c  ee000a90          VMOV     s1,r0
000050  eef80a60          VCVT.F32.U32 s1,s1
000054  ee80aa80          VDIV.F32 s20,s1,s0
;;;192      float dis_c_cutoff_c = (float)set_c_cutoff_c/100;
000058  f8ba0034          LDRH     r0,[r10,#0x34]  ; Run_Control
00005c  ee000a90          VMOV     s1,r0
000060  eef80a60          VCVT.F32.U32 s1,s1
000064  eec0aa80          VDIV.F32 s21,s1,s0
;;;193      float dis_dc_cutoff_v = (float)set_dc_cutoff_v/100;
000068  f8ba0036          LDRH     r0,[r10,#0x36]  ; Run_Control
00006c  ee000a90          VMOV     s1,r0
000070  eef80a60          VCVT.F32.U32 s1,s1
000074  eec08a80          VDIV.F32 s17,s1,s0
;;;194      float dis_dc_cutoff_c = (float)set_dc_cutoff_c/100;
000078  f8ba0038          LDRH     r0,[r10,#0x38]  ; Run_Control
;;;195    
;;;196    
;;;197      // USER START (Optionally insert additional variables)
;;;198      // USER END
;;;199    
;;;200      switch (pMsg->MsgId) {
00007c  6820              LDR      r0,[r4,#0]
;;;201    		
;;;202    	case WM_PAINT:
;;;203    
;;;204            GUI_SetColor(GUI_WHITE);//ʨ׃ۭҊҕɫ
;;;205            GUI_FillRect(0,25,480,26);//ۭһ͵ʵП
;;;206            GUI_SetColor(GUI_ORANGE);
;;;207            GUI_SetFont(&GUI_Fontsymbol);
;;;208            GUI_UC_SetEncodeUTF8();
;;;209            GUI_SetTextMode(GUI_TM_TRANS);//ʨ׃τѾģʽΪ֗ɫ͸ķ
;;;210            GUI_DispStringAt("Jinko", 5, 1);//SET
;;;211            if(lang == 0)
;;;212            {
;;;213                GUI_SetColor(GUI_WHITE);
;;;214                GUI_SetFont(&GUI_FontHZ20S);
;;;215                GUI_UC_SetEncodeUTF8();
;;;216                GUI_SetTextMode(GUI_TM_TRANS);//设置文本模式为底色透明
;;;217                GUI_DispStringAt("测量显示", 130, 3);//SET
;;;218            }else{
;;;219                GUI_SetColor(GUI_WHITE);
;;;220                GUI_SetFont(&GUI_Font20_ASCII);
;;;221                GUI_DispStringAt("DISPLAY", 130, 3);
;;;222            }
;;;223            GUI_SetColor(GUI_WHITE);//ʨ׃ǰްɫΪїɫ
;;;224            GUI_SetFont(&GUI_Font24_1);
;;;225            
;;;226    
;;;227            GUI_SetFont(&GUI_FontEN40);
;;;228            GUI_SetColor(GUI_LIGHTGRAY);
00007e  f8dfb3a0          LDR      r11,|L9.1056|
000082  f8df83a0          LDR      r8,|L9.1060|
000086  f06f497f          MVN      r9,#0xff000000        ;204
00008a  280f              CMP      r0,#0xf               ;200
00008c  d012              BEQ      |L9.180|
;;;229            GUI_DispStringAt("C:", 28, 190);
;;;230            GUI_SetColor(GUI_LIGHTGRAY);
;;;231            GUI_DispStringAt("m", 217, 196);
;;;232            GUI_DispStringAt("AH", 238, 187);
;;;233        
;;;234        
;;;235    	break;
;;;236    	case WM_TIMER://֨ʱģࠩлϢ
;;;237    	if(WM_GetTimerId(pMsg->Data.v) == ID_TimerTime4)
;;;238    	{
;;;239            if(mode_sw == mode_pow && cdc_sw == cdc_on){
;;;240                
;;;241                
;;;242                hItem = WM_GetDialogItem(pMsg->hWin, ID_TEXT_66);
;;;243                sprintf(buf,"%.2f",DISS_POW_Voltage);       
;;;244                TEXT_SetText(hItem,buf);
;;;245                
;;;246                hItem = WM_GetDialogItem(pMsg->hWin, ID_TEXT_67);
;;;247                sprintf(buf,"%.2f",DISS_POW_Current);
;;;248                TEXT_SetText(hItem,buf);
;;;249                
;;;250                hItem = WM_GetDialogItem(pMsg->hWin, ID_TEXT_77);
;;;251                TEXT_SetTextColor(hItem, GUI_GREEN);//设置字体颜色
;;;252                TEXT_SetFont(hItem,&GUI_Font24_1);//设定文本字体
;;;253                GUI_UC_SetEncodeUTF8();
;;;254                TEXT_SetText(hItem,"(");
;;;255                
;;;256                hItem = WM_GetDialogItem(pMsg->hWin, ID_TEXT_78);
;;;257                TEXT_SetTextColor(hItem, GUI_GREEN);//设置字体颜色
;;;258                TEXT_SetFont(hItem,&GUI_Font24_1);//设定文本字体
;;;259                GUI_UC_SetEncodeUTF8();
;;;260                TEXT_SetText(hItem,")");
;;;261                
;;;262                hItem = WM_GetDialogItem(pMsg->hWin, ID_TEXT_79);
;;;263                TEXT_SetTextColor(hItem, GUI_GREEN);//设置字体颜色
;;;264                sprintf(buf,"%2d",count);
;;;265                TEXT_SetFont(hItem,&GUI_Font24_1);//设定文本字体
;;;266                GUI_UC_SetEncodeUTF8();
;;;267                TEXT_SetText(hItem,buf);
;;;268                
;;;269                hItem = WM_GetDialogItem(pMsg->hWin, ID_TEXT_69);
;;;270                TEXT_SetTextColor(hItem, GUI_RED);//设置字体颜色
;;;271                
;;;272                hItem = WM_GetDialogItem(pMsg->hWin, ID_TEXT_70);
;;;273                TEXT_SetTextColor(hItem, GUI_WHITE);//设置字体颜色
;;;274                
;;;275                hItem = WM_GetDialogItem(pMsg->hWin, ID_TEXT_72);        
;;;276                TEXT_SetText(hItem,"");
;;;277    
;;;278                hItem = WM_GetDialogItem(pMsg->hWin, ID_TEXT_73);     
;;;279                TEXT_SetText(hItem,"");
;;;280                
;;;281                hItem = WM_GetDialogItem(pMsg->hWin, ID_TEXT_74);      
;;;282                TEXT_SetText(hItem,"");
;;;283                
;;;284                hItem = WM_GetDialogItem(pMsg->hWin, ID_TEXT_75);      
;;;285                TEXT_SetText(hItem,"");
;;;286                
;;;287                hItem = WM_GetDialogItem(pMsg->hWin, ID_TEXT_76);      
;;;288                TEXT_SetText(hItem,"");
;;;289                
;;;290                battery_c = (int)bc_raw;
;;;291                hItem = WM_GetDialogItem(pMsg->hWin, ID_TEXT_68);
;;;292                sprintf(buf,"%05d",battery_c);
;;;293                TEXT_SetText(hItem,buf);
;;;294                
;;;295                if(charge_step == 1)
;;;296                {
;;;297                    hItem = WM_GetDialogItem(pMsg->hWin, ID_TEXT_119);
;;;298                    if(lang == 0)
;;;299                    {
;;;300                        TEXT_SetFont(hItem, &GUI_Fontset_font);
;;;301                        TEXT_SetText(hItem,"步骤1");
;;;302                    }else{
;;;303                        TEXT_SetFont(hItem, &GUI_Font20_ASCII);
;;;304                        TEXT_SetText(hItem,"Step1");
;;;305                    }
;;;306                }else if(charge_step == 2){
;;;307                    hItem = WM_GetDialogItem(pMsg->hWin, ID_TEXT_119);
;;;308                    if(lang == 0)
;;;309                    {
;;;310                        TEXT_SetText(hItem,"步骤2");
;;;311                    }else{
;;;312                        TEXT_SetFont(hItem, &GUI_Font20_ASCII);
;;;313                        TEXT_SetText(hItem,"Step2");
;;;314                    }
;;;315                }else if(charge_step == 3){
;;;316                    hItem = WM_GetDialogItem(pMsg->hWin, ID_TEXT_119);
;;;317                    if(lang == 0)
;;;318                    {
;;;319                        TEXT_SetText(hItem,"步骤3");
;;;320                    }else{
;;;321                        TEXT_SetFont(hItem, &GUI_Font20_ASCII);
;;;322                        TEXT_SetText(hItem,"Step3");
;;;323                    }
;;;324                }
;;;325                
;;;326                if(status_flash == 0){
;;;327                    hItem = WM_GetDialogItem(pMsg->hWin, ID_TEXT_71);
;;;328                    TEXT_SetTextColor(hItem, GUI_RED);//设置字体颜色
;;;329                    if(lang == 0)
;;;330                    {
;;;331                        TEXT_SetFont(hItem,&GUI_FontHZ16);//设定文本字体
;;;332                        GUI_UC_SetEncodeUTF8();
;;;333                        TEXT_SetText(hItem,"充电中");
;;;334                    }else{
;;;335                        TEXT_SetFont(hItem,&GUI_Font20_ASCII);//设定文本字体
;;;336                        GUI_UC_SetEncodeUTF8();
;;;337                        TEXT_SetText(hItem,"Charging");
;;;338                    }
;;;339                    status_flash = 1;
;;;340                }else{
;;;341                    hItem = WM_GetDialogItem(pMsg->hWin, ID_TEXT_71);
;;;342                    TEXT_SetText(hItem,"");
;;;343                    status_flash = 0;
;;;344                }
;;;345                if(opv2 == 0 && opv3 == 0 && opc2 == 0 && opc3 == 0)
;;;346                {
;;;347                    if(((DISS_POW_Voltage >= cov1 && cov1 != 0) || DISS_POW_Current < coc1) && cutoff_flag == 0){//判断电流是否小于截止电流，并记录时间
;;;348                        cutoff_time = GUI_GetTime()/500;
;;;349                        cutoff_flag = 1;
;;;350                    }
;;;351                    if(((DISS_POW_Voltage >= cov1 && cov1 != 0) || DISS_POW_Current < coc1) && (GUI_GetTime()/500 - cutoff_time) >= 10 )//若测量电流小于截止电流
;;;352                    {
;;;353                        if(mode_sw == mode_pow){
;;;354                            start_time = GUI_GetTime()/500;//记录开始时间
;;;355                        }
;;;356                        cutoff_flag = 0;
;;;357                        Mode_SW_CONT(0x02);//切换至负载模式
;;;358                        GPIO_ResetBits(GPIOC,GPIO_Pin_1);//开启负载
;;;359                    }
;;;360                }else if(opv3 == 0 && opc3 == 0){
;;;361                    if(((DISS_POW_Voltage >= cov1 && cov1 != 0) || DISS_POW_Current < coc1) && cutoff_flag == 0 && charge_step == 1)
;;;362                    {//判断电流是否小于截止电流，并记录时间
;;;363                        SET_Voltage = opv2;
;;;364                        SET_Current = opc2;
;;;365                        charge_step = 2;
;;;366                    }
;;;367                    if(((DISS_POW_Voltage >= cov2 && cov2 != 0) || DISS_POW_Current < coc2) && cutoff_flag == 0 && charge_step == 2){//判断电流是否小于截止电流，并记录时间
;;;368                        cutoff_time = GUI_GetTime()/500;
;;;369                        cutoff_flag = 1;
;;;370                    }
;;;371                    if(((DISS_POW_Voltage >= cov2 && cov2 != 0) || DISS_POW_Current < coc2) && (GUI_GetTime()/500 - cutoff_time) >= 10 && charge_step == 2)//若测量电流小于截止电流
;;;372                    {
;;;373                        if(mode_sw == mode_pow){
;;;374                            start_time = GUI_GetTime()/500;//记录开始时间
;;;375                        }
;;;376                        cutoff_flag = 0;
;;;377                        Mode_SW_CONT(0x02);//切换至负载模式
;;;378                        GPIO_ResetBits(GPIOC,GPIO_Pin_1);//开启负载
;;;379                    }
;;;380                }else if(opv1 != 0 && opv2 != 0 && opv3 != 0 && opc1 != 0&& opc2 != 0 && opc3 != 0){
;;;381                    if(((DISS_POW_Voltage >= cov1 && cov1 != 0) || DISS_POW_Current < coc1) && cutoff_flag == 0 && charge_step == 1)
;;;382                    {//判断电流是否小于截止电流，并记录时间
;;;383                        SET_Voltage = opv2;
;;;384                        SET_Current = opc2;
;;;385                        charge_step = 2;
;;;386                    }
;;;387                    if(((DISS_POW_Voltage > cov2 && cov2 != 0) || DISS_POW_Current < coc2) && cutoff_flag == 0 && charge_step == 2)
;;;388                    {//判断电流是否小于截止电流，并记录时间
;;;389                        SET_Voltage = opv3;
;;;390                        SET_Current = opc3;
;;;391                        charge_step = 3;
;;;392                    }
;;;393                    if(((DISS_POW_Voltage > cov3 && cov3 != 0) || DISS_POW_Current < coc3) && cutoff_flag == 0 && charge_step == 3){//判断电流是否小于截止电流，并记录时间
;;;394                        cutoff_time = GUI_GetTime()/500;
;;;395                        cutoff_flag = 1;
;;;396                    }
;;;397                    if(((DISS_POW_Voltage > cov3 && cov3 != 0) || DISS_POW_Current < coc3) && (GUI_GetTime()/500 - cutoff_time) >= 10 && charge_step == 3)//若测量电流小于截止电流
;;;398                    {
;;;399                        if(mode_sw == mode_pow){
;;;400                            start_time = GUI_GetTime()/500;//记录开始时间
;;;401                        }
;;;402                        cutoff_flag = 0;
;;;403                        Mode_SW_CONT(0x02);//切换至负载模式
;;;404                        GPIO_ResetBits(GPIOC,GPIO_Pin_1);//开启负载
;;;405                    }
;;;406                }
;;;407                
;;;408    //             if(DISS_POW_Current < dis_c_cutoff_c && cutoff_flag == 0){//判断电流是否小于截止电流，并记录时间
;;;409    //                 cutoff_time = GUI_GetTime()/500;
;;;410    //                 cutoff_flag = 1;
;;;411    //             }
;;;412    //             if(((DISS_POW_Voltage >= dis_c_cutoff_v && dis_c_cutoff_v != 0) || DISS_POW_Current < dis_c_cutoff_c) && (GUI_GetTime()/500 - cutoff_time) >= 10 )//若测量电流小于截止电流
;;;413    //             {
;;;414    //                 if(mode_sw == mode_pow){
;;;415    //                     start_time = GUI_GetTime()/500;//记录开始时间
;;;416    //                 }
;;;417    //                 cutoff_flag = 0;
;;;418    //                 Mode_SW_CONT(0x02);//切换至负载模式
;;;419    //                 GPIO_ResetBits(GPIOC,GPIO_Pin_1);//开启负载
;;;420    //             }          
;;;421            }else if(mode_sw == mode_load && cdc_sw == cdc_on){
;;;422                charge_step = 1;
;;;423                hItem = WM_GetDialogItem(pMsg->hWin, ID_TEXT_119);
;;;424                TEXT_SetText(hItem,"");
;;;425                if(paused == 0){
;;;426                    second = (GUI_GetTime()/500-start_time)%60;//秒
;;;427                    minute = ((GUI_GetTime()/500-start_time)/60)%60;//分
;;;428                    hour   = (GUI_GetTime()/500-start_time)/3600;//时
;;;429                }else{
;;;430                    second = (GUI_GetTime()/500-restart_time + pause_time)%60;//秒 
;;;431                    minute = ((GUI_GetTime()/500-restart_time + pause_time)/60)%60;//分
;;;432                    hour = ((GUI_GetTime()/500-restart_time) + pause_time)/3600;//时
;;;433                }
;;;434                
;;;435                
;;;436                hItem = WM_GetDialogItem(pMsg->hWin, ID_TEXT_72);
;;;437                sprintf(buf,"%02d",hour);
;;;438                TEXT_SetTextColor(hItem, GUI_WHITE);//设置字体颜色
;;;439                TEXT_SetFont(hItem,&GUI_Font24_1);//设定文本字体
;;;440                GUI_UC_SetEncodeUTF8();        
;;;441                TEXT_SetText(hItem,buf);
;;;442    
;;;443                hItem = WM_GetDialogItem(pMsg->hWin, ID_TEXT_73);
;;;444                sprintf(buf,"%02d",minute);
;;;445                TEXT_SetTextColor(hItem, GUI_WHITE);//设置字体颜色
;;;446                TEXT_SetFont(hItem,&GUI_Font24_1);//设定文本字体
;;;447                GUI_UC_SetEncodeUTF8();        
;;;448                TEXT_SetText(hItem,buf);
;;;449                
;;;450                hItem = WM_GetDialogItem(pMsg->hWin, ID_TEXT_74);
;;;451                sprintf(buf,"%02d",second);
;;;452                TEXT_SetTextColor(hItem, GUI_WHITE);//设置字体颜色
;;;453                TEXT_SetFont(hItem,&GUI_Font24_1);//设定文本字体
;;;454                GUI_UC_SetEncodeUTF8();        
;;;455                TEXT_SetText(hItem,buf);
;;;456                
;;;457                hItem = WM_GetDialogItem(pMsg->hWin, ID_TEXT_75);
;;;458                TEXT_SetTextColor(hItem, GUI_WHITE);//设置字体颜色
;;;459                TEXT_SetFont(hItem,&GUI_Font24_1);//设定文本字体
;;;460                GUI_UC_SetEncodeUTF8();        
;;;461                TEXT_SetText(hItem,":");
;;;462                
;;;463                hItem = WM_GetDialogItem(pMsg->hWin, ID_TEXT_76);
;;;464                TEXT_SetTextColor(hItem, GUI_WHITE);//设置字体颜色
;;;465                TEXT_SetFont(hItem,&GUI_Font24_1);//设定文本字体
;;;466                GUI_UC_SetEncodeUTF8();        
;;;467                TEXT_SetText(hItem,":");
;;;468                
;;;469                
;;;470                
;;;471                
;;;472                hItem = WM_GetDialogItem(pMsg->hWin, ID_TEXT_66);
;;;473                sprintf(buf,"%.2f",DISS_Voltage);       
;;;474                TEXT_SetText(hItem,buf);
;;;475                
;;;476                hItem = WM_GetDialogItem(pMsg->hWin, ID_TEXT_67);
;;;477                sprintf(buf,"%.2f",DISS_Current);       
;;;478                TEXT_SetText(hItem,buf);
;;;479                
;;;480                battery_c = (int)(((float)(second + minute*60 + hour * 3600)/3600 * dis_load_c)*1000);
;;;481                hItem = WM_GetDialogItem(pMsg->hWin, ID_TEXT_68);
;;;482                sprintf(buf,"%05d",battery_c);
;;;483                TEXT_SetText(hItem,buf);
;;;484                
;;;485                hItem = WM_GetDialogItem(pMsg->hWin, ID_TEXT_69);
;;;486                TEXT_SetTextColor(hItem, GUI_WHITE);//设置字体颜色
;;;487                
;;;488                hItem = WM_GetDialogItem(pMsg->hWin, ID_TEXT_70);
;;;489                TEXT_SetTextColor(hItem, GUI_RED);//设置字体颜色
;;;490                
;;;491                if(status_flash == 0){
;;;492                    hItem = WM_GetDialogItem(pMsg->hWin, ID_TEXT_71);
;;;493                    TEXT_SetTextColor(hItem, GUI_RED);//设置字体颜色
;;;494                    if(lang == 0)
;;;495                    {
;;;496                        TEXT_SetFont(hItem,&GUI_FontHZ16);//设定文本字体
;;;497                        GUI_UC_SetEncodeUTF8();        
;;;498                        TEXT_SetText(hItem,"放电中");
;;;499                    }else{
;;;500                        TEXT_SetFont(hItem,&GUI_Font20_ASCII);//设定文本字体
;;;501                        GUI_UC_SetEncodeUTF8();        
;;;502                        TEXT_SetText(hItem,"Discharging");
;;;503                    }
;;;504                    status_flash = 1;
;;;505                }else{
;;;506                    hItem = WM_GetDialogItem(pMsg->hWin, ID_TEXT_71);
;;;507                    TEXT_SetText(hItem,"");
;;;508                    status_flash = 0;
;;;509                }
;;;510                if(pause_flag == 1){
;;;511                    GPIO_SetBits(GPIOC,GPIO_Pin_1);//关闭负载
;;;512                    cdc_sw = cdc_off;
;;;513                    paused = 1;
;;;514                    
;;;515                    pause_time = second + minute*60 + hour*3600;
;;;516                }
;;;517                
;;;518                if(DISS_Voltage < dis_dc_cutoff_v && cutoff_flag == 0)
;;;519                {
;;;520                    cutoff_time = GUI_GetTime()/500;
;;;521                    cutoff_flag = 1;
;;;522                }
;;;523                
;;;524                if(DISS_Voltage < dis_dc_cutoff_v && (GUI_GetTime()/500 - cutoff_time) >= 10)//若测量电压小于截止电压
;;;525                {
;;;526                    if(mode_sw == mode_load){
;;;527                        end_time = GUI_GetTime()/500;//记录结束时间
;;;528                        count++;
;;;529                    }
;;;530                            
;;;531                    GPIO_SetBits(GPIOC,GPIO_Pin_1);//关闭负载
;;;532                    if(count > set_loop_count){
;;;533                        cdc_sw = cdc_off;//关闭充放电模式
;;;534                        battery_c = (c_sum + (int)(((float)(end_time - start_time)/3600 * dis_load_c)*1000))/set_loop_count;                    
;;;535                        count = 1;
;;;536                        
;;;537                        hItem = WM_GetDialogItem(pMsg->hWin, ID_TEXT_68);
;;;538                        sprintf(buf,"%05d",battery_c);
;;;539                        TEXT_SetText(hItem,buf);
;;;540                        
;;;541                        hItem = WM_GetDialogItem(pMsg->hWin, ID_TEXT_71);
;;;542                        TEXT_SetText(hItem,"");
;;;543                        
;;;544                        hItem = WM_GetDialogItem(pMsg->hWin, ID_TEXT_72);       
;;;545                        TEXT_SetText(hItem,"");
;;;546    
;;;547                        hItem = WM_GetDialogItem(pMsg->hWin, ID_TEXT_73);     
;;;548                        TEXT_SetText(hItem,"");
;;;549                        
;;;550                        hItem = WM_GetDialogItem(pMsg->hWin, ID_TEXT_74);      
;;;551                        TEXT_SetText(hItem,"");
;;;552                        
;;;553                        hItem = WM_GetDialogItem(pMsg->hWin, ID_TEXT_75);       
;;;554                        TEXT_SetText(hItem,"");
;;;555                        
;;;556                        hItem = WM_GetDialogItem(pMsg->hWin, ID_TEXT_76);       
;;;557                        TEXT_SetText(hItem,"");
;;;558                        
;;;559                        hItem = WM_GetDialogItem(pMsg->hWin, ID_TEXT_77);
;;;560                        TEXT_SetText(hItem,"");
;;;561                            
;;;562                        hItem = WM_GetDialogItem(pMsg->hWin, ID_TEXT_78);
;;;563                        TEXT_SetText(hItem,"");
;;;564                        
;;;565                        hItem = WM_GetDialogItem(pMsg->hWin, ID_TEXT_79);
;;;566                        TEXT_SetText(hItem,"");
;;;567                        
;;;568                    }else{
;;;569                        c_sum = c_sum + (int)(((float)(end_time - start_time)/3600 * dis_load_c)*1000);
;;;570                        Mode_SW_CONT(0x03);//切换至电源模式
;;;571    //                     hItem = WM_GetDialogItem(pMsg->hWin, ID_TEXT_68);
;;;572    //                     sprintf(buf,"%05d",battery_c);
;;;573    //                     TEXT_SetText(hItem,buf);
;;;574                        GPIO_SetBits(GPIOB,GPIO_Pin_13);//打开稳压电源输出
;;;575                        cutoff_flag = 0;                           
;;;576                    }
;;;577                }
;;;578            }else if(pause_flag == 1 && battery_c != 0){
;;;579                hItem = WM_GetDialogItem(pMsg->hWin, ID_TEXT_66);
;;;580                sprintf(buf,"%.2f",0.00);       
00008e  ed9fbbe6          VLDR     d11,|L9.1064|
000092  4ee7              LDR      r6,|L9.1072|
000094  f44f75fa          MOV      r5,#0x1f4             ;348
000098  281d              CMP      r0,#0x1d              ;200
00009a  d079              BEQ      |L9.400|
00009c  f5a07080          SUB      r0,r0,#0x100          ;200
0000a0  3813              SUBS     r0,r0,#0x13           ;200
0000a2  d060              BEQ      |L9.358|
;;;581                TEXT_SetText(hItem,buf);
;;;582                    
;;;583                hItem = WM_GetDialogItem(pMsg->hWin, ID_TEXT_67);
;;;584                sprintf(buf,"%.2f",0.00);       
;;;585                TEXT_SetText(hItem,buf);
;;;586                
;;;587                hItem = WM_GetDialogItem(pMsg->hWin, ID_TEXT_69);
;;;588                TEXT_SetTextColor(hItem, GUI_WHITE);//设置字体颜色
;;;589                
;;;590                hItem = WM_GetDialogItem(pMsg->hWin, ID_TEXT_70);
;;;591                TEXT_SetTextColor(hItem, GUI_WHITE);//设置字体颜色   
;;;592                    
;;;593                hItem = WM_GetDialogItem(pMsg->hWin, ID_TEXT_71);
;;;594                TEXT_SetText(hItem,"");
;;;595                
;;;596            }else if(cdc_sw == cdc_off){
;;;597                hItem = WM_GetDialogItem(pMsg->hWin, ID_TEXT_66);
;;;598                sprintf(buf,"%.2f",0.00);       
;;;599                TEXT_SetText(hItem,buf);
;;;600                    
;;;601                hItem = WM_GetDialogItem(pMsg->hWin, ID_TEXT_67);
;;;602                sprintf(buf,"%.2f",0.00);       
;;;603                TEXT_SetText(hItem,buf);
;;;604                
;;;605                hItem = WM_GetDialogItem(pMsg->hWin, ID_TEXT_119);
;;;606                TEXT_SetText(hItem,"");
;;;607                
;;;608                hItem = WM_GetDialogItem(pMsg->hWin, ID_TEXT_69);
;;;609                TEXT_SetTextColor(hItem, GUI_WHITE);//设置字体颜色
;;;610                
;;;611                hItem = WM_GetDialogItem(pMsg->hWin, ID_TEXT_70);
;;;612                TEXT_SetTextColor(hItem, GUI_WHITE);//设置字体颜色
;;;613                
;;;614                hItem = WM_GetDialogItem(pMsg->hWin, ID_TEXT_71);
;;;615                TEXT_SetText(hItem,"");
;;;616            }            
;;;617    		WM_RestartTimer(pMsg->Data.v, 497);//شλ֨ʱǷ˽ֵԽճˢтʱݤԽ׌
;;;618    	}
;;;619    	break;
;;;620        
;;;621    		
;;;622      case WM_INIT_DIALOG:
;;;623        //
;;;624        // Initialization of 'R'
;;;625    	
;;;626        //
;;;627            hItem = pMsg->hWin;
;;;628            WINDOW_SetBkColor(hItem, GUI_BLACK);
;;;629    		WM_CreateTimer(hItem,ID_TimerTime4,500,0);//ԴݨѾ԰ࠚ֨ʱǷ
;;;630    
;;;631            if(lang ==0)
;;;632            {
;;;633                hItem = WM_GetDialogItem(pMsg->hWin, ID_BUTTON_25);
;;;634                BUTTON_SetTextColor(hItem,0,GUI_BLACK);//ʨ׃ؖͥҕɫΪۚɫ
;;;635                BUTTON_SetFont      (hItem,    &GUI_FontHZ16);//ʨ֨дťτѾؖͥ
;;;636                GUI_UC_SetEncodeUTF8();
;;;637                BUTTON_SetText(hItem,"内阻测试");
;;;638            
;;;639                hItem = WM_GetDialogItem(pMsg->hWin, ID_BUTTON_26);
;;;640                BUTTON_SetTextColor(hItem,0,GUI_BLACK);//ʨ׃ؖͥҕɫΪۚɫ
;;;641                BUTTON_SetFont      (hItem,    &GUI_FontHZ16);//ʨ֨дťτѾؖͥ
;;;642                GUI_UC_SetEncodeUTF8();
;;;643                BUTTON_SetText(hItem,"程控负载");
;;;644                
;;;645                hItem = WM_GetDialogItem(pMsg->hWin, ID_BUTTON_27);
;;;646                BUTTON_SetTextColor(hItem,0,GUI_BLACK);//ʨ׃ؖͥҕɫΪۚɫ
;;;647                BUTTON_SetFont      (hItem,    &GUI_FontHZ16);//ʨ֨дťτѾؖͥ
;;;648                GUI_UC_SetEncodeUTF8();
;;;649                BUTTON_SetText(hItem,"程控电源");
;;;650                
;;;651                hItem = WM_GetDialogItem(pMsg->hWin, ID_BUTTON_28);
;;;652                BUTTON_SetPressed(hItem,1);
;;;653                BUTTON_SetTextColor(hItem,0,GUI_BLACK);//ʨ׃ؖͥҕɫΪۚɫ
;;;654                BUTTON_SetFont      (hItem,    &GUI_FontHZ16);//ʨ֨дťτѾؖͥ
;;;655                GUI_UC_SetEncodeUTF8();
;;;656                BUTTON_SetText(hItem,"充放电");
;;;657                
;;;658                hItem = WM_GetDialogItem(pMsg->hWin, ID_BUTTON_29);
;;;659                BUTTON_SetTextColor(hItem,0,GUI_BLACK);//ʨ׃ؖͥҕɫΪۚɫ
;;;660                BUTTON_SetFont      (hItem,&GUI_FontHZ16);//ʨ֨дťτѾؖͥ
;;;661                GUI_UC_SetEncodeUTF8();
;;;662                BUTTON_SetText(hItem,"曲线");
;;;663            }else{
;;;664                hItem = WM_GetDialogItem(pMsg->hWin, ID_BUTTON_25);
;;;665                BUTTON_SetTextColor(hItem,0,GUI_BLACK);//ʨ׃ؖͥҕɫΪۚɫ
;;;666                BUTTON_SetFont      (hItem,    &GUI_Font16B_ASCII);//ʨ֨дťτѾؖͥ
;;;667                GUI_UC_SetEncodeUTF8();
;;;668                BUTTON_SetText(hItem,"I.R. TEST");
;;;669            
;;;670                hItem = WM_GetDialogItem(pMsg->hWin, ID_BUTTON_26);
;;;671                BUTTON_SetTextColor(hItem,0,GUI_BLACK);//ʨ׃ؖͥҕɫΪۚɫ
;;;672                BUTTON_SetFont      (hItem,    &GUI_Font16B_ASCII);//ʨ֨дťτѾؖͥ
;;;673                GUI_UC_SetEncodeUTF8();
;;;674                BUTTON_SetText(hItem,"LOAD");
;;;675                
;;;676                hItem = WM_GetDialogItem(pMsg->hWin, ID_BUTTON_27);
;;;677                BUTTON_SetTextColor(hItem,0,GUI_BLACK);//ʨ׃ؖͥҕɫΪۚɫ
;;;678                BUTTON_SetFont      (hItem,    &GUI_Font16B_ASCII);//ʨ֨дťτѾؖͥ
;;;679                GUI_UC_SetEncodeUTF8();
;;;680                BUTTON_SetText(hItem,"POWER");
;;;681                
;;;682                hItem = WM_GetDialogItem(pMsg->hWin, ID_BUTTON_28);
;;;683                BUTTON_SetPressed(hItem,1);
;;;684                BUTTON_SetTextColor(hItem,0,GUI_BLACK);//ʨ׃ؖͥҕɫΪۚɫ
;;;685                BUTTON_SetFont      (hItem,    &GUI_Font16B_ASCII);//ʨ֨дťτѾؖͥ
;;;686                GUI_UC_SetEncodeUTF8();
;;;687                BUTTON_SetText(hItem,"C&DC");
;;;688                
;;;689                hItem = WM_GetDialogItem(pMsg->hWin, ID_BUTTON_29);
;;;690                BUTTON_SetTextColor(hItem,0,GUI_BLACK);//ʨ׃ؖͥҕɫΪۚɫ
;;;691                BUTTON_SetFont      (hItem,&GUI_Font16B_ASCII);//ʨ֨дťτѾؖͥ
;;;692                GUI_UC_SetEncodeUTF8();
;;;693                BUTTON_SetText(hItem,"GRAPH");
;;;694            }
;;;695            
;;;696            hItem = WM_GetDialogItem(pMsg->hWin, ID_TEXT_17);
;;;697    		TEXT_SetTextColor(hItem, GUI_LIGHTGRAY);//设置字体颜色
;;;698            TEXT_SetFont(hItem,&GUI_FontEN40);//设定文本字体
;;;699    		GUI_UC_SetEncodeUTF8();
;;;700    		TEXT_SetText(hItem,"V:");
;;;701    		
;;;702    		hItem = WM_GetDialogItem(pMsg->hWin, ID_TEXT_18);
;;;703    		TEXT_SetTextColor(hItem, GUI_LIGHTGRAY);//设置字体颜色
;;;704            TEXT_SetFont(hItem,&GUI_FontEN40);//设定文本字体
;;;705    		GUI_UC_SetEncodeUTF8();
;;;706    		TEXT_SetText(hItem,"I:");
;;;707            
;;;708            hItem = WM_GetDialogItem(pMsg->hWin, ID_TEXT_19);
;;;709    		TEXT_SetTextColor(hItem, GUI_LIGHTGRAY);//设置字体颜色
;;;710            TEXT_SetFont(hItem,&GUI_FontEN40);//设定文本字体
;;;711    		GUI_UC_SetEncodeUTF8();
;;;712    		TEXT_SetText(hItem,"V");
;;;713    		
;;;714    		hItem = WM_GetDialogItem(pMsg->hWin, ID_TEXT_20);
;;;715    		TEXT_SetTextColor(hItem, GUI_LIGHTGRAY);//设置字体颜色
;;;716            TEXT_SetFont(hItem,&GUI_FontEN40);//设定文本字体
;;;717    		GUI_UC_SetEncodeUTF8();
;;;718    		TEXT_SetText(hItem,"A");
;;;719            
;;;720            if(lang == 0)
;;;721            {
;;;722                hItem = WM_GetDialogItem(pMsg->hWin, ID_TEXT_50);
;;;723                TEXT_SetTextColor(hItem, GUI_BLACK);//设置字体颜色
;;;724                TEXT_SetBkColor(hItem,0x00BFFFFF);
;;;725                TEXT_SetFont(hItem,&GUI_Fontset_font);//设定文本字体
;;;726                GUI_UC_SetEncodeUTF8(); 
;;;727                TEXT_SetText(hItem,"输出电压1");        
;;;728                
;;;729                hItem = WM_GetDialogItem(pMsg->hWin, ID_TEXT_51);
;;;730                TEXT_SetTextColor(hItem, GUI_WHITE);//设置字体颜色
;;;731                TEXT_SetFont(hItem,&GUI_Fontset_font);//设定文本字体
;;;732                GUI_UC_SetEncodeUTF8();
;;;733                TEXT_SetText(hItem,"限制电流1");
;;;734                
;;;735                hItem = WM_GetDialogItem(pMsg->hWin, ID_TEXT_58);
;;;736                TEXT_SetTextColor(hItem, GUI_WHITE);//设置字体颜色
;;;737                TEXT_SetFont(hItem,&GUI_Fontset_font);//设定文本字体
;;;738                GUI_UC_SetEncodeUTF8();
;;;739                TEXT_SetText(hItem,"截止电压1");
;;;740                
;;;741                hItem = WM_GetDialogItem(pMsg->hWin, ID_TEXT_59);
;;;742                TEXT_SetTextColor(hItem, GUI_WHITE);//设置字体颜色
;;;743                TEXT_SetFont(hItem,&GUI_Fontset_font);//设定文本字体
;;;744                GUI_UC_SetEncodeUTF8();
;;;745                TEXT_SetText(hItem,"截止电流1");
;;;746                
;;;747                hItem = WM_GetDialogItem(pMsg->hWin, ID_TEXT_52);
;;;748                TEXT_SetTextColor(hItem, GUI_WHITE);//设置字体颜色
;;;749                TEXT_SetFont(hItem,&GUI_Fontset_font);//设定文本字体
;;;750                GUI_UC_SetEncodeUTF8();
;;;751                TEXT_SetText(hItem,"负载电流");
;;;752    
;;;753                hItem = WM_GetDialogItem(pMsg->hWin, ID_TEXT_60);
;;;754                TEXT_SetTextColor(hItem, GUI_WHITE);//设置字体颜色
;;;755                TEXT_SetFont(hItem,&GUI_Fontset_font);//设定文本字体
;;;756                GUI_UC_SetEncodeUTF8();
;;;757                TEXT_SetText(hItem,"截止电压");
;;;758                
;;;759        //         hItem = WM_GetDialogItem(pMsg->hWin, ID_TEXT_61);
;;;760        // 		TEXT_SetTextColor(hItem, GUI_WHITE);//设置字体颜色
;;;761        //         TEXT_SetFont(hItem,&GUI_Fontset_font);//设定文本字体
;;;762        // 		GUI_UC_SetEncodeUTF8();
;;;763        // 		TEXT_SetText(hItem,"截止电流");
;;;764                
;;;765                hItem = WM_GetDialogItem(pMsg->hWin, ID_TEXT_53);
;;;766                TEXT_SetTextColor(hItem, GUI_WHITE);//设置字体颜色
;;;767                TEXT_SetFont(hItem,&GUI_Fontset_font);//设定文本字体
;;;768                GUI_UC_SetEncodeUTF8();
;;;769                TEXT_SetText(hItem,"循环次数");
;;;770            }else{
;;;771                hItem = WM_GetDialogItem(pMsg->hWin, ID_TEXT_50);
;;;772                TEXT_SetTextColor(hItem, GUI_BLACK);//设置字体颜色
;;;773                TEXT_SetBkColor(hItem,0x00BFFFFF);
;;;774                TEXT_SetFont(hItem,&GUI_Font20_ASCII);//设定文本字体
;;;775                GUI_UC_SetEncodeUTF8(); 
;;;776                TEXT_SetText(hItem,"Output V1");        
;;;777                
;;;778                hItem = WM_GetDialogItem(pMsg->hWin, ID_TEXT_51);
;;;779                TEXT_SetTextColor(hItem, GUI_WHITE);//设置字体颜色
;;;780                TEXT_SetFont(hItem,&GUI_Font20_ASCII);//设定文本字体
;;;781                GUI_UC_SetEncodeUTF8();
;;;782                TEXT_SetText(hItem,"Limiting C1");
;;;783                
;;;784                hItem = WM_GetDialogItem(pMsg->hWin, ID_TEXT_58);
;;;785                TEXT_SetTextColor(hItem, GUI_WHITE);//设置字体颜色
;;;786                TEXT_SetFont(hItem,&GUI_Font20_ASCII);//设定文本字体
;;;787                GUI_UC_SetEncodeUTF8();
;;;788                TEXT_SetText(hItem,"Cutoff V1");
;;;789                
;;;790                hItem = WM_GetDialogItem(pMsg->hWin, ID_TEXT_59);
;;;791                TEXT_SetTextColor(hItem, GUI_WHITE);//设置字体颜色
;;;792                TEXT_SetFont(hItem,&GUI_Font20_ASCII);//设定文本字体
;;;793                GUI_UC_SetEncodeUTF8();
;;;794                TEXT_SetText(hItem,"Cutoff C1");
;;;795                
;;;796                hItem = WM_GetDialogItem(pMsg->hWin, ID_TEXT_52);
;;;797                TEXT_SetTextColor(hItem, GUI_WHITE);//设置字体颜色
;;;798                TEXT_SetFont(hItem,&GUI_Font20_ASCII);//设定文本字体
;;;799                GUI_UC_SetEncodeUTF8();
;;;800                TEXT_SetText(hItem,"Load C");
;;;801    
;;;802                hItem = WM_GetDialogItem(pMsg->hWin, ID_TEXT_60);
;;;803                TEXT_SetTextColor(hItem, GUI_WHITE);//设置字体颜色
;;;804                TEXT_SetFont(hItem,&GUI_Font20_ASCII);//设定文本字体
;;;805                GUI_UC_SetEncodeUTF8();
;;;806                TEXT_SetText(hItem,"Cutoff V");
;;;807                
;;;808        //         hItem = WM_GetDialogItem(pMsg->hWin, ID_TEXT_61);
;;;809        // 		TEXT_SetTextColor(hItem, GUI_WHITE);//设置字体颜色
;;;810        //         TEXT_SetFont(hItem,&GUI_Fontset_font);//设定文本字体
;;;811        // 		GUI_UC_SetEncodeUTF8();
;;;812        // 		TEXT_SetText(hItem,"截止电流");
;;;813                
;;;814                hItem = WM_GetDialogItem(pMsg->hWin, ID_TEXT_53);
;;;815                TEXT_SetTextColor(hItem, GUI_WHITE);//设置字体颜色
;;;816                TEXT_SetFont(hItem,&GUI_Font20_ASCII);//设定文本字体
;;;817                GUI_UC_SetEncodeUTF8();
;;;818                TEXT_SetText(hItem,"Cycle times");
;;;819            }
;;;820            
;;;821            hItem = WM_GetDialogItem(pMsg->hWin, ID_TEXT_54);
;;;822            sprintf(buf,"%.2f",dis_output_v);
;;;823    		TEXT_SetTextColor(hItem, GUI_WHITE);//设置字体颜色
;;;824            TEXT_SetFont(hItem,&GUI_Font24_1);//设定文本字体
;;;825    		GUI_UC_SetEncodeUTF8();        
;;;826    		TEXT_SetText(hItem,buf);
;;;827            
;;;828            hItem = WM_GetDialogItem(pMsg->hWin, ID_TEXT_55);
;;;829            sprintf(buf,"%.2f",dis_output_c);
;;;830    		TEXT_SetTextColor(hItem, GUI_WHITE);//设置字体颜色
;;;831            TEXT_SetFont(hItem,&GUI_Font24_1);//设定文本字体
;;;832    		GUI_UC_SetEncodeUTF8();        
;;;833    		TEXT_SetText(hItem,buf);
;;;834            
;;;835            hItem = WM_GetDialogItem(pMsg->hWin, ID_TEXT_56);
;;;836            sprintf(buf,"%.2f",dis_load_c);
;;;837    		TEXT_SetTextColor(hItem, GUI_WHITE);//设置字体颜色
;;;838            TEXT_SetFont(hItem,&GUI_Font24_1);//设定文本字体
;;;839    		GUI_UC_SetEncodeUTF8();        
;;;840    		TEXT_SetText(hItem,buf);
;;;841            
;;;842            hItem = WM_GetDialogItem(pMsg->hWin, ID_TEXT_57);
;;;843            sprintf(buf,"%2d",set_loop_count);
;;;844            TEXT_SetTextColor(hItem, GUI_WHITE);//设置字体颜色
;;;845            TEXT_SetFont(hItem,&GUI_Font24_1);//设定文本字体
;;;846            GUI_UC_SetEncodeUTF8();        
;;;847            TEXT_SetText(hItem,buf);            
;;;848    
;;;849    
;;;850            
;;;851            hItem = WM_GetDialogItem(pMsg->hWin, ID_TEXT_62);
;;;852            sprintf(buf,"%.2f",dis_c_cutoff_v);
;;;853    		TEXT_SetTextColor(hItem, GUI_WHITE);//设置字体颜色
;;;854            TEXT_SetFont(hItem,&GUI_Font24_1);//设定文本字体
;;;855    		GUI_UC_SetEncodeUTF8();        
;;;856    		TEXT_SetText(hItem,buf);
;;;857            
;;;858            hItem = WM_GetDialogItem(pMsg->hWin, ID_TEXT_63);
;;;859            sprintf(buf,"%.2f",dis_c_cutoff_c);
;;;860    		TEXT_SetTextColor(hItem, GUI_WHITE);//设置字体颜色
;;;861            TEXT_SetFont(hItem,&GUI_Font24_1);//设定文本字体
;;;862    		GUI_UC_SetEncodeUTF8();        
;;;863    		TEXT_SetText(hItem,buf);
;;;864            
;;;865            hItem = WM_GetDialogItem(pMsg->hWin, ID_TEXT_64);
;;;866            sprintf(buf,"%.2f",dis_dc_cutoff_v);
;;;867    		TEXT_SetTextColor(hItem, GUI_WHITE);//设置字体颜色
;;;868            TEXT_SetFont(hItem,&GUI_Font24_1);//设定文本字体
;;;869    		GUI_UC_SetEncodeUTF8();        
;;;870    		TEXT_SetText(hItem,buf);
;;;871            
;;;872    //         hItem = WM_GetDialogItem(pMsg->hWin, ID_TEXT_65);
;;;873    //         sprintf(dc_cutoff_c,"%.2f",dis_dc_cutoff_c);
;;;874    // 		TEXT_SetTextColor(hItem, GUI_WHITE);//设置字体颜色
;;;875    //         TEXT_SetFont(hItem,&GUI_Font24_1);//设定文本字体
;;;876    // 		GUI_UC_SetEncodeUTF8();        
;;;877    // 		TEXT_SetText(hItem,dc_cutoff_c);
;;;878            
;;;879            hItem = WM_GetDialogItem(pMsg->hWin, ID_TEXT_66);
;;;880            sprintf(buf,"%.2f",0.00);
;;;881            TEXT_SetTextColor(hItem, GUI_GREEN);//设置字体颜色
;;;882            TEXT_SetFont(hItem,&GUI_FontD24x32);//设定文本字体
;;;883            GUI_UC_SetEncodeUTF8();        
;;;884            TEXT_SetText(hItem,buf);
;;;885                
;;;886            hItem = WM_GetDialogItem(pMsg->hWin, ID_TEXT_67);
;;;887            sprintf(buf,"%.2f",0.00);
;;;888            TEXT_SetTextColor(hItem, GUI_GREEN);//设置字体颜色
;;;889            TEXT_SetFont(hItem,&GUI_FontD24x32);//设定文本字体
;;;890            GUI_UC_SetEncodeUTF8();        
;;;891            TEXT_SetText(hItem,buf);    
;;;892                
;;;893            hItem = WM_GetDialogItem(pMsg->hWin, ID_TEXT_68);
;;;894            sprintf(buf,"%05d",0);
;;;895            TEXT_SetTextColor(hItem, GUI_GREEN);//设置字体颜色
;;;896            TEXT_SetFont(hItem,&GUI_FontD24x32);//设定文本字体
;;;897            GUI_UC_SetEncodeUTF8();        
;;;898            TEXT_SetText(hItem,buf);
;;;899            
;;;900            hItem = WM_GetDialogItem(pMsg->hWin, ID_TEXT_69);
;;;901            TEXT_SetTextColor(hItem, GUI_WHITE);//设置字体颜色
;;;902            if(lang == 0)
;;;903            {
;;;904                TEXT_SetFont(hItem,&GUI_FontHZ16);//设定文本字体
;;;905                GUI_UC_SetEncodeUTF8();        
;;;906                TEXT_SetText(hItem,"充电");
;;;907            }else{
;;;908                TEXT_SetFont(hItem,&GUI_FontHZ16);//设定文本字体
;;;909                GUI_UC_SetEncodeUTF8();        
;;;910                TEXT_SetText(hItem,"Charge");
;;;911            }
;;;912            
;;;913            hItem = WM_GetDialogItem(pMsg->hWin, ID_TEXT_77);
;;;914            TEXT_SetTextColor(hItem, GUI_GREEN);//设置字体颜色
;;;915            TEXT_SetFont(hItem,&GUI_Font24_1);//设定文本字体
;;;916            GUI_UC_SetEncodeUTF8();
;;;917            TEXT_SetText(hItem,"");
;;;918                
;;;919            hItem = WM_GetDialogItem(pMsg->hWin, ID_TEXT_78);
;;;920            TEXT_SetTextColor(hItem, GUI_GREEN);//设置字体颜色
;;;921            TEXT_SetFont(hItem,&GUI_Font24_1);//设定文本字体
;;;922            GUI_UC_SetEncodeUTF8();
;;;923            TEXT_SetText(hItem,"");
;;;924                
;;;925            hItem = WM_GetDialogItem(pMsg->hWin, ID_TEXT_79);
;;;926            TEXT_SetTextColor(hItem, GUI_GREEN);//设置字体颜色
;;;927            TEXT_SetFont(hItem,&GUI_Font24_1);//设定文本字体
;;;928            GUI_UC_SetEncodeUTF8();
;;;929            TEXT_SetText(hItem,"");
;;;930            
;;;931            hItem = WM_GetDialogItem(pMsg->hWin, ID_TEXT_119);
;;;932            TEXT_SetTextColor(hItem, GUI_RED);//设置字体颜色
;;;933            TEXT_SetFont(hItem,&GUI_Fontset_font);//设定文本字体
;;;934            GUI_UC_SetEncodeUTF8();        
;;;935            TEXT_SetText(hItem,"");
;;;936            
;;;937            hItem = WM_GetDialogItem(pMsg->hWin, ID_TEXT_70);
;;;938            TEXT_SetTextColor(hItem, GUI_WHITE);//设置字体颜色
;;;939            if(lang == 0)
;;;940            {
;;;941                TEXT_SetFont(hItem,&GUI_FontHZ16);//设定文本字体
;;;942                GUI_UC_SetEncodeUTF8();        
;;;943                TEXT_SetText(hItem,"放电");
;;;944            }else{
;;;945                TEXT_SetFont(hItem,&GUI_FontHZ16);//设定文本字体
;;;946                GUI_UC_SetEncodeUTF8();        
;;;947                TEXT_SetText(hItem,"Discharge");
;;;948            }
;;;949            
;;;950            
;;;951        // USER START (Optionally insert additional code for further widget initialization)
;;;952        // USER END
;;;953            break;
;;;954      // USER START (Optionally insert additional message handling)
;;;955      // USER END
;;;956        default:
;;;957            WM_DefaultProc(pMsg);
0000a4  4620              MOV      r0,r4
0000a6  f7fffffe          BL       WM_DefaultProc
                  |L9.170|
;;;958            break;
;;;959      }
;;;960    }
0000aa  b003              ADD      sp,sp,#0xc
0000ac  ecbd8b0a          VPOP     {d8-d12}
0000b0  e8bd8ff0          POP      {r4-r11,pc}
                  |L9.180|
0000b4  4648              MOV      r0,r9                 ;204
0000b6  f7fffffe          BL       GUI_SetColor
0000ba  231a              MOVS     r3,#0x1a              ;205
0000bc  f44f72f0          MOV      r2,#0x1e0             ;205
0000c0  2119              MOVS     r1,#0x19              ;205
0000c2  2000              MOVS     r0,#0                 ;205
0000c4  f7fffffe          BL       GUI_FillRect
0000c8  f24a50ff          MOV      r0,#0xa5ff            ;206
0000cc  f7fffffe          BL       GUI_SetColor
0000d0  48d8              LDR      r0,|L9.1076|
0000d2  f7fffffe          BL       GUI_SetFont
0000d6  f7fffffe          BL       GUI_UC_SetEncodeUTF8
0000da  2002              MOVS     r0,#2                 ;209
0000dc  f7fffffe          BL       GUI_SetTextMode
0000e0  2201              MOVS     r2,#1                 ;210
0000e2  2105              MOVS     r1,#5                 ;210
0000e4  a0d4              ADR      r0,|L9.1080|
0000e6  f7fffffe          BL       GUI_DispStringAt
0000ea  f8981000          LDRB     r1,[r8,#0]            ;211  ; lang
0000ee  b349              CBZ      r1,|L9.324|
0000f0  4648              MOV      r0,r9                 ;219
0000f2  f7fffffe          BL       GUI_SetColor
0000f6  48d2              LDR      r0,|L9.1088|
0000f8  f7fffffe          BL       GUI_SetFont
0000fc  2203              MOVS     r2,#3                 ;221
0000fe  2182              MOVS     r1,#0x82              ;221
000100  a0d0              ADR      r0,|L9.1092|
000102  f7fffffe          BL       GUI_DispStringAt
                  |L9.262|
000106  4648              MOV      r0,r9                 ;223
000108  f7fffffe          BL       GUI_SetColor
00010c  48cf              LDR      r0,|L9.1100|
00010e  f7fffffe          BL       GUI_SetFont
000112  48cf              LDR      r0,|L9.1104|
000114  f7fffffe          BL       GUI_SetFont
000118  4658              MOV      r0,r11                ;228
00011a  f7fffffe          BL       GUI_SetColor
00011e  22be              MOVS     r2,#0xbe              ;229
000120  211c              MOVS     r1,#0x1c              ;229
000122  a0cc              ADR      r0,|L9.1108|
000124  f7fffffe          BL       GUI_DispStringAt
000128  4658              MOV      r0,r11                ;230
00012a  f7fffffe          BL       GUI_SetColor
00012e  22c4              MOVS     r2,#0xc4              ;231
000130  21d9              MOVS     r1,#0xd9              ;231
000132  a0c9              ADR      r0,|L9.1112|
000134  f7fffffe          BL       GUI_DispStringAt
000138  22bb              MOVS     r2,#0xbb              ;232
00013a  21ee              MOVS     r1,#0xee              ;232
00013c  a0c7              ADR      r0,|L9.1116|
00013e  f7fffffe          BL       GUI_DispStringAt
000142  e7b2              B        |L9.170|
                  |L9.324|
000144  4648              MOV      r0,r9                 ;213
000146  f7fffffe          BL       GUI_SetColor
00014a  48c5              LDR      r0,|L9.1120|
00014c  f7fffffe          BL       GUI_SetFont
000150  f7fffffe          BL       GUI_UC_SetEncodeUTF8
000154  2002              MOVS     r0,#2                 ;216
000156  f7fffffe          BL       GUI_SetTextMode
00015a  2203              MOVS     r2,#3                 ;217
00015c  2182              MOVS     r1,#0x82              ;217
00015e  a0c1              ADR      r0,|L9.1124|
000160  f7fffffe          BL       GUI_DispStringAt
000164  e7cf              B        |L9.262|
                  |L9.358|
000166  68e0              LDR      r0,[r4,#0xc]          ;237
000168  f7fffffe          BL       WM_GetTimerId
00016c  2805              CMP      r0,#5                 ;237
00016e  d19c              BNE      |L9.170|
000170  f8dfb300          LDR      r11,|L9.1140|
000174  f89b0000          LDRB     r0,[r11,#0]           ;239  ; mode_sw
000178  2700              MOVS     r7,#0                 ;205
00017a  2803              CMP      r0,#3                 ;239
00017c  d103              BNE      |L9.390|
00017e  48ac              LDR      r0,|L9.1072|
000180  7940              LDRB     r0,[r0,#5]            ;239  ; cdc_sw
000182  2801              CMP      r0,#1                 ;239
000184  d005              BEQ      |L9.402|
                  |L9.390|
000186  48bb              LDR      r0,|L9.1140|
000188  7800              LDRB     r0,[r0,#0]            ;421  ; mode_sw
00018a  2802              CMP      r0,#2                 ;421
00018c  d07e              BEQ      |L9.652|
00018e  e37c              B        |L9.2186|
                  |L9.400|
000190  e3fc              B        |L9.2444|
                  |L9.402|
000192  f640017f          MOV      r1,#0x87f             ;242
000196  6860              LDR      r0,[r4,#4]            ;242
000198  f7fffffe          BL       WM_GetDialogItem
00019c  4606              MOV      r6,r0                 ;242
00019e  48b6              LDR      r0,|L9.1144|
0001a0  6800              LDR      r0,[r0,#0]            ;243  ; DISS_POW_Voltage
0001a2  f7fffffe          BL       __aeabi_f2d
0001a6  ec410b10          VMOV     d0,r0,r1              ;243
0001aa  a1b4              ADR      r1,|L9.1148|
0001ac  ec532b10          VMOV     r2,r3,d0              ;243
0001b0  4668              MOV      r0,sp                 ;243
0001b2  f7fffffe          BL       __2sprintf
0001b6  4669              MOV      r1,sp                 ;244
0001b8  4630              MOV      r0,r6                 ;244
0001ba  f7fffffe          BL       TEXT_SetText
0001be  f44f6108          MOV      r1,#0x880             ;246
0001c2  6860              LDR      r0,[r4,#4]            ;246
0001c4  f7fffffe          BL       WM_GetDialogItem
0001c8  9002              STR      r0,[sp,#8]            ;246
0001ca  4eae              LDR      r6,|L9.1156|
0001cc  6830              LDR      r0,[r6,#0]            ;247  ; DISS_POW_Current
0001ce  f7fffffe          BL       __aeabi_f2d
0001d2  ec410b10          VMOV     d0,r0,r1              ;247
0001d6  a1a9              ADR      r1,|L9.1148|
0001d8  ec532b10          VMOV     r2,r3,d0              ;247
0001dc  4668              MOV      r0,sp                 ;247
0001de  f7fffffe          BL       __2sprintf
0001e2  4669              MOV      r1,sp                 ;248
0001e4  9802              LDR      r0,[sp,#8]            ;248
0001e6  f7fffffe          BL       TEXT_SetText
0001ea  f640018a          MOV      r1,#0x88a             ;250
0001ee  6860              LDR      r0,[r4,#4]            ;250
0001f0  f7fffffe          BL       WM_GetDialogItem
0001f4  9002              STR      r0,[sp,#8]            ;250
0001f6  f44f417f          MOV      r1,#0xff00            ;251
0001fa  9802              LDR      r0,[sp,#8]            ;251
0001fc  f7fffffe          BL       TEXT_SetTextColor
000200  4992              LDR      r1,|L9.1100|
000202  9802              LDR      r0,[sp,#8]            ;252
000204  f7fffffe          BL       TEXT_SetFont
000208  f7fffffe          BL       GUI_UC_SetEncodeUTF8
00020c  a19e              ADR      r1,|L9.1160|
00020e  9802              LDR      r0,[sp,#8]            ;254
000210  f7fffffe          BL       TEXT_SetText
000214  f640018b          MOV      r1,#0x88b             ;256
000218  6860              LDR      r0,[r4,#4]            ;256
00021a  f7fffffe          BL       WM_GetDialogItem
00021e  9002              STR      r0,[sp,#8]            ;256
000220  f44f417f          MOV      r1,#0xff00            ;257
000224  9802              LDR      r0,[sp,#8]            ;257
000226  f7fffffe          BL       TEXT_SetTextColor
00022a  4988              LDR      r1,|L9.1100|
00022c  9802              LDR      r0,[sp,#8]            ;258
00022e  f7fffffe          BL       TEXT_SetFont
000232  f7fffffe          BL       GUI_UC_SetEncodeUTF8
000236  a195              ADR      r1,|L9.1164|
000238  9802              LDR      r0,[sp,#8]            ;260
00023a  f7fffffe          BL       TEXT_SetText
00023e  f640018c          MOV      r1,#0x88c             ;262
000242  6860              LDR      r0,[r4,#4]            ;262
000244  f7fffffe          BL       WM_GetDialogItem
000248  9002              STR      r0,[sp,#8]            ;262
00024a  f44f417f          MOV      r1,#0xff00            ;263
00024e  9802              LDR      r0,[sp,#8]            ;263
000250  f7fffffe          BL       TEXT_SetTextColor
000254  4876              LDR      r0,|L9.1072|
000256  79c2              LDRB     r2,[r0,#7]            ;264  ; count
000258  a18d              ADR      r1,|L9.1168|
00025a  4668              MOV      r0,sp                 ;264
00025c  f7fffffe          BL       __2sprintf
000260  497a              LDR      r1,|L9.1100|
000262  9802              LDR      r0,[sp,#8]            ;265
000264  f7fffffe          BL       TEXT_SetFont
000268  f7fffffe          BL       GUI_UC_SetEncodeUTF8
00026c  4669              MOV      r1,sp                 ;267
00026e  9802              LDR      r0,[sp,#8]            ;267
000270  f7fffffe          BL       TEXT_SetText
000274  f6400182          MOV      r1,#0x882             ;269
000278  6860              LDR      r0,[r4,#4]            ;269
00027a  f7fffffe          BL       WM_GetDialogItem
00027e  21ff              MOVS     r1,#0xff              ;270
000280  f7fffffe          BL       TEXT_SetTextColor
000284  f6400183          MOV      r1,#0x883             ;272
000288  6860              LDR      r0,[r4,#4]            ;272
00028a  e000              B        |L9.654|
                  |L9.652|
00028c  e2fa              B        |L9.2180|
                  |L9.654|
00028e  f7fffffe          BL       WM_GetDialogItem
000292  4649              MOV      r1,r9                 ;273
000294  f7fffffe          BL       TEXT_SetTextColor
000298  f6400185          MOV      r1,#0x885             ;275
00029c  6860              LDR      r0,[r4,#4]            ;275
00029e  f7fffffe          BL       WM_GetDialogItem
0002a2  a173              ADR      r1,|L9.1136|
0002a4  f7fffffe          BL       TEXT_SetText
0002a8  f6400186          MOV      r1,#0x886             ;278
0002ac  6860              LDR      r0,[r4,#4]            ;278
0002ae  f7fffffe          BL       WM_GetDialogItem
0002b2  a16f              ADR      r1,|L9.1136|
0002b4  f7fffffe          BL       TEXT_SetText
0002b8  f6400187          MOV      r1,#0x887             ;281
0002bc  6860              LDR      r0,[r4,#4]            ;281
0002be  f7fffffe          BL       WM_GetDialogItem
0002c2  a16b              ADR      r1,|L9.1136|
0002c4  f7fffffe          BL       TEXT_SetText
0002c8  f6400188          MOV      r1,#0x888             ;284
0002cc  6860              LDR      r0,[r4,#4]            ;284
0002ce  f7fffffe          BL       WM_GetDialogItem
0002d2  a167              ADR      r1,|L9.1136|
0002d4  f7fffffe          BL       TEXT_SetText
0002d8  f6400189          MOV      r1,#0x889             ;287
0002dc  6860              LDR      r0,[r4,#4]            ;287
0002de  f7fffffe          BL       WM_GetDialogItem
0002e2  a163              ADR      r1,|L9.1136|
0002e4  f7fffffe          BL       TEXT_SetText
0002e8  486a              LDR      r0,|L9.1172|
0002ea  f8df91ac          LDR      r9,|L9.1176|
0002ee  ed900a00          VLDR     s0,[r0,#0]            ;290
0002f2  eebd0ac0          VCVT.S32.F32 s0,s0                 ;290
0002f6  ee100a10          VMOV     r0,s0                 ;290
0002fa  f8a90000          STRH     r0,[r9,#0]            ;290
0002fe  f6400181          MOV      r1,#0x881             ;291
000302  6860              LDR      r0,[r4,#4]            ;291
000304  f7fffffe          BL       WM_GetDialogItem
000308  9002              STR      r0,[sp,#8]            ;291
00030a  f8b92000          LDRH     r2,[r9,#0]            ;292  ; battery_c
00030e  a163              ADR      r1,|L9.1180|
000310  4668              MOV      r0,sp                 ;292
000312  f7fffffe          BL       __2sprintf
000316  4669              MOV      r1,sp                 ;293
000318  9802              LDR      r0,[sp,#8]            ;293
00031a  f7fffffe          BL       TEXT_SetText
00031e  4844              LDR      r0,|L9.1072|
000320  7bc0              LDRB     r0,[r0,#0xf]          ;295  ; charge_step
000322  2801              CMP      r0,#1                 ;295
000324  d007              BEQ      |L9.822|
000326  4842              LDR      r0,|L9.1072|
000328  7bc1              LDRB     r1,[r0,#0xf]          ;306  ; charge_step
00032a  2902              CMP      r1,#2                 ;306
00032c  d01e              BEQ      |L9.876|
00032e  7bc0              LDRB     r0,[r0,#0xf]          ;315  ; charge_step
000330  2803              CMP      r0,#3                 ;315
000332  d032              BEQ      |L9.922|
000334  e042              B        |L9.956|
                  |L9.822|
000336  f640310e          MOV      r1,#0xb0e             ;297
00033a  6860              LDR      r0,[r4,#4]            ;297
00033c  f7fffffe          BL       WM_GetDialogItem
000340  4681              MOV      r9,r0                 ;297
000342  f8980000          LDRB     r0,[r8,#0]            ;298  ; lang
000346  b140              CBZ      r0,|L9.858|
000348  493d              LDR      r1,|L9.1088|
00034a  4648              MOV      r0,r9                 ;303
00034c  f7fffffe          BL       TEXT_SetFont
000350  a154              ADR      r1,|L9.1188|
000352  4648              MOV      r0,r9                 ;304
000354  f7fffffe          BL       TEXT_SetText
000358  e030              B        |L9.956|
                  |L9.858|
00035a  4954              LDR      r1,|L9.1196|
00035c  4648              MOV      r0,r9                 ;300
00035e  f7fffffe          BL       TEXT_SetFont
000362  a153              ADR      r1,|L9.1200|
000364  4648              MOV      r0,r9                 ;301
000366  f7fffffe          BL       TEXT_SetText
00036a  e027              B        |L9.956|
                  |L9.876|
00036c  f640310e          MOV      r1,#0xb0e             ;307
000370  6860              LDR      r0,[r4,#4]            ;307
000372  f7fffffe          BL       WM_GetDialogItem
000376  4681              MOV      r9,r0                 ;307
000378  f8980000          LDRB     r0,[r8,#0]            ;308  ; lang
00037c  b140              CBZ      r0,|L9.912|
00037e  4930              LDR      r1,|L9.1088|
000380  4648              MOV      r0,r9                 ;312
000382  f7fffffe          BL       TEXT_SetFont
000386  a14c              ADR      r1,|L9.1208|
000388  4648              MOV      r0,r9                 ;313
00038a  f7fffffe          BL       TEXT_SetText
00038e  e015              B        |L9.956|
                  |L9.912|
000390  a14b              ADR      r1,|L9.1216|
000392  4648              MOV      r0,r9                 ;310
000394  f7fffffe          BL       TEXT_SetText
000398  e010              B        |L9.956|
                  |L9.922|
00039a  f640310e          MOV      r1,#0xb0e             ;316
00039e  6860              LDR      r0,[r4,#4]            ;316
0003a0  f7fffffe          BL       WM_GetDialogItem
0003a4  4681              MOV      r9,r0                 ;316
0003a6  f8980000          LDRB     r0,[r8,#0]            ;317  ; lang
0003aa  b1e0              CBZ      r0,|L9.998|
0003ac  4924              LDR      r1,|L9.1088|
0003ae  4648              MOV      r0,r9                 ;321
0003b0  f7fffffe          BL       TEXT_SetFont
0003b4  a144              ADR      r1,|L9.1224|
0003b6  4648              MOV      r0,r9                 ;322
0003b8  f7fffffe          BL       TEXT_SetText
                  |L9.956|
0003bc  f8df9070          LDR      r9,|L9.1072|
0003c0  f8990008          LDRB     r0,[r9,#8]            ;326  ; status_flash
0003c4  b1a0              CBZ      r0,|L9.1008|
0003c6  f6400184          MOV      r1,#0x884             ;341
0003ca  6860              LDR      r0,[r4,#4]            ;341
0003cc  f7fffffe          BL       WM_GetDialogItem
0003d0  a127              ADR      r1,|L9.1136|
0003d2  f7fffffe          BL       TEXT_SetText
0003d6  f8897008          STRB     r7,[r9,#8]            ;343
                  |L9.986|
0003da  f8ba0040          LDRH     r0,[r10,#0x40]        ;345  ; Run_Control
0003de  f8df80f0          LDR      r8,|L9.1232|
0003e2  b1a8              CBZ      r0,|L9.1040|
0003e4  e09a              B        |L9.1308|
                  |L9.998|
0003e6  a13b              ADR      r1,|L9.1236|
0003e8  4648              MOV      r0,r9                 ;319
0003ea  f7fffffe          BL       TEXT_SetText
0003ee  e7e5              B        |L9.956|
                  |L9.1008|
0003f0  f6400184          MOV      r1,#0x884             ;327
0003f4  6860              LDR      r0,[r4,#4]            ;327
0003f6  f7fffffe          BL       WM_GetDialogItem
0003fa  9002              STR      r0,[sp,#8]            ;327
0003fc  21ff              MOVS     r1,#0xff              ;328
0003fe  9802              LDR      r0,[sp,#8]            ;328
000400  f7fffffe          BL       TEXT_SetTextColor
000404  f8980000          LDRB     r0,[r8,#0]            ;329  ; lang
000408  b118              CBZ      r0,|L9.1042|
00040a  490d              LDR      r1,|L9.1088|
00040c  9802              LDR      r0,[sp,#8]            ;335
00040e  e065              B        |L9.1244|
                  |L9.1040|
000410  e07b              B        |L9.1290|
                  |L9.1042|
000412  e06f              B        |L9.1268|
                  |L9.1044|
                          DCD      Run_Control
                  |L9.1048|
000418  42c80000          DCFS     0x42c80000 ; 100
                  |L9.1052|
00041c  447a0000          DCFS     0x447a0000 ; 1000
                  |L9.1056|
                          DCD      0x00d3d3d3
                  |L9.1060|
                          DCD      lang
                  |L9.1064|
000428  00000000          DCFD     0x0000000000000000 ; 0
00042c  00000000
                  |L9.1072|
                          DCD      ||.data||
                  |L9.1076|
                          DCD      GUI_Fontsymbol
                  |L9.1080|
000438  4a696e6b          DCB      "Jinko",0
00043c  6f00    
00043e  00                DCB      0
00043f  00                DCB      0
                  |L9.1088|
                          DCD      GUI_Font20_ASCII
                  |L9.1092|
000444  44495350          DCB      "DISPLAY",0
000448  4c415900
                  |L9.1100|
                          DCD      GUI_Font24_1
                  |L9.1104|
                          DCD      GUI_FontEN40
                  |L9.1108|
000454  433a00            DCB      "C:",0
000457  00                DCB      0
                  |L9.1112|
000458  6d00              DCB      "m",0
00045a  00                DCB      0
00045b  00                DCB      0
                  |L9.1116|
00045c  414800            DCB      "AH",0
00045f  00                DCB      0
                  |L9.1120|
                          DCD      GUI_FontHZ20S
                  |L9.1124|
000464  e6b58be9          DCB      230,181,139,233,135,143,230,152,190,231,164,186
000468  878fe698
00046c  bee7a4ba
                  |L9.1136|
000470  00                DCB      0
000471  00                DCB      0
000472  00                DCB      0
000473  00                DCB      0
                  |L9.1140|
                          DCD      mode_sw
                  |L9.1144|
                          DCD      DISS_POW_Voltage
                  |L9.1148|
00047c  252e3266          DCB      "%.2f",0
000480  00      
000481  00                DCB      0
000482  00                DCB      0
000483  00                DCB      0
                  |L9.1156|
                          DCD      DISS_POW_Current
                  |L9.1160|
000488  2800              DCB      "(",0
00048a  00                DCB      0
00048b  00                DCB      0
                  |L9.1164|
00048c  2900              DCB      ")",0
00048e  00                DCB      0
00048f  00                DCB      0
                  |L9.1168|
000490  25326400          DCB      "%2d",0
                  |L9.1172|
                          DCD      bc_raw
                  |L9.1176|
                          DCD      battery_c
                  |L9.1180|
00049c  25303564          DCB      "%05d",0
0004a0  00      
0004a1  00                DCB      0
0004a2  00                DCB      0
0004a3  00                DCB      0
                  |L9.1188|
0004a4  53746570          DCB      "Step1",0
0004a8  3100    
0004aa  00                DCB      0
0004ab  00                DCB      0
                  |L9.1196|
                          DCD      GUI_Fontset_font
                  |L9.1200|
0004b0  e6ada5e9          DCB      230,173,165,233,170,164,"1",0
0004b4  aaa43100
                  |L9.1208|
0004b8  53746570          DCB      "Step2",0
0004bc  3200    
0004be  00                DCB      0
0004bf  00                DCB      0
                  |L9.1216|
0004c0  e6ada5e9          DCB      230,173,165,233,170,164,"2",0
0004c4  aaa43200
                  |L9.1224|
0004c8  53746570          DCB      "Step3",0
0004cc  3300    
0004ce  00                DCB      0
0004cf  00                DCB      0
                  |L9.1232|
                          DCD      ||.bss||
                  |L9.1236|
0004d4  e6ada5e9          DCB      230,173,165,233,170,164,"3",0
0004d8  aaa43300
                  |L9.1244|
0004dc  f7fffffe          BL       TEXT_SetFont
0004e0  f7fffffe          BL       GUI_UC_SetEncodeUTF8
0004e4  a1fe              ADR      r1,|L9.2272|
0004e6  9802              LDR      r0,[sp,#8]            ;337
0004e8  f7fffffe          BL       TEXT_SetText
                  |L9.1260|
0004ec  2001              MOVS     r0,#1                 ;339
0004ee  f8890008          STRB     r0,[r9,#8]            ;339
0004f2  e772              B        |L9.986|
                  |L9.1268|
0004f4  49fd              LDR      r1,|L9.2284|
0004f6  9802              LDR      r0,[sp,#8]            ;331
0004f8  f7fffffe          BL       TEXT_SetFont
0004fc  f7fffffe          BL       GUI_UC_SetEncodeUTF8
000500  a1fb              ADR      r1,|L9.2288|
000502  9802              LDR      r0,[sp,#8]            ;333
000504  f7fffffe          BL       TEXT_SetText
000508  e7f0              B        |L9.1260|
                  |L9.1290|
00050a  f8ba0042          LDRH     r0,[r10,#0x42]        ;345  ; Run_Control
00050e  b928              CBNZ     r0,|L9.1308|
000510  f8ba0046          LDRH     r0,[r10,#0x46]        ;345  ; Run_Control
000514  b910              CBNZ     r0,|L9.1308|
000516  f8ba0048          LDRH     r0,[r10,#0x48]        ;345  ; Run_Control
00051a  b120              CBZ      r0,|L9.1318|
                  |L9.1308|
00051c  f8ba1042          LDRH     r1,[r10,#0x42]        ;360  ; Run_Control
000520  2002              MOVS     r0,#2                 ;209
000522  b3e9              CBZ      r1,|L9.1440|
000524  e05d              B        |L9.1506|
                  |L9.1318|
000526  48f5              LDR      r0,|L9.2300|
000528  ed980a00          VLDR     s0,[r8,#0]            ;347
00052c  edd00a00          VLDR     s1,[r0,#0]            ;347
000530  eeb40ae0          VCMPE.F32 s0,s1                 ;347
000534  eef1fa10          VMRS     APSR_nzcv,FPSCR       ;347
000538  d804              BHI      |L9.1348|
00053a  eeb50ac0          VCMPE.F32 s0,#0.0               ;347
00053e  eef1fa10          VMRS     APSR_nzcv,FPSCR       ;347
000542  d108              BNE      |L9.1366|
                  |L9.1348|
000544  ed980a03          VLDR     s0,[r8,#0xc]          ;347
000548  edd60a00          VLDR     s1,[r6,#0]            ;347
00054c  eeb40ae0          VCMPE.F32 s0,s1                 ;347
000550  eef1fa10          VMRS     APSR_nzcv,FPSCR       ;347
000554  dd0b              BLE      |L9.1390|
                  |L9.1366|
000556  f8990004          LDRB     r0,[r9,#4]            ;347  ; cutoff_flag
00055a  b940              CBNZ     r0,|L9.1390|
00055c  f7fffffe          BL       GUI_GetTime
000560  fb90f0f5          SDIV     r0,r0,r5              ;348
000564  f8a90010          STRH     r0,[r9,#0x10]         ;348
000568  2001              MOVS     r0,#1                 ;349
00056a  f8890004          STRB     r0,[r9,#4]            ;349
                  |L9.1390|
00056e  48e3              LDR      r0,|L9.2300|
000570  ed980a00          VLDR     s0,[r8,#0]            ;351
000574  edd00a00          VLDR     s1,[r0,#0]            ;351
000578  eeb40ae0          VCMPE.F32 s0,s1                 ;351
00057c  eef1fa10          VMRS     APSR_nzcv,FPSCR       ;351
000580  d804              BHI      |L9.1420|
000582  eeb50ac0          VCMPE.F32 s0,#0.0               ;351
000586  eef1fa10          VMRS     APSR_nzcv,FPSCR       ;351
00058a  d108              BNE      |L9.1438|
                  |L9.1420|
00058c  ed980a03          VLDR     s0,[r8,#0xc]          ;351
000590  edd60a00          VLDR     s1,[r6,#0]            ;351
000594  eeb40ae0          VCMPE.F32 s0,s1                 ;351
000598  eef1fa10          VMRS     APSR_nzcv,FPSCR       ;351
00059c  dd1d              BLE      |L9.1498|
                  |L9.1438|
00059e  e000              B        |L9.1442|
                  |L9.1440|
0005a0  e01c              B        |L9.1500|
                  |L9.1442|
0005a2  f7fffffe          BL       GUI_GetTime
0005a6  fb90f0f5          SDIV     r0,r0,r5              ;351
0005aa  f8b91010          LDRH     r1,[r9,#0x10]         ;351  ; cutoff_time
0005ae  1a40              SUBS     r0,r0,r1              ;351
0005b0  280a              CMP      r0,#0xa               ;351
0005b2  db12              BLT      |L9.1498|
0005b4  f89b0000          LDRB     r0,[r11,#0]           ;353  ; mode_sw
0005b8  2803              CMP      r0,#3                 ;353
0005ba  d105              BNE      |L9.1480|
0005bc  f7fffffe          BL       GUI_GetTime
0005c0  fb90f0f5          SDIV     r0,r0,r5              ;354
0005c4  f8aa003a          STRH     r0,[r10,#0x3a]        ;354
                  |L9.1480|
0005c8  f8897004          STRB     r7,[r9,#4]            ;356
0005cc  2002              MOVS     r0,#2                 ;357
0005ce  f7fffffe          BL       Mode_SW_CONT
0005d2  2102              MOVS     r1,#2                 ;358
0005d4  48ca              LDR      r0,|L9.2304|
0005d6  f7fffffe          BL       GPIO_ResetBits
                  |L9.1498|
0005da  e0bf              B        |L9.1884|
                  |L9.1500|
0005dc  f8ba1048          LDRH     r1,[r10,#0x48]        ;360  ; Run_Control
0005e0  b399              CBZ      r1,|L9.1610|
                  |L9.1506|
0005e2  f8ba103e          LDRH     r1,[r10,#0x3e]        ;380  ; Run_Control
0005e6  2900              CMP      r1,#0                 ;380
0005e8  d0f7              BEQ      |L9.1498|
0005ea  f8ba1040          LDRH     r1,[r10,#0x40]        ;380  ; Run_Control
0005ee  2900              CMP      r1,#0                 ;380
0005f0  d0f3              BEQ      |L9.1498|
0005f2  f8ba1042          LDRH     r1,[r10,#0x42]        ;380  ; Run_Control
0005f6  2900              CMP      r1,#0                 ;380
0005f8  d0ef              BEQ      |L9.1498|
0005fa  f8ba1044          LDRH     r1,[r10,#0x44]        ;380  ; Run_Control
0005fe  2900              CMP      r1,#0                 ;380
000600  d0eb              BEQ      |L9.1498|
000602  f8ba1046          LDRH     r1,[r10,#0x46]        ;380  ; Run_Control
000606  2900              CMP      r1,#0                 ;380
000608  d0e7              BEQ      |L9.1498|
00060a  f8ba1048          LDRH     r1,[r10,#0x48]        ;380  ; Run_Control
00060e  2900              CMP      r1,#0                 ;380
000610  d0e3              BEQ      |L9.1498|
000612  49ba              LDR      r1,|L9.2300|
000614  edd80a00          VLDR     s1,[r8,#0]            ;381
000618  ed910a00          VLDR     s0,[r1,#0]            ;381
00061c  eef40ac0          VCMPE.F32 s1,s0                 ;381
000620  eef1fa10          VMRS     APSR_nzcv,FPSCR       ;381
000624  d804              BHI      |L9.1584|
000626  eef50ac0          VCMPE.F32 s1,#0.0               ;381
00062a  eef1fa10          VMRS     APSR_nzcv,FPSCR       ;381
00062e  d108              BNE      |L9.1602|
                  |L9.1584|
000630  edd80a03          VLDR     s1,[r8,#0xc]          ;381
000634  ed961a00          VLDR     s2,[r6,#0]            ;381
000638  eef40ac1          VCMPE.F32 s1,s2                 ;381
00063c  eef1fa10          VMRS     APSR_nzcv,FPSCR       ;381
000640  dd02              BLE      |L9.1608|
                  |L9.1602|
000642  f8992004          LDRB     r2,[r9,#4]            ;381  ; cutoff_flag
000646  b3ea              CBZ      r2,|L9.1732|
                  |L9.1608|
000648  e097              B        |L9.1914|
                  |L9.1610|
00064a  e7ff              B        |L9.1612|
                  |L9.1612|
00064c  49ab              LDR      r1,|L9.2300|
00064e  ed980a00          VLDR     s0,[r8,#0]            ;361
000652  edd10a00          VLDR     s1,[r1,#0]            ;361
000656  eeb40ae0          VCMPE.F32 s0,s1                 ;361
00065a  eef1fa10          VMRS     APSR_nzcv,FPSCR       ;361
00065e  d804              BHI      |L9.1642|
000660  eeb50ac0          VCMPE.F32 s0,#0.0               ;361
000664  eef1fa10          VMRS     APSR_nzcv,FPSCR       ;361
000668  d108              BNE      |L9.1660|
                  |L9.1642|
00066a  ed980a03          VLDR     s0,[r8,#0xc]          ;361
00066e  ed961a00          VLDR     s2,[r6,#0]            ;361
000672  eeb40ac1          VCMPE.F32 s0,s2                 ;361
000676  eef1fa10          VMRS     APSR_nzcv,FPSCR       ;361
00067a  dd10              BLE      |L9.1694|
                  |L9.1660|
00067c  f8992004          LDRB     r2,[r9,#4]            ;361  ; cutoff_flag
000680  b96a              CBNZ     r2,|L9.1694|
000682  f899200f          LDRB     r2,[r9,#0xf]          ;361  ; charge_step
000686  2a01              CMP      r2,#1                 ;361
000688  d109              BNE      |L9.1694|
00068a  f8ba2040          LDRH     r2,[r10,#0x40]        ;363  ; Run_Control
00068e  f8aa2002          STRH     r2,[r10,#2]           ;363
000692  f8ba2046          LDRH     r2,[r10,#0x46]        ;364  ; Run_Control
000696  f8aa2004          STRH     r2,[r10,#4]           ;364
00069a  f889000f          STRB     r0,[r9,#0xf]          ;365
                  |L9.1694|
00069e  ed980a01          VLDR     s0,[r8,#4]            ;367
0006a2  eeb40ae0          VCMPE.F32 s0,s1                 ;367
0006a6  eef1fa10          VMRS     APSR_nzcv,FPSCR       ;367
0006aa  d804              BHI      |L9.1718|
0006ac  eeb50ac0          VCMPE.F32 s0,#0.0               ;367
0006b0  eef1fa10          VMRS     APSR_nzcv,FPSCR       ;367
0006b4  d10a              BNE      |L9.1740|
                  |L9.1718|
0006b6  ed980a04          VLDR     s0,[r8,#0x10]         ;367
0006ba  edd60a00          VLDR     s1,[r6,#0]            ;367
0006be  eeb40ae0          VCMPE.F32 s0,s1                 ;367
0006c2  e000              B        |L9.1734|
                  |L9.1732|
0006c4  e04b              B        |L9.1886|
                  |L9.1734|
0006c6  eef1fa10          VMRS     APSR_nzcv,FPSCR       ;367
0006ca  dd0f              BLE      |L9.1772|
                  |L9.1740|
0006cc  f8990004          LDRB     r0,[r9,#4]            ;367  ; cutoff_flag
0006d0  b960              CBNZ     r0,|L9.1772|
0006d2  f899000f          LDRB     r0,[r9,#0xf]          ;367  ; charge_step
0006d6  2802              CMP      r0,#2                 ;367
0006d8  d108              BNE      |L9.1772|
0006da  f7fffffe          BL       GUI_GetTime
0006de  fb90f0f5          SDIV     r0,r0,r5              ;368
0006e2  f8a90010          STRH     r0,[r9,#0x10]         ;368
0006e6  2001              MOVS     r0,#1                 ;369
0006e8  f8890004          STRB     r0,[r9,#4]            ;369
                  |L9.1772|
0006ec  4883              LDR      r0,|L9.2300|
0006ee  ed980a01          VLDR     s0,[r8,#4]            ;371
0006f2  edd00a00          VLDR     s1,[r0,#0]            ;371
0006f6  eeb40ae0          VCMPE.F32 s0,s1                 ;371
0006fa  eef1fa10          VMRS     APSR_nzcv,FPSCR       ;371
0006fe  d804              BHI      |L9.1802|
000700  eeb50ac0          VCMPE.F32 s0,#0.0               ;371
000704  eef1fa10          VMRS     APSR_nzcv,FPSCR       ;371
000708  d108              BNE      |L9.1820|
                  |L9.1802|
00070a  ed980a04          VLDR     s0,[r8,#0x10]         ;371
00070e  edd60a00          VLDR     s1,[r6,#0]            ;371
000712  eeb40ae0          VCMPE.F32 s0,s1                 ;371
000716  eef1fa10          VMRS     APSR_nzcv,FPSCR       ;371
00071a  dd1f              BLE      |L9.1884|
                  |L9.1820|
00071c  f7fffffe          BL       GUI_GetTime
000720  fb90f0f5          SDIV     r0,r0,r5              ;371
000724  f8b91010          LDRH     r1,[r9,#0x10]         ;371  ; cutoff_time
000728  1a40              SUBS     r0,r0,r1              ;371
00072a  280a              CMP      r0,#0xa               ;371
00072c  db16              BLT      |L9.1884|
00072e  f899000f          LDRB     r0,[r9,#0xf]          ;371  ; charge_step
000732  2802              CMP      r0,#2                 ;371
000734  d112              BNE      |L9.1884|
000736  f89b0000          LDRB     r0,[r11,#0]           ;373  ; mode_sw
00073a  2803              CMP      r0,#3                 ;373
00073c  d105              BNE      |L9.1866|
00073e  f7fffffe          BL       GUI_GetTime
000742  fb90f0f5          SDIV     r0,r0,r5              ;374
000746  f8aa003a          STRH     r0,[r10,#0x3a]        ;374
                  |L9.1866|
00074a  f8897004          STRB     r7,[r9,#4]            ;376
00074e  2002              MOVS     r0,#2                 ;377
000750  f7fffffe          BL       Mode_SW_CONT
000754  2102              MOVS     r1,#2                 ;378
000756  486a              LDR      r0,|L9.2304|
000758  f7fffffe          BL       GPIO_ResetBits
                  |L9.1884|
00075c  e3c4              B        |L9.3816|
                  |L9.1886|
00075e  f899200f          LDRB     r2,[r9,#0xf]          ;381  ; charge_step
000762  2a01              CMP      r2,#1                 ;381
000764  d109              BNE      |L9.1914|
000766  f8ba2040          LDRH     r2,[r10,#0x40]        ;383  ; Run_Control
00076a  f8aa2002          STRH     r2,[r10,#2]           ;383
00076e  f8ba2046          LDRH     r2,[r10,#0x46]        ;384  ; Run_Control
000772  f8aa2004          STRH     r2,[r10,#4]           ;384
000776  f889000f          STRB     r0,[r9,#0xf]          ;385
                  |L9.1914|
00077a  edd80a01          VLDR     s1,[r8,#4]            ;387
00077e  eef40ac0          VCMPE.F32 s1,s0                 ;387
000782  eef1fa10          VMRS     APSR_nzcv,FPSCR       ;387
000786  d204              BCS      |L9.1938|
000788  eef50ac0          VCMPE.F32 s1,#0.0               ;387
00078c  eef1fa10          VMRS     APSR_nzcv,FPSCR       ;387
000790  d108              BNE      |L9.1956|
                  |L9.1938|
000792  edd80a04          VLDR     s1,[r8,#0x10]         ;387
000796  ed961a00          VLDR     s2,[r6,#0]            ;387
00079a  eef40ac1          VCMPE.F32 s1,s2                 ;387
00079e  eef1fa10          VMRS     APSR_nzcv,FPSCR       ;387
0007a2  dd11              BLE      |L9.1992|
                  |L9.1956|
0007a4  f8990004          LDRB     r0,[r9,#4]            ;387  ; cutoff_flag
0007a8  b970              CBNZ     r0,|L9.1992|
0007aa  f899000f          LDRB     r0,[r9,#0xf]          ;387  ; charge_step
0007ae  2802              CMP      r0,#2                 ;387
0007b0  d10a              BNE      |L9.1992|
0007b2  f8ba0042          LDRH     r0,[r10,#0x42]        ;389  ; Run_Control
0007b6  f8aa0002          STRH     r0,[r10,#2]           ;389
0007ba  f8ba0048          LDRH     r0,[r10,#0x48]        ;390  ; Run_Control
0007be  f8aa0004          STRH     r0,[r10,#4]           ;390
0007c2  2003              MOVS     r0,#3                 ;391
0007c4  f889000f          STRB     r0,[r9,#0xf]          ;391
                  |L9.1992|
0007c8  edd80a02          VLDR     s1,[r8,#8]            ;393
0007cc  eef40ac0          VCMPE.F32 s1,s0                 ;393
0007d0  eef1fa10          VMRS     APSR_nzcv,FPSCR       ;393
0007d4  d204              BCS      |L9.2016|
0007d6  eef50ac0          VCMPE.F32 s1,#0.0               ;393
0007da  eef1fa10          VMRS     APSR_nzcv,FPSCR       ;393
0007de  d108              BNE      |L9.2034|
                  |L9.2016|
0007e0  ed980a05          VLDR     s0,[r8,#0x14]         ;393
0007e4  edd60a00          VLDR     s1,[r6,#0]            ;393
0007e8  eeb40ae0          VCMPE.F32 s0,s1                 ;393
0007ec  eef1fa10          VMRS     APSR_nzcv,FPSCR       ;393
0007f0  dd0f              BLE      |L9.2066|
                  |L9.2034|
0007f2  f8990004          LDRB     r0,[r9,#4]            ;393  ; cutoff_flag
0007f6  b960              CBNZ     r0,|L9.2066|
0007f8  f899000f          LDRB     r0,[r9,#0xf]          ;393  ; charge_step
0007fc  2803              CMP      r0,#3                 ;393
0007fe  d108              BNE      |L9.2066|
000800  f7fffffe          BL       GUI_GetTime
000804  fb90f0f5          SDIV     r0,r0,r5              ;394
000808  f8a90010          STRH     r0,[r9,#0x10]         ;394
00080c  2001              MOVS     r0,#1                 ;395
00080e  f8890004          STRB     r0,[r9,#4]            ;395
                  |L9.2066|
000812  483a              LDR      r0,|L9.2300|
000814  ed980a02          VLDR     s0,[r8,#8]            ;397
000818  edd00a00          VLDR     s1,[r0,#0]            ;397
00081c  eeb40ae0          VCMPE.F32 s0,s1                 ;397
000820  eef1fa10          VMRS     APSR_nzcv,FPSCR       ;397
000824  d204              BCS      |L9.2096|
000826  eeb50ac0          VCMPE.F32 s0,#0.0               ;397
00082a  eef1fa10          VMRS     APSR_nzcv,FPSCR       ;397
00082e  d108              BNE      |L9.2114|
                  |L9.2096|
000830  ed980a05          VLDR     s0,[r8,#0x14]         ;397
000834  edd60a00          VLDR     s1,[r6,#0]            ;397
000838  eeb40ae0          VCMPE.F32 s0,s1                 ;397
00083c  eef1fa10          VMRS     APSR_nzcv,FPSCR       ;397
000840  dd8c              BLE      |L9.1884|
                  |L9.2114|
000842  f7fffffe          BL       GUI_GetTime
000846  fb90f0f5          SDIV     r0,r0,r5              ;397
00084a  f8b91010          LDRH     r1,[r9,#0x10]         ;397  ; cutoff_time
00084e  1a40              SUBS     r0,r0,r1              ;397
000850  280a              CMP      r0,#0xa               ;397
000852  db16              BLT      |L9.2178|
000854  f899000f          LDRB     r0,[r9,#0xf]          ;397  ; charge_step
000858  2803              CMP      r0,#3                 ;397
00085a  d112              BNE      |L9.2178|
00085c  f89b0000          LDRB     r0,[r11,#0]           ;399  ; mode_sw
000860  2803              CMP      r0,#3                 ;399
000862  d105              BNE      |L9.2160|
000864  f7fffffe          BL       GUI_GetTime
000868  fb90f0f5          SDIV     r0,r0,r5              ;400
00086c  f8aa003a          STRH     r0,[r10,#0x3a]        ;400
                  |L9.2160|
000870  f8897004          STRB     r7,[r9,#4]            ;402
000874  2002              MOVS     r0,#2                 ;403
000876  f7fffffe          BL       Mode_SW_CONT
00087a  2102              MOVS     r1,#2                 ;404
00087c  4820              LDR      r0,|L9.2304|
00087e  f7fffffe          BL       GPIO_ResetBits
                  |L9.2178|
000882  e331              B        |L9.3816|
                  |L9.2180|
000884  7970              LDRB     r0,[r6,#5]            ;421  ; cdc_sw
000886  2801              CMP      r0,#1                 ;421
000888  d003              BEQ      |L9.2194|
                  |L9.2186|
00088a  7a70              LDRB     r0,[r6,#9]            ;578  ; pause_flag
00088c  2801              CMP      r0,#1                 ;578
00088e  d07c              BEQ      |L9.2442|
000890  e2e2              B        |L9.3672|
                  |L9.2194|
000892  f04f0b01          MOV      r11,#1                ;422
000896  f886b00f          STRB     r11,[r6,#0xf]         ;422
00089a  f640310e          MOV      r1,#0xb0e             ;423
00089e  6860              LDR      r0,[r4,#4]            ;423
0008a0  f7fffffe          BL       WM_GetDialogItem
0008a4  a110              ADR      r1,|L9.2280|
0008a6  f7fffffe          BL       TEXT_SetText
0008aa  7ab0              LDRB     r0,[r6,#0xa]          ;425  ; paused
0008ac  2800              CMP      r0,#0                 ;425
0008ae  d06e              BEQ      |L9.2446|
0008b0  f7fffffe          BL       GUI_GetTime
0008b4  fb90f0f5          SDIV     r0,r0,r5              ;430
0008b8  8ab1              LDRH     r1,[r6,#0x14]         ;430  ; restart_time
0008ba  1a40              SUBS     r0,r0,r1              ;430
0008bc  8a71              LDRH     r1,[r6,#0x12]         ;430  ; pause_time
0008be  4401              ADD      r1,r1,r0              ;430
0008c0  203c              MOVS     r0,#0x3c              ;430
0008c2  fb91f2f0          SDIV     r2,r1,r0              ;430
0008c6  fb001012          MLS      r0,r0,r2,r1           ;430
0008ca  7070              STRB     r0,[r6,#1]            ;430
0008cc  f7fffffe          BL       GUI_GetTime
0008d0  fb90f0f5          SDIV     r0,r0,r5              ;431
0008d4  8ab1              LDRH     r1,[r6,#0x14]         ;431  ; restart_time
0008d6  1a40              SUBS     r0,r0,r1              ;431
0008d8  8a71              LDRH     r1,[r6,#0x12]         ;431  ; pause_time
0008da  4401              ADD      r1,r1,r0              ;431
0008dc  203c              MOVS     r0,#0x3c              ;431
0008de  e011              B        |L9.2308|
                  |L9.2272|
0008e0  43686172          DCB      "Charging"
0008e4  67696e67
                  |L9.2280|
0008e8  00                DCB      0
0008e9  00                DCB      0
0008ea  00                DCB      0
0008eb  00                DCB      0
                  |L9.2284|
                          DCD      GUI_FontHZ16
                  |L9.2288|
0008f0  e58585e7          DCB      229,133,133,231,148,181,228,184,173,0
0008f4  94b5e4b8
0008f8  ad00    
0008fa  00                DCB      0
0008fb  00                DCB      0
                  |L9.2300|
                          DCD      DISS_POW_Voltage
                  |L9.2304|
                          DCD      0x40020800
                  |L9.2308|
000904  fb91f1f0          SDIV     r1,r1,r0              ;431
000908  fb91f2f0          SDIV     r2,r1,r0              ;431
00090c  fb001012          MLS      r0,r0,r2,r1           ;431
000910  70b0              STRB     r0,[r6,#2]            ;431
000912  f7fffffe          BL       GUI_GetTime
000916  fb90f0f5          SDIV     r0,r0,r5              ;432
00091a  8ab1              LDRH     r1,[r6,#0x14]         ;432  ; restart_time
00091c  1a40              SUBS     r0,r0,r1              ;432
00091e  8a71              LDRH     r1,[r6,#0x12]         ;432  ; pause_time
000920  4401              ADD      r1,r1,r0              ;432
000922  f44f6061          MOV      r0,#0xe10             ;432
000926  fb91f0f0          SDIV     r0,r1,r0              ;432
00092a  70f0              STRB     r0,[r6,#3]            ;432
                  |L9.2348|
00092c  f6400185          MOV      r1,#0x885             ;436
000930  6860              LDR      r0,[r4,#4]            ;436
000932  f7fffffe          BL       WM_GetDialogItem
000936  9002              STR      r0,[sp,#8]            ;436
000938  78f2              LDRB     r2,[r6,#3]            ;437  ; hour
00093a  a1fd              ADR      r1,|L9.3376|
00093c  4668              MOV      r0,sp                 ;437
00093e  f7fffffe          BL       __2sprintf
000942  f06f417f          MVN      r1,#0xff000000        ;438
000946  9802              LDR      r0,[sp,#8]            ;438
000948  f7fffffe          BL       TEXT_SetTextColor
00094c  49fa              LDR      r1,|L9.3384|
00094e  9802              LDR      r0,[sp,#8]            ;439
000950  f7fffffe          BL       TEXT_SetFont
000954  f7fffffe          BL       GUI_UC_SetEncodeUTF8
000958  4669              MOV      r1,sp                 ;441
00095a  9802              LDR      r0,[sp,#8]            ;441
00095c  f7fffffe          BL       TEXT_SetText
000960  f6400186          MOV      r1,#0x886             ;443
000964  6860              LDR      r0,[r4,#4]            ;443
000966  f7fffffe          BL       WM_GetDialogItem
00096a  4681              MOV      r9,r0                 ;443
00096c  78b2              LDRB     r2,[r6,#2]            ;444  ; minute
00096e  a1f0              ADR      r1,|L9.3376|
000970  4668              MOV      r0,sp                 ;444
000972  f7fffffe          BL       __2sprintf
000976  f06f417f          MVN      r1,#0xff000000        ;445
00097a  4648              MOV      r0,r9                 ;445
00097c  f7fffffe          BL       TEXT_SetTextColor
000980  49ed              LDR      r1,|L9.3384|
000982  4648              MOV      r0,r9                 ;446
000984  f7fffffe          BL       TEXT_SetFont
000988  e002              B        |L9.2448|
                  |L9.2442|
00098a  e225              B        |L9.3544|
                  |L9.2444|
00098c  e2b6              B        |L9.3836|
                  |L9.2446|
00098e  e0c9              B        |L9.2852|
                  |L9.2448|
000990  f7fffffe          BL       GUI_UC_SetEncodeUTF8
000994  4669              MOV      r1,sp                 ;448
000996  4648              MOV      r0,r9                 ;448
000998  f7fffffe          BL       TEXT_SetText
00099c  f6400187          MOV      r1,#0x887             ;450
0009a0  6860              LDR      r0,[r4,#4]            ;450
0009a2  f7fffffe          BL       WM_GetDialogItem
0009a6  4681              MOV      r9,r0                 ;450
0009a8  7872              LDRB     r2,[r6,#1]            ;451  ; second
0009aa  a1e1              ADR      r1,|L9.3376|
0009ac  4668              MOV      r0,sp                 ;451
0009ae  f7fffffe          BL       __2sprintf
0009b2  f06f417f          MVN      r1,#0xff000000        ;452
0009b6  4648              MOV      r0,r9                 ;452
0009b8  f7fffffe          BL       TEXT_SetTextColor
0009bc  49de              LDR      r1,|L9.3384|
0009be  4648              MOV      r0,r9                 ;453
0009c0  f7fffffe          BL       TEXT_SetFont
0009c4  f7fffffe          BL       GUI_UC_SetEncodeUTF8
0009c8  4669              MOV      r1,sp                 ;455
0009ca  4648              MOV      r0,r9                 ;455
0009cc  f7fffffe          BL       TEXT_SetText
0009d0  f6400188          MOV      r1,#0x888             ;457
0009d4  6860              LDR      r0,[r4,#4]            ;457
0009d6  f7fffffe          BL       WM_GetDialogItem
0009da  4681              MOV      r9,r0                 ;457
0009dc  f06f417f          MVN      r1,#0xff000000        ;458
0009e0  4648              MOV      r0,r9                 ;458
0009e2  f7fffffe          BL       TEXT_SetTextColor
0009e6  49d4              LDR      r1,|L9.3384|
0009e8  4648              MOV      r0,r9                 ;459
0009ea  f7fffffe          BL       TEXT_SetFont
0009ee  f7fffffe          BL       GUI_UC_SetEncodeUTF8
0009f2  a1d2              ADR      r1,|L9.3388|
0009f4  4648              MOV      r0,r9                 ;461
0009f6  f7fffffe          BL       TEXT_SetText
0009fa  f6400189          MOV      r1,#0x889             ;463
0009fe  6860              LDR      r0,[r4,#4]            ;463
000a00  f7fffffe          BL       WM_GetDialogItem
000a04  4681              MOV      r9,r0                 ;463
000a06  f06f417f          MVN      r1,#0xff000000        ;464
000a0a  4648              MOV      r0,r9                 ;464
000a0c  f7fffffe          BL       TEXT_SetTextColor
000a10  49c9              LDR      r1,|L9.3384|
000a12  4648              MOV      r0,r9                 ;465
000a14  f7fffffe          BL       TEXT_SetFont
000a18  f7fffffe          BL       GUI_UC_SetEncodeUTF8
000a1c  a1c7              ADR      r1,|L9.3388|
000a1e  4648              MOV      r0,r9                 ;467
000a20  f7fffffe          BL       TEXT_SetText
000a24  f640017f          MOV      r1,#0x87f             ;472
000a28  6860              LDR      r0,[r4,#4]            ;472
000a2a  f7fffffe          BL       WM_GetDialogItem
000a2e  4681              MOV      r9,r0                 ;472
000a30  48c3              LDR      r0,|L9.3392|
000a32  6800              LDR      r0,[r0,#0]            ;473  ; DISS_Voltage
000a34  f7fffffe          BL       __aeabi_f2d
000a38  ec410b10          VMOV     d0,r0,r1              ;473
000a3c  ec532b10          VMOV     r2,r3,d0              ;473
000a40  f2af51c8          ADR      r1,|L9.1148|
000a44  4668              MOV      r0,sp                 ;473
000a46  f7fffffe          BL       __2sprintf
000a4a  4669              MOV      r1,sp                 ;474
000a4c  4648              MOV      r0,r9                 ;474
000a4e  f7fffffe          BL       TEXT_SetText
000a52  f44f6108          MOV      r1,#0x880             ;476
000a56  6860              LDR      r0,[r4,#4]            ;476
000a58  f7fffffe          BL       WM_GetDialogItem
000a5c  4681              MOV      r9,r0                 ;476
000a5e  48b9              LDR      r0,|L9.3396|
000a60  6800              LDR      r0,[r0,#0]            ;477  ; DISS_Current
000a62  f7fffffe          BL       __aeabi_f2d
000a66  ec410b10          VMOV     d0,r0,r1              ;477
000a6a  ec532b10          VMOV     r2,r3,d0              ;477
000a6e  f2af51f4          ADR      r1,|L9.1148|
000a72  4668              MOV      r0,sp                 ;477
000a74  f7fffffe          BL       __2sprintf
000a78  4669              MOV      r1,sp                 ;478
000a7a  4648              MOV      r0,r9                 ;478
000a7c  f7fffffe          BL       TEXT_SetText
000a80  78b0              LDRB     r0,[r6,#2]            ;480  ; minute
000a82  7871              LDRB     r1,[r6,#1]            ;480  ; second
000a84  ebc01000          RSB      r0,r0,r0,LSL #4       ;480
000a88  eb010180          ADD      r1,r1,r0,LSL #2       ;480
000a8c  78f0              LDRB     r0,[r6,#3]            ;480  ; hour
000a8e  ebc01240          RSB      r2,r0,r0,LSL #5       ;480
000a92  ebc22000          RSB      r0,r2,r0,LSL #8       ;480
000a96  eb011000          ADD      r0,r1,r0,LSL #4       ;480
000a9a  ee000a10          VMOV     s0,r0                 ;480
000a9e  eef80a40          VCVT.F32.U32 s1,s0                 ;480
000aa2  ed9f9aa9          VLDR     s18,|L9.3400|
000aa6  f8df92a4          LDR      r9,|L9.3404|
000aaa  ee800a89          VDIV.F32 s0,s1,s18             ;480
000aae  ee200a08          VMUL.F32 s0,s0,s16             ;480
000ab2  ee200a0c          VMUL.F32 s0,s0,s24             ;480
000ab6  eebd0ac0          VCVT.S32.F32 s0,s0                 ;480
000aba  ee100a10          VMOV     r0,s0                 ;480
000abe  f8a90000          STRH     r0,[r9,#0]            ;480
000ac2  f6400181          MOV      r1,#0x881             ;481
000ac6  6860              LDR      r0,[r4,#4]            ;481
000ac8  f7fffffe          BL       WM_GetDialogItem
000acc  9002              STR      r0,[sp,#8]            ;481
000ace  f8b92000          LDRH     r2,[r9,#0]            ;482  ; battery_c
000ad2  f2af6138          ADR      r1,|L9.1180|
000ad6  4668              MOV      r0,sp                 ;482
000ad8  f7fffffe          BL       __2sprintf
000adc  4669              MOV      r1,sp                 ;483
000ade  9802              LDR      r0,[sp,#8]            ;483
000ae0  f7fffffe          BL       TEXT_SetText
000ae4  f6400182          MOV      r1,#0x882             ;485
000ae8  6860              LDR      r0,[r4,#4]            ;485
000aea  f7fffffe          BL       WM_GetDialogItem
000aee  f06f417f          MVN      r1,#0xff000000        ;486
000af2  f7fffffe          BL       TEXT_SetTextColor
000af6  f6400183          MOV      r1,#0x883             ;488
000afa  6860              LDR      r0,[r4,#4]            ;488
000afc  f7fffffe          BL       WM_GetDialogItem
000b00  21ff              MOVS     r1,#0xff              ;489
000b02  f7fffffe          BL       TEXT_SetTextColor
000b06  7a30              LDRB     r0,[r6,#8]            ;491  ; status_flash
000b08  b3a8              CBZ      r0,|L9.2934|
000b0a  f6400184          MOV      r1,#0x884             ;506
000b0e  6860              LDR      r0,[r4,#4]            ;506
000b10  f7fffffe          BL       WM_GetDialogItem
000b14  a187              ADR      r1,|L9.3380|
000b16  f7fffffe          BL       TEXT_SetText
000b1a  7237              STRB     r7,[r6,#8]            ;508
                  |L9.2844|
000b1c  7a70              LDRB     r0,[r6,#9]            ;510  ; pause_flag
000b1e  2801              CMP      r0,#1                 ;510
000b20  d04f              BEQ      |L9.3010|
000b22  e063              B        |L9.3052|
                  |L9.2852|
000b24  f7fffffe          BL       GUI_GetTime
000b28  fb90f0f5          SDIV     r0,r0,r5              ;426
000b2c  f8ba103a          LDRH     r1,[r10,#0x3a]        ;426  ; Run_Control
000b30  1a41              SUBS     r1,r0,r1              ;426
000b32  203c              MOVS     r0,#0x3c              ;426
000b34  fb91f2f0          SDIV     r2,r1,r0              ;426
000b38  fb001012          MLS      r0,r0,r2,r1           ;426
000b3c  7070              STRB     r0,[r6,#1]            ;426
000b3e  f7fffffe          BL       GUI_GetTime
000b42  fb90f0f5          SDIV     r0,r0,r5              ;427
000b46  f8ba103a          LDRH     r1,[r10,#0x3a]        ;427  ; Run_Control
000b4a  1a41              SUBS     r1,r0,r1              ;427
000b4c  203c              MOVS     r0,#0x3c              ;427
000b4e  fb91f1f0          SDIV     r1,r1,r0              ;427
000b52  fb91f2f0          SDIV     r2,r1,r0              ;427
000b56  fb001012          MLS      r0,r0,r2,r1           ;427
000b5a  70b0              STRB     r0,[r6,#2]            ;427
000b5c  f7fffffe          BL       GUI_GetTime
000b60  fb90f0f5          SDIV     r0,r0,r5              ;428
000b64  f8ba103a          LDRH     r1,[r10,#0x3a]        ;428  ; Run_Control
000b68  1a41              SUBS     r1,r0,r1              ;428
000b6a  f44f6061          MOV      r0,#0xe10             ;428
000b6e  fb91f0f0          SDIV     r0,r1,r0              ;428
000b72  70f0              STRB     r0,[r6,#3]            ;428
000b74  e6da              B        |L9.2348|
                  |L9.2934|
000b76  e7ff              B        |L9.2936|
                  |L9.2936|
000b78  f6400184          MOV      r1,#0x884             ;492
000b7c  6860              LDR      r0,[r4,#4]            ;492
000b7e  f7fffffe          BL       WM_GetDialogItem
000b82  4681              MOV      r9,r0                 ;492
000b84  21ff              MOVS     r1,#0xff              ;493
000b86  4648              MOV      r0,r9                 ;493
000b88  f7fffffe          BL       TEXT_SetTextColor
000b8c  f8980000          LDRB     r0,[r8,#0]            ;494  ; lang
000b90  b160              CBZ      r0,|L9.2988|
000b92  496f              LDR      r1,|L9.3408|
000b94  4648              MOV      r0,r9                 ;500
000b96  f7fffffe          BL       TEXT_SetFont
000b9a  f7fffffe          BL       GUI_UC_SetEncodeUTF8
000b9e  a16d              ADR      r1,|L9.3412|
000ba0  4648              MOV      r0,r9                 ;502
000ba2  f7fffffe          BL       TEXT_SetText
                  |L9.2982|
000ba6  f886b008          STRB     r11,[r6,#8]           ;504
000baa  e7b7              B        |L9.2844|
                  |L9.2988|
000bac  496c              LDR      r1,|L9.3424|
000bae  4648              MOV      r0,r9                 ;496
000bb0  f7fffffe          BL       TEXT_SetFont
000bb4  f7fffffe          BL       GUI_UC_SetEncodeUTF8
000bb8  a16a              ADR      r1,|L9.3428|
000bba  4648              MOV      r0,r9                 ;498
000bbc  f7fffffe          BL       TEXT_SetText
000bc0  e7f1              B        |L9.2982|
                  |L9.3010|
000bc2  2102              MOVS     r1,#2                 ;511
000bc4  486a              LDR      r0,|L9.3440|
000bc6  f7fffffe          BL       GPIO_SetBits
000bca  7177              STRB     r7,[r6,#5]            ;512
000bcc  f886b00a          STRB     r11,[r6,#0xa]         ;513
000bd0  78b0              LDRB     r0,[r6,#2]            ;515  ; minute
000bd2  7871              LDRB     r1,[r6,#1]            ;515  ; second
000bd4  ebc01000          RSB      r0,r0,r0,LSL #4       ;515
000bd8  eb010180          ADD      r1,r1,r0,LSL #2       ;515
000bdc  78f0              LDRB     r0,[r6,#3]            ;515  ; hour
000bde  ebc01240          RSB      r2,r0,r0,LSL #5       ;515
000be2  ebc22000          RSB      r0,r2,r0,LSL #8       ;515
000be6  eb011000          ADD      r0,r1,r0,LSL #4       ;515
000bea  8270              STRH     r0,[r6,#0x12]         ;515
                  |L9.3052|
000bec  f8df8150          LDR      r8,|L9.3392|
000bf0  ed980a00          VLDR     s0,[r8,#0]            ;518
000bf4  eeb40ae8          VCMPE.F32 s0,s17                ;518
000bf8  eef1fa10          VMRS     APSR_nzcv,FPSCR       ;518
000bfc  d208              BCS      |L9.3088|
000bfe  7930              LDRB     r0,[r6,#4]            ;518  ; cutoff_flag
000c00  b930              CBNZ     r0,|L9.3088|
000c02  f7fffffe          BL       GUI_GetTime
000c06  fb90f0f5          SDIV     r0,r0,r5              ;520
000c0a  8230              STRH     r0,[r6,#0x10]         ;520
000c0c  f886b004          STRB     r11,[r6,#4]           ;521
                  |L9.3088|
000c10  ed980a00          VLDR     s0,[r8,#0]            ;524
000c14  eeb40ae8          VCMPE.F32 s0,s17                ;524
000c18  eef1fa10          VMRS     APSR_nzcv,FPSCR       ;524
000c1c  d27d              BCS      |L9.3354|
000c1e  f7fffffe          BL       GUI_GetTime
000c22  fb90f0f5          SDIV     r0,r0,r5              ;524
000c26  8a31              LDRH     r1,[r6,#0x10]         ;524  ; cutoff_time
000c28  1a40              SUBS     r0,r0,r1              ;524
000c2a  280a              CMP      r0,#0xa               ;524
000c2c  db75              BLT      |L9.3354|
000c2e  4851              LDR      r0,|L9.3444|
000c30  7800              LDRB     r0,[r0,#0]            ;526  ; mode_sw
000c32  2802              CMP      r0,#2                 ;526
000c34  d108              BNE      |L9.3144|
000c36  f7fffffe          BL       GUI_GetTime
000c3a  fb90f0f5          SDIV     r0,r0,r5              ;527
000c3e  f8aa003c          STRH     r0,[r10,#0x3c]        ;527
000c42  79f0              LDRB     r0,[r6,#7]            ;528  ; count
000c44  1c40              ADDS     r0,r0,#1              ;528
000c46  71f0              STRB     r0,[r6,#7]            ;528
                  |L9.3144|
000c48  2102              MOVS     r1,#2                 ;531
000c4a  4849              LDR      r0,|L9.3440|
000c4c  f7fffffe          BL       GPIO_SetBits
000c50  79f1              LDRB     r1,[r6,#7]            ;532  ; count
000c52  7830              LDRB     r0,[r6,#0]            ;532  ; set_loop_count
000c54  4281              CMP      r1,r0                 ;532
000c56  d96a              BLS      |L9.3374|
000c58  7177              STRB     r7,[r6,#5]            ;533
000c5a  f8ba003c          LDRH     r0,[r10,#0x3c]        ;534  ; Run_Control
000c5e  f8ba103a          LDRH     r1,[r10,#0x3a]        ;534  ; Run_Control
000c62  1a40              SUBS     r0,r0,r1              ;534
000c64  ee000a10          VMOV     s0,r0                 ;534
000c68  79b1              LDRB     r1,[r6,#6]            ;534  ; c_sum
000c6a  eeb80ac0          VCVT.F32.S32 s0,s0                 ;534
000c6e  eec00a09          VDIV.F32 s1,s0,s18             ;534
000c72  ee200a88          VMUL.F32 s0,s1,s16             ;534
000c76  ee200a0c          VMUL.F32 s0,s0,s24             ;534
000c7a  eebd0ac0          VCVT.S32.F32 s0,s0                 ;534
000c7e  ee100a10          VMOV     r0,s0                 ;534
000c82  4401              ADD      r1,r1,r0              ;534
000c84  7830              LDRB     r0,[r6,#0]            ;534  ; set_loop_count
000c86  4f31              LDR      r7,|L9.3404|
000c88  fb91f0f0          SDIV     r0,r1,r0              ;534
000c8c  8038              STRH     r0,[r7,#0]            ;534
000c8e  f886b007          STRB     r11,[r6,#7]           ;535
000c92  f6400181          MOV      r1,#0x881             ;537
000c96  6860              LDR      r0,[r4,#4]            ;537
000c98  f7fffffe          BL       WM_GetDialogItem
000c9c  4605              MOV      r5,r0                 ;537
000c9e  883a              LDRH     r2,[r7,#0]            ;538  ; battery_c
000ca0  f6af0108          ADR      r1,|L9.1180|
000ca4  4668              MOV      r0,sp                 ;538
000ca6  f7fffffe          BL       __2sprintf
000caa  4669              MOV      r1,sp                 ;539
000cac  4628              MOV      r0,r5                 ;539
000cae  f7fffffe          BL       TEXT_SetText
000cb2  f6400184          MOV      r1,#0x884             ;541
000cb6  6860              LDR      r0,[r4,#4]            ;541
000cb8  f7fffffe          BL       WM_GetDialogItem
000cbc  a11d              ADR      r1,|L9.3380|
000cbe  f7fffffe          BL       TEXT_SetText
000cc2  f6400185          MOV      r1,#0x885             ;544
000cc6  6860              LDR      r0,[r4,#4]            ;544
000cc8  f7fffffe          BL       WM_GetDialogItem
000ccc  a119              ADR      r1,|L9.3380|
000cce  f7fffffe          BL       TEXT_SetText
000cd2  f6400186          MOV      r1,#0x886             ;547
000cd6  6860              LDR      r0,[r4,#4]            ;547
000cd8  f7fffffe          BL       WM_GetDialogItem
000cdc  a115              ADR      r1,|L9.3380|
000cde  f7fffffe          BL       TEXT_SetText
000ce2  f6400187          MOV      r1,#0x887             ;550
000ce6  6860              LDR      r0,[r4,#4]            ;550
000ce8  f7fffffe          BL       WM_GetDialogItem
000cec  a111              ADR      r1,|L9.3380|
000cee  f7fffffe          BL       TEXT_SetText
000cf2  f6400188          MOV      r1,#0x888             ;553
000cf6  6860              LDR      r0,[r4,#4]            ;553
000cf8  f7fffffe          BL       WM_GetDialogItem
000cfc  a10d              ADR      r1,|L9.3380|
000cfe  f7fffffe          BL       TEXT_SetText
000d02  f6400189          MOV      r1,#0x889             ;556
000d06  6860              LDR      r0,[r4,#4]            ;556
000d08  f7fffffe          BL       WM_GetDialogItem
000d0c  a109              ADR      r1,|L9.3380|
000d0e  f7fffffe          BL       TEXT_SetText
000d12  f640018a          MOV      r1,#0x88a             ;559
000d16  6860              LDR      r0,[r4,#4]            ;559
000d18  e000              B        |L9.3356|
                  |L9.3354|
000d1a  e0dd              B        |L9.3800|
                  |L9.3356|
000d1c  f7fffffe          BL       WM_GetDialogItem
000d20  a104              ADR      r1,|L9.3380|
000d22  f7fffffe          BL       TEXT_SetText
000d26  f640018b          MOV      r1,#0x88b             ;562
000d2a  6860              LDR      r0,[r4,#4]            ;562
000d2c  e024              B        |L9.3448|
                  |L9.3374|
000d2e  e033              B        |L9.3480|
                  |L9.3376|
000d30  25303264          DCB      "%02d"
                  |L9.3380|
000d34  00                DCB      0
000d35  00                DCB      0
000d36  00                DCB      0
000d37  00                DCB      0
                  |L9.3384|
                          DCD      GUI_Font24_1
                  |L9.3388|
000d3c  3a00              DCB      ":",0
000d3e  00                DCB      0
000d3f  00                DCB      0
                  |L9.3392|
                          DCD      DISS_Voltage
                  |L9.3396|
                          DCD      DISS_Current
                  |L9.3400|
000d48  45610000          DCFS     0x45610000 ; 3600
                  |L9.3404|
                          DCD      battery_c
                  |L9.3408|
                          DCD      GUI_Font20_ASCII
                  |L9.3412|
000d54  44697363          DCB      "Discharging",0
000d58  68617267
000d5c  696e6700
                  |L9.3424|
                          DCD      GUI_FontHZ16
                  |L9.3428|
000d64  e694bee7          DCB      230,148,190,231,148,181,228,184,173,0
000d68  94b5e4b8
000d6c  ad00    
000d6e  00                DCB      0
000d6f  00                DCB      0
                  |L9.3440|
                          DCD      0x40020800
                  |L9.3444|
                          DCD      mode_sw
                  |L9.3448|
000d78  f7fffffe          BL       WM_GetDialogItem
000d7c  f2af014c          ADR      r1,|L9.3380|
000d80  f7fffffe          BL       TEXT_SetText
000d84  f640018c          MOV      r1,#0x88c             ;565
000d88  6860              LDR      r0,[r4,#4]            ;565
000d8a  f7fffffe          BL       WM_GetDialogItem
000d8e  f2af015c          ADR      r1,|L9.3380|
000d92  f7fffffe          BL       TEXT_SetText
000d96  e0a7              B        |L9.3816|
                  |L9.3480|
000d98  f8ba003c          LDRH     r0,[r10,#0x3c]        ;569  ; Run_Control
000d9c  f8ba103a          LDRH     r1,[r10,#0x3a]        ;569  ; Run_Control
000da0  1a40              SUBS     r0,r0,r1              ;569
000da2  ee000a10          VMOV     s0,r0                 ;569
000da6  79b1              LDRB     r1,[r6,#6]            ;569  ; c_sum
000da8  eeb80ac0          VCVT.F32.S32 s0,s0                 ;569
000dac  eec00a09          VDIV.F32 s1,s0,s18             ;569
000db0  ee200a88          VMUL.F32 s0,s1,s16             ;569
000db4  ee200a0c          VMUL.F32 s0,s0,s24             ;569
000db8  eebd0ac0          VCVT.S32.F32 s0,s0                 ;569
000dbc  ee100a10          VMOV     r0,s0                 ;569
000dc0  4408              ADD      r0,r0,r1              ;569
000dc2  71b0              STRB     r0,[r6,#6]            ;569
000dc4  2003              MOVS     r0,#3                 ;570
000dc6  f7fffffe          BL       Mode_SW_CONT
000dca  f44f5100          MOV      r1,#0x2000            ;574
000dce  48fe              LDR      r0,|L9.4552|
000dd0  f7fffffe          BL       GPIO_SetBits
000dd4  7137              STRB     r7,[r6,#4]            ;575
000dd6  e087              B        |L9.3816|
                  |L9.3544|
000dd8  48fc              LDR      r0,|L9.4556|
000dda  8800              LDRH     r0,[r0,#0]            ;578  ; battery_c
000ddc  b3d8              CBZ      r0,|L9.3670|
000dde  f640017f          MOV      r1,#0x87f             ;579
000de2  6860              LDR      r0,[r4,#4]            ;579
000de4  f7fffffe          BL       WM_GetDialogItem
000de8  4605              MOV      r5,r0                 ;579
000dea  ec532b1b          VMOV     r2,r3,d11             ;580
000dee  f6af1174          ADR      r1,|L9.1148|
000df2  4668              MOV      r0,sp                 ;580
000df4  f7fffffe          BL       __2sprintf
000df8  4669              MOV      r1,sp                 ;581
000dfa  4628              MOV      r0,r5                 ;581
000dfc  f7fffffe          BL       TEXT_SetText
000e00  f44f6108          MOV      r1,#0x880             ;583
000e04  6860              LDR      r0,[r4,#4]            ;583
000e06  f7fffffe          BL       WM_GetDialogItem
000e0a  4605              MOV      r5,r0                 ;583
000e0c  ec532b1b          VMOV     r2,r3,d11             ;584
000e10  f6af1198          ADR      r1,|L9.1148|
000e14  4668              MOV      r0,sp                 ;584
000e16  f7fffffe          BL       __2sprintf
000e1a  4669              MOV      r1,sp                 ;585
000e1c  4628              MOV      r0,r5                 ;585
000e1e  f7fffffe          BL       TEXT_SetText
000e22  f6400182          MOV      r1,#0x882             ;587
000e26  6860              LDR      r0,[r4,#4]            ;587
000e28  f7fffffe          BL       WM_GetDialogItem
000e2c  4649              MOV      r1,r9                 ;588
000e2e  f7fffffe          BL       TEXT_SetTextColor
000e32  f6400183          MOV      r1,#0x883             ;590
000e36  6860              LDR      r0,[r4,#4]            ;590
000e38  f7fffffe          BL       WM_GetDialogItem
000e3c  4649              MOV      r1,r9                 ;591
000e3e  f7fffffe          BL       TEXT_SetTextColor
000e42  f6400184          MOV      r1,#0x884             ;593
000e46  6860              LDR      r0,[r4,#4]            ;593
000e48  f7fffffe          BL       WM_GetDialogItem
000e4c  f2af111c          ADR      r1,|L9.3380|
000e50  f7fffffe          BL       TEXT_SetText
000e54  e048              B        |L9.3816|
                  |L9.3670|
000e56  e7ff              B        |L9.3672|
                  |L9.3672|
000e58  7970              LDRB     r0,[r6,#5]            ;596  ; cdc_sw
000e5a  bbe8              CBNZ     r0,|L9.3800|
000e5c  f640017f          MOV      r1,#0x87f             ;597
000e60  6860              LDR      r0,[r4,#4]            ;597
000e62  f7fffffe          BL       WM_GetDialogItem
000e66  4605              MOV      r5,r0                 ;597
000e68  ec532b1b          VMOV     r2,r3,d11             ;598
000e6c  f6af11f4          ADR      r1,|L9.1148|
000e70  4668              MOV      r0,sp                 ;598
000e72  f7fffffe          BL       __2sprintf
000e76  4669              MOV      r1,sp                 ;599
000e78  4628              MOV      r0,r5                 ;599
000e7a  f7fffffe          BL       TEXT_SetText
000e7e  f44f6108          MOV      r1,#0x880             ;601
000e82  6860              LDR      r0,[r4,#4]            ;601
000e84  f7fffffe          BL       WM_GetDialogItem
000e88  4605              MOV      r5,r0                 ;601
000e8a  ec532b1b          VMOV     r2,r3,d11             ;602
000e8e  f6af2114          ADR      r1,|L9.1148|
000e92  4668              MOV      r0,sp                 ;602
000e94  f7fffffe          BL       __2sprintf
000e98  4669              MOV      r1,sp                 ;603
000e9a  4628              MOV      r0,r5                 ;603
000e9c  f7fffffe          BL       TEXT_SetText
000ea0  f640310e          MOV      r1,#0xb0e             ;605
000ea4  6860              LDR      r0,[r4,#4]            ;605
000ea6  f7fffffe          BL       WM_GetDialogItem
000eaa  f2af1178          ADR      r1,|L9.3380|
000eae  f7fffffe          BL       TEXT_SetText
000eb2  f6400182          MOV      r1,#0x882             ;608
000eb6  6860              LDR      r0,[r4,#4]            ;608
000eb8  f7fffffe          BL       WM_GetDialogItem
000ebc  4649              MOV      r1,r9                 ;609
000ebe  f7fffffe          BL       TEXT_SetTextColor
000ec2  f6400183          MOV      r1,#0x883             ;611
000ec6  6860              LDR      r0,[r4,#4]            ;611
000ec8  f7fffffe          BL       WM_GetDialogItem
000ecc  4649              MOV      r1,r9                 ;612
000ece  f7fffffe          BL       TEXT_SetTextColor
000ed2  f6400184          MOV      r1,#0x884             ;614
000ed6  e000              B        |L9.3802|
                  |L9.3800|
000ed8  e006              B        |L9.3816|
                  |L9.3802|
000eda  6860              LDR      r0,[r4,#4]            ;614
000edc  f7fffffe          BL       WM_GetDialogItem
000ee0  f2af11b0          ADR      r1,|L9.3380|
000ee4  f7fffffe          BL       TEXT_SetText
                  |L9.3816|
000ee8  f24011f1          MOV      r1,#0x1f1             ;617
000eec  68e0              LDR      r0,[r4,#0xc]          ;617
000eee  f7fffffe          BL       WM_RestartTimer
                  |L9.3826|
000ef2  b003              ADD      sp,sp,#0xc
000ef4  ecbd8b0a          VPOP     {d8-d12}
000ef8  e8bd8ff0          POP      {r4-r11,pc}
                  |L9.3836|
000efc  6867              LDR      r7,[r4,#4]            ;627
000efe  2100              MOVS     r1,#0                 ;628
000f00  4638              MOV      r0,r7                 ;628
000f02  f7fffffe          BL       WINDOW_SetBkColor
000f06  2300              MOVS     r3,#0                 ;629
000f08  462a              MOV      r2,r5                 ;629
000f0a  2105              MOVS     r1,#5                 ;629
000f0c  4638              MOV      r0,r7                 ;629
000f0e  f7fffffe          BL       WM_CreateTimer
000f12  f8980000          LDRB     r0,[r8,#0]            ;631  ; lang
000f16  f640012c          MOV      r1,#0x82c             ;633
000f1a  1c4d              ADDS     r5,r1,#1              ;639
000f1c  1c8f              ADDS     r7,r1,#2              ;645
000f1e  f6400a2f          MOV      r10,#0x82f            ;651
000f22  2800              CMP      r0,#0                 ;631
000f24  d07e              BEQ      |L9.4132|
000f26  6860              LDR      r0,[r4,#4]            ;664
000f28  f7fffffe          BL       WM_GetDialogItem
000f2c  9002              STR      r0,[sp,#8]            ;664
000f2e  2200              MOVS     r2,#0                 ;665
000f30  4611              MOV      r1,r2                 ;665
000f32  9802              LDR      r0,[sp,#8]            ;665
000f34  f7fffffe          BL       BUTTON_SetTextColor
000f38  49a5              LDR      r1,|L9.4560|
000f3a  9802              LDR      r0,[sp,#8]            ;666
000f3c  f7fffffe          BL       BUTTON_SetFont
000f40  f7fffffe          BL       GUI_UC_SetEncodeUTF8
000f44  a1a3              ADR      r1,|L9.4564|
000f46  9802              LDR      r0,[sp,#8]            ;668
000f48  f7fffffe          BL       BUTTON_SetText
000f4c  4629              MOV      r1,r5                 ;670
000f4e  6860              LDR      r0,[r4,#4]            ;670
000f50  f7fffffe          BL       WM_GetDialogItem
000f54  4605              MOV      r5,r0                 ;670
000f56  2200              MOVS     r2,#0                 ;671
000f58  4611              MOV      r1,r2                 ;671
000f5a  4628              MOV      r0,r5                 ;671
000f5c  f7fffffe          BL       BUTTON_SetTextColor
000f60  499b              LDR      r1,|L9.4560|
000f62  4628              MOV      r0,r5                 ;672
000f64  f7fffffe          BL       BUTTON_SetFont
000f68  f7fffffe          BL       GUI_UC_SetEncodeUTF8
000f6c  a19c              ADR      r1,|L9.4576|
000f6e  4628              MOV      r0,r5                 ;674
000f70  f7fffffe          BL       BUTTON_SetText
000f74  4639              MOV      r1,r7                 ;676
000f76  6860              LDR      r0,[r4,#4]            ;676
000f78  f7fffffe          BL       WM_GetDialogItem
000f7c  4605              MOV      r5,r0                 ;676
000f7e  2200              MOVS     r2,#0                 ;677
000f80  4611              MOV      r1,r2                 ;677
000f82  4628              MOV      r0,r5                 ;677
000f84  f7fffffe          BL       BUTTON_SetTextColor
000f88  4991              LDR      r1,|L9.4560|
000f8a  4628              MOV      r0,r5                 ;678
000f8c  f7fffffe          BL       BUTTON_SetFont
000f90  f7fffffe          BL       GUI_UC_SetEncodeUTF8
000f94  a194              ADR      r1,|L9.4584|
000f96  4628              MOV      r0,r5                 ;680
000f98  f7fffffe          BL       BUTTON_SetText
000f9c  4651              MOV      r1,r10                ;682
000f9e  6860              LDR      r0,[r4,#4]            ;682
000fa0  f7fffffe          BL       WM_GetDialogItem
000fa4  4605              MOV      r5,r0                 ;682
000fa6  2101              MOVS     r1,#1                 ;683
000fa8  4628              MOV      r0,r5                 ;683
000faa  f7fffffe          BL       BUTTON_SetPressed
000fae  2200              MOVS     r2,#0                 ;684
000fb0  4611              MOV      r1,r2                 ;684
000fb2  4628              MOV      r0,r5                 ;684
000fb4  f7fffffe          BL       BUTTON_SetTextColor
000fb8  4985              LDR      r1,|L9.4560|
000fba  4628              MOV      r0,r5                 ;685
000fbc  f7fffffe          BL       BUTTON_SetFont
000fc0  f7fffffe          BL       GUI_UC_SetEncodeUTF8
000fc4  a18a              ADR      r1,|L9.4592|
000fc6  4628              MOV      r0,r5                 ;687
000fc8  f7fffffe          BL       BUTTON_SetText
000fcc  1cb9              ADDS     r1,r7,#2              ;689
000fce  6860              LDR      r0,[r4,#4]            ;689
000fd0  f7fffffe          BL       WM_GetDialogItem
000fd4  4605              MOV      r5,r0                 ;689
000fd6  2200              MOVS     r2,#0                 ;690
000fd8  4611              MOV      r1,r2                 ;690
000fda  4628              MOV      r0,r5                 ;690
000fdc  f7fffffe          BL       BUTTON_SetTextColor
000fe0  497b              LDR      r1,|L9.4560|
000fe2  4628              MOV      r0,r5                 ;691
000fe4  f7fffffe          BL       BUTTON_SetFont
000fe8  f7fffffe          BL       GUI_UC_SetEncodeUTF8
000fec  a182              ADR      r1,|L9.4600|
000fee  4628              MOV      r0,r5                 ;693
000ff0  f7fffffe          BL       BUTTON_SetText
                  |L9.4084|
000ff4  f6400131          MOV      r1,#0x831             ;696
000ff8  6860              LDR      r0,[r4,#4]            ;696
000ffa  f7fffffe          BL       WM_GetDialogItem
000ffe  4605              MOV      r5,r0                 ;696
001000  4659              MOV      r1,r11                ;697
001002  4628              MOV      r0,r5                 ;697
001004  f7fffffe          BL       TEXT_SetTextColor
001008  497d              LDR      r1,|L9.4608|
00100a  4628              MOV      r0,r5                 ;698
00100c  f7fffffe          BL       TEXT_SetFont
001010  f7fffffe          BL       GUI_UC_SetEncodeUTF8
001014  a17b              ADR      r1,|L9.4612|
001016  4628              MOV      r0,r5                 ;700
001018  f7fffffe          BL       TEXT_SetText
00101c  f6400132          MOV      r1,#0x832             ;702
001020  6860              LDR      r0,[r4,#4]            ;702
001022  e000              B        |L9.4134|
                  |L9.4132|
001024  e2d9              B        |L9.5594|
                  |L9.4134|
001026  f7fffffe          BL       WM_GetDialogItem
00102a  4605              MOV      r5,r0                 ;702
00102c  4659              MOV      r1,r11                ;703
00102e  4628              MOV      r0,r5                 ;703
001030  f7fffffe          BL       TEXT_SetTextColor
001034  4972              LDR      r1,|L9.4608|
001036  4628              MOV      r0,r5                 ;704
001038  f7fffffe          BL       TEXT_SetFont
00103c  f7fffffe          BL       GUI_UC_SetEncodeUTF8
001040  a171              ADR      r1,|L9.4616|
001042  4628              MOV      r0,r5                 ;706
001044  f7fffffe          BL       TEXT_SetText
001048  f6400133          MOV      r1,#0x833             ;708
00104c  6860              LDR      r0,[r4,#4]            ;708
00104e  f7fffffe          BL       WM_GetDialogItem
001052  4605              MOV      r5,r0                 ;708
001054  4659              MOV      r1,r11                ;709
001056  4628              MOV      r0,r5                 ;709
001058  f7fffffe          BL       TEXT_SetTextColor
00105c  4968              LDR      r1,|L9.4608|
00105e  4628              MOV      r0,r5                 ;710
001060  f7fffffe          BL       TEXT_SetFont
001064  f7fffffe          BL       GUI_UC_SetEncodeUTF8
001068  a168              ADR      r1,|L9.4620|
00106a  4628              MOV      r0,r5                 ;712
00106c  f7fffffe          BL       TEXT_SetText
001070  f6400134          MOV      r1,#0x834             ;714
001074  6860              LDR      r0,[r4,#4]            ;714
001076  f7fffffe          BL       WM_GetDialogItem
00107a  4605              MOV      r5,r0                 ;714
00107c  4659              MOV      r1,r11                ;715
00107e  4628              MOV      r0,r5                 ;715
001080  f7fffffe          BL       TEXT_SetTextColor
001084  495e              LDR      r1,|L9.4608|
001086  4628              MOV      r0,r5                 ;716
001088  f7fffffe          BL       TEXT_SetFont
00108c  f7fffffe          BL       GUI_UC_SetEncodeUTF8
001090  a15f              ADR      r1,|L9.4624|
001092  4628              MOV      r0,r5                 ;718
001094  f7fffffe          BL       TEXT_SetText
001098  f8980000          LDRB     r0,[r8,#0]            ;720  ; lang
00109c  f640016f          MOV      r1,#0x86f             ;722
0010a0  4d5c              LDR      r5,|L9.4628|
0010a2  1c4f              ADDS     r7,r1,#1              ;729
0010a4  f6400a77          MOV      r10,#0x877            ;735
0010a8  f6400b78          MOV      r11,#0x878            ;741
0010ac  2800              CMP      r0,#0                 ;720
0010ae  d07d              BEQ      |L9.4524|
0010b0  6860              LDR      r0,[r4,#4]            ;771
0010b2  f7fffffe          BL       WM_GetDialogItem
0010b6  9002              STR      r0,[sp,#8]            ;771
0010b8  2100              MOVS     r1,#0                 ;772
0010ba  9802              LDR      r0,[sp,#8]            ;772
0010bc  f7fffffe          BL       TEXT_SetTextColor
0010c0  4629              MOV      r1,r5                 ;773
0010c2  9802              LDR      r0,[sp,#8]            ;773
0010c4  f7fffffe          BL       TEXT_SetBkColor
0010c8  4953              LDR      r1,|L9.4632|
0010ca  9802              LDR      r0,[sp,#8]            ;774
0010cc  f7fffffe          BL       TEXT_SetFont
0010d0  f7fffffe          BL       GUI_UC_SetEncodeUTF8
0010d4  a151              ADR      r1,|L9.4636|
0010d6  9802              LDR      r0,[sp,#8]            ;776
0010d8  f7fffffe          BL       TEXT_SetText
0010dc  4639              MOV      r1,r7                 ;778
0010de  6860              LDR      r0,[r4,#4]            ;778
0010e0  f7fffffe          BL       WM_GetDialogItem
0010e4  4605              MOV      r5,r0                 ;778
0010e6  4649              MOV      r1,r9                 ;779
0010e8  4628              MOV      r0,r5                 ;779
0010ea  f7fffffe          BL       TEXT_SetTextColor
0010ee  494a              LDR      r1,|L9.4632|
0010f0  4628              MOV      r0,r5                 ;780
0010f2  f7fffffe          BL       TEXT_SetFont
0010f6  f7fffffe          BL       GUI_UC_SetEncodeUTF8
0010fa  a14b              ADR      r1,|L9.4648|
0010fc  4628              MOV      r0,r5                 ;782
0010fe  f7fffffe          BL       TEXT_SetText
001102  4651              MOV      r1,r10                ;784
001104  6860              LDR      r0,[r4,#4]            ;784
001106  f7fffffe          BL       WM_GetDialogItem
00110a  4605              MOV      r5,r0                 ;784
00110c  4649              MOV      r1,r9                 ;785
00110e  4628              MOV      r0,r5                 ;785
001110  f7fffffe          BL       TEXT_SetTextColor
001114  4940              LDR      r1,|L9.4632|
001116  4628              MOV      r0,r5                 ;786
001118  f7fffffe          BL       TEXT_SetFont
00111c  f7fffffe          BL       GUI_UC_SetEncodeUTF8
001120  a144              ADR      r1,|L9.4660|
001122  4628              MOV      r0,r5                 ;788
001124  f7fffffe          BL       TEXT_SetText
001128  4659              MOV      r1,r11                ;790
00112a  6860              LDR      r0,[r4,#4]            ;790
00112c  f7fffffe          BL       WM_GetDialogItem
001130  4605              MOV      r5,r0                 ;790
001132  4649              MOV      r1,r9                 ;791
001134  4628              MOV      r0,r5                 ;791
001136  f7fffffe          BL       TEXT_SetTextColor
00113a  4937              LDR      r1,|L9.4632|
00113c  4628              MOV      r0,r5                 ;792
00113e  f7fffffe          BL       TEXT_SetFont
001142  f7fffffe          BL       GUI_UC_SetEncodeUTF8
001146  a13e              ADR      r1,|L9.4672|
001148  4628              MOV      r0,r5                 ;794
00114a  f7fffffe          BL       TEXT_SetText
00114e  1c79              ADDS     r1,r7,#1              ;796
001150  6860              LDR      r0,[r4,#4]            ;796
001152  f7fffffe          BL       WM_GetDialogItem
001156  4605              MOV      r5,r0                 ;796
001158  4649              MOV      r1,r9                 ;797
00115a  4628              MOV      r0,r5                 ;797
00115c  f7fffffe          BL       TEXT_SetTextColor
001160  492d              LDR      r1,|L9.4632|
001162  4628              MOV      r0,r5                 ;798
001164  f7fffffe          BL       TEXT_SetFont
001168  f7fffffe          BL       GUI_UC_SetEncodeUTF8
00116c  a137              ADR      r1,|L9.4684|
00116e  4628              MOV      r0,r5                 ;800
001170  f7fffffe          BL       TEXT_SetText
001174  f6400179          MOV      r1,#0x879             ;802
001178  6860              LDR      r0,[r4,#4]            ;802
00117a  f7fffffe          BL       WM_GetDialogItem
00117e  4605              MOV      r5,r0                 ;802
001180  4649              MOV      r1,r9                 ;803
001182  4628              MOV      r0,r5                 ;803
001184  f7fffffe          BL       TEXT_SetTextColor
001188  4923              LDR      r1,|L9.4632|
00118a  4628              MOV      r0,r5                 ;804
00118c  f7fffffe          BL       TEXT_SetFont
001190  f7fffffe          BL       GUI_UC_SetEncodeUTF8
001194  a12f              ADR      r1,|L9.4692|
001196  4628              MOV      r0,r5                 ;806
001198  f7fffffe          BL       TEXT_SetText
00119c  1cb9              ADDS     r1,r7,#2              ;814
00119e  6860              LDR      r0,[r4,#4]            ;814
0011a0  f7fffffe          BL       WM_GetDialogItem
0011a4  4605              MOV      r5,r0                 ;814
0011a6  4649              MOV      r1,r9                 ;815
0011a8  4628              MOV      r0,r5                 ;815
0011aa  e000              B        |L9.4526|
                  |L9.4524|
0011ac  e2b3              B        |L9.5910|
                  |L9.4526|
0011ae  f7fffffe          BL       TEXT_SetTextColor
0011b2  4919              LDR      r1,|L9.4632|
0011b4  4628              MOV      r0,r5                 ;816
0011b6  f7fffffe          BL       TEXT_SetFont
0011ba  f7fffffe          BL       GUI_UC_SetEncodeUTF8
0011be  a128              ADR      r1,|L9.4704|
0011c0  4628              MOV      r0,r5                 ;818
0011c2  f7fffffe          BL       TEXT_SetText
                  |L9.4550|
0011c6  e051              B        |L9.4716|
                  |L9.4552|
                          DCD      0x40020400
                  |L9.4556|
                          DCD      battery_c
                  |L9.4560|
                          DCD      GUI_Font16B_ASCII
                  |L9.4564|
0011d4  492e522e          DCB      "I.R. TEST",0
0011d8  20544553
0011dc  5400    
0011de  00                DCB      0
0011df  00                DCB      0
                  |L9.4576|
0011e0  4c4f4144          DCB      "LOAD"
                  |L9.4580|
0011e4  00                DCB      0
0011e5  00                DCB      0
0011e6  00                DCB      0
0011e7  00                DCB      0
                  |L9.4584|
0011e8  504f5745          DCB      "POWER",0
0011ec  5200    
0011ee  00                DCB      0
0011ef  00                DCB      0
                  |L9.4592|
0011f0  43264443          DCB      "C&DC",0
0011f4  00      
0011f5  00                DCB      0
0011f6  00                DCB      0
0011f7  00                DCB      0
                  |L9.4600|
0011f8  47524150          DCB      "GRAPH",0
0011fc  4800    
0011fe  00                DCB      0
0011ff  00                DCB      0
                  |L9.4608|
                          DCD      GUI_FontEN40
                  |L9.4612|
001204  563a00            DCB      "V:",0
001207  00                DCB      0
                  |L9.4616|
001208  493a00            DCB      "I:",0
00120b  00                DCB      0
                  |L9.4620|
00120c  5600              DCB      "V",0
00120e  00                DCB      0
00120f  00                DCB      0
                  |L9.4624|
001210  4100              DCB      "A",0
001212  00                DCB      0
001213  00                DCB      0
                  |L9.4628|
                          DCD      0x00bfffff
                  |L9.4632|
                          DCD      GUI_Font20_ASCII
                  |L9.4636|
00121c  4f757470          DCB      "Output V1",0
001220  75742056
001224  3100    
001226  00                DCB      0
001227  00                DCB      0
                  |L9.4648|
001228  4c696d69          DCB      "Limiting C1",0
00122c  74696e67
001230  20433100
                  |L9.4660|
001234  4375746f          DCB      "Cutoff V1",0
001238  66662056
00123c  3100    
00123e  00                DCB      0
00123f  00                DCB      0
                  |L9.4672|
001240  4375746f          DCB      "Cutoff C1",0
001244  66662043
001248  3100    
00124a  00                DCB      0
00124b  00                DCB      0
                  |L9.4684|
00124c  4c6f6164          DCB      "Load C",0
001250  204300  
001253  00                DCB      0
                  |L9.4692|
001254  4375746f          DCB      "Cutoff V",0
001258  66662056
00125c  00      
00125d  00                DCB      0
00125e  00                DCB      0
00125f  00                DCB      0
                  |L9.4704|
001260  4379636c          DCB      "Cycle times",0
001264  65207469
001268  6d657300
                  |L9.4716|
00126c  f6400173          MOV      r1,#0x873             ;821
001270  6860              LDR      r0,[r4,#4]            ;821
001272  f7fffffe          BL       WM_GetDialogItem
001276  4605              MOV      r5,r0                 ;821
001278  ee190a10          VMOV     r0,s18                ;822
00127c  f7fffffe          BL       __aeabi_f2d
001280  ec410b10          VMOV     d0,r0,r1              ;822
001284  ec532b10          VMOV     r2,r3,d0              ;822
001288  f6af6110          ADR      r1,|L9.1148|
00128c  4668              MOV      r0,sp                 ;822
00128e  f7fffffe          BL       __2sprintf
001292  4649              MOV      r1,r9                 ;823
001294  4628              MOV      r0,r5                 ;823
001296  f7fffffe          BL       TEXT_SetTextColor
00129a  49fe              LDR      r1,|L9.5780|
00129c  4628              MOV      r0,r5                 ;824
00129e  f7fffffe          BL       TEXT_SetFont
0012a2  f7fffffe          BL       GUI_UC_SetEncodeUTF8
0012a6  4669              MOV      r1,sp                 ;826
0012a8  4628              MOV      r0,r5                 ;826
0012aa  f7fffffe          BL       TEXT_SetText
0012ae  f6400174          MOV      r1,#0x874             ;828
0012b2  6860              LDR      r0,[r4,#4]            ;828
0012b4  f7fffffe          BL       WM_GetDialogItem
0012b8  4605              MOV      r5,r0                 ;828
0012ba  ee190a90          VMOV     r0,s19                ;829
0012be  f7fffffe          BL       __aeabi_f2d
0012c2  ec410b10          VMOV     d0,r0,r1              ;829
0012c6  ec532b10          VMOV     r2,r3,d0              ;829
0012ca  f6af6150          ADR      r1,|L9.1148|
0012ce  4668              MOV      r0,sp                 ;829
0012d0  f7fffffe          BL       __2sprintf
0012d4  4649              MOV      r1,r9                 ;830
0012d6  4628              MOV      r0,r5                 ;830
0012d8  f7fffffe          BL       TEXT_SetTextColor
0012dc  49ed              LDR      r1,|L9.5780|
0012de  4628              MOV      r0,r5                 ;831
0012e0  f7fffffe          BL       TEXT_SetFont
0012e4  f7fffffe          BL       GUI_UC_SetEncodeUTF8
0012e8  4669              MOV      r1,sp                 ;833
0012ea  4628              MOV      r0,r5                 ;833
0012ec  f7fffffe          BL       TEXT_SetText
0012f0  f6400175          MOV      r1,#0x875             ;835
0012f4  6860              LDR      r0,[r4,#4]            ;835
0012f6  f7fffffe          BL       WM_GetDialogItem
0012fa  4605              MOV      r5,r0                 ;835
0012fc  ee180a10          VMOV     r0,s16                ;836
001300  f7fffffe          BL       __aeabi_f2d
001304  ec410b10          VMOV     d0,r0,r1              ;836
001308  ec532b10          VMOV     r2,r3,d0              ;836
00130c  f6af6194          ADR      r1,|L9.1148|
001310  4668              MOV      r0,sp                 ;836
001312  f7fffffe          BL       __2sprintf
001316  4649              MOV      r1,r9                 ;837
001318  4628              MOV      r0,r5                 ;837
00131a  f7fffffe          BL       TEXT_SetTextColor
00131e  49dd              LDR      r1,|L9.5780|
001320  4628              MOV      r0,r5                 ;838
001322  f7fffffe          BL       TEXT_SetFont
001326  f7fffffe          BL       GUI_UC_SetEncodeUTF8
00132a  4669              MOV      r1,sp                 ;840
00132c  4628              MOV      r0,r5                 ;840
00132e  f7fffffe          BL       TEXT_SetText
001332  f6400176          MOV      r1,#0x876             ;842
001336  6860              LDR      r0,[r4,#4]            ;842
001338  f7fffffe          BL       WM_GetDialogItem
00133c  4605              MOV      r5,r0                 ;842
00133e  7832              LDRB     r2,[r6,#0]            ;843  ; set_loop_count
001340  f6af61b4          ADR      r1,|L9.1168|
001344  4668              MOV      r0,sp                 ;843
001346  f7fffffe          BL       __2sprintf
00134a  4649              MOV      r1,r9                 ;844
00134c  4628              MOV      r0,r5                 ;844
00134e  f7fffffe          BL       TEXT_SetTextColor
001352  49d0              LDR      r1,|L9.5780|
001354  4628              MOV      r0,r5                 ;845
001356  f7fffffe          BL       TEXT_SetFont
00135a  f7fffffe          BL       GUI_UC_SetEncodeUTF8
00135e  4669              MOV      r1,sp                 ;847
001360  4628              MOV      r0,r5                 ;847
001362  f7fffffe          BL       TEXT_SetText
001366  f640017b          MOV      r1,#0x87b             ;851
00136a  6860              LDR      r0,[r4,#4]            ;851
00136c  f7fffffe          BL       WM_GetDialogItem
001370  4605              MOV      r5,r0                 ;851
001372  ee1a0a10          VMOV     r0,s20                ;852
001376  f7fffffe          BL       __aeabi_f2d
00137a  ec410b10          VMOV     d0,r0,r1              ;852
00137e  ec532b10          VMOV     r2,r3,d0              ;852
001382  f6af7108          ADR      r1,|L9.1148|
001386  4668              MOV      r0,sp                 ;852
001388  f7fffffe          BL       __2sprintf
00138c  4649              MOV      r1,r9                 ;853
00138e  4628              MOV      r0,r5                 ;853
001390  f7fffffe          BL       TEXT_SetTextColor
001394  49bf              LDR      r1,|L9.5780|
001396  4628              MOV      r0,r5                 ;854
001398  f7fffffe          BL       TEXT_SetFont
00139c  f7fffffe          BL       GUI_UC_SetEncodeUTF8
0013a0  4669              MOV      r1,sp                 ;856
0013a2  4628              MOV      r0,r5                 ;856
0013a4  f7fffffe          BL       TEXT_SetText
0013a8  f640017c          MOV      r1,#0x87c             ;858
0013ac  6860              LDR      r0,[r4,#4]            ;858
0013ae  f7fffffe          BL       WM_GetDialogItem
0013b2  4605              MOV      r5,r0                 ;858
0013b4  ee1a0a90          VMOV     r0,s21                ;859
0013b8  f7fffffe          BL       __aeabi_f2d
0013bc  ec410b10          VMOV     d0,r0,r1              ;859
0013c0  ec532b10          VMOV     r2,r3,d0              ;859
0013c4  f6af714c          ADR      r1,|L9.1148|
0013c8  4668              MOV      r0,sp                 ;859
0013ca  f7fffffe          BL       __2sprintf
0013ce  4649              MOV      r1,r9                 ;860
0013d0  4628              MOV      r0,r5                 ;860
0013d2  f7fffffe          BL       TEXT_SetTextColor
0013d6  49af              LDR      r1,|L9.5780|
0013d8  4628              MOV      r0,r5                 ;861
0013da  f7fffffe          BL       TEXT_SetFont
0013de  f7fffffe          BL       GUI_UC_SetEncodeUTF8
0013e2  4669              MOV      r1,sp                 ;863
0013e4  4628              MOV      r0,r5                 ;863
0013e6  f7fffffe          BL       TEXT_SetText
0013ea  f640017d          MOV      r1,#0x87d             ;865
0013ee  6860              LDR      r0,[r4,#4]            ;865
0013f0  f7fffffe          BL       WM_GetDialogItem
0013f4  4605              MOV      r5,r0                 ;865
0013f6  ee180a90          VMOV     r0,s17                ;866
0013fa  f7fffffe          BL       __aeabi_f2d
0013fe  ec410b10          VMOV     d0,r0,r1              ;866
001402  ec532b10          VMOV     r2,r3,d0              ;866
001406  f6af718c          ADR      r1,|L9.1148|
00140a  4668              MOV      r0,sp                 ;866
00140c  f7fffffe          BL       __2sprintf
001410  4649              MOV      r1,r9                 ;867
001412  4628              MOV      r0,r5                 ;867
001414  f7fffffe          BL       TEXT_SetTextColor
001418  499e              LDR      r1,|L9.5780|
00141a  4628              MOV      r0,r5                 ;868
00141c  f7fffffe          BL       TEXT_SetFont
001420  f7fffffe          BL       GUI_UC_SetEncodeUTF8
001424  4669              MOV      r1,sp                 ;870
001426  4628              MOV      r0,r5                 ;870
001428  f7fffffe          BL       TEXT_SetText
00142c  f640017f          MOV      r1,#0x87f             ;879
001430  6860              LDR      r0,[r4,#4]            ;879
001432  f7fffffe          BL       WM_GetDialogItem
001436  4605              MOV      r5,r0                 ;879
001438  ec532b1b          VMOV     r2,r3,d11             ;880
00143c  f6af71c4          ADR      r1,|L9.1148|
001440  4668              MOV      r0,sp                 ;880
001442  f7fffffe          BL       __2sprintf
001446  f44f467f          MOV      r6,#0xff00            ;881
00144a  4631              MOV      r1,r6                 ;881
00144c  4628              MOV      r0,r5                 ;881
00144e  f7fffffe          BL       TEXT_SetTextColor
001452  4991              LDR      r1,|L9.5784|
001454  4628              MOV      r0,r5                 ;882
001456  f7fffffe          BL       TEXT_SetFont
00145a  f7fffffe          BL       GUI_UC_SetEncodeUTF8
00145e  4669              MOV      r1,sp                 ;884
001460  4628              MOV      r0,r5                 ;884
001462  f7fffffe          BL       TEXT_SetText
001466  f44f6108          MOV      r1,#0x880             ;886
00146a  6860              LDR      r0,[r4,#4]            ;886
00146c  f7fffffe          BL       WM_GetDialogItem
001470  4605              MOV      r5,r0                 ;886
001472  ec532b1b          VMOV     r2,r3,d11             ;887
001476  f6af71fc          ADR      r1,|L9.1148|
00147a  4668              MOV      r0,sp                 ;887
00147c  f7fffffe          BL       __2sprintf
001480  4631              MOV      r1,r6                 ;888
001482  4628              MOV      r0,r5                 ;888
001484  f7fffffe          BL       TEXT_SetTextColor
001488  4983              LDR      r1,|L9.5784|
00148a  4628              MOV      r0,r5                 ;889
00148c  f7fffffe          BL       TEXT_SetFont
001490  f7fffffe          BL       GUI_UC_SetEncodeUTF8
001494  4669              MOV      r1,sp                 ;891
001496  4628              MOV      r0,r5                 ;891
001498  f7fffffe          BL       TEXT_SetText
00149c  f6400181          MOV      r1,#0x881             ;893
0014a0  6860              LDR      r0,[r4,#4]            ;893
0014a2  f7fffffe          BL       WM_GetDialogItem
0014a6  4605              MOV      r5,r0                 ;893
0014a8  2200              MOVS     r2,#0                 ;894
0014aa  497c              LDR      r1,|L9.5788|
0014ac  4668              MOV      r0,sp                 ;894
0014ae  f7fffffe          BL       __2sprintf
0014b2  4631              MOV      r1,r6                 ;895
0014b4  4628              MOV      r0,r5                 ;895
0014b6  f7fffffe          BL       TEXT_SetTextColor
0014ba  4977              LDR      r1,|L9.5784|
0014bc  4628              MOV      r0,r5                 ;896
0014be  f7fffffe          BL       TEXT_SetFont
0014c2  f7fffffe          BL       GUI_UC_SetEncodeUTF8
0014c6  4669              MOV      r1,sp                 ;898
0014c8  4628              MOV      r0,r5                 ;898
0014ca  f7fffffe          BL       TEXT_SetText
0014ce  f6400182          MOV      r1,#0x882             ;900
0014d2  6860              LDR      r0,[r4,#4]            ;900
0014d4  f7fffffe          BL       WM_GetDialogItem
0014d8  4605              MOV      r5,r0                 ;900
0014da  4649              MOV      r1,r9                 ;901
0014dc  4628              MOV      r0,r5                 ;901
0014de  f7fffffe          BL       TEXT_SetTextColor
0014e2  f8980000          LDRB     r0,[r8,#0]            ;902  ; lang
0014e6  2800              CMP      r0,#0                 ;902
0014e8  d076              BEQ      |L9.5592|
0014ea  496d              LDR      r1,|L9.5792|
0014ec  4628              MOV      r0,r5                 ;908
0014ee  f7fffffe          BL       TEXT_SetFont
0014f2  f7fffffe          BL       GUI_UC_SetEncodeUTF8
0014f6  a16b              ADR      r1,|L9.5796|
0014f8  4628              MOV      r0,r5                 ;910
0014fa  f7fffffe          BL       TEXT_SetText
                  |L9.5374|
0014fe  f640018a          MOV      r1,#0x88a             ;913
001502  6860              LDR      r0,[r4,#4]            ;913
001504  f7fffffe          BL       WM_GetDialogItem
001508  4605              MOV      r5,r0                 ;913
00150a  4631              MOV      r1,r6                 ;914
00150c  4628              MOV      r0,r5                 ;914
00150e  f7fffffe          BL       TEXT_SetTextColor
001512  4960              LDR      r1,|L9.5780|
001514  4628              MOV      r0,r5                 ;915
001516  f7fffffe          BL       TEXT_SetFont
00151a  f7fffffe          BL       GUI_UC_SetEncodeUTF8
00151e  f2af313c          ADR      r1,|L9.4580|
001522  4628              MOV      r0,r5                 ;917
001524  f7fffffe          BL       TEXT_SetText
001528  f640018b          MOV      r1,#0x88b             ;919
00152c  6860              LDR      r0,[r4,#4]            ;919
00152e  f7fffffe          BL       WM_GetDialogItem
001532  4605              MOV      r5,r0                 ;919
001534  4631              MOV      r1,r6                 ;920
001536  4628              MOV      r0,r5                 ;920
001538  f7fffffe          BL       TEXT_SetTextColor
00153c  4955              LDR      r1,|L9.5780|
00153e  4628              MOV      r0,r5                 ;921
001540  f7fffffe          BL       TEXT_SetFont
001544  f7fffffe          BL       GUI_UC_SetEncodeUTF8
001548  f2af3168          ADR      r1,|L9.4580|
00154c  4628              MOV      r0,r5                 ;923
00154e  f7fffffe          BL       TEXT_SetText
001552  f640018c          MOV      r1,#0x88c             ;925
001556  6860              LDR      r0,[r4,#4]            ;925
001558  f7fffffe          BL       WM_GetDialogItem
00155c  4605              MOV      r5,r0                 ;925
00155e  4631              MOV      r1,r6                 ;926
001560  4628              MOV      r0,r5                 ;926
001562  f7fffffe          BL       TEXT_SetTextColor
001566  494b              LDR      r1,|L9.5780|
001568  4628              MOV      r0,r5                 ;927
00156a  f7fffffe          BL       TEXT_SetFont
00156e  f7fffffe          BL       GUI_UC_SetEncodeUTF8
001572  f2af3190          ADR      r1,|L9.4580|
001576  4628              MOV      r0,r5                 ;929
001578  f7fffffe          BL       TEXT_SetText
00157c  f640310e          MOV      r1,#0xb0e             ;931
001580  6860              LDR      r0,[r4,#4]            ;931
001582  f7fffffe          BL       WM_GetDialogItem
001586  4605              MOV      r5,r0                 ;931
001588  21ff              MOVS     r1,#0xff              ;932
00158a  4628              MOV      r0,r5                 ;932
00158c  f7fffffe          BL       TEXT_SetTextColor
001590  4946              LDR      r1,|L9.5804|
001592  4628              MOV      r0,r5                 ;933
001594  f7fffffe          BL       TEXT_SetFont
001598  f7fffffe          BL       GUI_UC_SetEncodeUTF8
00159c  f2af31bc          ADR      r1,|L9.4580|
0015a0  4628              MOV      r0,r5                 ;935
0015a2  f7fffffe          BL       TEXT_SetText
0015a6  f6400183          MOV      r1,#0x883             ;937
0015aa  6860              LDR      r0,[r4,#4]            ;937
0015ac  f7fffffe          BL       WM_GetDialogItem
0015b0  4604              MOV      r4,r0                 ;937
0015b2  4649              MOV      r1,r9                 ;938
0015b4  4620              MOV      r0,r4                 ;938
0015b6  f7fffffe          BL       TEXT_SetTextColor
0015ba  f8980000          LDRB     r0,[r8,#0]            ;939  ; lang
0015be  2800              CMP      r0,#0                 ;939
0015c0  d066              BEQ      |L9.5776|
0015c2  4937              LDR      r1,|L9.5792|
0015c4  4620              MOV      r0,r4                 ;945
0015c6  f7fffffe          BL       TEXT_SetFont
0015ca  f7fffffe          BL       GUI_UC_SetEncodeUTF8
0015ce  a138              ADR      r1,|L9.5808|
0015d0  4620              MOV      r0,r4                 ;947
0015d2  f7fffffe          BL       TEXT_SetText
                  |L9.5590|
0015d6  e48c              B        |L9.3826|
                  |L9.5592|
0015d8  e129              B        |L9.6190|
                  |L9.5594|
0015da  6860              LDR      r0,[r4,#4]            ;633
0015dc  f7fffffe          BL       WM_GetDialogItem
0015e0  9002              STR      r0,[sp,#8]            ;633
0015e2  2200              MOVS     r2,#0                 ;634
0015e4  4611              MOV      r1,r2                 ;634
0015e6  9802              LDR      r0,[sp,#8]            ;634
0015e8  f7fffffe          BL       BUTTON_SetTextColor
0015ec  492c              LDR      r1,|L9.5792|
0015ee  9802              LDR      r0,[sp,#8]            ;635
0015f0  f7fffffe          BL       BUTTON_SetFont
0015f4  f7fffffe          BL       GUI_UC_SetEncodeUTF8
0015f8  a130              ADR      r1,|L9.5820|
0015fa  9802              LDR      r0,[sp,#8]            ;637
0015fc  f7fffffe          BL       BUTTON_SetText
001600  4629              MOV      r1,r5                 ;639
001602  6860              LDR      r0,[r4,#4]            ;639
001604  f7fffffe          BL       WM_GetDialogItem
001608  4605              MOV      r5,r0                 ;639
00160a  2200              MOVS     r2,#0                 ;640
00160c  4611              MOV      r1,r2                 ;640
00160e  4628              MOV      r0,r5                 ;640
001610  f7fffffe          BL       BUTTON_SetTextColor
001614  4922              LDR      r1,|L9.5792|
001616  4628              MOV      r0,r5                 ;641
001618  f7fffffe          BL       BUTTON_SetFont
00161c  f7fffffe          BL       GUI_UC_SetEncodeUTF8
001620  a12a              ADR      r1,|L9.5836|
001622  4628              MOV      r0,r5                 ;643
001624  f7fffffe          BL       BUTTON_SetText
001628  4639              MOV      r1,r7                 ;645
00162a  6860              LDR      r0,[r4,#4]            ;645
00162c  f7fffffe          BL       WM_GetDialogItem
001630  4605              MOV      r5,r0                 ;645
001632  2200              MOVS     r2,#0                 ;646
001634  4611              MOV      r1,r2                 ;646
001636  4628              MOV      r0,r5                 ;646
001638  f7fffffe          BL       BUTTON_SetTextColor
00163c  4918              LDR      r1,|L9.5792|
00163e  4628              MOV      r0,r5                 ;647
001640  f7fffffe          BL       BUTTON_SetFont
001644  f7fffffe          BL       GUI_UC_SetEncodeUTF8
001648  a124              ADR      r1,|L9.5852|
00164a  4628              MOV      r0,r5                 ;649
00164c  f7fffffe          BL       BUTTON_SetText
001650  4651              MOV      r1,r10                ;651
001652  6860              LDR      r0,[r4,#4]            ;651
001654  f7fffffe          BL       WM_GetDialogItem
001658  4605              MOV      r5,r0                 ;651
00165a  2101              MOVS     r1,#1                 ;652
00165c  4628              MOV      r0,r5                 ;652
00165e  f7fffffe          BL       BUTTON_SetPressed
001662  2200              MOVS     r2,#0                 ;653
001664  4611              MOV      r1,r2                 ;653
001666  4628              MOV      r0,r5                 ;653
001668  f7fffffe          BL       BUTTON_SetTextColor
00166c  490c              LDR      r1,|L9.5792|
00166e  4628              MOV      r0,r5                 ;654
001670  f7fffffe          BL       BUTTON_SetFont
001674  f7fffffe          BL       GUI_UC_SetEncodeUTF8
001678  a11c              ADR      r1,|L9.5868|
00167a  4628              MOV      r0,r5                 ;656
00167c  f7fffffe          BL       BUTTON_SetText
001680  f44f6103          MOV      r1,#0x830             ;658
001684  6860              LDR      r0,[r4,#4]            ;658
001686  f7fffffe          BL       WM_GetDialogItem
00168a  4605              MOV      r5,r0                 ;658
00168c  2200              MOVS     r2,#0                 ;659
00168e  e033              B        |L9.5880|
                  |L9.5776|
001690  e0d8              B        |L9.6212|
001692  0000              DCW      0x0000
                  |L9.5780|
                          DCD      GUI_Font24_1
                  |L9.5784|
                          DCD      GUI_FontD24x32
                  |L9.5788|
                          DCD      ||i._cbDialog||+0x49c
                  |L9.5792|
                          DCD      GUI_FontHZ16
                  |L9.5796|
0016a4  43686172          DCB      "Charge",0
0016a8  676500  
0016ab  00                DCB      0
                  |L9.5804|
                          DCD      GUI_Fontset_font
                  |L9.5808|
0016b0  44697363          DCB      "Discharge",0
0016b4  68617267
0016b8  6500    
0016ba  00                DCB      0
0016bb  00                DCB      0
                  |L9.5820|
0016bc  e58685e9          DCB      229,134,133,233,152,187,230,181,139,232,175,149,0
0016c0  98bbe6b5
0016c4  8be8af95
0016c8  00      
0016c9  00                DCB      0
0016ca  00                DCB      0
0016cb  00                DCB      0
                  |L9.5836|
0016cc  e7a88be6          DCB      231,168,139,230,142,167,232,180,159,232,189,189,0
0016d0  8ea7e8b4
0016d4  9fe8bdbd
0016d8  00      
0016d9  00                DCB      0
0016da  00                DCB      0
0016db  00                DCB      0
                  |L9.5852|
0016dc  e7a88be6          DCB      231,168,139,230,142,167,231,148,181,230,186,144,0
0016e0  8ea7e794
0016e4  b5e6ba90
0016e8  00      
0016e9  00                DCB      0
0016ea  00                DCB      0
0016eb  00                DCB      0
                  |L9.5868|
0016ec  e58585e6          DCB      229,133,133,230,148,190,231,148,181,0
0016f0  94bee794
0016f4  b500    
0016f6  00                DCB      0
0016f7  00                DCB      0
                  |L9.5880|
0016f8  4611              MOV      r1,r2                 ;659
0016fa  4628              MOV      r0,r5                 ;659
0016fc  f7fffffe          BL       BUTTON_SetTextColor
001700  4956              LDR      r1,|L9.6236|
001702  4628              MOV      r0,r5                 ;660
001704  f7fffffe          BL       BUTTON_SetFont
001708  f7fffffe          BL       GUI_UC_SetEncodeUTF8
00170c  a154              ADR      r1,|L9.6240|
00170e  4628              MOV      r0,r5                 ;662
001710  f7fffffe          BL       BUTTON_SetText
001714  e46e              B        |L9.4084|
                  |L9.5910|
001716  6860              LDR      r0,[r4,#4]            ;722
001718  f7fffffe          BL       WM_GetDialogItem
00171c  9002              STR      r0,[sp,#8]            ;722
00171e  2100              MOVS     r1,#0                 ;723
001720  9802              LDR      r0,[sp,#8]            ;723
001722  f7fffffe          BL       TEXT_SetTextColor
001726  4629              MOV      r1,r5                 ;724
001728  9802              LDR      r0,[sp,#8]            ;724
00172a  f7fffffe          BL       TEXT_SetBkColor
00172e  494e              LDR      r1,|L9.6248|
001730  9802              LDR      r0,[sp,#8]            ;725
001732  f7fffffe          BL       TEXT_SetFont
001736  f7fffffe          BL       GUI_UC_SetEncodeUTF8
00173a  a14c              ADR      r1,|L9.6252|
00173c  9802              LDR      r0,[sp,#8]            ;727
00173e  f7fffffe          BL       TEXT_SetText
001742  4639              MOV      r1,r7                 ;729
001744  6860              LDR      r0,[r4,#4]            ;729
001746  f7fffffe          BL       WM_GetDialogItem
00174a  4605              MOV      r5,r0                 ;729
00174c  4649              MOV      r1,r9                 ;730
00174e  4628              MOV      r0,r5                 ;730
001750  f7fffffe          BL       TEXT_SetTextColor
001754  4944              LDR      r1,|L9.6248|
001756  4628              MOV      r0,r5                 ;731
001758  f7fffffe          BL       TEXT_SetFont
00175c  f7fffffe          BL       GUI_UC_SetEncodeUTF8
001760  a146              ADR      r1,|L9.6268|
001762  4628              MOV      r0,r5                 ;733
001764  f7fffffe          BL       TEXT_SetText
001768  4651              MOV      r1,r10                ;735
00176a  6860              LDR      r0,[r4,#4]            ;735
00176c  f7fffffe          BL       WM_GetDialogItem
001770  4605              MOV      r5,r0                 ;735
001772  4649              MOV      r1,r9                 ;736
001774  4628              MOV      r0,r5                 ;736
001776  f7fffffe          BL       TEXT_SetTextColor
00177a  493b              LDR      r1,|L9.6248|
00177c  4628              MOV      r0,r5                 ;737
00177e  f7fffffe          BL       TEXT_SetFont
001782  f7fffffe          BL       GUI_UC_SetEncodeUTF8
001786  a141              ADR      r1,|L9.6284|
001788  4628              MOV      r0,r5                 ;739
00178a  f7fffffe          BL       TEXT_SetText
00178e  4659              MOV      r1,r11                ;741
001790  6860              LDR      r0,[r4,#4]            ;741
001792  f7fffffe          BL       WM_GetDialogItem
001796  4605              MOV      r5,r0                 ;741
001798  4649              MOV      r1,r9                 ;742
00179a  4628              MOV      r0,r5                 ;742
00179c  f7fffffe          BL       TEXT_SetTextColor
0017a0  4931              LDR      r1,|L9.6248|
0017a2  4628              MOV      r0,r5                 ;743
0017a4  f7fffffe          BL       TEXT_SetFont
0017a8  f7fffffe          BL       GUI_UC_SetEncodeUTF8
0017ac  a13b              ADR      r1,|L9.6300|
0017ae  4628              MOV      r0,r5                 ;745
0017b0  f7fffffe          BL       TEXT_SetText
0017b4  f6400171          MOV      r1,#0x871             ;747
0017b8  6860              LDR      r0,[r4,#4]            ;747
0017ba  f7fffffe          BL       WM_GetDialogItem
0017be  4605              MOV      r5,r0                 ;747
0017c0  4649              MOV      r1,r9                 ;748
0017c2  4628              MOV      r0,r5                 ;748
0017c4  f7fffffe          BL       TEXT_SetTextColor
0017c8  4927              LDR      r1,|L9.6248|
0017ca  4628              MOV      r0,r5                 ;749
0017cc  f7fffffe          BL       TEXT_SetFont
0017d0  f7fffffe          BL       GUI_UC_SetEncodeUTF8
0017d4  a135              ADR      r1,|L9.6316|
0017d6  4628              MOV      r0,r5                 ;751
0017d8  f7fffffe          BL       TEXT_SetText
0017dc  f6400179          MOV      r1,#0x879             ;753
0017e0  6860              LDR      r0,[r4,#4]            ;753
0017e2  f7fffffe          BL       WM_GetDialogItem
0017e6  4605              MOV      r5,r0                 ;753
0017e8  4649              MOV      r1,r9                 ;754
0017ea  4628              MOV      r0,r5                 ;754
0017ec  f7fffffe          BL       TEXT_SetTextColor
0017f0  491d              LDR      r1,|L9.6248|
0017f2  4628              MOV      r0,r5                 ;755
0017f4  f7fffffe          BL       TEXT_SetFont
0017f8  f7fffffe          BL       GUI_UC_SetEncodeUTF8
0017fc  a12f              ADR      r1,|L9.6332|
0017fe  4628              MOV      r0,r5                 ;757
001800  f7fffffe          BL       TEXT_SetText
001804  f6400172          MOV      r1,#0x872             ;765
001808  6860              LDR      r0,[r4,#4]            ;765
00180a  f7fffffe          BL       WM_GetDialogItem
00180e  4605              MOV      r5,r0                 ;765
001810  4649              MOV      r1,r9                 ;766
001812  4628              MOV      r0,r5                 ;766
001814  f7fffffe          BL       TEXT_SetTextColor
001818  4913              LDR      r1,|L9.6248|
00181a  4628              MOV      r0,r5                 ;767
00181c  f7fffffe          BL       TEXT_SetFont
001820  f7fffffe          BL       GUI_UC_SetEncodeUTF8
001824  a129              ADR      r1,|L9.6348|
001826  4628              MOV      r0,r5                 ;769
001828  f7fffffe          BL       TEXT_SetText
00182c  e4cb              B        |L9.4550|
                  |L9.6190|
00182e  490b              LDR      r1,|L9.6236|
001830  4628              MOV      r0,r5                 ;904
001832  f7fffffe          BL       TEXT_SetFont
001836  f7fffffe          BL       GUI_UC_SetEncodeUTF8
00183a  a128              ADR      r1,|L9.6364|
00183c  4628              MOV      r0,r5                 ;906
00183e  f7fffffe          BL       TEXT_SetText
001842  e65c              B        |L9.5374|
                  |L9.6212|
001844  4905              LDR      r1,|L9.6236|
001846  4620              MOV      r0,r4                 ;941
001848  f7fffffe          BL       TEXT_SetFont
00184c  f7fffffe          BL       GUI_UC_SetEncodeUTF8
001850  a124              ADR      r1,|L9.6372|
001852  4620              MOV      r0,r4                 ;943
001854  f7fffffe          BL       TEXT_SetText
001858  e6bd              B        |L9.5590|
;;;961    
                          ENDP

00185a  0000              DCW      0x0000
                  |L9.6236|
                          DCD      GUI_FontHZ16
                  |L9.6240|
001860  e69bb2e7          DCB      230,155,178,231,186,191,0
001864  babf00  
001867  00                DCB      0
                  |L9.6248|
                          DCD      GUI_Fontset_font
                  |L9.6252|
00186c  e8be93e5          DCB      232,190,147,229,135,186,231,148,181,229,142,139,"1",0
001870  87bae794
001874  b5e58e8b
001878  3100    
00187a  00                DCB      0
00187b  00                DCB      0
                  |L9.6268|
00187c  e99990e5          DCB      233,153,144,229,136,182,231,148,181,230,181,129,"1",0
001880  88b6e794
001884  b5e6b581
001888  3100    
00188a  00                DCB      0
00188b  00                DCB      0
                  |L9.6284|
00188c  e688aae6          DCB      230,136,170,230,173,162,231,148,181,229,142,139,"1",0
001890  ada2e794
001894  b5e58e8b
001898  3100    
00189a  00                DCB      0
00189b  00                DCB      0
                  |L9.6300|
00189c  e688aae6          DCB      230,136,170,230,173,162,231,148,181,230,181,129,"1",0
0018a0  ada2e794
0018a4  b5e6b581
0018a8  3100    
0018aa  00                DCB      0
0018ab  00                DCB      0
                  |L9.6316|
0018ac  e8b49fe8          DCB      232,180,159,232,189,189,231,148,181,230,181,129,0
0018b0  bdbde794
0018b4  b5e6b581
0018b8  00      
0018b9  00                DCB      0
0018ba  00                DCB      0
0018bb  00                DCB      0
                  |L9.6332|
0018bc  e688aae6          DCB      230,136,170,230,173,162,231,148,181,229,142,139,0
0018c0  ada2e794
0018c4  b5e58e8b
0018c8  00      
0018c9  00                DCB      0
0018ca  00                DCB      0
0018cb  00                DCB      0
                  |L9.6348|
0018cc  e5beaae7          DCB      229,190,170,231,142,175,230,172,161,230,149,176,0
0018d0  8eafe6ac
0018d4  a1e695b0
0018d8  00      
0018d9  00                DCB      0
0018da  00                DCB      0
0018db  00                DCB      0
                  |L9.6364|
0018dc  e58585e7          DCB      229,133,133,231,148,181,0
0018e0  94b500  
0018e3  00                DCB      0
                  |L9.6372|
0018e4  e694bee7          DCB      230,148,190,231,148,181,0
0018e8  94b500  
0018eb  00                DCB      0

                          AREA ||i.count_num||, CODE, READONLY, ALIGN=1

                  count_num PROC
;;;2683   
;;;2684   int count_num(int data)
000000  2100              MOVS     r1,#0
;;;2685   {
;;;2686       int count = 0;
;;;2687       while(data != 0){
;;;2688           data/=10;
000002  220a              MOVS     r2,#0xa
;;;2689           count++;
000004  e002              B        |L10.12|
                  |L10.6|
000006  fb90f0f2          SDIV     r0,r0,r2              ;2688
00000a  1c49              ADDS     r1,r1,#1
                  |L10.12|
00000c  2800              CMP      r0,#0                 ;2687
00000e  d1fa              BNE      |L10.6|
;;;2690       }
;;;2691       return count;
000010  4608              MOV      r0,r1
;;;2692   }
000012  4770              BX       lr
;;;2693   
                          ENDP


                          AREA ||.bss||, DATA, NOINIT, ALIGN=2

                  coff
                          %        24

                          AREA ||.constdata||, DATA, READONLY, ALIGN=2

                  _aDialogCreate4
                          DCD      WINDOW_CreateIndirect
                          DCD      ||.conststring||
000008  082a0000          DCW      0x082a,0x0000
00000c  000001e0          DCW      0x0000,0x01e0
000010  01100000          DCW      0x0110,0x0000
                          DCD      0x00000000
                          DCD      0x00000000
                          DCD      BUTTON_CreateIndirect
                          DCD      ||.conststring||+0x2
000024  082c0053          DCW      0x082c,0x0053
000028  00e2004d          DCW      0x00e2,0x004d
00002c  002d0000          DCW      0x002d,0x0000
                          DCD      0x00000000
                          DCD      0x00000000
                          DCD      BUTTON_CreateIndirect
                          DCD      ||.conststring||+0x2
000040  082d00a3          DCW      0x082d,0x00a3
000044  00e2004d          DCW      0x00e2,0x004d
000048  002d0000          DCW      0x002d,0x0000
                          DCD      0x00000000
                          DCD      0x00000000
                          DCD      BUTTON_CreateIndirect
                          DCD      ||.conststring||+0x2
00005c  082e00f3          DCW      0x082e,0x00f3
000060  00e2004d          DCW      0x00e2,0x004d
000064  002d0000          DCW      0x002d,0x0000
                          DCD      0x00000000
                          DCD      0x00000000
                          DCD      BUTTON_CreateIndirect
                          DCD      ||.conststring||+0x2
000078  082f0143          DCW      0x082f,0x0143
00007c  00e2004d          DCW      0x00e2,0x004d
000080  002d0000          DCW      0x002d,0x0000
                          DCD      0x00000000
                          DCD      0x00000000
                          DCD      BUTTON_CreateIndirect
                          DCD      ||.conststring||+0x2
000094  08300193          DCW      0x0830,0x0193
000098  00e2004d          DCW      0x00e2,0x004d
00009c  002d0000          DCW      0x002d,0x0000
                          DCD      0x00000000
                          DCD      0x00000000
                          DCD      TEXT_CreateIndirect
                          DCD      ||.conststring||+0x9
0000b0  0831001c          DCW      0x0831,0x001c
0000b4  00320040          DCW      0x0032,0x0040
0000b8  00200000          DCW      0x0020,0x0000
                          DCD      0x00000064
                          DCD      0x00000000
                          DCD      TEXT_CreateIndirect
                          DCD      ||.conststring||+0x9
0000cc  0832001c          DCW      0x0832,0x001c
0000d0  00780040          DCW      0x0078,0x0040
0000d4  00200000          DCW      0x0020,0x0000
                          DCD      0x00000064
                          DCD      0x00000000
                          DCD      TEXT_CreateIndirect
                          DCD      ||.conststring||+0x9
0000e8  083300d9          DCW      0x0833,0x00d9
0000ec  00320020          DCW      0x0032,0x0020
0000f0  001e0000          DCW      0x001e,0x0000
                          DCD      0x00000000
                          DCD      0x00000000
                          DCD      TEXT_CreateIndirect
                          DCD      ||.conststring||+0x9
000104  083400d9          DCW      0x0834,0x00d9
000108  00790020          DCW      0x0079,0x0020
00010c  001e0000          DCW      0x001e,0x0000
                          DCD      0x00000000
                          DCD      0x00000000
                          DCD      TEXT_CreateIndirect
                          DCD      ||.conststring||+0x9
000120  086f0140          DCW      0x086f,0x0140
000124  001e005a          DCW      0x001e,0x005a
000128  00140000          DCW      0x0014,0x0000
                          DCD      0x00000000
                          DCD      0x00000000
                          DCD      TEXT_CreateIndirect
                          DCD      ||.conststring||+0x9
00013c  08700140          DCW      0x0870,0x0140
000140  0037005a          DCW      0x0037,0x005a
000144  00140000          DCW      0x0014,0x0000
                          DCD      0x00000000
                          DCD      0x00000000
                          DCD      TEXT_CreateIndirect
                          DCD      ||.conststring||+0x9
000158  08770140          DCW      0x0877,0x0140
00015c  0050005a          DCW      0x0050,0x005a
000160  00140000          DCW      0x0014,0x0000
                          DCD      0x00000000
                          DCD      0x00000000
                          DCD      TEXT_CreateIndirect
                          DCD      ||.conststring||+0x9
000174  08780140          DCW      0x0878,0x0140
000178  0069005a          DCW      0x0069,0x005a
00017c  00140000          DCW      0x0014,0x0000
                          DCD      0x00000000
                          DCD      0x00000000
                          DCD      TEXT_CreateIndirect
                          DCD      ||.conststring||+0x9
000190  08710140          DCW      0x0871,0x0140
000194  008e0050          DCW      0x008e,0x0050
000198  00140000          DCW      0x0014,0x0000
                          DCD      0x00000000
                          DCD      0x00000000
                          DCD      TEXT_CreateIndirect
                          DCD      ||.conststring||+0x9
0001ac  08790140          DCW      0x0879,0x0140
0001b0  00a70050          DCW      0x00a7,0x0050
0001b4  00140000          DCW      0x0014,0x0000
                          DCD      0x00000000
                          DCD      0x00000000
                          DCD      TEXT_CreateIndirect
                          DCD      ||.conststring||+0x9
0001c8  08720140          DCW      0x0872,0x0140
0001cc  00cd005f          DCW      0x00cd,0x005f
0001d0  00140000          DCW      0x0014,0x0000
                          DCD      0x00000000
                          DCD      0x00000000
                          DCD      TEXT_CreateIndirect
                          DCD      ||.conststring||+0x9
0001e4  087301a9          DCW      0x0873,0x01a9
0001e8  001e0035          DCW      0x001e,0x0035
0001ec  00140000          DCW      0x0014,0x0000
                          DCD      0x00000000
                          DCD      0x00000000
                          DCD      TEXT_CreateIndirect
                          DCD      ||.conststring||+0x9
000200  087401a9          DCW      0x0874,0x01a9
000204  00370035          DCW      0x0037,0x0035
000208  00140000          DCW      0x0014,0x0000
                          DCD      0x00000000
                          DCD      0x00000000
                          DCD      TEXT_CreateIndirect
                          DCD      ||.conststring||+0x9
00021c  087501a9          DCW      0x0875,0x01a9
000220  008e0035          DCW      0x008e,0x0035
000224  00140000          DCW      0x0014,0x0000
                          DCD      0x00000000
                          DCD      0x00000000
                          DCD      TEXT_CreateIndirect
                          DCD      ||.conststring||+0x9
000238  087601a9          DCW      0x0876,0x01a9
00023c  00cd001a          DCW      0x00cd,0x001a
000240  00140000          DCW      0x0014,0x0000
                          DCD      0x00000000
                          DCD      0x00000000
                          DCD      TEXT_CreateIndirect
                          DCD      ||.conststring||+0x9
000254  087b01a9          DCW      0x087b,0x01a9
000258  00500035          DCW      0x0050,0x0035
00025c  00140000          DCW      0x0014,0x0000
                          DCD      0x00000000
                          DCD      0x00000000
                          DCD      TEXT_CreateIndirect
                          DCD      ||.conststring||+0x9
000270  087c01a9          DCW      0x087c,0x01a9
000274  00690035          DCW      0x0069,0x0035
000278  00140000          DCW      0x0014,0x0000
                          DCD      0x00000000
                          DCD      0x00000000
                          DCD      TEXT_CreateIndirect
                          DCD      ||.conststring||+0x9
00028c  087d01a9          DCW      0x087d,0x01a9
000290  00a70035          DCW      0x00a7,0x0035
000294  00140000          DCW      0x0014,0x0000
                          DCD      0x00000000
                          DCD      0x00000000
                          DCD      TEXT_CreateIndirect
                          DCD      ||.conststring||+0x9
0002a8  087f005f          DCW      0x087f,0x005f
0002ac  00300096          DCW      0x0030,0x0096
0002b0  00280000          DCW      0x0028,0x0000
                          DCD      0x00000000
                          DCD      0x00000000
                          DCD      TEXT_CreateIndirect
                          DCD      ||.conststring||+0x9
0002c4  0880005f          DCW      0x0880,0x005f
0002c8  00740096          DCW      0x0074,0x0096
0002cc  00280000          DCW      0x0028,0x0000
                          DCD      0x00000000
                          DCD      0x00000000
                          DCD      TEXT_CreateIndirect
                          DCD      ||.conststring||+0x9
0002e0  0881005f          DCW      0x0881,0x005f
0002e4  00b80096          DCW      0x00b8,0x0096
0002e8  00280000          DCW      0x0028,0x0000
                          DCD      0x00000000
                          DCD      0x00000000
                          DCD      TEXT_CreateIndirect
                          DCD      ||.conststring||+0x9
0002fc  0882010e          DCW      0x0882,0x010e
000300  00200021          DCW      0x0020,0x0021
000304  00140000          DCW      0x0014,0x0000
                          DCD      0x00000000
                          DCD      0x00000000
                          DCD      TEXT_CreateIndirect
                          DCD      ||.conststring||+0x9
000318  0b0e0104          DCW      0x0b0e,0x0104
00031c  00380032          DCW      0x0038,0x0032
000320  00140000          DCW      0x0014,0x0000
                          DCD      0x00000000
                          DCD      0x00000000
                          DCD      TEXT_CreateIndirect
                          DCD      ||.conststring||+0x9
000334  0883010e          DCW      0x0883,0x010e
000338  008e0021          DCW      0x008e,0x0021
00033c  00140000          DCW      0x0014,0x0000
                          DCD      0x00000000
                          DCD      0x00000000
                          DCD      TEXT_CreateIndirect
                          DCD      ||.conststring||+0x9
000350  08840181          DCW      0x0884,0x0181
000354  00040064          DCW      0x0004,0x0064
000358  00140000          DCW      0x0014,0x0000
                          DCD      0x00000000
                          DCD      0x00000000
                          DCD      TEXT_CreateIndirect
                          DCD      ||.conststring||+0x9
00036c  088500fa          DCW      0x0885,0x00fa
000370  00040021          DCW      0x0004,0x0021
000374  00140000          DCW      0x0014,0x0000
                          DCD      0x00000000
                          DCD      0x00000000
                          DCD      TEXT_CreateIndirect
                          DCD      ||.conststring||+0x9
000388  08860118          DCW      0x0886,0x0118
00038c  00040021          DCW      0x0004,0x0021
000390  00140000          DCW      0x0014,0x0000
                          DCD      0x00000000
                          DCD      0x00000000
                          DCD      TEXT_CreateIndirect
                          DCD      ||.conststring||+0x9
0003a4  08870136          DCW      0x0887,0x0136
0003a8  00040021          DCW      0x0004,0x0021
0003ac  00140000          DCW      0x0014,0x0000
                          DCD      0x00000000
                          DCD      0x00000000
                          DCD      TEXT_CreateIndirect
                          DCD      ||.conststring||+0x9
0003c0  08880113          DCW      0x0888,0x0113
0003c4  0003000a          DCW      0x0003,0x000a
0003c8  00140000          DCW      0x0014,0x0000
                          DCD      0x00000000
                          DCD      0x00000000
                          DCD      TEXT_CreateIndirect
                          DCD      ||.conststring||+0x9
0003dc  08890131          DCW      0x0889,0x0131
0003e0  0003000a          DCW      0x0003,0x000a
0003e4  00140000          DCW      0x0014,0x0000
                          DCD      0x00000000
                          DCD      0x00000000
                          DCD      TEXT_CreateIndirect
                          DCD      ||.conststring||+0x9
0003f8  088a01b8          DCW      0x088a,0x01b8
0003fc  00cb0014          DCW      0x00cb,0x0014
000400  00170000          DCW      0x0017,0x0000
                          DCD      0x00000000
                          DCD      0x00000000
                          DCD      TEXT_CreateIndirect
                          DCD      ||.conststring||+0x9
000414  088b01d1          DCW      0x088b,0x01d1
000418  00cb0014          DCW      0x00cb,0x0014
00041c  00170000          DCW      0x0017,0x0000
                          DCD      0x00000000
                          DCD      0x00000000
                          DCD      TEXT_CreateIndirect
                          DCD      ||.conststring||+0x9
000430  088c01bc          DCW      0x088c,0x01bc
000434  00cd0028          DCW      0x00cd,0x0028
000438  00140000          DCW      0x0014,0x0000
                          DCD      0x00000000
                          DCD      0x00000000

                          AREA ||.conststring||, DATA, READONLY, MERGE=1, STRINGS, ALIGN=0

000000  4700              DCB      "G",0
000002  42757474          DCB      "Button",0
000006  6f6e00  
000009  54657874          DCB      "Text",0
00000d  00      

                          AREA ||.data||, DATA, ALIGN=2

                  set_loop_count
000000  01                DCB      0x01
                  second
000001  00                DCB      0x00
                  minute
000002  00                DCB      0x00
                  hour
000003  00                DCB      0x00
                  cutoff_flag
000004  00                DCB      0x00
                  cdc_sw
000005  00                DCB      0x00
                  c_sum
000006  00                DCB      0x00
                  count
000007  01                DCB      0x01
                  status_flash
000008  00                DCB      0x00
                  pause_flag
000009  00                DCB      0x00
                  paused
00000a  00                DCB      0x00
                  pow_step
00000b  00                DCB      0x00
                  cur_step
00000c  00                DCB      0x00
                  coffv_step
00000d  00                DCB      0x00
                  coffc_step
00000e  00                DCB      0x00
                  charge_step
00000f  00                DCB      0x00
                  cutoff_time
000010  0000              DCB      0x00,0x00
                  pause_time
000012  0000              DCB      0x00,0x00
                  restart_time
000014  00000000          DCB      0x00,0x00,0x00,0x00
                  hWincdc
                          DCD      0x00000000

                          AREA ||area_number.17||, DATA, ALIGN=0

                          EXPORTAS ||area_number.17||, ||.data||
                  c_sw
000000  01                DCB      0x01

                          AREA ||area_number.18||, DATA, ALIGN=0

                          EXPORTAS ||area_number.18||, ||.data||
                  timer_sw
000000  01                DCB      0x01

;*** Start embedded assembler ***

#line 1 "..\\APP\\c_dc.c"
	AREA ||.rev16_text||, CODE, READONLY
	THUMB
	EXPORT |__asm___6_c_dc_c_8be2d497____REV16|
#line 114 "D:\\Keil\\ARM\\CMSIS\\Include\\core_cmInstr.h"
|__asm___6_c_dc_c_8be2d497____REV16| PROC
#line 115

 rev16 r0, r0
 bx lr
	ENDP
	AREA ||.revsh_text||, CODE, READONLY
	THUMB
	EXPORT |__asm___6_c_dc_c_8be2d497____REVSH|
#line 128
|__asm___6_c_dc_c_8be2d497____REVSH| PROC
#line 129

 revsh r0, r0
 bx lr
	ENDP

;*** End   embedded assembler ***
