; generated by ARM C/C++ Compiler, 4.1 [Build 894]
; commandline ArmCC [--list --split_sections --debug -c --asm --interleave -o..\Output\key.o --asm_dir=..\Listing\ --list_dir=..\Listing\ --depend=..\Output\key.d --cpu=Cortex-M4.fp --apcs=interwork -O1 --diag_suppress=870 -I..\APP -I..\drive -I..\Include -I..\Libraries\CMSIS\inc -I..\Libraries\CMSIS\src -I..\Libraries\FWlib\inc -I..\Libraries\FWlib\src -I..\Listing -I..\Output -I..\Project -I..\STemWinLibrary522\Config -I..\STemWinLibrary522\emWinTask -I..\STemWinLibrary522\GUILib -I..\STemWinLibrary522\inc -I..\User -I..\USB\STM32_USB_HOST_Library\Class\HID\inc -I..\USB\STM32_USB_HOST_Library\Class\MSC\src -I..\USB\STM32_USB_HOST_Library\Core\src -I..\USB\USB_APP -I..\USB\STM32_USB_HOST_Library\Class\HID\src -I..\USB\STM32_USB_HOST_Library\Class\MSC\inc -I..\USB\STM32_USB_HOST_Library\Core\inc -I..\USB\STM32_USB_OTG_Driver\inc -I..\FATFS\exfuns -I..\FATFS\src\option -I..\FATFS\src -I..\MALLOC -ID:\Keil\ARM\RV31\Inc -ID:\Keil\ARM\CMSIS\Include -ID:\Keil\ARM\Inc\ST\STM32F4xx -DUSE_STDPERIPH_DRIVER -DSTM32F40XX -DUSE_USB_OTG_FS -DUSE_EMBEDDED_PHY -DUSE_USB_OTG_HS -DSTM32F40XX --omf_browse=..\Output\key.crf ..\drive\key.c]
                          THUMB

                          AREA ||i.Key_Funtion||, CODE, READONLY, ALIGN=2

                  Key_Funtion PROC
;;;186    /************************************************************************************************************************/
;;;187    void Key_Funtion(void)
000000  e92d5ff0          PUSH     {r4-r12,lr}
;;;188    {
;;;189    	vu32 KeyValue = 0;
;;;190    	static vu8 t_KEYON;
;;;191    	static vu8 a,b;
;;;192    /****************************************************短按功能************************************************************/
;;;193    	if(Flag_Key_Scan==1)
000004  48fe              LDR      r0,|L1.1024|
000006  6800              LDR      r0,[r0,#0]  ; flagA
000008  0701              LSLS     r1,r0,#28
00000a  d579              BPL      |L1.256|
;;;194    	{
;;;195    		Flag_Key_Scan = 0;
00000c  49fc              LDR      r1,|L1.1024|
00000e  f0200008          BIC      r0,r0,#8
000012  6008              STR      r0,[r1,#0]  ; flagA
;;;196    		KeyValue = Key_Scan();
000014  f7fffffe          BL       Key_Scan
;;;197    		switch(KeyValue)
000018  3844              SUBS     r0,r0,#0x44
;;;198    		{
;;;199    			case KEY_1 ://
;;;200    			{
;;;201                    switch(page_sw){
;;;202                        case face_menu: 
;;;203                        {
;;;204                            INPUT_POW("1");
;;;205                            KeyCounter = 0;
;;;206                            BEEP_Tiggr();//触发蜂鸣器
;;;207                            break;
;;;208                        }
;;;209                        case face_set:
;;;210                        {
;;;211                             INPUT_NUM("1");
;;;212                             KeyCounter = 0;
;;;213                             BEEP_Tiggr();//触发蜂鸣器
;;;214                             break;
;;;215                        }
;;;216                        case face_r:
;;;217                        {
;;;218                            if(para_set2 == set_2_on)
00001a  49fa              LDR      r1,|L1.1028|
;;;219                            {
;;;220                                INPUT_C("1");
;;;221                                KeyCounter = 0;
;;;222                                BEEP_Tiggr();//触发蜂鸣器
;;;223                                break;
;;;224                            }
;;;225                        }   
;;;226                        case face_load:
;;;227                        {
;;;228                            INPUT_LOAD("1");
;;;229                            KeyCounter = 0;
;;;230                            BEEP_Tiggr();//触发蜂鸣器
;;;231                            break;
;;;232                        }
;;;233                        case face_cdc:
;;;234                        {
;;;235                            INPUT_CDC("1");
;;;236                            KeyCounter = 0;
;;;237                            BEEP_Tiggr();//触发蜂鸣器
;;;238                            break;
;;;239                        }
;;;240                        case face_sys_info:
;;;241                        {
;;;242                            if(admin == 1)
00001c  4afa              LDR      r2,|L1.1032|
;;;243                            {
;;;244                                INPUT_INFO(1);    
;;;245                            }
;;;246                            KeyCounter = 0;
;;;247                            BEEP_Tiggr();//触发蜂鸣器
;;;248                            break;
;;;249                        }  
;;;250                    }
;;;251    			}
;;;252    			break;
;;;253    			
;;;254    			case KEY_2 ://
;;;255    			{
;;;256                     switch(page_sw){
;;;257                        case face_menu:  
;;;258                        {
;;;259                            INPUT_POW("2");
;;;260                            KeyCounter = 0;
;;;261                            BEEP_Tiggr();//触发蜂鸣器 
;;;262                        }
;;;263                        case face_set:
;;;264                        {
;;;265                            INPUT_NUM("2");
;;;266                            KeyCounter = 0;
;;;267                            BEEP_Tiggr();//触发蜂鸣器
;;;268                            break;
;;;269                        }
;;;270                        case face_r:
;;;271                        {
;;;272                            if(para_set2 == set_2_on)
;;;273                            {
;;;274                                INPUT_C("2");
;;;275                                KeyCounter = 0;
;;;276                                BEEP_Tiggr();//触发蜂鸣器
;;;277                                break;
;;;278                            }
;;;279                        }
;;;280                        case face_load:
;;;281                        {
;;;282                            INPUT_LOAD("2");
;;;283                            KeyCounter = 0;
;;;284                            BEEP_Tiggr();//触发蜂鸣器
;;;285                            break;
;;;286                        }
;;;287                        case face_cdc:
;;;288                        {
;;;289                            INPUT_CDC("2");
;;;290                            KeyCounter = 0;
;;;291                            BEEP_Tiggr();//触发蜂鸣器
;;;292                            break;
;;;293                        }
;;;294                        case face_sys_info:
;;;295                        {
;;;296                            if(admin == 1)
;;;297                            {
;;;298                                INPUT_INFO(2);    
;;;299                            }
;;;300                            KeyCounter = 0;
;;;301                            BEEP_Tiggr();//触发蜂鸣器
;;;302                            break;
;;;303                        }
;;;304       
;;;305                    }
;;;306    			}
;;;307    			break;
;;;308    			
;;;309    			case KEY_3 ://
;;;310    			{
;;;311    				switch(page_sw){
;;;312                        case face_menu:  
;;;313                        {
;;;314                            INPUT_POW("3");
;;;315                            KeyCounter = 0;
;;;316                            BEEP_Tiggr();//触发蜂鸣器 
;;;317                        }
;;;318                        case face_set:
;;;319                        {
;;;320                            INPUT_NUM("3");
;;;321                            KeyCounter = 0;
;;;322                            BEEP_Tiggr();//触发蜂鸣器
;;;323                            break;
;;;324                        }
;;;325                        case face_r:
;;;326                        {
;;;327                            if(para_set2 == set_2_on)
;;;328                            {
;;;329                                INPUT_C("3");
;;;330                                KeyCounter = 0;
;;;331                                BEEP_Tiggr();//触发蜂鸣器
;;;332                                break;
;;;333                            }
;;;334                        }
;;;335                        case face_load:
;;;336                        {
;;;337                            INPUT_LOAD("3");
;;;338                            KeyCounter = 0;
;;;339                            BEEP_Tiggr();//触发蜂鸣器
;;;340                            break;
;;;341                        }
;;;342                        case face_cdc:
;;;343                        {
;;;344                            INPUT_CDC("3");
;;;345                            KeyCounter = 0;
;;;346                            BEEP_Tiggr();//触发蜂鸣器
;;;347                            break;
;;;348                        }
;;;349                        case face_sys_info:
;;;350                        {
;;;351                            if(admin == 1)
;;;352                            {
;;;353                                INPUT_INFO(3);    
;;;354                            }else{
;;;355                                pass += 3;
;;;356                            }
;;;357                            KeyCounter = 0;
;;;358                            BEEP_Tiggr();//触发蜂鸣器
;;;359                            break;
;;;360                        }
;;;361                    }
;;;362    			}
;;;363    			break;
;;;364    			
;;;365    			case KEY_4 ://
;;;366    			{
;;;367    				switch(page_sw){
;;;368                        case face_menu:  
;;;369                        {
;;;370                            INPUT_POW("4");
;;;371                            KeyCounter = 0;
;;;372                            BEEP_Tiggr();//触发蜂鸣器 
;;;373                        }
;;;374                        case face_set:
;;;375                        {
;;;376                            INPUT_NUM("4");
;;;377                            KeyCounter = 0;
;;;378                            BEEP_Tiggr();//触发蜂鸣器
;;;379                            break;
;;;380                        }
;;;381                        case face_r:
;;;382                        {
;;;383                            if(para_set2 == set_2_on)
;;;384                            {
;;;385                                INPUT_C("4");
;;;386                                KeyCounter = 0;
;;;387                                BEEP_Tiggr();//触发蜂鸣器
;;;388                                break;
;;;389                            }
;;;390                        }
;;;391                        case face_load:
;;;392                        {
;;;393                            INPUT_LOAD("4");
;;;394                            KeyCounter = 0;
;;;395                            BEEP_Tiggr();//触发蜂鸣器
;;;396                            break;
;;;397                        }
;;;398                        case face_cdc:
;;;399                        {
;;;400                            INPUT_CDC("4");
;;;401                            KeyCounter = 0;
;;;402                            BEEP_Tiggr();//触发蜂鸣器
;;;403                            break;
;;;404                        }
;;;405                        case face_sys_info:
;;;406                        {
;;;407                            if(admin == 1)
;;;408                            {
;;;409                                INPUT_INFO(4);    
;;;410                            }
;;;411                            KeyCounter = 0;
;;;412                            BEEP_Tiggr();//触发蜂鸣器
;;;413                            break;
;;;414                        }
;;;415                    }
;;;416    			}
;;;417    			break;
;;;418    			
;;;419    			case KEY_5 ://
;;;420    			{
;;;421    				switch(page_sw){
;;;422                        case face_menu:  
;;;423                        {
;;;424                            INPUT_POW("5");
;;;425                            KeyCounter = 0;
;;;426                            BEEP_Tiggr();//触发蜂鸣器 
;;;427                        }
;;;428                        case face_set:
;;;429                        {
;;;430                            INPUT_NUM("5");
;;;431                            KeyCounter = 0;
;;;432                            BEEP_Tiggr();//触发蜂鸣器
;;;433                            break;
;;;434                        }
;;;435                        case face_r:
;;;436                        {
;;;437                            if(para_set2 == set_2_on)
;;;438                            {
;;;439                                INPUT_C("5");
;;;440                                KeyCounter = 0;
;;;441                                BEEP_Tiggr();//触发蜂鸣器
;;;442                                break;
;;;443                            }
;;;444                        }
;;;445                        case face_load:
;;;446                        {
;;;447                            INPUT_LOAD("5");
;;;448                            KeyCounter = 0;
;;;449                            BEEP_Tiggr();//触发蜂鸣器
;;;450                            break;
;;;451                        }
;;;452                        case face_cdc:
;;;453                        {
;;;454                            INPUT_CDC("5");
;;;455                            KeyCounter = 0;
;;;456                            BEEP_Tiggr();//触发蜂鸣器
;;;457                            break;
;;;458                        }
;;;459                        case face_sys_info:
;;;460                        {
;;;461                            if(admin == 1)
;;;462                            {
;;;463                                INPUT_INFO(5);    
;;;464                            }else{
;;;465                                pass += 5;
;;;466                            }
;;;467                            KeyCounter = 0;
;;;468                            BEEP_Tiggr();//触发蜂鸣器
;;;469                            break;
;;;470                        }
;;;471                    }
;;;472    			}
;;;473    			break;	
;;;474    			
;;;475    			case KEY_6 ://
;;;476    			{
;;;477    				switch(page_sw){
;;;478                        case face_menu:  
;;;479                        {
;;;480                            INPUT_POW("6");
;;;481                            KeyCounter = 0;
;;;482                            BEEP_Tiggr();//触发蜂鸣器 
;;;483                        }
;;;484                        case face_set:
;;;485                        {
;;;486                            INPUT_NUM("6");
;;;487                            KeyCounter = 0;
;;;488                            BEEP_Tiggr();//触发蜂鸣器
;;;489                            break;
;;;490                        }
;;;491                        case face_r:
;;;492                        {
;;;493                            if(para_set2 == set_2_on)
;;;494                            {
;;;495                                INPUT_C("6");
;;;496                                KeyCounter = 0;
;;;497                                BEEP_Tiggr();//触发蜂鸣器
;;;498                                break;
;;;499                            }
;;;500                        }
;;;501                        case face_load:
;;;502                        {
;;;503                            INPUT_LOAD("6");
;;;504                            KeyCounter = 0;
;;;505                            BEEP_Tiggr();//触发蜂鸣器
;;;506                            break;
;;;507                        }
;;;508                        case face_cdc:
;;;509                        {
;;;510                            INPUT_CDC("6");
;;;511                            KeyCounter = 0;
;;;512                            BEEP_Tiggr();//触发蜂鸣器
;;;513                            break;
;;;514                        } 
;;;515                        case face_sys_info:
;;;516                        {
;;;517                            if(admin == 1)
;;;518                            {
;;;519                                INPUT_INFO(6);    
;;;520                            }
;;;521                            KeyCounter = 0;
;;;522                            BEEP_Tiggr();//触发蜂鸣器
;;;523                            break;
;;;524                        }
;;;525                    }
;;;526    			}
;;;527    			break;
;;;528    			
;;;529    			case KEY_7 ://
;;;530    			{
;;;531    				switch(page_sw){
;;;532                        case face_menu:  
;;;533                        {
;;;534                            INPUT_POW("7");
;;;535                            KeyCounter = 0;
;;;536                            BEEP_Tiggr();//触发蜂鸣器 
;;;537                        }
;;;538                        case face_set:
;;;539                        {
;;;540                            INPUT_NUM("7");
;;;541                            KeyCounter = 0;
;;;542                            BEEP_Tiggr();//触发蜂鸣器
;;;543                            break;
;;;544                        }
;;;545                        case face_r:
;;;546                        {
;;;547                            if(para_set2 == set_2_on)
;;;548                            {
;;;549                                INPUT_C("7");
;;;550                                KeyCounter = 0;
;;;551                                BEEP_Tiggr();//触发蜂鸣器
;;;552                                break;
;;;553                            }
;;;554                        }
;;;555                        case face_load:
;;;556                        {
;;;557                            INPUT_LOAD("7");
;;;558                            KeyCounter = 0;
;;;559                            BEEP_Tiggr();//触发蜂鸣器
;;;560                            break;
;;;561                        }
;;;562                        case face_cdc:
;;;563                        {
;;;564                            INPUT_CDC("7");
;;;565                            KeyCounter = 0;
;;;566                            BEEP_Tiggr();//触发蜂鸣器
;;;567                            break;
;;;568                        }
;;;569                        case face_sys_info:
;;;570                        {
;;;571                            if(admin == 1)
;;;572                            {
;;;573                                INPUT_INFO(7);    
;;;574                            }
;;;575                            KeyCounter = 0;
;;;576                            BEEP_Tiggr();//触发蜂鸣器
;;;577                            break;
;;;578                        }
;;;579                    }
;;;580    			}
;;;581    			break;
;;;582    			
;;;583    			case KEY_8 ://
;;;584    			{
;;;585    				switch(page_sw){
;;;586                        case face_menu:  
;;;587                        {
;;;588                            INPUT_POW("8");
;;;589                            KeyCounter = 0;
;;;590                            BEEP_Tiggr();//触发蜂鸣器 
;;;591                        }
;;;592                        case face_set:
;;;593                        {
;;;594                            INPUT_NUM("8");
;;;595                            KeyCounter = 0;
;;;596                            BEEP_Tiggr();//触发蜂鸣器
;;;597                            break;
;;;598                        }
;;;599                        case face_r:
;;;600                        {
;;;601                            if(para_set2 == set_2_on)
;;;602                            {
;;;603                                INPUT_C("8");
;;;604                                KeyCounter = 0;
;;;605                                BEEP_Tiggr();//触发蜂鸣器
;;;606                                break;
;;;607                            }
;;;608                        }
;;;609                        case face_load:
;;;610                        {
;;;611                            INPUT_LOAD("8");
;;;612                            KeyCounter = 0;
;;;613                            BEEP_Tiggr();//触发蜂鸣器
;;;614                            break;
;;;615                        }
;;;616                        case face_cdc:
;;;617                        {
;;;618                            INPUT_CDC("8");
;;;619                            KeyCounter = 0;
;;;620                            BEEP_Tiggr();//触发蜂鸣器
;;;621                            break;
;;;622                        }
;;;623                        case face_sys_info:
;;;624                        {
;;;625                            if(admin == 1)
;;;626                            {
;;;627                                INPUT_INFO(8);    
;;;628                            }
;;;629                            KeyCounter = 0;
;;;630                            BEEP_Tiggr();//触发蜂鸣器
;;;631                            break;
;;;632                        }
;;;633                    }
;;;634    			}
;;;635    			break;
;;;636    			
;;;637    			case KEY_9 ://
;;;638    			{
;;;639    				switch(page_sw){
;;;640                        case face_menu:  
;;;641                        {
;;;642                            INPUT_POW("9");
;;;643                            KeyCounter = 0;
;;;644                            BEEP_Tiggr();//触发蜂鸣器 
;;;645                        }
;;;646                        case face_set:
;;;647                        {
;;;648                            INPUT_NUM("9");
;;;649                            KeyCounter = 0;
;;;650                            BEEP_Tiggr();//触发蜂鸣器
;;;651                            break;
;;;652                        }
;;;653                        case face_r:
;;;654                        {
;;;655                            if(para_set2 == set_2_on)
;;;656                            {
;;;657                                INPUT_C("9");
;;;658                                KeyCounter = 0;
;;;659                                BEEP_Tiggr();//触发蜂鸣器
;;;660                                break;
;;;661                            }
;;;662                        }
;;;663                        case face_load:
;;;664                        {
;;;665                            INPUT_LOAD("9");
;;;666                            KeyCounter = 0;
;;;667                            BEEP_Tiggr();//触发蜂鸣器
;;;668                            break;
;;;669                        }
;;;670                        case face_cdc:
;;;671                        {
;;;672                            INPUT_CDC("9");
;;;673                            KeyCounter = 0;
;;;674                            BEEP_Tiggr();//触发蜂鸣器
;;;675                            break;
;;;676                        }
;;;677                        case face_sys_info:
;;;678                        {
;;;679                            if(admin == 1)
;;;680                            {
;;;681                                INPUT_INFO(9);    
;;;682                            }
;;;683                            KeyCounter = 0;
;;;684                            BEEP_Tiggr();//触发蜂鸣器
;;;685                            break;
;;;686                        }
;;;687                    }
;;;688    			}
;;;689    			break;
;;;690    			
;;;691    			case KEY_0 ://
;;;692    			{
;;;693    				switch(page_sw){
;;;694                        case face_menu:  
;;;695                        {
;;;696                            INPUT_POW("0");
;;;697                            KeyCounter = 0;
;;;698                            BEEP_Tiggr();//触发蜂鸣器 
;;;699                        }
;;;700                        case face_set:
;;;701                        {
;;;702                            INPUT_NUM("0");
;;;703                            KeyCounter = 0;
;;;704                            BEEP_Tiggr();//触发蜂鸣器
;;;705                            break;
;;;706                        }
;;;707                        case face_r:
;;;708                        {
;;;709                            if(para_set2 == set_2_on)
;;;710                            {
;;;711                                INPUT_C("0");
;;;712                                KeyCounter = 0;
;;;713                                BEEP_Tiggr();//触发蜂鸣器
;;;714                                break;
;;;715                            }
;;;716                        }
;;;717                        case face_load:
;;;718                        {
;;;719                            INPUT_LOAD("0");
;;;720                            KeyCounter = 0;
;;;721                            BEEP_Tiggr();//触发蜂鸣器
;;;722                            break;
;;;723                        }
;;;724                        case face_cdc:
;;;725                        {
;;;726                            INPUT_CDC("0");
;;;727                            KeyCounter = 0;
;;;728                            BEEP_Tiggr();//触发蜂鸣器
;;;729                            break;
;;;730                        }
;;;731                        case face_sys_info:
;;;732                        {
;;;733                            if(admin == 1)
;;;734                            {
;;;735                                INPUT_INFO(0);    
;;;736                            }else{
;;;737                                pass += 1;
;;;738                            }
;;;739                            KeyCounter = 0;
;;;740                            BEEP_Tiggr();//触发蜂鸣器
;;;741                            break;
;;;742                        }                    
;;;743                    }
;;;744    			}
;;;745    			break;
;;;746    			
;;;747    			case KEY_dian ://
;;;748    			{
;;;749                    switch(page_sw){
;;;750                        case face_menu:
;;;751                        {
;;;752                            INPUT_POW(".");
;;;753                            KeyCounter = 0;
;;;754                            BEEP_Tiggr();//触发蜂鸣器
;;;755                            break;
;;;756                        }
;;;757                        case face_set:
;;;758                        {
;;;759                            INPUT_NUM(".");
;;;760                            KeyCounter = 0;
;;;761                            BEEP_Tiggr();//触发蜂鸣器
;;;762                            break;
;;;763                        }
;;;764                        case face_load:
;;;765                        {
;;;766                            INPUT_LOAD(".");
;;;767                            KeyCounter = 0;
;;;768                            BEEP_Tiggr();//触发蜂鸣器
;;;769                            break;
;;;770                        }
;;;771                        case face_r:
;;;772                        {
;;;773                            if(para_set2 == set_2_on)
;;;774                            {
;;;775                                INPUT_C(".");
;;;776                                KeyCounter = 0;
;;;777                                BEEP_Tiggr();//触发蜂鸣器
;;;778                                break;
;;;779                            }
;;;780                        }
;;;781                        case face_cdc:
;;;782                        {
;;;783                            INPUT_CDC(".");
;;;784                            KeyCounter = 0;
;;;785                            BEEP_Tiggr();//触发蜂鸣器
;;;786                            break;
;;;787                        }                     
;;;788                    }
;;;789    			}
;;;790    			break;
;;;791    			
;;;792    			case KEY_ESC :
;;;793    			{
;;;794                    LCD_Initializtion();
;;;795                    GUI_Clear();//清屏
;;;796    //                timer_sw = 0;
;;;797    				KeyCounter = 0;
;;;798    //				BEEP_Tiggr();//触发蜂鸣器
;;;799    			}
;;;800    			break;
;;;801    			
;;;802    			case PUSH_Lift :
;;;803    			{
;;;804                    switch(page_sw){
;;;805                        case face_set:  //系统设置
;;;806                        {
;;;807                            SET_OP_LEFT();  //设置选项切换
;;;808                            KeyCounter = 0;
;;;809                            BEEP_Tiggr();//触发蜂鸣器
;;;810                            break;
;;;811                        }
;;;812                        case face_sys_info:
;;;813                        {
;;;814                            if(admin == 1)
;;;815                            {
;;;816                                SYS_INFO_LEFT();  //设置选项切换
;;;817                            } 
;;;818                            KeyCounter = 0;
;;;819                            BEEP_Tiggr();//触发蜂鸣器
;;;820                            break;
;;;821                        }
;;;822                        case face_cdc:  //系统设置
;;;823                        {
;;;824                            CDC_OP_LEFT();  //设置选项切换
;;;825                            KeyCounter = 0;
;;;826                            BEEP_Tiggr();//触发蜂鸣噿
;;;827                            break;
;;;828                        }
;;;829                    }
;;;830    			}
;;;831    			break;
;;;832    			case PUSH_Right :
;;;833    			{
;;;834                    switch(page_sw){
;;;835                        case face_set:  //系统设置
;;;836                        {
;;;837                            SET_OP_RIGHT();  //设置选项切换
;;;838                            KeyCounter = 0;
;;;839                            BEEP_Tiggr();//触发蜂鸣器
;;;840                            break;
;;;841                        }
;;;842                        case face_sys_info:
;;;843                        {
;;;844                            if(admin == 1)
;;;845                            {
;;;846                                SYS_INFO_RIGHT();  //设置选项切换
;;;847                            } 
;;;848                            KeyCounter = 0;
;;;849                            BEEP_Tiggr();//触发蜂鸣器
;;;850                            break;
;;;851                        }
;;;852                        case face_cdc:  //系统设置
;;;853                        {
;;;854                            CDC_OP_RIGHT();  //设置选项切换
;;;855                            KeyCounter = 0;
;;;856                            BEEP_Tiggr();//触发蜂鸣噿
;;;857                            break;
;;;858                        }
;;;859                    }
;;;860    			}
;;;861    			break;
;;;862    			case PUSH_Up :
;;;863    			{
;;;864                    switch(page_sw){
;;;865                        case face_menu:
;;;866                        {
;;;867                            KeyCounter = 0;
;;;868                            BEEP_Tiggr();//触发蜂鸣器
;;;869                            MENU_OP_UP();
;;;870                            break;
;;;871                        }                    
;;;872                        case face_load:
;;;873                        {
;;;874                            KeyCounter = 0;
;;;875                            BEEP_Tiggr();//触发蜂鸣器
;;;876                            SET_Current_Laod=SET_Current_Laod+1;
;;;877                            break;
;;;878                        }
;;;879                        case face_set:
;;;880                        {
;;;881                            SET_OP_UP();  //设置选项切换
;;;882                            KeyCounter = 0;
;;;883                            BEEP_Tiggr();//触发蜂鸣器
;;;884                            break;
;;;885                        }
;;;886                        case face_r:
;;;887                        {
;;;888                            if(para_set2 == set_2_on)
;;;889                            {
;;;890                                OC_OP_UP();
;;;891                                KeyCounter = 0;
;;;892                                BEEP_Tiggr();//触发蜂鸣器
;;;893                                break;
;;;894                            }
;;;895    
;;;896                        }
;;;897                        case face_cdc:
;;;898                        {
;;;899                            CDC_OP_UP();
;;;900                            KeyCounter = 0;
;;;901                            BEEP_Tiggr();//触发蜂鸣器
;;;902                            break;
;;;903                        }
;;;904                        case face_sys_info:
;;;905                        {
;;;906                            if(admin == 1)
;;;907                            {
;;;908                                SYS_INFO_UP();  //设置选项切换
;;;909                            }                        
;;;910                            KeyCounter = 0;
;;;911                            BEEP_Tiggr();//触发蜂鸣器
;;;912                            break;
;;;913                        }
;;;914    
;;;915                    }
;;;916    			}
;;;917    			break;
;;;918    			case PUSH_Down :
;;;919    			{
;;;920                    switch(page_sw){
;;;921                        case face_menu:
;;;922                        {
;;;923                            KeyCounter = 0;
;;;924                            BEEP_Tiggr();//触发蜂鸣器
;;;925                            MENU_OP_DOWN();
;;;926                            break;
;;;927                        }  
;;;928                        case face_load:
;;;929                        {
;;;930                           	KeyCounter = 0;
;;;931                            BEEP_Tiggr();//触发蜂鸣器
;;;932                            SET_Current_Laod=SET_Current_Laod-1;
;;;933                            break;
;;;934                        }
;;;935                        case face_set:  //系统设置
;;;936                        {
;;;937                            SET_OP_DOWN();  //设置选项切换
;;;938                            KeyCounter = 0;
;;;939                            BEEP_Tiggr();//触发蜂鸣器
;;;940                            break;
;;;941                        }
;;;942                        case face_r:
;;;943                        {
;;;944                            if(para_set2 == set_2_on)
;;;945                            {
;;;946                                OC_OP_DOWN();
;;;947                                KeyCounter = 0;
;;;948                                BEEP_Tiggr();//触发蜂鸣器
;;;949                                break;
;;;950                            }
;;;951                        }
;;;952                        case face_cdc:
;;;953                        {
;;;954                            CDC_OP_DOWN();
;;;955                            KeyCounter = 0;
;;;956                            BEEP_Tiggr();//触发蜂鸣器
;;;957                            break;
;;;958                        }
;;;959                        case face_sys_info:
;;;960                        {
;;;961                            if(admin == 1)
;;;962                            {
;;;963                                SYS_INFO_DOWN();  //设置选项切换
;;;964                            } 
;;;965                            KeyCounter = 0;
;;;966                            BEEP_Tiggr();//触发蜂鸣器
;;;967                            break;
;;;968                        }
;;;969       
;;;970                    }
;;;971    
;;;972    			}
;;;973    			break;
;;;974    			
;;;975    			case ENTER ://
;;;976    			{
;;;977                    switch(page_sw){
;;;978                        case face_menu:
;;;979                        {
;;;980                            MENU_SET();
;;;981                            KeyCounter = 0;
;;;982                            BEEP_Tiggr();//触发蜂鸣器
;;;983                            break;
;;;984                        }  
;;;985                        case face_set:
;;;986                        {
;;;987                            PARA_SET();  //参数设置
;;;988                            KeyCounter = 0;
;;;989                            BEEP_Tiggr();//触发蜂鸣器
;;;990                            break;                        
;;;991                        }
;;;992                        case face_r:
;;;993                        {
;;;994                            if(para_set2 == set_2_on)
;;;995                            {
;;;996                                OC_SET();
;;;997                                KeyCounter = 0;
;;;998                                BEEP_Tiggr();//触发蜂鸣器
;;;999                                break;
;;;1000                           }
;;;1001                       }
;;;1002                       case face_load:
;;;1003                       {
;;;1004                           LOAD_SET();
;;;1005                           KeyCounter = 0;
;;;1006                           BEEP_Tiggr();//触发蜂鸣器
;;;1007                           break;
;;;1008                       }
;;;1009                       case face_cdc:
;;;1010                       {
;;;1011                           CDC_SET();
;;;1012                           KeyCounter = 0;
;;;1013                           BEEP_Tiggr();//触发蜂鸣器
;;;1014                           break;
;;;1015                       }
;;;1016                       case face_sys_info:
;;;1017                       {
;;;1018                           CFM_PASS();
;;;1019                           KeyCounter = 0;
;;;1020                           BEEP_Tiggr();//触发蜂鸣器
;;;1021                           break;
;;;1022                       }
;;;1023                   }
;;;1024   			}
;;;1025   			break;
;;;1026   			case PUSH_DISP :
;;;1027   			{
;;;1028                   switch(track)
;;;1029                   {
;;;1030                       case face_r:
;;;1031                       {
;;;1032                           WM_DeleteWindow(hWinR);
00001e  4bfb              LDR      r3,|L1.1036|
;;;1033                           WM_DeleteWindow(hWinWind);
000020  4efb              LDR      r6,|L1.1040|
;;;1034                           WM_DeleteWindow(hWinG);
000022  4ffc              LDR      r7,|L1.1044|
;;;1035                           WM_DeleteWindow(load_wind);
000024  f8df83f0          LDR      r8,|L1.1048|
;;;1036                           WM_DeleteWindow(hWinsysinfo);
000028  f8df93f0          LDR      r9,|L1.1052|
;;;1037                           WM_DeleteWindow(hWincdc);
00002c  f8dfa3f0          LDR      r10,|L1.1056|
;;;1038                           WM_DeleteWindow(hWinset);                       
000030  f8dfb3f0          LDR      r11,|L1.1060|
;;;1039                           CreateR();
;;;1040                           KeyCounter = 0;
;;;1041                           BEEP_Tiggr();//触发蜂鸣噿
;;;1042                           break;
;;;1043                       }
;;;1044                       case face_load:
;;;1045                       {
;;;1046                           WM_DeleteWindow(hWinR);
;;;1047                           WM_DeleteWindow(hWinWind);
;;;1048                           WM_DeleteWindow(hWinG);
;;;1049                           WM_DeleteWindow(load_wind);
;;;1050                           WM_DeleteWindow(hWinsysinfo);
;;;1051                           WM_DeleteWindow(hWincdc);
;;;1052                           WM_DeleteWindow(hWinset);
;;;1053                           CreateWindow2();
;;;1054                           KeyCounter = 0;
;;;1055                           BEEP_Tiggr();//触发蜂鸣噿
;;;1056                           break;
;;;1057                       }
;;;1058                       case face_menu:
;;;1059                       {
;;;1060                           WM_DeleteWindow(hWinR);
;;;1061                           WM_DeleteWindow(hWinWind);
;;;1062                           WM_DeleteWindow(hWinG);
;;;1063                           WM_DeleteWindow(load_wind);
;;;1064                           WM_DeleteWindow(hWinsysinfo);
;;;1065                           WM_DeleteWindow(hWincdc);
;;;1066                           WM_DeleteWindow(hWinset); 
;;;1067                           CreateWindow();
;;;1068                           KeyCounter = 0;
;;;1069                           BEEP_Tiggr();//触发蜂鸣噿
;;;1070                           break;
;;;1071                       }
;;;1072                       case face_graph:
;;;1073                       {
;;;1074                           WM_DeleteWindow(hWinR);
;;;1075                           WM_DeleteWindow(hWinWind);
;;;1076                           WM_DeleteWindow(hWinG);
;;;1077                           WM_DeleteWindow(load_wind);
;;;1078                           WM_DeleteWindow(hWinsysinfo);
;;;1079                           WM_DeleteWindow(hWincdc);
;;;1080                           WM_DeleteWindow(hWinset); 
;;;1081                           CreateG();
;;;1082                           KeyCounter = 0;
;;;1083                           BEEP_Tiggr();//触发蜂鸣噿
;;;1084                           break;
;;;1085                       }
;;;1086                       case face_cdc:
;;;1087                       {
;;;1088                           WM_DeleteWindow(hWinR);
;;;1089                           WM_DeleteWindow(hWinWind);
;;;1090                           WM_DeleteWindow(hWinG);
;;;1091                           WM_DeleteWindow(load_wind);
;;;1092                           WM_DeleteWindow(hWinsysinfo);
;;;1093                           WM_DeleteWindow(hWincdc);
;;;1094                           WM_DeleteWindow(hWinset);
;;;1095                           CreateCDC();
;;;1096                           KeyCounter = 0;
;;;1097                           BEEP_Tiggr();//触发蜂鸣噿
;;;1098                           break;
;;;1099                       }
;;;1100                   }
;;;1101                      
;;;1102                   
;;;1103   			}
;;;1104   			break;
;;;1105   			case PUSH_SETUP :
;;;1106   			{
;;;1107   				WM_DeleteWindow(hWinR);
;;;1108                   WM_DeleteWindow(hWinWind);
;;;1109                   WM_DeleteWindow(hWinG);
;;;1110                   WM_DeleteWindow(load_wind);
;;;1111                   WM_DeleteWindow(hWinsysinfo);
;;;1112                   WM_DeleteWindow(hWincdc);
;;;1113                   WM_DeleteWindow(hWinset); 
;;;1114                   CreateSET();
;;;1115                   KeyCounter = 0;
;;;1116                   BEEP_Tiggr();//触发蜂鸣噿
;;;1117   			}
;;;1118   			break;
;;;1119   			case KEY_TRIG:
;;;1120   			{
;;;1121                   switch(page_sw){
;;;1122                       case face_load:
;;;1123                       {
;;;1124   //                        static vu8 LOAD_t;
;;;1125                           LOAD_t++;
;;;1126                           if(LOAD_t>1)
;;;1127                           {
;;;1128                               LOAD_t=0;
;;;1129                           }
;;;1130                           if(LOAD_t==0)
;;;1131                           {
;;;1132                               Flag_Swtich_ON=0;
;;;1133                               GPIO_SetBits(GPIOC,GPIO_Pin_1);//OFF
;;;1134                               load_sw = load_off;
;;;1135                           }
;;;1136                           else if(LOAD_t==1)
;;;1137                           {
;;;1138                               Flag_Swtich_ON=1;
;;;1139                               GPIO_ResetBits(GPIOC,GPIO_Pin_1);//On
;;;1140                               load_time = GUI_GetTime()/500;
;;;1141                               load_sw = load_on;
;;;1142                           }
;;;1143                           KeyCounter = 0;
;;;1144                           BEEP_Tiggr();//触发蜂鸣器
;;;1145                           break;
;;;1146                       }
;;;1147                       case face_r:
;;;1148                       {
;;;1149   //                         if(para_set2 == set_2_on)
;;;1150   //                         {
;;;1151   // //                            static vu8 LOAD_t;
;;;1152   //                             Mode_SW_CONT(0x02);
;;;1153   //                             LOAD_t++;
;;;1154   //                             if(LOAD_t>1)
;;;1155   //                             {
;;;1156   //                                 LOAD_t=0;
;;;1157   //                             }
;;;1158   //                             if(LOAD_t==0)
;;;1159   //                             {
;;;1160   //                                 oct_sw = oct_off;
;;;1161   //                                 set_add_c = 0;
;;;1162   //                                 Flag_Swtich_ON=0;
;;;1163   //                                 GPIO_SetBits(GPIOC,GPIO_Pin_1);//OFF
;;;1164   //                                  
;;;1165   //                             }
;;;1166   //                             else if(LOAD_t==1)
;;;1167   //                             {
;;;1168   //                                 oct_sw = oct_on;
;;;1169   //                                 Flag_Swtich_ON=1;
;;;1170   //                                 GPIO_ResetBits(GPIOC,GPIO_Pin_1);//On
;;;1171   //                             }
;;;1172   //                          }
;;;1173                            if(r_test == 0 && DISS_Voltage > gate_v)
000034  f8dfc3f0          LDR      r12,|L1.1064|
000038  4dfc              LDR      r5,|L1.1068|
00003a  2400              MOVS     r4,#0                 ;189
00003c  2834              CMP      r0,#0x34              ;197
                  |L1.62|
00003e  d25f              BCS      |L1.256|
000040  e8dff000          TBB      [pc,r0]               ;197
000044  f2f1f0ef          DCB      0xf2,0xf1,0xf0,0xef
000048  5e5e5e5e          DCB      0x5e,0x5e,0x5e,0x5e
00004c  eeed1aec          DCB      0xee,0xed,0x1a,0xec
000050  5e5e5e5e          DCB      0x5e,0x5e,0x5e,0x5e
000054  ebea59f3          DCB      0xeb,0xea,0x59,0xf3
000058  5e5e5e5e          DCB      0x5e,0x5e,0x5e,0x5e
00005c  e8e799e6          DCB      0xe8,0xe7,0x99,0xe6
000060  5e5e5e5e          DCB      0x5e,0x5e,0x5e,0x5e
000064  e5e4e3e2          DCB      0xe5,0xe4,0xe3,0xe2
000068  5e5e5e5e          DCB      0x5e,0x5e,0x5e,0x5e
00006c  5ee1e0df          DCB      0x5e,0xe1,0xe0,0xdf
000070  5e5e5e5e          DCB      0x5e,0x5e,0x5e,0x5e
000074  dedddcdb          DCB      0xde,0xdd,0xdc,0xdb
000078  48ed              LDR      r0,|L1.1072|
00007a  7800              LDRB     r0,[r0,#0]            ;201  ; page_sw
00007c  2808              CMP      r0,#8                 ;201
00007e  d2de              BCS      |L1.62|
000080  e8dff000          TBB      [pc,r0]               ;201
000084  3e270414          DCB      0x3e,0x27,0x04,0x14
000088  170c3e2f          DCB      0x17,0x0c,0x3e,0x2f
00008c  a0e9              ADR      r0,|L1.1076|
00008e  f7fffffe          BL       INPUT_POW
000092  81ec              STRH     r4,[r5,#0xe]          ;205
000094  e8bd5ff0          POP      {r4-r12,lr}           ;206
000098  f7ffbffe          B.W      BEEP_Tiggr
00009c  a0e5              ADR      r0,|L1.1076|
00009e  f7fffffe          BL       INPUT_NUM
0000a2  81ec              STRH     r4,[r5,#0xe]          ;212
0000a4  e8bd5ff0          POP      {r4-r12,lr}           ;213
0000a8  f7ffbffe          B.W      BEEP_Tiggr
0000ac  7808              LDRB     r0,[r1,#0]            ;218  ; para_set2
0000ae  28ff              CMP      r0,#0xff              ;218
0000b0  d007              BEQ      |L1.194|
0000b2  a0e0              ADR      r0,|L1.1076|
0000b4  f7fffffe          BL       INPUT_LOAD
0000b8  81ec              STRH     r4,[r5,#0xe]          ;229
0000ba  e8bd5ff0          POP      {r4-r12,lr}           ;230
0000be  f7ffbffe          B.W      BEEP_Tiggr
                  |L1.194|
0000c2  a0dc              ADR      r0,|L1.1076|
0000c4  f7fffffe          BL       INPUT_C
0000c8  81ec              STRH     r4,[r5,#0xe]          ;221
0000ca  e8bd5ff0          POP      {r4-r12,lr}           ;222
0000ce  f7ffbffe          B.W      BEEP_Tiggr
0000d2  a0d8              ADR      r0,|L1.1076|
0000d4  f7fffffe          BL       INPUT_CDC
0000d8  81ec              STRH     r4,[r5,#0xe]          ;236
0000da  e8bd5ff0          POP      {r4-r12,lr}           ;237
0000de  f7ffbffe          B.W      BEEP_Tiggr
0000e2  7810              LDRB     r0,[r2,#0]            ;242  ; admin
0000e4  2801              CMP      r0,#1                 ;242
0000e6  d101              BNE      |L1.236|
0000e8  f7fffffe          BL       INPUT_INFO
                  |L1.236|
0000ec  81ec              STRH     r4,[r5,#0xe]          ;246
0000ee  e8bd5ff0          POP      {r4-r12,lr}           ;247
0000f2  f7ffbffe          B.W      BEEP_Tiggr
0000f6  48ce              LDR      r0,|L1.1072|
0000f8  7800              LDRB     r0,[r0,#0]            ;256  ; page_sw
0000fa  2808              CMP      r0,#8                 ;256
                  |L1.252|
0000fc  d29f              BCS      |L1.62|
0000fe  e000              B        |L1.258|
                  |L1.256|
000100  e0fe              B        |L1.768|
                  |L1.258|
000102  e8dff000          TBB      [pc,r0]               ;256
000106  fd25              DCB      0xfd,0x25
000108  0412150a          DCB      0x04,0x12,0x15,0x0a
00010c  fd2d              DCB      0xfd,0x2d
00010e  a0ca              ADR      r0,|L1.1080|
000110  f7fffffe          BL       INPUT_POW
000114  81ec              STRH     r4,[r5,#0xe]          ;260
000116  f7fffffe          BL       BEEP_Tiggr
00011a  a0c7              ADR      r0,|L1.1080|
00011c  f7fffffe          BL       INPUT_NUM
000120  81ec              STRH     r4,[r5,#0xe]          ;266
000122  e8bd5ff0          POP      {r4-r12,lr}           ;267
000126  f7ffbffe          B.W      BEEP_Tiggr
00012a  7808              LDRB     r0,[r1,#0]            ;272  ; para_set2
00012c  28ff              CMP      r0,#0xff              ;272
00012e  d007              BEQ      |L1.320|
000130  a0c1              ADR      r0,|L1.1080|
000132  f7fffffe          BL       INPUT_LOAD
000136  81ec              STRH     r4,[r5,#0xe]          ;283
000138  e8bd5ff0          POP      {r4-r12,lr}           ;284
00013c  f7ffbffe          B.W      BEEP_Tiggr
                  |L1.320|
000140  a0bd              ADR      r0,|L1.1080|
000142  f7fffffe          BL       INPUT_C
000146  81ec              STRH     r4,[r5,#0xe]          ;275
000148  e8bd5ff0          POP      {r4-r12,lr}           ;276
00014c  f7ffbffe          B.W      BEEP_Tiggr
000150  a0b9              ADR      r0,|L1.1080|
000152  f7fffffe          BL       INPUT_CDC
000156  81ec              STRH     r4,[r5,#0xe]          ;290
000158  e8bd5ff0          POP      {r4-r12,lr}           ;291
00015c  f7ffbffe          B.W      BEEP_Tiggr
000160  7810              LDRB     r0,[r2,#0]            ;296  ; admin
000162  2801              CMP      r0,#1                 ;296
000164  d102              BNE      |L1.364|
000166  2002              MOVS     r0,#2                 ;298
000168  f7fffffe          BL       INPUT_INFO
                  |L1.364|
00016c  81ec              STRH     r4,[r5,#0xe]          ;300
00016e  e8bd5ff0          POP      {r4-r12,lr}           ;301
000172  f7ffbffe          B.W      BEEP_Tiggr
000176  48ae              LDR      r0,|L1.1072|
000178  7800              LDRB     r0,[r0,#0]            ;311  ; page_sw
00017a  2808              CMP      r0,#8                 ;311
                  |L1.380|
00017c  d2be              BCS      |L1.252|
00017e  e8dff000          TBB      [pc,r0]               ;311
000182  bf25              DCB      0xbf,0x25
000184  0412150a          DCB      0x04,0x12,0x15,0x0a
000188  bf2d              DCB      0xbf,0x2d
00018a  a0ac              ADR      r0,|L1.1084|
00018c  f7fffffe          BL       INPUT_POW
000190  81ec              STRH     r4,[r5,#0xe]          ;315
000192  f7fffffe          BL       BEEP_Tiggr
000196  a0a9              ADR      r0,|L1.1084|
000198  f7fffffe          BL       INPUT_NUM
00019c  81ec              STRH     r4,[r5,#0xe]          ;321
00019e  e8bd5ff0          POP      {r4-r12,lr}           ;322
0001a2  f7ffbffe          B.W      BEEP_Tiggr
0001a6  7808              LDRB     r0,[r1,#0]            ;327  ; para_set2
0001a8  28ff              CMP      r0,#0xff              ;327
0001aa  d007              BEQ      |L1.444|
0001ac  a0a3              ADR      r0,|L1.1084|
0001ae  f7fffffe          BL       INPUT_LOAD
0001b2  81ec              STRH     r4,[r5,#0xe]          ;338
0001b4  e8bd5ff0          POP      {r4-r12,lr}           ;339
0001b8  f7ffbffe          B.W      BEEP_Tiggr
                  |L1.444|
0001bc  a09f              ADR      r0,|L1.1084|
0001be  f7fffffe          BL       INPUT_C
0001c2  81ec              STRH     r4,[r5,#0xe]          ;330
0001c4  e8bd5ff0          POP      {r4-r12,lr}           ;331
0001c8  f7ffbffe          B.W      BEEP_Tiggr
0001cc  a09b              ADR      r0,|L1.1084|
0001ce  f7fffffe          BL       INPUT_CDC
0001d2  81ec              STRH     r4,[r5,#0xe]          ;345
0001d4  e8bd5ff0          POP      {r4-r12,lr}           ;346
0001d8  f7ffbffe          B.W      BEEP_Tiggr
0001dc  7810              LDRB     r0,[r2,#0]            ;351  ; admin
0001de  2801              CMP      r0,#1                 ;351
0001e0  d007              BEQ      |L1.498|
0001e2  7828              LDRB     r0,[r5,#0]            ;355  ; pass
0001e4  1cc0              ADDS     r0,r0,#3              ;355
0001e6  7028              STRB     r0,[r5,#0]            ;355
                  |L1.488|
0001e8  81ec              STRH     r4,[r5,#0xe]          ;357
0001ea  e8bd5ff0          POP      {r4-r12,lr}           ;358
0001ee  f7ffbffe          B.W      BEEP_Tiggr
                  |L1.498|
0001f2  2003              MOVS     r0,#3                 ;353
0001f4  f7fffffe          BL       INPUT_INFO
0001f8  e7f6              B        |L1.488|
0001fa  e17d              B        |L1.1272|
0001fc  e097              B        |L1.814|
0001fe  e3fd              B        |L1.2556|
000200  e2b5              B        |L1.1902|
000202  e13b              B        |L1.1148|
000204  e3fb              B        |L1.2558|
000206  e22d              B        |L1.1636|
000208  e0cf              B        |L1.938|
00020a  e3f9              B        |L1.2560|
00020c  e1f6              B        |L1.1532|
00020e  e3f8              B        |L1.2562|
000210  e049              B        |L1.678|
000212  e1b1              B        |L1.1400|
000214  e3f6              B        |L1.2564|
000216  e008              B        |L1.554|
000218  e24c              B        |L1.1716|
00021a  e3f4              B        |L1.2566|
00021c  e3d1              B        |L1.2498|
00021e  e2e2              B        |L1.2022|
000220  e3f2              B        |L1.2568|
000222  e318              B        |L1.2134|
000224  e267              B        |L1.1782|
000226  e224              B        |L1.1650|
000228  e3ef              B        |L1.2570|
                  |L1.554|
00022a  4881              LDR      r0,|L1.1072|
00022c  7800              LDRB     r0,[r0,#0]            ;367  ; page_sw
00022e  2808              CMP      r0,#8                 ;367
                  |L1.560|
000230  d2a4              BCS      |L1.380|
000232  e8dff000          TBB      [pc,r0]               ;367
000236  6525              DCB      0x65,0x25
000238  0412150a          DCB      0x04,0x12,0x15,0x0a
00023c  652d              DCB      0x65,0x2d
00023e  a080              ADR      r0,|L1.1088|
000240  f7fffffe          BL       INPUT_POW
000244  81ec              STRH     r4,[r5,#0xe]          ;371
000246  f7fffffe          BL       BEEP_Tiggr
00024a  a07d              ADR      r0,|L1.1088|
00024c  f7fffffe          BL       INPUT_NUM
000250  81ec              STRH     r4,[r5,#0xe]          ;377
000252  e8bd5ff0          POP      {r4-r12,lr}           ;378
000256  f7ffbffe          B.W      BEEP_Tiggr
00025a  7808              LDRB     r0,[r1,#0]            ;383  ; para_set2
00025c  28ff              CMP      r0,#0xff              ;383
00025e  d007              BEQ      |L1.624|
000260  a077              ADR      r0,|L1.1088|
000262  f7fffffe          BL       INPUT_LOAD
000266  81ec              STRH     r4,[r5,#0xe]          ;394
000268  e8bd5ff0          POP      {r4-r12,lr}           ;395
00026c  f7ffbffe          B.W      BEEP_Tiggr
                  |L1.624|
000270  a073              ADR      r0,|L1.1088|
000272  f7fffffe          BL       INPUT_C
000276  81ec              STRH     r4,[r5,#0xe]          ;386
000278  e8bd5ff0          POP      {r4-r12,lr}           ;387
00027c  f7ffbffe          B.W      BEEP_Tiggr
000280  a06f              ADR      r0,|L1.1088|
000282  f7fffffe          BL       INPUT_CDC
000286  81ec              STRH     r4,[r5,#0xe]          ;401
000288  e8bd5ff0          POP      {r4-r12,lr}           ;402
00028c  f7ffbffe          B.W      BEEP_Tiggr
000290  7810              LDRB     r0,[r2,#0]            ;407  ; admin
000292  2801              CMP      r0,#1                 ;407
000294  d102              BNE      |L1.668|
000296  2004              MOVS     r0,#4                 ;409
000298  f7fffffe          BL       INPUT_INFO
                  |L1.668|
00029c  81ec              STRH     r4,[r5,#0xe]          ;411
00029e  e8bd5ff0          POP      {r4-r12,lr}           ;412
0002a2  f7ffbffe          B.W      BEEP_Tiggr
                  |L1.678|
0002a6  4862              LDR      r0,|L1.1072|
0002a8  7800              LDRB     r0,[r0,#0]            ;421  ; page_sw
0002aa  2808              CMP      r0,#8                 ;421
                  |L1.684|
0002ac  d2c0              BCS      |L1.560|
0002ae  e8dff000          TBB      [pc,r0]               ;421
0002b2  2725              DCB      0x27,0x25
0002b4  0412150a          DCB      0x04,0x12,0x15,0x0a
0002b8  272f              DCB      0x27,0x2f
0002ba  a062              ADR      r0,|L1.1092|
0002bc  f7fffffe          BL       INPUT_POW
0002c0  81ec              STRH     r4,[r5,#0xe]          ;425
0002c2  f7fffffe          BL       BEEP_Tiggr
0002c6  a05f              ADR      r0,|L1.1092|
0002c8  f7fffffe          BL       INPUT_NUM
0002cc  81ec              STRH     r4,[r5,#0xe]          ;431
0002ce  e8bd5ff0          POP      {r4-r12,lr}           ;432
0002d2  f7ffbffe          B.W      BEEP_Tiggr
0002d6  7808              LDRB     r0,[r1,#0]            ;437  ; para_set2
0002d8  28ff              CMP      r0,#0xff              ;437
0002da  d007              BEQ      |L1.748|
0002dc  a059              ADR      r0,|L1.1092|
0002de  f7fffffe          BL       INPUT_LOAD
0002e2  81ec              STRH     r4,[r5,#0xe]          ;448
0002e4  e8bd5ff0          POP      {r4-r12,lr}           ;449
0002e8  f7ffbffe          B.W      BEEP_Tiggr
                  |L1.748|
0002ec  a055              ADR      r0,|L1.1092|
0002ee  f7fffffe          BL       INPUT_C
0002f2  81ec              STRH     r4,[r5,#0xe]          ;440
0002f4  e8bd5ff0          POP      {r4-r12,lr}           ;441
0002f8  f7ffbffe          B.W      BEEP_Tiggr
0002fc  a051              ADR      r0,|L1.1092|
0002fe  e000              B        |L1.770|
                  |L1.768|
000300  e117              B        |L1.1330|
                  |L1.770|
000302  f7fffffe          BL       INPUT_CDC
000306  81ec              STRH     r4,[r5,#0xe]          ;455
000308  e8bd5ff0          POP      {r4-r12,lr}           ;456
00030c  f7ffbffe          B.W      BEEP_Tiggr
000310  7810              LDRB     r0,[r2,#0]            ;461  ; admin
000312  2801              CMP      r0,#1                 ;461
000314  d007              BEQ      |L1.806|
000316  7828              LDRB     r0,[r5,#0]            ;465  ; pass
000318  1d40              ADDS     r0,r0,#5              ;465
00031a  7028              STRB     r0,[r5,#0]            ;465
                  |L1.796|
00031c  81ec              STRH     r4,[r5,#0xe]          ;467
00031e  e8bd5ff0          POP      {r4-r12,lr}           ;468
000322  f7ffbffe          B.W      BEEP_Tiggr
                  |L1.806|
000326  2005              MOVS     r0,#5                 ;463
000328  f7fffffe          BL       INPUT_INFO
00032c  e7f6              B        |L1.796|
                  |L1.814|
00032e  4840              LDR      r0,|L1.1072|
000330  7800              LDRB     r0,[r0,#0]            ;477  ; page_sw
000332  2808              CMP      r0,#8                 ;477
                  |L1.820|
000334  d2ba              BCS      |L1.684|
000336  e8dff000          TBB      [pc,r0]               ;477
00033a  fc25              DCB      0xfc,0x25
00033c  0412150a          DCB      0x04,0x12,0x15,0x0a
000340  fc2d              DCB      0xfc,0x2d
000342  a041              ADR      r0,|L1.1096|
000344  f7fffffe          BL       INPUT_POW
000348  81ec              STRH     r4,[r5,#0xe]          ;481
00034a  f7fffffe          BL       BEEP_Tiggr
00034e  a03e              ADR      r0,|L1.1096|
000350  f7fffffe          BL       INPUT_NUM
000354  81ec              STRH     r4,[r5,#0xe]          ;487
000356  e8bd5ff0          POP      {r4-r12,lr}           ;488
00035a  f7ffbffe          B.W      BEEP_Tiggr
00035e  7808              LDRB     r0,[r1,#0]            ;493  ; para_set2
000360  28ff              CMP      r0,#0xff              ;493
000362  d007              BEQ      |L1.884|
000364  a038              ADR      r0,|L1.1096|
000366  f7fffffe          BL       INPUT_LOAD
00036a  81ec              STRH     r4,[r5,#0xe]          ;504
00036c  e8bd5ff0          POP      {r4-r12,lr}           ;505
000370  f7ffbffe          B.W      BEEP_Tiggr
                  |L1.884|
000374  a034              ADR      r0,|L1.1096|
000376  f7fffffe          BL       INPUT_C
00037a  81ec              STRH     r4,[r5,#0xe]          ;496
00037c  e8bd5ff0          POP      {r4-r12,lr}           ;497
000380  f7ffbffe          B.W      BEEP_Tiggr
000384  a030              ADR      r0,|L1.1096|
000386  f7fffffe          BL       INPUT_CDC
00038a  81ec              STRH     r4,[r5,#0xe]          ;511
00038c  e8bd5ff0          POP      {r4-r12,lr}           ;512
000390  f7ffbffe          B.W      BEEP_Tiggr
000394  7810              LDRB     r0,[r2,#0]            ;517  ; admin
000396  2801              CMP      r0,#1                 ;517
000398  d102              BNE      |L1.928|
00039a  2006              MOVS     r0,#6                 ;519
00039c  f7fffffe          BL       INPUT_INFO
                  |L1.928|
0003a0  81ec              STRH     r4,[r5,#0xe]          ;521
0003a2  e8bd5ff0          POP      {r4-r12,lr}           ;522
0003a6  f7ffbffe          B.W      BEEP_Tiggr
                  |L1.938|
0003aa  4821              LDR      r0,|L1.1072|
0003ac  7800              LDRB     r0,[r0,#0]            ;531  ; page_sw
0003ae  2808              CMP      r0,#8                 ;531
                  |L1.944|
0003b0  d2c0              BCS      |L1.820|
0003b2  e8dff000          TBB      [pc,r0]               ;531
0003b6  be4f              DCB      0xbe,0x4f
0003b8  0412150a          DCB      0x04,0x12,0x15,0x0a
0003bc  be58              DCB      0xbe,0x58
0003be  a023              ADR      r0,|L1.1100|
0003c0  f7fffffe          BL       INPUT_POW
0003c4  81ec              STRH     r4,[r5,#0xe]          ;535
0003c6  f7fffffe          BL       BEEP_Tiggr
0003ca  a020              ADR      r0,|L1.1100|
0003cc  f7fffffe          BL       INPUT_NUM
0003d0  81ec              STRH     r4,[r5,#0xe]          ;541
0003d2  e8bd5ff0          POP      {r4-r12,lr}           ;542
0003d6  f7ffbffe          B.W      BEEP_Tiggr
0003da  7808              LDRB     r0,[r1,#0]            ;547  ; para_set2
0003dc  28ff              CMP      r0,#0xff              ;547
0003de  d007              BEQ      |L1.1008|
0003e0  a01a              ADR      r0,|L1.1100|
0003e2  f7fffffe          BL       INPUT_LOAD
0003e6  81ec              STRH     r4,[r5,#0xe]          ;558
0003e8  e8bd5ff0          POP      {r4-r12,lr}           ;559
0003ec  f7ffbffe          B.W      BEEP_Tiggr
                  |L1.1008|
0003f0  a016              ADR      r0,|L1.1100|
0003f2  f7fffffe          BL       INPUT_C
0003f6  81ec              STRH     r4,[r5,#0xe]          ;550
0003f8  e8bd5ff0          POP      {r4-r12,lr}           ;551
0003fc  e028              B        |L1.1104|
0003fe  0000              DCW      0x0000
                  |L1.1024|
                          DCD      flagA
                  |L1.1028|
                          DCD      para_set2
                  |L1.1032|
                          DCD      admin
                  |L1.1036|
                          DCD      hWinR
                  |L1.1040|
                          DCD      hWinWind
                  |L1.1044|
                          DCD      hWinG
                  |L1.1048|
                          DCD      load_wind
                  |L1.1052|
                          DCD      hWinsysinfo
                  |L1.1056|
                          DCD      hWincdc
                  |L1.1060|
                          DCD      hWinset
                  |L1.1064|
                          DCD      DISS_Voltage
                  |L1.1068|
                          DCD      ||.data||
                  |L1.1072|
                          DCD      page_sw
                  |L1.1076|
000434  3100              DCB      "1",0
000436  00                DCB      0
000437  00                DCB      0
                  |L1.1080|
000438  3200              DCB      "2",0
00043a  00                DCB      0
00043b  00                DCB      0
                  |L1.1084|
00043c  3300              DCB      "3",0
00043e  00                DCB      0
00043f  00                DCB      0
                  |L1.1088|
000440  3400              DCB      "4",0
000442  00                DCB      0
000443  00                DCB      0
                  |L1.1092|
000444  3500              DCB      "5",0
000446  00                DCB      0
000447  00                DCB      0
                  |L1.1096|
000448  3600              DCB      "6",0
00044a  00                DCB      0
00044b  00                DCB      0
                  |L1.1100|
00044c  3700              DCB      "7",0
00044e  00                DCB      0
00044f  00                DCB      0
                  |L1.1104|
000450  f7ffbffe          B.W      BEEP_Tiggr
000454  f2af000c          ADR      r0,|L1.1100|
000458  f7fffffe          BL       INPUT_CDC
00045c  81ec              STRH     r4,[r5,#0xe]          ;565
00045e  e8bd5ff0          POP      {r4-r12,lr}           ;566
000462  f7ffbffe          B.W      BEEP_Tiggr
000466  7810              LDRB     r0,[r2,#0]            ;571  ; admin
000468  2801              CMP      r0,#1                 ;571
00046a  d102              BNE      |L1.1138|
00046c  2007              MOVS     r0,#7                 ;573
00046e  f7fffffe          BL       INPUT_INFO
                  |L1.1138|
000472  81ec              STRH     r4,[r5,#0xe]          ;575
000474  e8bd5ff0          POP      {r4-r12,lr}           ;576
000478  f7ffbffe          B.W      BEEP_Tiggr
                  |L1.1148|
00047c  48fe              LDR      r0,|L1.2168|
00047e  7800              LDRB     r0,[r0,#0]            ;585  ; page_sw
000480  2808              CMP      r0,#8                 ;585
                  |L1.1154|
000482  d295              BCS      |L1.944|
000484  e8dff000          TBB      [pc,r0]               ;585
000488  f3250412          DCB      0xf3,0x25,0x04,0x12
00048c  150af32d          DCB      0x15,0x0a,0xf3,0x2d
000490  a0fa              ADR      r0,|L1.2172|
000492  f7fffffe          BL       INPUT_POW
000496  81ec              STRH     r4,[r5,#0xe]          ;589
000498  f7fffffe          BL       BEEP_Tiggr
00049c  a0f7              ADR      r0,|L1.2172|
00049e  f7fffffe          BL       INPUT_NUM
0004a2  81ec              STRH     r4,[r5,#0xe]          ;595
0004a4  e8bd5ff0          POP      {r4-r12,lr}           ;596
0004a8  f7ffbffe          B.W      BEEP_Tiggr
0004ac  7808              LDRB     r0,[r1,#0]            ;601  ; para_set2
0004ae  28ff              CMP      r0,#0xff              ;601
0004b0  d007              BEQ      |L1.1218|
0004b2  a0f2              ADR      r0,|L1.2172|
0004b4  f7fffffe          BL       INPUT_LOAD
0004b8  81ec              STRH     r4,[r5,#0xe]          ;612
0004ba  e8bd5ff0          POP      {r4-r12,lr}           ;613
0004be  f7ffbffe          B.W      BEEP_Tiggr
                  |L1.1218|
0004c2  a0ee              ADR      r0,|L1.2172|
0004c4  f7fffffe          BL       INPUT_C
0004c8  81ec              STRH     r4,[r5,#0xe]          ;604
0004ca  e8bd5ff0          POP      {r4-r12,lr}           ;605
0004ce  f7ffbffe          B.W      BEEP_Tiggr
0004d2  a0ea              ADR      r0,|L1.2172|
0004d4  f7fffffe          BL       INPUT_CDC
0004d8  81ec              STRH     r4,[r5,#0xe]          ;619
0004da  e8bd5ff0          POP      {r4-r12,lr}           ;620
0004de  f7ffbffe          B.W      BEEP_Tiggr
0004e2  7810              LDRB     r0,[r2,#0]            ;625  ; admin
0004e4  2801              CMP      r0,#1                 ;625
0004e6  d102              BNE      |L1.1262|
0004e8  2008              MOVS     r0,#8                 ;627
0004ea  f7fffffe          BL       INPUT_INFO
                  |L1.1262|
0004ee  81ec              STRH     r4,[r5,#0xe]          ;629
0004f0  e8bd5ff0          POP      {r4-r12,lr}           ;630
0004f4  f7ffbffe          B.W      BEEP_Tiggr
                  |L1.1272|
0004f8  48df              LDR      r0,|L1.2168|
0004fa  7800              LDRB     r0,[r0,#0]            ;639  ; page_sw
0004fc  2808              CMP      r0,#8                 ;639
0004fe  d2c0              BCS      |L1.1154|
000500  e8dff000          TBB      [pc,r0]               ;639
000504  b5270412          DCB      0xb5,0x27,0x04,0x12
000508  150ab52f          DCB      0x15,0x0a,0xb5,0x2f
00050c  a0dc              ADR      r0,|L1.2176|
00050e  f7fffffe          BL       INPUT_POW
000512  81ec              STRH     r4,[r5,#0xe]          ;643
000514  f7fffffe          BL       BEEP_Tiggr
000518  a0d9              ADR      r0,|L1.2176|
00051a  f7fffffe          BL       INPUT_NUM
00051e  81ec              STRH     r4,[r5,#0xe]          ;649
000520  e8bd5ff0          POP      {r4-r12,lr}           ;650
000524  f7ffbffe          B.W      BEEP_Tiggr
000528  7808              LDRB     r0,[r1,#0]            ;655  ; para_set2
00052a  28ff              CMP      r0,#0xff              ;655
00052c  d009              BEQ      |L1.1346|
00052e  a0d4              ADR      r0,|L1.2176|
000530  e000              B        |L1.1332|
                  |L1.1330|
000532  e09c              B        |L1.1646|
                  |L1.1332|
000534  f7fffffe          BL       INPUT_LOAD
000538  81ec              STRH     r4,[r5,#0xe]          ;666
00053a  e8bd5ff0          POP      {r4-r12,lr}           ;667
00053e  f7ffbffe          B.W      BEEP_Tiggr
                  |L1.1346|
000542  a0cf              ADR      r0,|L1.2176|
000544  f7fffffe          BL       INPUT_C
000548  81ec              STRH     r4,[r5,#0xe]          ;658
00054a  e8bd5ff0          POP      {r4-r12,lr}           ;659
00054e  f7ffbffe          B.W      BEEP_Tiggr
000552  a0cb              ADR      r0,|L1.2176|
000554  f7fffffe          BL       INPUT_CDC
000558  81ec              STRH     r4,[r5,#0xe]          ;673
00055a  e8bd5ff0          POP      {r4-r12,lr}           ;674
00055e  f7ffbffe          B.W      BEEP_Tiggr
000562  7810              LDRB     r0,[r2,#0]            ;679  ; admin
000564  2801              CMP      r0,#1                 ;679
000566  d102              BNE      |L1.1390|
000568  2009              MOVS     r0,#9                 ;681
00056a  f7fffffe          BL       INPUT_INFO
                  |L1.1390|
00056e  81ec              STRH     r4,[r5,#0xe]          ;683
000570  e8bd5ff0          POP      {r4-r12,lr}           ;684
000574  f7ffbffe          B.W      BEEP_Tiggr
                  |L1.1400|
000578  48bf              LDR      r0,|L1.2168|
00057a  7800              LDRB     r0,[r0,#0]            ;693  ; page_sw
00057c  2808              CMP      r0,#8                 ;693
00057e  d276              BCS      |L1.1646|
000580  e8dff000          TBB      [pc,r0]               ;693
000584  75250412          DCB      0x75,0x25,0x04,0x12
000588  150a752d          DCB      0x15,0x0a,0x75,0x2d
00058c  a0bd              ADR      r0,|L1.2180|
00058e  f7fffffe          BL       INPUT_POW
000592  81ec              STRH     r4,[r5,#0xe]          ;697
000594  f7fffffe          BL       BEEP_Tiggr
000598  a0ba              ADR      r0,|L1.2180|
00059a  f7fffffe          BL       INPUT_NUM
00059e  81ec              STRH     r4,[r5,#0xe]          ;703
0005a0  e8bd5ff0          POP      {r4-r12,lr}           ;704
0005a4  f7ffbffe          B.W      BEEP_Tiggr
0005a8  7808              LDRB     r0,[r1,#0]            ;709  ; para_set2
0005aa  28ff              CMP      r0,#0xff              ;709
0005ac  d007              BEQ      |L1.1470|
0005ae  a0b5              ADR      r0,|L1.2180|
0005b0  f7fffffe          BL       INPUT_LOAD
0005b4  81ec              STRH     r4,[r5,#0xe]          ;720
0005b6  e8bd5ff0          POP      {r4-r12,lr}           ;721
0005ba  f7ffbffe          B.W      BEEP_Tiggr
                  |L1.1470|
0005be  a0b1              ADR      r0,|L1.2180|
0005c0  f7fffffe          BL       INPUT_C
0005c4  81ec              STRH     r4,[r5,#0xe]          ;712
0005c6  e8bd5ff0          POP      {r4-r12,lr}           ;713
0005ca  f7ffbffe          B.W      BEEP_Tiggr
0005ce  a0ad              ADR      r0,|L1.2180|
0005d0  f7fffffe          BL       INPUT_CDC
0005d4  81ec              STRH     r4,[r5,#0xe]          ;727
0005d6  e8bd5ff0          POP      {r4-r12,lr}           ;728
0005da  f7ffbffe          B.W      BEEP_Tiggr
0005de  7810              LDRB     r0,[r2,#0]            ;733  ; admin
0005e0  2801              CMP      r0,#1                 ;733
0005e2  d007              BEQ      |L1.1524|
0005e4  7828              LDRB     r0,[r5,#0]            ;737  ; pass
0005e6  1c40              ADDS     r0,r0,#1              ;737
0005e8  7028              STRB     r0,[r5,#0]            ;737
                  |L1.1514|
0005ea  81ec              STRH     r4,[r5,#0xe]          ;739
0005ec  e8bd5ff0          POP      {r4-r12,lr}           ;740
0005f0  f7ffbffe          B.W      BEEP_Tiggr
                  |L1.1524|
0005f4  2000              MOVS     r0,#0                 ;735
0005f6  f7fffffe          BL       INPUT_INFO
0005fa  e7f6              B        |L1.1514|
                  |L1.1532|
0005fc  489e              LDR      r0,|L1.2168|
0005fe  7800              LDRB     r0,[r0,#0]            ;749  ; page_sw
000600  2806              CMP      r0,#6                 ;749
000602  d234              BCS      |L1.1646|
000604  e8dff000          TBB      [pc,r0]               ;749
000608  331e031b          DCB      0x33,0x1e,0x03,0x1b
00060c  130b              DCB      0x13,0x0b
00060e  a09e              ADR      r0,|L1.2184|
000610  f7fffffe          BL       INPUT_POW
000614  81ec              STRH     r4,[r5,#0xe]          ;753
000616  e8bd5ff0          POP      {r4-r12,lr}           ;754
00061a  f7ffbffe          B.W      BEEP_Tiggr
00061e  a09a              ADR      r0,|L1.2184|
000620  f7fffffe          BL       INPUT_NUM
000624  81ec              STRH     r4,[r5,#0xe]          ;760
000626  e8bd5ff0          POP      {r4-r12,lr}           ;761
00062a  f7ffbffe          B.W      BEEP_Tiggr
00062e  a096              ADR      r0,|L1.2184|
000630  f7fffffe          BL       INPUT_LOAD
000634  81ec              STRH     r4,[r5,#0xe]          ;767
000636  e8bd5ff0          POP      {r4-r12,lr}           ;768
00063a  f7ffbffe          B.W      BEEP_Tiggr
00063e  7808              LDRB     r0,[r1,#0]            ;773  ; para_set2
000640  28ff              CMP      r0,#0xff              ;773
000642  d007              BEQ      |L1.1620|
000644  a090              ADR      r0,|L1.2184|
000646  f7fffffe          BL       INPUT_CDC
00064a  81ec              STRH     r4,[r5,#0xe]          ;784
00064c  e8bd5ff0          POP      {r4-r12,lr}           ;785
000650  f7ffbffe          B.W      BEEP_Tiggr
                  |L1.1620|
000654  a08c              ADR      r0,|L1.2184|
000656  f7fffffe          BL       INPUT_C
00065a  81ec              STRH     r4,[r5,#0xe]          ;776
00065c  e8bd5ff0          POP      {r4-r12,lr}           ;777
000660  f7ffbffe          B.W      BEEP_Tiggr
                  |L1.1636|
000664  f7fffffe          BL       LCD_Initializtion
000668  f7fffffe          BL       GUI_Clear
00066c  81ec              STRH     r4,[r5,#0xe]          ;797
                  |L1.1646|
;;;1174                            {
;;;1175                               r_test = 1;
;;;1176                            }else{
;;;1177                                r_test = 0;
;;;1178                            }
;;;1179                            KeyCounter = 0;
;;;1180                            BEEP_Tiggr();//触发蜂鸣器
;;;1181                            break;
;;;1182                       }
;;;1183                       case face_cdc:
;;;1184                       {
;;;1185                          if(cdc_sw == cdc_off)
;;;1186                          {
;;;1187                              SET_Voltage = opv1;
;;;1188                              SET_Current = opc1;
;;;1189                              cutoff_flag = 0;
;;;1190                              Mode_SW_CONT(0x03);
;;;1191                              
;;;1192                              charge_step = 1;
;;;1193                              GPIO_SetBits(GPIOB,GPIO_Pin_13);//打开稳压电源输出
;;;1194                              cdc_sw = cdc_on;
;;;1195                          }else{
;;;1196                              GPIO_ResetBits(GPIOB,GPIO_Pin_13);//关闭稳压电源输出
;;;1197                              cdc_sw = cdc_off;
;;;1198                              paused = 0;
;;;1199                              mode_sw = 0;
;;;1200                          }
;;;1201                          KeyCounter = 0;
;;;1202                          BEEP_Tiggr();//触发蜂鸣器
;;;1203                          break; 
;;;1204                       }
;;;1205                       case face_menu:
;;;1206                       {
;;;1207                           static vu8 POW_t;
;;;1208                           POW_t++;
;;;1209                           if(POW_t>1)
;;;1210                           {
;;;1211                               POW_t=0;
;;;1212                           }
;;;1213                           if(POW_t==0)
;;;1214                           {
;;;1215                               GPIO_ResetBits(GPIOB,GPIO_Pin_13);//关闭稳压电源输出
;;;1216                               pow_sw = pow_off;
;;;1217                           }
;;;1218                           else if(POW_t==1)
;;;1219                           {
;;;1220                               GPIO_SetBits(GPIOB,GPIO_Pin_13);//打开稳压电源输出
;;;1221                               pow_sw = pow_on;
;;;1222                               menu_time = GUI_GetTime()/500;
;;;1223                           }
;;;1224                           KeyCounter = 0;
;;;1225                           BEEP_Tiggr();//触发蜂鸣器
;;;1226                           break;
;;;1227                       }
;;;1228                   }
;;;1229   				
;;;1230   			}
;;;1231   			break;
;;;1232   			case KEY_Reset:
;;;1233   			{
;;;1234                   switch(page_sw)
;;;1235                   {
;;;1236                       case face_r:
;;;1237                       {
;;;1238                           clear_flag1 = 1;
;;;1239                           finish = 0;
;;;1240   //                        short_finish = 0;
;;;1241                           clear_r = R_VLUE;
;;;1242                           clear_v = DISS_Voltage;
;;;1243                           KeyCounter = 0;
;;;1244                           BEEP_Tiggr();//触发蜂鸣噿
;;;1245                           break;
;;;1246                       }
;;;1247                       case face_menu:
;;;1248                       {
;;;1249                           clear_flag2 = 1;
;;;1250   //                        clear_pv = DISS_POW_Voltage;
;;;1251                           KeyCounter = 0;
;;;1252                           BEEP_Tiggr();//触发蜂鸣噿
;;;1253                           break;
;;;1254                       }
;;;1255                       case face_load:
;;;1256                       {
;;;1257                           clear_flag3 = 1;
;;;1258                           clear_lv = DISS_Voltage;
;;;1259                           KeyCounter = 0;
;;;1260                           BEEP_Tiggr();//触发蜂鸣噿
;;;1261                           break;
;;;1262                       }   
;;;1263                       case face_cdc:
;;;1264                       {
;;;1265                           if(mode_sw == mode_load && pause_flag == 0)
;;;1266                           {
;;;1267                               pause_flag = 1;
;;;1268                           }else{
;;;1269                               pause_flag = 0;
;;;1270                               cdc_sw = cdc_on;
;;;1271                               restart_time = GUI_GetTime()/500;
;;;1272                               GPIO_ResetBits(GPIOC,GPIO_Pin_1);//On
;;;1273                           }
;;;1274                           KeyCounter = 0;
;;;1275                           BEEP_Tiggr();//触发蜂鸣噿
;;;1276                           break;
;;;1277                       }
;;;1278                   }
;;;1279   				
;;;1280   			}
;;;1281   			break;
;;;1282   			case KEY_Powe :
;;;1283   			{
;;;1284   //                 TM1650_SET_LED(0x48,0x71);
;;;1285   //                 TM1650_SET_LED(0x68,0xF1);
;;;1286   // //  				TM1650_SET_LED(0x6A,0x60);
;;;1287   // //                 TM1650_SET_LED(0x6C,0x60);
;;;1288   // //                 TM1650_SET_LED(0x6E,0x60);
;;;1289   // 				KeyCounter = 0;
;;;1290   // 				BEEP_Tiggr();//触发蜂鸣器
;;;1291   			}
;;;1292   			break;
;;;1293   			case KEY_Face1 :
;;;1294   			{                    
;;;1295                       WM_DeleteWindow(hWinR);
;;;1296                       WM_DeleteWindow(hWinWind);
;;;1297                       WM_DeleteWindow(hWinG);
;;;1298                       WM_DeleteWindow(load_wind);
;;;1299                       WM_DeleteWindow(hWinsysinfo);
;;;1300                       WM_DeleteWindow(hWincdc);
;;;1301                       WM_DeleteWindow(hWinset);
;;;1302                       CreateR();
;;;1303   //                    double_sw = face_graph;
;;;1304                       Mode_SW_CONT(0x01);//进入内阻测试模式
;;;1305                       BEEP_Tiggr();//触发蜂鸣器
;;;1306               }
;;;1307   			break;
;;;1308   			case KEY_Face2 :
;;;1309   			{
;;;1310   				WM_DeleteWindow(hWinR);
;;;1311                   WM_DeleteWindow(hWinWind);
;;;1312                   WM_DeleteWindow(hWinG);
;;;1313                   WM_DeleteWindow(load_wind);
;;;1314                   WM_DeleteWindow(hWinsysinfo);
;;;1315                   WM_DeleteWindow(hWincdc);
;;;1316                   WM_DeleteWindow(hWinset);
;;;1317   				CreateWindow2();
;;;1318   //                double_sw = face_graph;
;;;1319   				Mode_SW_CONT(0x02);//进入负载模式
;;;1320   //                GPIO_SetBits(GPIOC,GPIO_Pin_1);
;;;1321   				KeyCounter = 0;
;;;1322   				BEEP_Tiggr();//触发蜂鸣器
;;;1323   			}
;;;1324   			break;
;;;1325   			case KEY_Face3 :
;;;1326   			{
;;;1327   				WM_DeleteWindow(hWinR);
;;;1328                   WM_DeleteWindow(hWinWind);
;;;1329                   WM_DeleteWindow(hWinG);
;;;1330                   WM_DeleteWindow(load_wind);
;;;1331                   WM_DeleteWindow(hWinsysinfo);
;;;1332                   WM_DeleteWindow(hWincdc);
;;;1333                   WM_DeleteWindow(hWinset);
;;;1334   				CreateWindow();
;;;1335   				Mode_SW_CONT(0x03);//进入电源模式
;;;1336   				KeyCounter = 0;
;;;1337   				BEEP_Tiggr();//触发蜂鸣器
;;;1338   			}
;;;1339   			break;
;;;1340   			case KEY_Face4 :
;;;1341   			{
;;;1342   
;;;1343                       WM_DeleteWindow(hWinR);
;;;1344                       WM_DeleteWindow(hWinWind);
;;;1345                       WM_DeleteWindow(hWinG);
;;;1346                       WM_DeleteWindow(load_wind);
;;;1347                       WM_DeleteWindow(hWinsysinfo);
;;;1348                       WM_DeleteWindow(hWincdc);
;;;1349                       WM_DeleteWindow(hWinset);
;;;1350                       CreateCDC();                
;;;1351                       KeyCounter = 0;
;;;1352                       BEEP_Tiggr();//触发蜂鸣噿
;;;1353   			}
;;;1354   			break;
;;;1355   			case KEY_Face5 :
;;;1356   			{
;;;1357   				    WM_DeleteWindow(hWinR);
;;;1358                       WM_DeleteWindow(hWinWind);
;;;1359                       WM_DeleteWindow(hWinG);
;;;1360                       WM_DeleteWindow(load_wind);
;;;1361                       WM_DeleteWindow(hWinsysinfo);
;;;1362                       WM_DeleteWindow(hWincdc);
;;;1363                       WM_DeleteWindow(hWinset);
;;;1364                       CreateG();
;;;1365                       KeyCounter = 0;
;;;1366                       BEEP_Tiggr();//触发蜂鸣噿
;;;1367   			}
;;;1368   			break;
;;;1369               case KEY_BIAS :
;;;1370   			{
;;;1371   				    WM_DeleteWindow(hWinR);
;;;1372                       WM_DeleteWindow(hWinWind);
;;;1373                       WM_DeleteWindow(hWinG);
;;;1374                       WM_DeleteWindow(load_wind);
;;;1375                       WM_DeleteWindow(hWinsysinfo);
;;;1376                       WM_DeleteWindow(hWincdc);
;;;1377                       WM_DeleteWindow(hWinset);
;;;1378                       Createsysinfo();
;;;1379                       KeyCounter = 0;
;;;1380                       BEEP_Tiggr();//触发蜂鸣噿
;;;1381   			}
;;;1382   			break;
;;;1383   			
;;;1384   			default:
;;;1385   			break;
;;;1386   		}	
;;;1387   	}
;;;1388   }
00066e  e8bd9ff0          POP      {r4-r12,pc}
                  |L1.1650|
000672  4881              LDR      r0,|L1.2168|
000674  7800              LDRB     r0,[r0,#0]            ;804  ; page_sw
000676  2801              CMP      r0,#1                 ;804
000678  d015              BEQ      |L1.1702|
00067a  2805              CMP      r0,#5                 ;804
00067c  d005              BEQ      |L1.1674|
00067e  2807              CMP      r0,#7                 ;804
000680  d1f5              BNE      |L1.1646|
000682  7810              LDRB     r0,[r2,#0]            ;814  ; admin
000684  2801              CMP      r0,#1                 ;814
000686  d007              BEQ      |L1.1688|
000688  e008              B        |L1.1692|
                  |L1.1674|
00068a  f7fffffe          BL       SET_OP_LEFT
00068e  81ec              STRH     r4,[r5,#0xe]          ;808
000690  e8bd5ff0          POP      {r4-r12,lr}           ;809
000694  f7ffbffe          B.W      BEEP_Tiggr
                  |L1.1688|
000698  f7fffffe          BL       SYS_INFO_LEFT
                  |L1.1692|
00069c  81ec              STRH     r4,[r5,#0xe]          ;818
00069e  e8bd5ff0          POP      {r4-r12,lr}           ;819
0006a2  f7ffbffe          B.W      BEEP_Tiggr
                  |L1.1702|
0006a6  f7fffffe          BL       CDC_OP_LEFT
0006aa  81ec              STRH     r4,[r5,#0xe]          ;825
0006ac  e8bd5ff0          POP      {r4-r12,lr}           ;826
0006b0  f7ffbffe          B.W      BEEP_Tiggr
                  |L1.1716|
0006b4  4870              LDR      r0,|L1.2168|
0006b6  7800              LDRB     r0,[r0,#0]            ;834  ; page_sw
0006b8  2801              CMP      r0,#1                 ;834
0006ba  d015              BEQ      |L1.1768|
0006bc  2805              CMP      r0,#5                 ;834
0006be  d005              BEQ      |L1.1740|
0006c0  2807              CMP      r0,#7                 ;834
0006c2  d1d4              BNE      |L1.1646|
0006c4  7810              LDRB     r0,[r2,#0]            ;844  ; admin
0006c6  2801              CMP      r0,#1                 ;844
0006c8  d007              BEQ      |L1.1754|
0006ca  e008              B        |L1.1758|
                  |L1.1740|
0006cc  f7fffffe          BL       SET_OP_RIGHT
0006d0  81ec              STRH     r4,[r5,#0xe]          ;838
0006d2  e8bd5ff0          POP      {r4-r12,lr}           ;839
0006d6  f7ffbffe          B.W      BEEP_Tiggr
                  |L1.1754|
0006da  f7fffffe          BL       SYS_INFO_RIGHT
                  |L1.1758|
0006de  81ec              STRH     r4,[r5,#0xe]          ;848
0006e0  e8bd5ff0          POP      {r4-r12,lr}           ;849
0006e4  f7ffbffe          B.W      BEEP_Tiggr
                  |L1.1768|
0006e8  f7fffffe          BL       CDC_OP_RIGHT
0006ec  81ec              STRH     r4,[r5,#0xe]          ;855
0006ee  e8bd5ff0          POP      {r4-r12,lr}           ;856
0006f2  f7ffbffe          B.W      BEEP_Tiggr
                  |L1.1782|
0006f6  4860              LDR      r0,|L1.2168|
0006f8  7800              LDRB     r0,[r0,#0]            ;864  ; page_sw
0006fa  2808              CMP      r0,#8                 ;864
0006fc  d2b7              BCS      |L1.1646|
0006fe  e8dff000          TBB      [pc,r0]               ;864
000702  041e              DCB      0x04,0x1e
000704  051b0c14          DCB      0x05,0x1b,0x0c,0x14
000708  042c              DCB      0x04,0x2c
00070a  e7b0              B        |L1.1646|
00070c  81ec              STRH     r4,[r5,#0xe]          ;867
00070e  f7fffffe          BL       BEEP_Tiggr
000712  e8bd5ff0          POP      {r4-r12,lr}           ;869
000716  f7ffbffe          B.W      MENU_OP_UP
00071a  81ec              STRH     r4,[r5,#0xe]          ;874
00071c  f7fffffe          BL       BEEP_Tiggr
000720  485a              LDR      r0,|L1.2188|
000722  8901              LDRH     r1,[r0,#8]            ;876  ; Run_Control
000724  1c49              ADDS     r1,r1,#1              ;876
000726  8101              STRH     r1,[r0,#8]            ;876
                  |L1.1832|
000728  e7a1              B        |L1.1646|
00072a  f7fffffe          BL       SET_OP_UP
00072e  81ec              STRH     r4,[r5,#0xe]          ;882
000730  e8bd5ff0          POP      {r4-r12,lr}           ;883
000734  f7ffbffe          B.W      BEEP_Tiggr
000738  7808              LDRB     r0,[r1,#0]            ;888  ; para_set2
00073a  28ff              CMP      r0,#0xff              ;888
00073c  d006              BEQ      |L1.1868|
00073e  f7fffffe          BL       CDC_OP_UP
000742  81ec              STRH     r4,[r5,#0xe]          ;900
000744  e8bd5ff0          POP      {r4-r12,lr}           ;901
000748  f7ffbffe          B.W      BEEP_Tiggr
                  |L1.1868|
00074c  f7fffffe          BL       OC_OP_UP
000750  81ec              STRH     r4,[r5,#0xe]          ;891
000752  e8bd5ff0          POP      {r4-r12,lr}           ;892
000756  f7ffbffe          B.W      BEEP_Tiggr
00075a  7810              LDRB     r0,[r2,#0]            ;906  ; admin
00075c  2801              CMP      r0,#1                 ;906
00075e  d101              BNE      |L1.1892|
000760  f7fffffe          BL       SYS_INFO_UP
                  |L1.1892|
000764  81ec              STRH     r4,[r5,#0xe]          ;910
000766  e8bd5ff0          POP      {r4-r12,lr}           ;911
00076a  f7ffbffe          B.W      BEEP_Tiggr
                  |L1.1902|
00076e  4842              LDR      r0,|L1.2168|
000770  7800              LDRB     r0,[r0,#0]            ;920  ; page_sw
000772  2808              CMP      r0,#8                 ;920
000774  d2d8              BCS      |L1.1832|
000776  e8dff000          TBB      [pc,r0]               ;920
00077a  041e              DCB      0x04,0x1e
00077c  051b0c14          DCB      0x05,0x1b,0x0c,0x14
000780  042c              DCB      0x04,0x2c
                  |L1.1922|
000782  e774              B        |L1.1646|
000784  81ec              STRH     r4,[r5,#0xe]          ;923
000786  f7fffffe          BL       BEEP_Tiggr
00078a  e8bd5ff0          POP      {r4-r12,lr}           ;925
00078e  f7ffbffe          B.W      MENU_OP_DOWN
000792  81ec              STRH     r4,[r5,#0xe]          ;930
000794  f7fffffe          BL       BEEP_Tiggr
000798  483c              LDR      r0,|L1.2188|
00079a  8901              LDRH     r1,[r0,#8]            ;932  ; Run_Control
00079c  1e49              SUBS     r1,r1,#1              ;932
00079e  8101              STRH     r1,[r0,#8]            ;932
0007a0  e765              B        |L1.1646|
0007a2  f7fffffe          BL       SET_OP_DOWN
0007a6  81ec              STRH     r4,[r5,#0xe]          ;938
0007a8  e8bd5ff0          POP      {r4-r12,lr}           ;939
0007ac  f7ffbffe          B.W      BEEP_Tiggr
0007b0  7808              LDRB     r0,[r1,#0]            ;944  ; para_set2
0007b2  28ff              CMP      r0,#0xff              ;944
0007b4  d006              BEQ      |L1.1988|
0007b6  f7fffffe          BL       CDC_OP_DOWN
0007ba  81ec              STRH     r4,[r5,#0xe]          ;955
0007bc  e8bd5ff0          POP      {r4-r12,lr}           ;956
0007c0  f7ffbffe          B.W      BEEP_Tiggr
                  |L1.1988|
0007c4  f7fffffe          BL       OC_OP_DOWN
0007c8  81ec              STRH     r4,[r5,#0xe]          ;947
0007ca  e8bd5ff0          POP      {r4-r12,lr}           ;948
0007ce  f7ffbffe          B.W      BEEP_Tiggr
0007d2  7810              LDRB     r0,[r2,#0]            ;961  ; admin
0007d4  2801              CMP      r0,#1                 ;961
0007d6  d101              BNE      |L1.2012|
0007d8  f7fffffe          BL       SYS_INFO_DOWN
                  |L1.2012|
0007dc  81ec              STRH     r4,[r5,#0xe]          ;965
0007de  e8bd5ff0          POP      {r4-r12,lr}           ;966
0007e2  f7ffbffe          B.W      BEEP_Tiggr
                  |L1.2022|
0007e6  4824              LDR      r0,|L1.2168|
0007e8  7800              LDRB     r0,[r0,#0]            ;977  ; page_sw
0007ea  2808              CMP      r0,#8                 ;977
0007ec  d29c              BCS      |L1.1832|
0007ee  e8dff000          TBB      [pc,r0]               ;977
0007f2  0424              DCB      0x04,0x24
0007f4  0513160c          DCB      0x05,0x13,0x16,0x0c
0007f8  042b              DCB      0x04,0x2b
0007fa  e738              B        |L1.1646|
0007fc  f7fffffe          BL       MENU_SET
000800  81ec              STRH     r4,[r5,#0xe]          ;981
000802  e8bd5ff0          POP      {r4-r12,lr}           ;982
000806  f7ffbffe          B.W      BEEP_Tiggr
00080a  f7fffffe          BL       PARA_SET
00080e  81ec              STRH     r4,[r5,#0xe]          ;988
000810  e8bd5ff0          POP      {r4-r12,lr}           ;989
000814  f7ffbffe          B.W      BEEP_Tiggr
000818  7808              LDRB     r0,[r1,#0]            ;994  ; para_set2
00081a  28ff              CMP      r0,#0xff              ;994
00081c  d006              BEQ      |L1.2092|
00081e  f7fffffe          BL       LOAD_SET
000822  81ec              STRH     r4,[r5,#0xe]          ;1005
000824  e8bd5ff0          POP      {r4-r12,lr}           ;1006
000828  f7ffbffe          B.W      BEEP_Tiggr
                  |L1.2092|
00082c  f7fffffe          BL       OC_SET
000830  81ec              STRH     r4,[r5,#0xe]          ;997
000832  e8bd5ff0          POP      {r4-r12,lr}           ;998
000836  f7ffbffe          B.W      BEEP_Tiggr
00083a  f7fffffe          BL       CDC_SET
00083e  81ec              STRH     r4,[r5,#0xe]          ;1012
000840  e8bd5ff0          POP      {r4-r12,lr}           ;1013
000844  f7ffbffe          B.W      BEEP_Tiggr
000848  f7fffffe          BL       CFM_PASS
00084c  81ec              STRH     r4,[r5,#0xe]          ;1019
00084e  e8bd5ff0          POP      {r4-r12,lr}           ;1020
000852  f7ffbffe          B.W      BEEP_Tiggr
                  |L1.2134|
000856  7b28              LDRB     r0,[r5,#0xc]          ;1028  ; track
000858  2805              CMP      r0,#5                 ;1028
00085a  d292              BCS      |L1.1922|
00085c  e8dff000          TBB      [pc,r0]               ;1028
000860  71915103          DCB      0x71,0x91,0x51,0x03
000864  3100              DCB      0x31,0x00
000866  6818              LDR      r0,[r3,#0]            ;1032  ; hWinR
000868  f7fffffe          BL       WM_DeleteWindow
00086c  6830              LDR      r0,[r6,#0]            ;1033  ; hWinWind
00086e  f7fffffe          BL       WM_DeleteWindow
000872  6838              LDR      r0,[r7,#0]            ;1034  ; hWinG
000874  e00c              B        |L1.2192|
000876  0000              DCW      0x0000
                  |L1.2168|
                          DCD      page_sw
                  |L1.2172|
00087c  3800              DCB      "8",0
00087e  00                DCB      0
00087f  00                DCB      0
                  |L1.2176|
000880  3900              DCB      "9",0
000882  00                DCB      0
000883  00                DCB      0
                  |L1.2180|
000884  3000              DCB      "0",0
000886  00                DCB      0
000887  00                DCB      0
                  |L1.2184|
000888  2e00              DCB      ".",0
00088a  00                DCB      0
00088b  00                DCB      0
                  |L1.2188|
                          DCD      Run_Control
                  |L1.2192|
000890  f7fffffe          BL       WM_DeleteWindow
000894  f8d80000          LDR      r0,[r8,#0]            ;1035  ; load_wind
000898  f7fffffe          BL       WM_DeleteWindow
00089c  f8d90000          LDR      r0,[r9,#0]            ;1036  ; hWinsysinfo
0008a0  f7fffffe          BL       WM_DeleteWindow
0008a4  f8da0000          LDR      r0,[r10,#0]           ;1037  ; hWincdc
0008a8  f7fffffe          BL       WM_DeleteWindow
0008ac  f8db0000          LDR      r0,[r11,#0]           ;1038  ; hWinset
0008b0  f7fffffe          BL       WM_DeleteWindow
0008b4  f7fffffe          BL       CreateR
0008b8  81ec              STRH     r4,[r5,#0xe]          ;1040
0008ba  e8bd5ff0          POP      {r4-r12,lr}           ;1041
0008be  f7ffbffe          B.W      BEEP_Tiggr
0008c2  6818              LDR      r0,[r3,#0]            ;1046  ; hWinR
0008c4  f7fffffe          BL       WM_DeleteWindow
0008c8  6830              LDR      r0,[r6,#0]            ;1047  ; hWinWind
0008ca  f7fffffe          BL       WM_DeleteWindow
0008ce  6838              LDR      r0,[r7,#0]            ;1048  ; hWinG
0008d0  f7fffffe          BL       WM_DeleteWindow
0008d4  f8d80000          LDR      r0,[r8,#0]            ;1049  ; load_wind
0008d8  f7fffffe          BL       WM_DeleteWindow
0008dc  f8d90000          LDR      r0,[r9,#0]            ;1050  ; hWinsysinfo
0008e0  f7fffffe          BL       WM_DeleteWindow
0008e4  f8da0000          LDR      r0,[r10,#0]           ;1051  ; hWincdc
0008e8  f7fffffe          BL       WM_DeleteWindow
0008ec  f8db0000          LDR      r0,[r11,#0]           ;1052  ; hWinset
0008f0  f7fffffe          BL       WM_DeleteWindow
0008f4  f7fffffe          BL       CreateWindow2
0008f8  81ec              STRH     r4,[r5,#0xe]          ;1054
0008fa  e8bd5ff0          POP      {r4-r12,lr}           ;1055
0008fe  f7ffbffe          B.W      BEEP_Tiggr
000902  6818              LDR      r0,[r3,#0]            ;1060  ; hWinR
000904  f7fffffe          BL       WM_DeleteWindow
000908  6830              LDR      r0,[r6,#0]            ;1061  ; hWinWind
00090a  f7fffffe          BL       WM_DeleteWindow
00090e  6838              LDR      r0,[r7,#0]            ;1062  ; hWinG
000910  f7fffffe          BL       WM_DeleteWindow
000914  f8d80000          LDR      r0,[r8,#0]            ;1063  ; load_wind
000918  f7fffffe          BL       WM_DeleteWindow
00091c  f8d90000          LDR      r0,[r9,#0]            ;1064  ; hWinsysinfo
000920  f7fffffe          BL       WM_DeleteWindow
000924  f8da0000          LDR      r0,[r10,#0]           ;1065  ; hWincdc
000928  f7fffffe          BL       WM_DeleteWindow
00092c  f8db0000          LDR      r0,[r11,#0]           ;1066  ; hWinset
000930  f7fffffe          BL       WM_DeleteWindow
000934  f7fffffe          BL       CreateWindow
000938  81ec              STRH     r4,[r5,#0xe]          ;1068
00093a  e8bd5ff0          POP      {r4-r12,lr}           ;1069
00093e  f7ffbffe          B.W      BEEP_Tiggr
000942  6818              LDR      r0,[r3,#0]            ;1074  ; hWinR
000944  f7fffffe          BL       WM_DeleteWindow
000948  6830              LDR      r0,[r6,#0]            ;1075  ; hWinWind
00094a  f7fffffe          BL       WM_DeleteWindow
00094e  6838              LDR      r0,[r7,#0]            ;1076  ; hWinG
000950  f7fffffe          BL       WM_DeleteWindow
000954  f8d80000          LDR      r0,[r8,#0]            ;1077  ; load_wind
000958  f7fffffe          BL       WM_DeleteWindow
00095c  f8d90000          LDR      r0,[r9,#0]            ;1078  ; hWinsysinfo
000960  f7fffffe          BL       WM_DeleteWindow
000964  f8da0000          LDR      r0,[r10,#0]           ;1079  ; hWincdc
000968  f7fffffe          BL       WM_DeleteWindow
00096c  f8db0000          LDR      r0,[r11,#0]           ;1080  ; hWinset
000970  f7fffffe          BL       WM_DeleteWindow
000974  f7fffffe          BL       CreateG
000978  81ec              STRH     r4,[r5,#0xe]          ;1082
00097a  e8bd5ff0          POP      {r4-r12,lr}           ;1083
00097e  f7ffbffe          B.W      BEEP_Tiggr
000982  6818              LDR      r0,[r3,#0]            ;1088  ; hWinR
000984  f7fffffe          BL       WM_DeleteWindow
000988  6830              LDR      r0,[r6,#0]            ;1089  ; hWinWind
00098a  f7fffffe          BL       WM_DeleteWindow
00098e  6838              LDR      r0,[r7,#0]            ;1090  ; hWinG
000990  f7fffffe          BL       WM_DeleteWindow
000994  f8d80000          LDR      r0,[r8,#0]            ;1091  ; load_wind
000998  f7fffffe          BL       WM_DeleteWindow
00099c  f8d90000          LDR      r0,[r9,#0]            ;1092  ; hWinsysinfo
0009a0  f7fffffe          BL       WM_DeleteWindow
0009a4  f8da0000          LDR      r0,[r10,#0]           ;1093  ; hWincdc
0009a8  f7fffffe          BL       WM_DeleteWindow
0009ac  f8db0000          LDR      r0,[r11,#0]           ;1094  ; hWinset
0009b0  f7fffffe          BL       WM_DeleteWindow
0009b4  f7fffffe          BL       CreateCDC
0009b8  81ec              STRH     r4,[r5,#0xe]          ;1096
0009ba  e8bd5ff0          POP      {r4-r12,lr}           ;1097
0009be  f7ffbffe          B.W      BEEP_Tiggr
                  |L1.2498|
0009c2  6818              LDR      r0,[r3,#0]            ;1107  ; hWinR
0009c4  f7fffffe          BL       WM_DeleteWindow
0009c8  6830              LDR      r0,[r6,#0]            ;1108  ; hWinWind
0009ca  f7fffffe          BL       WM_DeleteWindow
0009ce  6838              LDR      r0,[r7,#0]            ;1109  ; hWinG
0009d0  f7fffffe          BL       WM_DeleteWindow
0009d4  f8d80000          LDR      r0,[r8,#0]            ;1110  ; load_wind
0009d8  f7fffffe          BL       WM_DeleteWindow
0009dc  f8d90000          LDR      r0,[r9,#0]            ;1111  ; hWinsysinfo
0009e0  f7fffffe          BL       WM_DeleteWindow
0009e4  f8da0000          LDR      r0,[r10,#0]           ;1112  ; hWincdc
0009e8  f7fffffe          BL       WM_DeleteWindow
0009ec  f8db0000          LDR      r0,[r11,#0]           ;1113  ; hWinset
0009f0  f7fffffe          BL       WM_DeleteWindow
0009f4  f7fffffe          BL       CreateSET
0009f8  81ec              STRH     r4,[r5,#0xe]          ;1115
0009fa  e007              B        |L1.2572|
                  |L1.2556|
0009fc  e00a              B        |L1.2580|
                  |L1.2558|
0009fe  e1a1              B        |L1.3396|
                  |L1.2560|
000a00  e0af              B        |L1.2914|
                  |L1.2562|
000a02  e0f7              B        |L1.3060|
                  |L1.2564|
000a04  e118              B        |L1.3128|
                  |L1.2566|
000a06  e13a              B        |L1.3198|
                  |L1.2568|
000a08  e15c              B        |L1.3268|
                  |L1.2570|
000a0a  e17b              B        |L1.3332|
                  |L1.2572|
000a0c  e8bd5ff0          POP      {r4-r12,lr}           ;1116
000a10  f7ffbffe          B.W      BEEP_Tiggr
                  |L1.2580|
000a14  48db              LDR      r0,|L1.3460|
000a16  7802              LDRB     r2,[r0,#0]            ;1121  ; page_sw
000a18  4fdb              LDR      r7,|L1.3464|
000a1a  f44f5600          MOV      r6,#0x2000            ;1193
000a1e  2a01              CMP      r2,#1                 ;1121
000a20  d04b              BEQ      |L1.2746|
000a22  2a02              CMP      r2,#2                 ;1121
000a24  d074              BEQ      |L1.2832|
000a26  2a03              CMP      r2,#3                 ;1121
000a28  d032              BEQ      |L1.2704|
000a2a  2a04              CMP      r2,#4                 ;1121
000a2c  f47fae7c          BNE      |L1.1832|
000a30  7ae8              LDRB     r0,[r5,#0xb]          ;1125  ; LOAD_t
000a32  1c40              ADDS     r0,r0,#1              ;1125
000a34  72e8              STRB     r0,[r5,#0xb]          ;1125
000a36  7ae8              LDRB     r0,[r5,#0xb]          ;1126  ; LOAD_t
000a38  2801              CMP      r0,#1                 ;1126
000a3a  d900              BLS      |L1.2622|
000a3c  72ec              STRB     r4,[r5,#0xb]          ;1128
                  |L1.2622|
000a3e  7ae8              LDRB     r0,[r5,#0xb]          ;1130  ; LOAD_t
000a40  4ed2              LDR      r6,|L1.3468|
000a42  b118              CBZ      r0,|L1.2636|
000a44  7ae8              LDRB     r0,[r5,#0xb]          ;1136  ; LOAD_t
000a46  2801              CMP      r0,#1                 ;1136
000a48  d00b              BEQ      |L1.2658|
000a4a  e01c              B        |L1.2694|
                  |L1.2636|
000a4c  48d0              LDR      r0,|L1.3472|
000a4e  6801              LDR      r1,[r0,#0]            ;1132  ; flagA
000a50  f0210140          BIC      r1,r1,#0x40           ;1132
000a54  6001              STR      r1,[r0,#0]            ;1132  ; flagA
000a56  2102              MOVS     r1,#2                 ;1133
000a58  48ce              LDR      r0,|L1.3476|
000a5a  f7fffffe          BL       GPIO_SetBits
000a5e  7034              STRB     r4,[r6,#0]            ;1134
000a60  e011              B        |L1.2694|
                  |L1.2658|
000a62  48cb              LDR      r0,|L1.3472|
000a64  6801              LDR      r1,[r0,#0]            ;1138  ; flagA
000a66  f0410140          ORR      r1,r1,#0x40           ;1138
000a6a  6001              STR      r1,[r0,#0]            ;1138  ; flagA
000a6c  2102              MOVS     r1,#2                 ;1139
000a6e  48c9              LDR      r0,|L1.3476|
000a70  f7fffffe          BL       GPIO_ResetBits
000a74  f7fffffe          BL       GUI_GetTime
000a78  f44f71fa          MOV      r1,#0x1f4             ;1140
000a7c  fb90f0f1          SDIV     r0,r0,r1              ;1140
000a80  8268              STRH     r0,[r5,#0x12]         ;1140
000a82  2001              MOVS     r0,#1                 ;1141
000a84  7030              STRB     r0,[r6,#0]            ;1141
                  |L1.2694|
000a86  81ec              STRH     r4,[r5,#0xe]          ;1143
000a88  e8bd5ff0          POP      {r4-r12,lr}           ;1144
000a8c  f7ffbffe          B.W      BEEP_Tiggr
                  |L1.2704|
000a90  7928              LDRB     r0,[r5,#4]            ;1173  ; r_test
000a92  b960              CBNZ     r0,|L1.2734|
000a94  48c0              LDR      r0,|L1.3480|
000a96  ed9c0a00          VLDR     s0,[r12,#0]           ;1173
000a9a  edd00a00          VLDR     s1,[r0,#0]            ;1173
000a9e  eeb40ae0          VCMPE.F32 s0,s1                 ;1173
000aa2  eef1fa10          VMRS     APSR_nzcv,FPSCR       ;1173
000aa6  dd02              BLE      |L1.2734|
000aa8  2001              MOVS     r0,#1                 ;1175
000aaa  7128              STRB     r0,[r5,#4]            ;1175
000aac  e000              B        |L1.2736|
                  |L1.2734|
000aae  712c              STRB     r4,[r5,#4]            ;1177
                  |L1.2736|
000ab0  81ec              STRH     r4,[r5,#0xe]          ;1179
000ab2  e8bd5ff0          POP      {r4-r12,lr}           ;1180
000ab6  f7ffbffe          B.W      BEEP_Tiggr
                  |L1.2746|
000aba  f8df82e0          LDR      r8,|L1.3484|
000abe  f8980000          LDRB     r0,[r8,#0]            ;1185  ; cdc_sw
000ac2  b168              CBZ      r0,|L1.2784|
000ac4  4631              MOV      r1,r6                 ;1196
000ac6  4638              MOV      r0,r7                 ;1196
000ac8  f7fffffe          BL       GPIO_ResetBits
000acc  f8884000          STRB     r4,[r8,#0]            ;1197
000ad0  48b3              LDR      r0,|L1.3488|
000ad2  7004              STRB     r4,[r0,#0]            ;1198
000ad4  736c              STRB     r4,[r5,#0xd]          ;1199
                  |L1.2774|
000ad6  81ec              STRH     r4,[r5,#0xe]          ;1201
000ad8  e8bd5ff0          POP      {r4-r12,lr}           ;1202
000adc  f7ffbffe          B.W      BEEP_Tiggr
                  |L1.2784|
000ae0  4ab0              LDR      r2,|L1.3492|
000ae2  8fd0              LDRH     r0,[r2,#0x3e]         ;1187  ; Run_Control
000ae4  8050              STRH     r0,[r2,#2]            ;1187
000ae6  f8b20044          LDRH     r0,[r2,#0x44]         ;1188  ; Run_Control
000aea  8090              STRH     r0,[r2,#4]            ;1188
000aec  48ae              LDR      r0,|L1.3496|
000aee  7004              STRB     r4,[r0,#0]            ;1189
000af0  2003              MOVS     r0,#3                 ;1190
000af2  f7fffffe          BL       Mode_SW_CONT
000af6  48ad              LDR      r0,|L1.3500|
000af8  f04f0901          MOV      r9,#1                 ;1192
000afc  f8809000          STRB     r9,[r0,#0]            ;1192
000b00  4631              MOV      r1,r6                 ;1193
000b02  4638              MOV      r0,r7                 ;1193
000b04  f7fffffe          BL       GPIO_SetBits
000b08  f8889000          STRB     r9,[r8,#0]            ;1194
000b0c  e7e3              B        |L1.2774|
000b0e  e7ff              B        |L1.2832|
                  |L1.2832|
000b10  7a68              LDRB     r0,[r5,#9]            ;1208  ; POW_t
000b12  1c40              ADDS     r0,r0,#1              ;1208
000b14  7268              STRB     r0,[r5,#9]            ;1208
000b16  7a68              LDRB     r0,[r5,#9]            ;1209  ; POW_t
000b18  2801              CMP      r0,#1                 ;1209
000b1a  d900              BLS      |L1.2846|
000b1c  726c              STRB     r4,[r5,#9]            ;1211
                  |L1.2846|
000b1e  7a68              LDRB     r0,[r5,#9]            ;1213  ; POW_t
000b20  f8df828c          LDR      r8,|L1.3504|
000b24  b118              CBZ      r0,|L1.2862|
000b26  7a68              LDRB     r0,[r5,#9]            ;1218  ; POW_t
000b28  2801              CMP      r0,#1                 ;1218
000b2a  d007              BEQ      |L1.2876|
000b2c  e014              B        |L1.2904|
                  |L1.2862|
000b2e  4631              MOV      r1,r6                 ;1215
000b30  4638              MOV      r0,r7                 ;1215
000b32  f7fffffe          BL       GPIO_ResetBits
000b36  f8884000          STRB     r4,[r8,#0]            ;1216
000b3a  e00d              B        |L1.2904|
                  |L1.2876|
000b3c  4631              MOV      r1,r6                 ;1220
000b3e  4638              MOV      r0,r7                 ;1220
000b40  f7fffffe          BL       GPIO_SetBits
000b44  2001              MOVS     r0,#1                 ;1221
000b46  f8880000          STRB     r0,[r8,#0]            ;1221
000b4a  f7fffffe          BL       GUI_GetTime
000b4e  f44f71fa          MOV      r1,#0x1f4             ;1222
000b52  fb90f0f1          SDIV     r0,r0,r1              ;1222
000b56  8228              STRH     r0,[r5,#0x10]         ;1222
                  |L1.2904|
000b58  81ec              STRH     r4,[r5,#0xe]          ;1224
000b5a  e8bd5ff0          POP      {r4-r12,lr}           ;1225
000b5e  f7ffbffe          B.W      BEEP_Tiggr
                  |L1.2914|
000b62  4888              LDR      r0,|L1.3460|
000b64  7800              LDRB     r0,[r0,#0]            ;1234  ; page_sw
000b66  2801              CMP      r0,#1                 ;1234
000b68  d026              BEQ      |L1.3000|
000b6a  2802              CMP      r0,#2                 ;1234
000b6c  d01d              BEQ      |L1.2986|
000b6e  2803              CMP      r0,#3                 ;1234
000b70  d00c              BEQ      |L1.2956|
000b72  2804              CMP      r0,#4                 ;1234
000b74  f47fadd8          BNE      |L1.1832|
000b78  2001              MOVS     r0,#1                 ;1257
000b7a  70e8              STRB     r0,[r5,#3]            ;1257
000b7c  f8dc0000          LDR      r0,[r12,#0]           ;1258  ; DISS_Voltage
000b80  61a8              STR      r0,[r5,#0x18]         ;1258  ; clear_lv
000b82  81ec              STRH     r4,[r5,#0xe]          ;1259
000b84  e8bd5ff0          POP      {r4-r12,lr}           ;1260
000b88  f7ffbffe          B.W      BEEP_Tiggr
                  |L1.2956|
000b8c  2001              MOVS     r0,#1                 ;1238
000b8e  7068              STRB     r0,[r5,#1]            ;1238
000b90  4888              LDR      r0,|L1.3508|
000b92  7004              STRB     r4,[r0,#0]            ;1239
000b94  4883              LDR      r0,|L1.3492|
000b96  8b40              LDRH     r0,[r0,#0x1a]         ;1241  ; Run_Control
000b98  7168              STRB     r0,[r5,#5]            ;1241
000b9a  f8dc0000          LDR      r0,[r12,#0]           ;1242  ; DISS_Voltage
000b9e  6168              STR      r0,[r5,#0x14]         ;1242  ; clear_v
000ba0  81ec              STRH     r4,[r5,#0xe]          ;1243
000ba2  e8bd5ff0          POP      {r4-r12,lr}           ;1244
000ba6  f7ffbffe          B.W      BEEP_Tiggr
                  |L1.2986|
000baa  2001              MOVS     r0,#1                 ;1249
000bac  70a8              STRB     r0,[r5,#2]            ;1249
000bae  81ec              STRH     r4,[r5,#0xe]          ;1251
000bb0  e8bd5ff0          POP      {r4-r12,lr}           ;1252
000bb4  f7ffbffe          B.W      BEEP_Tiggr
                  |L1.3000|
000bb8  7b69              LDRB     r1,[r5,#0xd]          ;1265  ; mode_sw
000bba  487f              LDR      r0,|L1.3512|
000bbc  2902              CMP      r1,#2                 ;1265
000bbe  d101              BNE      |L1.3012|
000bc0  7801              LDRB     r1,[r0,#0]            ;1265  ; pause_flag
000bc2  b1a1              CBZ      r1,|L1.3054|
                  |L1.3012|
000bc4  7004              STRB     r4,[r0,#0]            ;1269
000bc6  4975              LDR      r1,|L1.3484|
000bc8  2001              MOVS     r0,#1                 ;1270
000bca  7008              STRB     r0,[r1,#0]            ;1270
000bcc  f7fffffe          BL       GUI_GetTime
000bd0  f44f71fa          MOV      r1,#0x1f4             ;1271
000bd4  fb90f0f1          SDIV     r0,r0,r1              ;1271
000bd8  4978              LDR      r1,|L1.3516|
000bda  8008              STRH     r0,[r1,#0]            ;1271
000bdc  2102              MOVS     r1,#2                 ;1272
000bde  486d              LDR      r0,|L1.3476|
000be0  f7fffffe          BL       GPIO_ResetBits
                  |L1.3044|
000be4  81ec              STRH     r4,[r5,#0xe]          ;1274
000be6  e8bd5ff0          POP      {r4-r12,lr}           ;1275
000bea  f7ffbffe          B.W      BEEP_Tiggr
                  |L1.3054|
000bee  2101              MOVS     r1,#1                 ;1267
000bf0  7001              STRB     r1,[r0,#0]            ;1267
000bf2  e7f7              B        |L1.3044|
                  |L1.3060|
000bf4  6818              LDR      r0,[r3,#0]            ;1295  ; hWinR
000bf6  f7fffffe          BL       WM_DeleteWindow
000bfa  6830              LDR      r0,[r6,#0]            ;1296  ; hWinWind
000bfc  f7fffffe          BL       WM_DeleteWindow
000c00  6838              LDR      r0,[r7,#0]            ;1297  ; hWinG
000c02  f7fffffe          BL       WM_DeleteWindow
000c06  f8d80000          LDR      r0,[r8,#0]            ;1298  ; load_wind
000c0a  f7fffffe          BL       WM_DeleteWindow
000c0e  f8d90000          LDR      r0,[r9,#0]            ;1299  ; hWinsysinfo
000c12  f7fffffe          BL       WM_DeleteWindow
000c16  f8da0000          LDR      r0,[r10,#0]           ;1300  ; hWincdc
000c1a  f7fffffe          BL       WM_DeleteWindow
000c1e  f8db0000          LDR      r0,[r11,#0]           ;1301  ; hWinset
000c22  f7fffffe          BL       WM_DeleteWindow
000c26  f7fffffe          BL       CreateR
000c2a  2001              MOVS     r0,#1                 ;1304
000c2c  f7fffffe          BL       Mode_SW_CONT
000c30  e8bd5ff0          POP      {r4-r12,lr}           ;1305
000c34  f7ffbffe          B.W      BEEP_Tiggr
                  |L1.3128|
000c38  6818              LDR      r0,[r3,#0]            ;1310  ; hWinR
000c3a  f7fffffe          BL       WM_DeleteWindow
000c3e  6830              LDR      r0,[r6,#0]            ;1311  ; hWinWind
000c40  f7fffffe          BL       WM_DeleteWindow
000c44  6838              LDR      r0,[r7,#0]            ;1312  ; hWinG
000c46  f7fffffe          BL       WM_DeleteWindow
000c4a  f8d80000          LDR      r0,[r8,#0]            ;1313  ; load_wind
000c4e  f7fffffe          BL       WM_DeleteWindow
000c52  f8d90000          LDR      r0,[r9,#0]            ;1314  ; hWinsysinfo
000c56  f7fffffe          BL       WM_DeleteWindow
000c5a  f8da0000          LDR      r0,[r10,#0]           ;1315  ; hWincdc
000c5e  f7fffffe          BL       WM_DeleteWindow
000c62  f8db0000          LDR      r0,[r11,#0]           ;1316  ; hWinset
000c66  f7fffffe          BL       WM_DeleteWindow
000c6a  f7fffffe          BL       CreateWindow2
000c6e  2002              MOVS     r0,#2                 ;1319
000c70  f7fffffe          BL       Mode_SW_CONT
000c74  81ec              STRH     r4,[r5,#0xe]          ;1321
000c76  e8bd5ff0          POP      {r4-r12,lr}           ;1322
000c7a  f7ffbffe          B.W      BEEP_Tiggr
                  |L1.3198|
000c7e  6818              LDR      r0,[r3,#0]            ;1327  ; hWinR
000c80  f7fffffe          BL       WM_DeleteWindow
000c84  6830              LDR      r0,[r6,#0]            ;1328  ; hWinWind
000c86  f7fffffe          BL       WM_DeleteWindow
000c8a  6838              LDR      r0,[r7,#0]            ;1329  ; hWinG
000c8c  f7fffffe          BL       WM_DeleteWindow
000c90  f8d80000          LDR      r0,[r8,#0]            ;1330  ; load_wind
000c94  f7fffffe          BL       WM_DeleteWindow
000c98  f8d90000          LDR      r0,[r9,#0]            ;1331  ; hWinsysinfo
000c9c  f7fffffe          BL       WM_DeleteWindow
000ca0  f8da0000          LDR      r0,[r10,#0]           ;1332  ; hWincdc
000ca4  f7fffffe          BL       WM_DeleteWindow
000ca8  f8db0000          LDR      r0,[r11,#0]           ;1333  ; hWinset
000cac  f7fffffe          BL       WM_DeleteWindow
000cb0  f7fffffe          BL       CreateWindow
000cb4  2003              MOVS     r0,#3                 ;1335
000cb6  f7fffffe          BL       Mode_SW_CONT
000cba  81ec              STRH     r4,[r5,#0xe]          ;1336
000cbc  e8bd5ff0          POP      {r4-r12,lr}           ;1337
000cc0  f7ffbffe          B.W      BEEP_Tiggr
                  |L1.3268|
000cc4  6818              LDR      r0,[r3,#0]            ;1343  ; hWinR
000cc6  f7fffffe          BL       WM_DeleteWindow
000cca  6830              LDR      r0,[r6,#0]            ;1344  ; hWinWind
000ccc  f7fffffe          BL       WM_DeleteWindow
000cd0  6838              LDR      r0,[r7,#0]            ;1345  ; hWinG
000cd2  f7fffffe          BL       WM_DeleteWindow
000cd6  f8d80000          LDR      r0,[r8,#0]            ;1346  ; load_wind
000cda  f7fffffe          BL       WM_DeleteWindow
000cde  f8d90000          LDR      r0,[r9,#0]            ;1347  ; hWinsysinfo
000ce2  f7fffffe          BL       WM_DeleteWindow
000ce6  f8da0000          LDR      r0,[r10,#0]           ;1348  ; hWincdc
000cea  f7fffffe          BL       WM_DeleteWindow
000cee  f8db0000          LDR      r0,[r11,#0]           ;1349  ; hWinset
000cf2  f7fffffe          BL       WM_DeleteWindow
000cf6  f7fffffe          BL       CreateCDC
000cfa  81ec              STRH     r4,[r5,#0xe]          ;1351
000cfc  e8bd5ff0          POP      {r4-r12,lr}           ;1352
000d00  f7ffbffe          B.W      BEEP_Tiggr
                  |L1.3332|
000d04  6818              LDR      r0,[r3,#0]            ;1357  ; hWinR
000d06  f7fffffe          BL       WM_DeleteWindow
000d0a  6830              LDR      r0,[r6,#0]            ;1358  ; hWinWind
000d0c  f7fffffe          BL       WM_DeleteWindow
000d10  6838              LDR      r0,[r7,#0]            ;1359  ; hWinG
000d12  f7fffffe          BL       WM_DeleteWindow
000d16  f8d80000          LDR      r0,[r8,#0]            ;1360  ; load_wind
000d1a  f7fffffe          BL       WM_DeleteWindow
000d1e  f8d90000          LDR      r0,[r9,#0]            ;1361  ; hWinsysinfo
000d22  f7fffffe          BL       WM_DeleteWindow
000d26  f8da0000          LDR      r0,[r10,#0]           ;1362  ; hWincdc
000d2a  f7fffffe          BL       WM_DeleteWindow
000d2e  f8db0000          LDR      r0,[r11,#0]           ;1363  ; hWinset
000d32  f7fffffe          BL       WM_DeleteWindow
000d36  f7fffffe          BL       CreateG
000d3a  81ec              STRH     r4,[r5,#0xe]          ;1365
000d3c  e8bd5ff0          POP      {r4-r12,lr}           ;1366
000d40  f7ffbffe          B.W      BEEP_Tiggr
                  |L1.3396|
000d44  6818              LDR      r0,[r3,#0]            ;1371  ; hWinR
000d46  f7fffffe          BL       WM_DeleteWindow
000d4a  6830              LDR      r0,[r6,#0]            ;1372  ; hWinWind
000d4c  f7fffffe          BL       WM_DeleteWindow
000d50  6838              LDR      r0,[r7,#0]            ;1373  ; hWinG
000d52  f7fffffe          BL       WM_DeleteWindow
000d56  f8d80000          LDR      r0,[r8,#0]            ;1374  ; load_wind
000d5a  f7fffffe          BL       WM_DeleteWindow
000d5e  f8d90000          LDR      r0,[r9,#0]            ;1375  ; hWinsysinfo
000d62  f7fffffe          BL       WM_DeleteWindow
000d66  f8da0000          LDR      r0,[r10,#0]           ;1376  ; hWincdc
000d6a  f7fffffe          BL       WM_DeleteWindow
000d6e  f8db0000          LDR      r0,[r11,#0]           ;1377  ; hWinset
000d72  f7fffffe          BL       WM_DeleteWindow
000d76  f7fffffe          BL       Createsysinfo
000d7a  81ec              STRH     r4,[r5,#0xe]          ;1379
000d7c  e8bd5ff0          POP      {r4-r12,lr}           ;1380
000d80  f7ffbffe          B.W      BEEP_Tiggr
;;;1389   
                          ENDP

                  |L1.3460|
                          DCD      page_sw
                  |L1.3464|
                          DCD      0x40020400
                  |L1.3468|
                          DCD      load_sw
                  |L1.3472|
                          DCD      flagA
                  |L1.3476|
                          DCD      0x40020800
                  |L1.3480|
                          DCD      gate_v
                  |L1.3484|
                          DCD      cdc_sw
                  |L1.3488|
                          DCD      paused
                  |L1.3492|
                          DCD      Run_Control
                  |L1.3496|
                          DCD      cutoff_flag
                  |L1.3500|
                          DCD      charge_step
                  |L1.3504|
                          DCD      pow_sw
                  |L1.3508|
                          DCD      finish
                  |L1.3512|
                          DCD      pause_flag
                  |L1.3516|
                          DCD      restart_time

                          AREA ||i.Key_Scan||, CODE, READONLY, ALIGN=2

                  Key_Scan PROC
;;;129    /************************************************************************************************************************/
;;;130    vu32 Key_Scan(void)
000000  b530              PUSH     {r4,r5,lr}
;;;131    {
;;;132    	static vu8 KeyState = KEY_INIT_STATE;
;;;133    	static vu8 IsKeyRelease = 1;
;;;134    
;;;135    	static vu8 KeyValueTemp = 0;
;;;136    	vu8 KeyValue ;
;;;137    	KeyValue= KEY_NULL_VALUE;
;;;138    	
;;;139    	if((NewKey>0x37)&&(IsKeyRelease==1))
000002  4922              LDR      r1,|L2.140|
000004  7a8d              LDRB     r5,[r1,#0xa]  ; NewKey
;;;140    	{
;;;141    		if(KeyState == KEY_INIT_STATE)                    /*ϞдݼдЂ*/
;;;142    		{
;;;143    			KeyState = KEY_WOBBLE_STATE;
;;;144    			return KEY_NULL_VALUE;
;;;145    		}
;;;146    		else if(KeyState == KEY_WOBBLE_STATE)                /* лֶ */
;;;147    		{
;;;148    			KeyState = KEY_PRESS_STATE;
;;;149    			return KEY_NULL_VALUE;
;;;150    		}
;;;151    		else if(KeyState == KEY_PRESS_STATE)                /* ԐдݼдЂì׵ܘдݼֵ */
;;;152    		{
;;;153    			KeyValue = NewKey;
;;;154    			KeyValueTemp = KeyValue;
;;;155    			KeyState = KEY_CONTINUE_STATE;
;;;156    			return KeyValue;
;;;157    		}
;;;158    		else if(KeyState == KEY_CONTINUE_STATE)           /*˫ܷдݼ*/
;;;159    		{
;;;160    			KeyCounter ++;
;;;161    			if(KeyCounter == KEY_CONTINUE_PERIOD)
;;;162    			{
;;;163    				 KeyCounter = 0;
;;;164    				 KeyState = KEY_LONG_STATE;
;;;165    			}
;;;166    		}
;;;167    		else if(KeyState == KEY_LONG_STATE)                        /* Ӥддݼ */
;;;168    		{
;;;169    			KeyCounter ++;
;;;170    			if(KeyCounter == KEY_LONG_PERIOD)
;;;171    			{
;;;172    				KeyCounter = 0;
;;;173    				Flag_Long=1; //ӤдԥעҪ־λ
000006  4a22              LDR      r2,|L2.144|
000008  2300              MOVS     r3,#0                 ;137
00000a  2401              MOVS     r4,#1                 ;143
00000c  6810              LDR      r0,[r2,#0]            ;139
00000e  2d37              CMP      r5,#0x37              ;139
000010  d902              BLS      |L2.24|
000012  79cd              LDRB     r5,[r1,#7]            ;139  ; IsKeyRelease
000014  2d01              CMP      r5,#1                 ;139
000016  d009              BEQ      |L2.44|
                  |L2.24|
;;;174    			}
;;;175    		}
;;;176    	}
;;;177    	else if(NewKey<=0x37)
000018  7a8d              LDRB     r5,[r1,#0xa]  ; NewKey
00001a  2d37              CMP      r5,#0x37
00001c  d804              BHI      |L2.40|
;;;178    	{
;;;179    		KeyState = KEY_INIT_STATE;        /* ϳԥעì׵ܘսԵʼ״̬ */
00001e  718b              STRB     r3,[r1,#6]
;;;180    		IsKeyRelease = 1;
000020  71cc              STRB     r4,[r1,#7]
;;;181    		Flag_Long=0;
000022  f0200004          BIC      r0,r0,#4
000026  6010              STR      r0,[r2,#0]  ; flagB
                  |L2.40|
;;;182    	}
;;;183    	return KEY_NULL_VALUE;
000028  2000              MOVS     r0,#0
;;;184    }
00002a  bd30              POP      {r4,r5,pc}
                  |L2.44|
00002c  798d              LDRB     r5,[r1,#6]            ;141  ; KeyState
00002e  b1b5              CBZ      r5,|L2.94|
000030  798c              LDRB     r4,[r1,#6]            ;146  ; KeyState
000032  2c01              CMP      r4,#1                 ;146
000034  d016              BEQ      |L2.100|
000036  798c              LDRB     r4,[r1,#6]            ;151  ; KeyState
000038  2c02              CMP      r4,#2                 ;151
00003a  d017              BEQ      |L2.108|
00003c  798c              LDRB     r4,[r1,#6]            ;158  ; KeyState
00003e  2c04              CMP      r4,#4                 ;158
000040  d019              BEQ      |L2.118|
000042  798c              LDRB     r4,[r1,#6]            ;167  ; KeyState
000044  2c03              CMP      r4,#3                 ;167
000046  d1ef              BNE      |L2.40|
000048  89cc              LDRH     r4,[r1,#0xe]          ;169  ; KeyCounter
00004a  1c64              ADDS     r4,r4,#1              ;169
00004c  81cc              STRH     r4,[r1,#0xe]          ;169
00004e  89cc              LDRH     r4,[r1,#0xe]          ;170  ; KeyCounter
000050  2c32              CMP      r4,#0x32              ;170
000052  d1e9              BNE      |L2.40|
000054  81cb              STRH     r3,[r1,#0xe]          ;172
000056  f0400004          ORR      r0,r0,#4              ;173
00005a  6010              STR      r0,[r2,#0]            ;173  ; flagB
00005c  e7e4              B        |L2.40|
                  |L2.94|
00005e  718c              STRB     r4,[r1,#6]            ;143
000060  2000              MOVS     r0,#0                 ;144
000062  bd30              POP      {r4,r5,pc}
                  |L2.100|
000064  2002              MOVS     r0,#2                 ;148
000066  7188              STRB     r0,[r1,#6]            ;148
000068  2000              MOVS     r0,#0                 ;149
00006a  bd30              POP      {r4,r5,pc}
                  |L2.108|
00006c  7a88              LDRB     r0,[r1,#0xa]          ;153  ; NewKey
00006e  7208              STRB     r0,[r1,#8]            ;154
000070  2204              MOVS     r2,#4                 ;155
000072  718a              STRB     r2,[r1,#6]            ;155
000074  bd30              POP      {r4,r5,pc}
                  |L2.118|
000076  89c8              LDRH     r0,[r1,#0xe]          ;160  ; KeyCounter
000078  1c40              ADDS     r0,r0,#1              ;160
00007a  81c8              STRH     r0,[r1,#0xe]          ;160
00007c  89c8              LDRH     r0,[r1,#0xe]          ;161  ; KeyCounter
00007e  280a              CMP      r0,#0xa               ;161
000080  d1d2              BNE      |L2.40|
000082  81cb              STRH     r3,[r1,#0xe]          ;163
000084  2003              MOVS     r0,#3                 ;164
000086  7188              STRB     r0,[r1,#6]            ;164
000088  e7ce              B        |L2.40|
;;;185    
                          ENDP

00008a  0000              DCW      0x0000
                  |L2.140|
                          DCD      ||.data||
                  |L2.144|
                          DCD      flagB

                          AREA ||i.Mode_SW_CONT||, CODE, READONLY, ALIGN=2

                  Mode_SW_CONT PROC
;;;1390   /********************************************************************************/
;;;1391   void Mode_SW_CONT(vu8 mode)//ģʽȐۻ࠘׆
000000  b570              PUSH     {r4-r6,lr}
;;;1392   {
;;;1393   	switch(mode)
;;;1394   	{
;;;1395   		case 0x01 ://ŚبӢ˔ģʽ
;;;1396   		{
;;;1397   			GPIO_ResetBits(GPIOE,GPIO_Pin_2);
000002  4c14              LDR      r4,|L3.84|
;;;1398   			GPIO_ResetBits(GPIOE,GPIO_Pin_3);
;;;1399               mode_sw = mode_r;
000004  4d14              LDR      r5,|L3.88|
000006  2801              CMP      r0,#1                 ;1393
000008  d00e              BEQ      |L3.40|
00000a  2802              CMP      r0,#2                 ;1393
00000c  d017              BEQ      |L3.62|
00000e  2803              CMP      r0,#3                 ;1393
000010  d109              BNE      |L3.38|
;;;1400   		}
;;;1401   		break;
;;;1402   		case 0x02 ://غ՘ģʽ
;;;1403   		{
;;;1404   			GPIO_SetBits(GPIOE,GPIO_Pin_2);
;;;1405   			GPIO_ResetBits(GPIOE,GPIO_Pin_3);
;;;1406               mode_sw = mode_load;
;;;1407   		}
;;;1408   		break;
;;;1409   		case 0x03 ://ֱ·֧Դģʽ
;;;1410   		{
;;;1411   			GPIO_ResetBits(GPIOE,GPIO_Pin_2);//
000012  2104              MOVS     r1,#4
000014  4620              MOV      r0,r4
000016  f7fffffe          BL       GPIO_ResetBits
;;;1412   			GPIO_SetBits(GPIOE,GPIO_Pin_3);//
00001a  2108              MOVS     r1,#8
00001c  4620              MOV      r0,r4
00001e  f7fffffe          BL       GPIO_SetBits
;;;1413               mode_sw = mode_pow;
000022  2003              MOVS     r0,#3
000024  7368              STRB     r0,[r5,#0xd]
                  |L3.38|
;;;1414   		}
;;;1415   		break;
;;;1416   		default:
;;;1417   		break;
;;;1418   	}
;;;1419   }
000026  bd70              POP      {r4-r6,pc}
                  |L3.40|
000028  2104              MOVS     r1,#4                 ;1397
00002a  4620              MOV      r0,r4                 ;1397
00002c  f7fffffe          BL       GPIO_ResetBits
000030  2108              MOVS     r1,#8                 ;1398
000032  4620              MOV      r0,r4                 ;1398
000034  f7fffffe          BL       GPIO_ResetBits
000038  2001              MOVS     r0,#1                 ;1399
00003a  7368              STRB     r0,[r5,#0xd]          ;1399
00003c  bd70              POP      {r4-r6,pc}
                  |L3.62|
00003e  2104              MOVS     r1,#4                 ;1404
000040  4620              MOV      r0,r4                 ;1404
000042  f7fffffe          BL       GPIO_SetBits
000046  2108              MOVS     r1,#8                 ;1405
000048  4620              MOV      r0,r4                 ;1405
00004a  f7fffffe          BL       GPIO_ResetBits
00004e  2002              MOVS     r0,#2                 ;1406
000050  7368              STRB     r0,[r5,#0xd]          ;1406
000052  bd70              POP      {r4-r6,pc}
                          ENDP

                  |L3.84|
                          DCD      0x40021000
                  |L3.88|
                          DCD      ||.data||

                          AREA ||.data||, DATA, ALIGN=2

                  pass
000000  00                DCB      0x00
                  clear_flag1
000001  00                DCB      0x00
                  clear_flag2
000002  00                DCB      0x00
                  clear_flag3
000003  00                DCB      0x00
                  r_test
000004  00                DCB      0x00
                  clear_r
000005  00                DCB      0x00
                  KeyState
000006  00                DCB      0x00
                  IsKeyRelease
000007  01                DCB      0x01
                  KeyValueTemp
000008  00                DCB      0x00
                  POW_t
000009  00                DCB      0x00
                  NewKey
00000a  00                DCB      0x00
                  LOAD_t
00000b  00                DCB      0x00
                  track
00000c  00                DCB      0x00
                  mode_sw
00000d  00                DCB      0x00
                  KeyCounter
00000e  0000              DCB      0x00,0x00
                  menu_time
000010  0000              DCB      0x00,0x00
                  load_time
000012  0000              DCB      0x00,0x00
                  clear_v
000014  00000000          DCFS     0x00000000 ; 0
                  clear_lv
000018  00000000          DCFS     0x00000000 ; 0

                          AREA ||area_number.7||, DATA, ALIGN=0

                          EXPORTAS ||area_number.7||, ||.data||
                  t_KeyScan
000000  00                DCB      0x00

                          AREA ||area_number.8||, DATA, ALIGN=0

                          EXPORTAS ||area_number.8||, ||.data||
                  t_wei
000000  00                DCB      0x00

                          AREA ||area_number.9||, DATA, ALIGN=0

                          EXPORTAS ||area_number.9||, ||.data||
                  t_beep
000000  00                DCB      0x00

                          AREA ||area_number.10||, DATA, ALIGN=0

                          EXPORTAS ||area_number.10||, ||.data||
                  t_Str
000000  00                DCB      0x00

                          AREA ||area_number.11||, DATA, ALIGN=0

                          EXPORTAS ||area_number.11||, ||.data||
                  t_lock
000000  00                DCB      0x00

                          AREA ||area_number.12||, DATA, ALIGN=0

                          EXPORTAS ||area_number.12||, ||.data||
                  t_onoff
000000  00                DCB      0x00

                          AREA ||area_number.13||, DATA, ALIGN=0

                          EXPORTAS ||area_number.13||, ||.data||
                  t_doub
000000  00                DCB      0x00

                          AREA ||area_number.14||, DATA, ALIGN=0

                          EXPORTAS ||area_number.14||, ||.data||
                  t_key_step
000000  00                DCB      0x00

                          AREA ||area_number.15||, DATA, ALIGN=0

                          EXPORTAS ||area_number.15||, ||.data||
                  OFFSET_Zore
000000  00                DCB      0x00

;*** Start embedded assembler ***

#line 1 "..\\drive\\key.c"
	AREA ||.rev16_text||, CODE, READONLY
	THUMB
	EXPORT |__asm___5_key_c_pass____REV16|
#line 114 "D:\\Keil\\ARM\\CMSIS\\Include\\core_cmInstr.h"
|__asm___5_key_c_pass____REV16| PROC
#line 115

 rev16 r0, r0
 bx lr
	ENDP
	AREA ||.revsh_text||, CODE, READONLY
	THUMB
	EXPORT |__asm___5_key_c_pass____REVSH|
#line 128
|__asm___5_key_c_pass____REVSH| PROC
#line 129

 revsh r0, r0
 bx lr
	ENDP

;*** End   embedded assembler ***
