; generated by ARM C/C++ Compiler, 4.1 [Build 894]
; commandline ArmCC [--list --split_sections --debug -c --asm --interleave -o..\Output\load_face.o --asm_dir=..\Listing\ --list_dir=..\Listing\ --depend=..\Output\load_face.d --cpu=Cortex-M4.fp --apcs=interwork -O1 --diag_suppress=870 -I..\APP -I..\drive -I..\Include -I..\Libraries\CMSIS\inc -I..\Libraries\CMSIS\src -I..\Libraries\FWlib\inc -I..\Libraries\FWlib\src -I..\Listing -I..\Output -I..\Project -I..\STemWinLibrary522\Config -I..\STemWinLibrary522\emWinTask -I..\STemWinLibrary522\GUILib -I..\STemWinLibrary522\inc -I..\User -I..\USB\STM32_USB_HOST_Library\Class\HID\inc -I..\USB\STM32_USB_HOST_Library\Class\MSC\src -I..\USB\STM32_USB_HOST_Library\Core\src -I..\USB\USB_APP -I..\USB\STM32_USB_HOST_Library\Class\HID\src -I..\USB\STM32_USB_HOST_Library\Class\MSC\inc -I..\USB\STM32_USB_HOST_Library\Core\inc -I..\USB\STM32_USB_OTG_Driver\inc -I..\FATFS\exfuns -I..\FATFS\src\option -I..\FATFS\src -I..\MALLOC -ID:\Keil\ARM\RV31\Inc -ID:\Keil\ARM\CMSIS\Include -ID:\Keil\ARM\Inc\ST\STM32F4xx -DUSE_STDPERIPH_DRIVER -DSTM32F40XX -DUSE_USB_OTG_FS -DUSE_EMBEDDED_PHY -DUSE_USB_OTG_HS -DSTM32F40XX --omf_browse=..\Output\load_face.crf ..\APP\load_Face.c]
                          THUMB

                          AREA ||i.CreateWindow2||, CODE, READONLY, ALIGN=2

                  CreateWindow2 PROC
;;;484    
;;;485    WM_HWIN CreateWindow2(void) {
000000  b51c              PUSH     {r2-r4,lr}
;;;486      page_sw = face_load;
000002  4916              LDR      r1,|L1.92|
000004  2004              MOVS     r0,#4
000006  7008              STRB     r0,[r1,#0]
;;;487      track = face_load;
000008  4915              LDR      r1,|L1.96|
00000a  7008              STRB     r0,[r1,#0]
;;;488      set_sw = set_24;
00000c  4915              LDR      r1,|L1.100|
00000e  2017              MOVS     r0,#0x17
000010  7008              STRB     r0,[r1,#0]
;;;489      SET_Current_Laod = load_c;
000012  4815              LDR      r0,|L1.104|
000014  f8b0104a          LDRH     r1,[r0,#0x4a]  ; Run_Control
000018  8101              STRH     r1,[r0,#8]
;;;490      pow_sw = pow_off;
00001a  4814              LDR      r0,|L1.108|
00001c  2400              MOVS     r4,#0
00001e  7004              STRB     r4,[r0,#0]
;;;491      GPIO_ResetBits(GPIOB,GPIO_Pin_13);
000020  f44f5100          MOV      r1,#0x2000
000024  4812              LDR      r0,|L1.112|
000026  f7fffffe          BL       GPIO_ResetBits
;;;492      pass = 0;
00002a  4812              LDR      r0,|L1.116|
00002c  7004              STRB     r4,[r0,#0]
;;;493      TM1650_SET_LED(0x68,0x70);
00002e  2170              MOVS     r1,#0x70
000030  2068              MOVS     r0,#0x68
000032  f7fffffe          BL       TM1650_SET_LED
;;;494      GPIO_ResetBits(GPIOD,GPIO_Pin_12);//灭灯
000036  f44f5180          MOV      r1,#0x1000
00003a  480f              LDR      r0,|L1.120|
00003c  f7fffffe          BL       GPIO_ResetBits
;;;495    //  GPIO_SetBits(GPIOC,GPIO_Pin_1);//OFF
;;;496      load_wind = GUI_CreateDialogBox(_aDialogCreate2, GUI_COUNTOF(_aDialogCreate2), _cbDialog2, WM_HBKWIN, 0, 0);
000040  f7fffffe          BL       WM_GetDesktopWindow
000044  4603              MOV      r3,r0
000046  9400              STR      r4,[sp,#0]
000048  4a0c              LDR      r2,|L1.124|
00004a  2110              MOVS     r1,#0x10
00004c  480c              LDR      r0,|L1.128|
00004e  9401              STR      r4,[sp,#4]
000050  f7fffffe          BL       GUI_CreateDialogBox
000054  490b              LDR      r1,|L1.132|
000056  6048              STR      r0,[r1,#4]  ; load_wind
;;;497      return load_wind;
;;;498    }
000058  bd1c              POP      {r2-r4,pc}
;;;499    
                          ENDP

00005a  0000              DCW      0x0000
                  |L1.92|
                          DCD      page_sw
                  |L1.96|
                          DCD      track
                  |L1.100|
                          DCD      set_sw
                  |L1.104|
                          DCD      Run_Control
                  |L1.108|
                          DCD      pow_sw
                  |L1.112|
                          DCD      0x40020400
                  |L1.116|
                          DCD      pass
                  |L1.120|
                          DCD      0x40020c00
                  |L1.124|
                          DCD      _cbDialog2
                  |L1.128|
                          DCD      ||.constdata||
                  |L1.132|
                          DCD      ||.data||

                          AREA ||i.INPUT_LOAD||, CODE, READONLY, ALIGN=2

                  INPUT_LOAD PROC
;;;560              
;;;561    void INPUT_LOAD(char* num){    
000000  e92d4ff1          PUSH     {r0,r4-r11,lr}
;;;562        switch(set_sw){
000004  4859              LDR      r0,|L2.364|
000006  7800              LDRB     r0,[r0,#0]  ; set_sw
000008  2818              CMP      r0,#0x18
00000a  d12a              BNE      |L2.98|
;;;563            case set_25:
;;;564            {
;;;565                WM_HWIN hItem;
;;;566     //           WM_InvalidateWindow(load_wind);
;;;567                hItem = WM_GetDialogItem(load_wind, ID_TEXT_49);
00000c  4858              LDR      r0,|L2.368|
00000e  f640016e          MOV      r1,#0x86e
000012  6840              LDR      r0,[r0,#4]  ; load_wind
000014  f7fffffe          BL       WM_GetDialogItem
000018  4604              MOV      r4,r0
;;;568                switch(bit){
00001a  4e56              LDR      r6,|L2.372|
00001c  7830              LDRB     r0,[r6,#0]  ; bit
;;;569                    case 1:
;;;570                    {
;;;571                        load_c = atoi(num) * 100;
00001e  4d56              LDR      r5,|L2.376|
;;;572                        strcat(set_limit,num);            
000020  f8df9158          LDR      r9,|L2.380|
;;;573                        TEXT_SetText(hItem,set_limit);
;;;574                        
;;;575                        bit = 2;
;;;576                        break;
;;;577                    }
;;;578                    case 2:
;;;579                    {
;;;580                        strcat(set_limit,num);            
;;;581                        TEXT_SetText(hItem,set_limit);
;;;582                        if(set_limit[1] == 0x2e)//判断输入是否为小数点
;;;583                        {
;;;584                            dot_flag = 1;
000024  4f56              LDR      r7,|L2.384|
000026  f04f0a02          MOV      r10,#2                ;575
00002a  f04f0b01          MOV      r11,#1
;;;585                        }else{
;;;586                            load_c = load_c * 10 + atoi(num) * 100;
;;;587                        }
;;;588                        bit = 3;
;;;589                        break;
;;;590                    }
;;;591                    case 3:
;;;592                    {
;;;593                        strcat(set_limit,num);
;;;594                        TEXT_SetText(hItem,set_limit);
;;;595                        if(dot_flag == 0)
;;;596                        {
;;;597                            if(set_limit[2] == 0x2e)//判断输入是否为小数点
;;;598                            {                            
;;;599                                dot_flag = 2;
;;;600                            }else{
;;;601                                load_c = 0;
00002e  f04f0800          MOV      r8,#0
000032  2806              CMP      r0,#6                 ;568
000034  d215              BCS      |L2.98|
000036  e8dff000          TBB      [pc,r0]               ;568
00003a  1403              DCB      0x14,0x03
00003c  1634557a          DCB      0x16,0x34,0x55,0x7a
000040  9800              LDR      r0,[sp,#0]            ;571
000042  f7fffffe          BL       atoi
000046  2164              MOVS     r1,#0x64              ;571
000048  4348              MULS     r0,r1,r0              ;571
00004a  f8a5004a          STRH     r0,[r5,#0x4a]         ;571
00004e  484b              LDR      r0,|L2.380|
000050  9900              LDR      r1,[sp,#0]            ;572
000052  f7fffffe          BL       strcat
000056  4949              LDR      r1,|L2.380|
000058  4620              MOV      r0,r4                 ;573
00005a  f7fffffe          BL       TEXT_SetText
00005e  f886a000          STRB     r10,[r6,#0]           ;575
                  |L2.98|
;;;602                            }
;;;603                        }else{
;;;604                            load_c = load_c + atoi(num) * 10;
;;;605                        }                  
;;;606                        bit = 4;
;;;607                        break;
;;;608                    }
;;;609                    case 4:
;;;610                    {
;;;611                        strcat(set_limit,num);
;;;612                        TEXT_SetText(hItem,set_limit);
;;;613                        if(dot_flag == 0)
;;;614                        {
;;;615                            SET_Current_Laod = 0;
;;;616                        }else if(dot_flag == 2){
;;;617                            load_c = load_c + atoi(num) * 10;
;;;618                        }else{
;;;619                            load_c = load_c + atoi(num);
;;;620                        }                  
;;;621                        bit = 5;
;;;622                        break;
;;;623                    }
;;;624                    case 5:
;;;625                    {
;;;626                        strcat(set_limit,num);
;;;627                        TEXT_SetText(hItem,set_limit);
;;;628                        if(dot_flag == 0)
;;;629                        {
;;;630                            load_c = 0;
;;;631                        }else if(dot_flag == 1){
;;;632                            load_c = load_c;
;;;633                        }else{
;;;634                            load_c = load_c + atoi(num);
;;;635                        }                 
;;;636                        bit = 1;
;;;637                        break;
;;;638                    }
;;;639                }
;;;640                break;
;;;641            }
;;;642            default:break;
;;;643        }
;;;644    }
000062  e8bd8ff8          POP      {r3-r11,pc}
000066  4845              LDR      r0,|L2.380|
000068  9900              LDR      r1,[sp,#0]            ;580
00006a  f7fffffe          BL       strcat
00006e  4943              LDR      r1,|L2.380|
000070  4620              MOV      r0,r4                 ;581
000072  f7fffffe          BL       TEXT_SetText
000076  f8990001          LDRB     r0,[r9,#1]            ;582  ; set_limit
00007a  282e              CMP      r0,#0x2e              ;582
00007c  d00e              BEQ      |L2.156|
00007e  9800              LDR      r0,[sp,#0]            ;586
000080  f7fffffe          BL       atoi
000084  2164              MOVS     r1,#0x64              ;586
000086  4348              MULS     r0,r1,r0              ;586
000088  f8351f4a          LDRH     r1,[r5,#0x4a]!        ;586  ; Run_Control
00008c  eb010181          ADD      r1,r1,r1,LSL #2       ;586
000090  eb000041          ADD      r0,r0,r1,LSL #1       ;586
000094  8028              STRH     r0,[r5,#0]            ;586
                  |L2.150|
000096  2003              MOVS     r0,#3                 ;588
000098  7030              STRB     r0,[r6,#0]            ;588
00009a  e7e2              B        |L2.98|
                  |L2.156|
00009c  f887b000          STRB     r11,[r7,#0]           ;584
0000a0  e7f9              B        |L2.150|
0000a2  4836              LDR      r0,|L2.380|
0000a4  9900              LDR      r1,[sp,#0]            ;593
0000a6  f7fffffe          BL       strcat
0000aa  4934              LDR      r1,|L2.380|
0000ac  4620              MOV      r0,r4                 ;594
0000ae  f7fffffe          BL       TEXT_SetText
0000b2  7838              LDRB     r0,[r7,#0]            ;595  ; dot_flag
0000b4  b160              CBZ      r0,|L2.208|
0000b6  9800              LDR      r0,[sp,#0]            ;604
0000b8  f7fffffe          BL       atoi
0000bc  f8351f4a          LDRH     r1,[r5,#0x4a]!        ;604  ; Run_Control
0000c0  eb000080          ADD      r0,r0,r0,LSL #2       ;604
0000c4  eb010040          ADD      r0,r1,r0,LSL #1       ;604
0000c8  8028              STRH     r0,[r5,#0]            ;604
                  |L2.202|
0000ca  2004              MOVS     r0,#4                 ;606
0000cc  7030              STRB     r0,[r6,#0]            ;606
0000ce  e7c8              B        |L2.98|
                  |L2.208|
0000d0  f8990002          LDRB     r0,[r9,#2]            ;597  ; set_limit
0000d4  282e              CMP      r0,#0x2e              ;597
0000d6  d002              BEQ      |L2.222|
0000d8  f8a5804a          STRH     r8,[r5,#0x4a]         ;601
0000dc  e7f5              B        |L2.202|
                  |L2.222|
0000de  f887a000          STRB     r10,[r7,#0]           ;599
0000e2  e7f2              B        |L2.202|
0000e4  4825              LDR      r0,|L2.380|
0000e6  9900              LDR      r1,[sp,#0]            ;611
0000e8  f7fffffe          BL       strcat
0000ec  4923              LDR      r1,|L2.380|
0000ee  4620              MOV      r0,r4                 ;612
0000f0  f7fffffe          BL       TEXT_SetText
0000f4  7838              LDRB     r0,[r7,#0]            ;613  ; dot_flag
0000f6  b160              CBZ      r0,|L2.274|
0000f8  7838              LDRB     r0,[r7,#0]            ;616  ; dot_flag
0000fa  2802              CMP      r0,#2                 ;616
0000fc  d00c              BEQ      |L2.280|
0000fe  9800              LDR      r0,[sp,#0]            ;619
000100  f7fffffe          BL       atoi
000104  f8351f4a          LDRH     r1,[r5,#0x4a]!        ;619  ; Run_Control
000108  4408              ADD      r0,r0,r1              ;619
00010a  8028              STRH     r0,[r5,#0]            ;619
                  |L2.268|
00010c  2005              MOVS     r0,#5                 ;621
00010e  7030              STRB     r0,[r6,#0]            ;621
000110  e7a7              B        |L2.98|
                  |L2.274|
000112  f8a58008          STRH     r8,[r5,#8]            ;615
000116  e7f9              B        |L2.268|
                  |L2.280|
000118  9800              LDR      r0,[sp,#0]            ;617
00011a  f7fffffe          BL       atoi
00011e  f8351f4a          LDRH     r1,[r5,#0x4a]!        ;617  ; Run_Control
000122  eb000080          ADD      r0,r0,r0,LSL #2       ;617
000126  eb010040          ADD      r0,r1,r0,LSL #1       ;617
00012a  8028              STRH     r0,[r5,#0]            ;617
00012c  e7ee              B        |L2.268|
00012e  4813              LDR      r0,|L2.380|
000130  9900              LDR      r1,[sp,#0]            ;626
000132  f7fffffe          BL       strcat
000136  4911              LDR      r1,|L2.380|
000138  4620              MOV      r0,r4                 ;627
00013a  f7fffffe          BL       TEXT_SetText
00013e  7838              LDRB     r0,[r7,#0]            ;628  ; dot_flag
000140  b160              CBZ      r0,|L2.348|
000142  7838              LDRB     r0,[r7,#0]            ;631  ; dot_flag
000144  2801              CMP      r0,#1                 ;631
000146  d00c              BEQ      |L2.354|
000148  9800              LDR      r0,[sp,#0]            ;634
00014a  f7fffffe          BL       atoi
00014e  f8351f4a          LDRH     r1,[r5,#0x4a]!        ;634  ; Run_Control
000152  4408              ADD      r0,r0,r1              ;634
000154  8028              STRH     r0,[r5,#0]            ;634
                  |L2.342|
000156  f886b000          STRB     r11,[r6,#0]           ;636
00015a  e782              B        |L2.98|
                  |L2.348|
00015c  f8a5804a          STRH     r8,[r5,#0x4a]         ;630
000160  e7f9              B        |L2.342|
                  |L2.354|
000162  f8350f4a          LDRH     r0,[r5,#0x4a]!        ;632  ; Run_Control
000166  8028              STRH     r0,[r5,#0]            ;632
000168  e7f5              B        |L2.342|
;;;645    
                          ENDP

00016a  0000              DCW      0x0000
                  |L2.364|
                          DCD      set_sw
                  |L2.368|
                          DCD      ||.data||
                  |L2.372|
                          DCD      bit
                  |L2.376|
                          DCD      Run_Control
                  |L2.380|
                          DCD      set_limit
                  |L2.384|
                          DCD      dot_flag

                          AREA ||i.LOAD_SET||, CODE, READONLY, ALIGN=2

                          REQUIRE _printf_percent
                          REQUIRE _printf_widthprec
                          REQUIRE _printf_f
                          REQUIRE _printf_fp_dec
                  LOAD_SET PROC
;;;506    void LOAD_SET(void);
;;;507    void LOAD_SET(void) {
000000  e92d5ffc          PUSH     {r2-r12,lr}
;;;508        char    buf[5];
;;;509        float   dis_load_c;
;;;510        vu8 i;
;;;511        switch(set_sw)
000004  4e48              LDR      r6,|L3.296|
000006  7831              LDRB     r1,[r6,#0]  ; set_sw
;;;512        {
;;;513            case set_24:
;;;514            {
;;;515                WM_HWIN hItem;
;;;516    //            WM_InvalidateWindow(load_wind);
;;;517                hItem = WM_GetDialogItem(load_wind, ID_TEXT_48);
000008  4a49              LDR      r2,|L3.304|
;;;518                TEXT_SetBkColor(hItem,GUI_INVALID_COLOR);//选项背景色设为透明
;;;519                TEXT_SetTextColor(hItem, GUI_WHITE);
;;;520                       
;;;521                hItem = WM_GetDialogItem(load_wind, ID_TEXT_49);
;;;522                TEXT_SetBkColor(hItem,0x00BFFFFF);//选项背景色设为米色
00000a  f8df8120          LDR      r8,|L3.300|
;;;523                TEXT_SetTextColor(hItem, GUI_BLACK);
00000e  2500              MOVS     r5,#0
000010  6850              LDR      r0,[r2,#4]            ;511
000012  f640076d          MOV      r7,#0x86d             ;517
000016  f06f4970          MVN      r9,#0xf0000000        ;518
00001a  f06f4a7f          MVN      r10,#0xff000000       ;519
00001e  f6400b6e          MOV      r11,#0x86e            ;521
000022  2917              CMP      r1,#0x17              ;511
000024  d05b              BEQ      |L3.222|
000026  2918              CMP      r1,#0x18              ;511
000028  d157              BNE      |L3.218|
;;;524                for(i=0;i<5;i++)
;;;525                {
;;;526                    set_limit[i] = '\0';
;;;527                }
;;;528                set_sw = set_25;
;;;529                break;
;;;530            }
;;;531            case set_25:
;;;532            {
;;;533                WM_HWIN hItem;
;;;534    //            WM_InvalidateWindow(load_wind);
;;;535                hItem = WM_GetDialogItem(load_wind, ID_TEXT_49);
00002a  4659              MOV      r1,r11
00002c  4693              MOV      r11,r2
00002e  f7fffffe          BL       WM_GetDialogItem
000032  4604              MOV      r4,r0
;;;536                TEXT_SetBkColor(hItem,GUI_INVALID_COLOR);//选项背景色设为透明
000034  4649              MOV      r1,r9
000036  4620              MOV      r0,r4
000038  f7fffffe          BL       TEXT_SetBkColor
;;;537                TEXT_SetTextColor(hItem, GUI_WHITE); 
00003c  4651              MOV      r1,r10
00003e  4620              MOV      r0,r4
000040  f7fffffe          BL       TEXT_SetTextColor
;;;538                SET_Current_Laod = load_c;
000044  483b              LDR      r0,|L3.308|
000046  f8b0104a          LDRH     r1,[r0,#0x4a]  ; Run_Control
00004a  8101              STRH     r1,[r0,#8]
;;;539                if(SET_Current_Laod > 1500 || (float)SET_Current_Laod/100 * DISS_Voltage > 50){
00004c  8901              LDRH     r1,[r0,#8]  ; Run_Control
00004e  f24052dc          MOV      r2,#0x5dc
000052  eddf0a39          VLDR     s1,|L3.312|
000056  4291              CMP      r1,r2
000058  d810              BHI      |L3.124|
00005a  8901              LDRH     r1,[r0,#8]  ; Run_Control
00005c  4a38              LDR      r2,|L3.320|
00005e  ee001a10          VMOV     s0,r1
000062  4936              LDR      r1,|L3.316|
000064  eeb81a40          VCVT.F32.U32 s2,s0
000068  ee810a20          VDIV.F32 s0,s2,s1
00006c  ed911a00          VLDR     s2,[r1,#0]
000070  ee200a01          VMUL.F32 s0,s0,s2
000074  ee101a10          VMOV     r1,s0
000078  4291              CMP      r1,r2
00007a  dd00              BLE      |L3.126|
                  |L3.124|
;;;540                    SET_Current_Laod = 0;
00007c  8105              STRH     r5,[r0,#8]
                  |L3.126|
;;;541                }
;;;542                dis_load_c = (float)SET_Current_Laod/100;
00007e  8900              LDRH     r0,[r0,#8]  ; Run_Control
000080  ee000a10          VMOV     s0,r0
000084  eeb81a40          VCVT.F32.U32 s2,s0
000088  ee810a20          VDIV.F32 s0,s2,s1
;;;543                sprintf(buf,"%.2f",dis_load_c);
00008c  ee100a10          VMOV     r0,s0
000090  f7fffffe          BL       __aeabi_f2d
000094  ec410b10          VMOV     d0,r0,r1
000098  a12a              ADR      r1,|L3.324|
00009a  ec532b10          VMOV     r2,r3,d0
00009e  4668              MOV      r0,sp
0000a0  f7fffffe          BL       __2sprintf
;;;544                TEXT_SetText(hItem,buf);
0000a4  4669              MOV      r1,sp
0000a6  4620              MOV      r0,r4
0000a8  f7fffffe          BL       TEXT_SetText
;;;545                
;;;546                hItem = WM_GetDialogItem(load_wind, ID_TEXT_48);
0000ac  4639              MOV      r1,r7
0000ae  f8db0004          LDR      r0,[r11,#4]  ; load_wind
0000b2  f7fffffe          BL       WM_GetDialogItem
0000b6  4604              MOV      r4,r0
;;;547                TEXT_SetBkColor(hItem,0x00BFFFFF);//选项背景色设为米色
0000b8  4641              MOV      r1,r8
0000ba  4620              MOV      r0,r4
0000bc  f7fffffe          BL       TEXT_SetBkColor
;;;548                TEXT_SetTextColor(hItem, GUI_BLACK);
0000c0  2100              MOVS     r1,#0
0000c2  4620              MOV      r0,r4
0000c4  f7fffffe          BL       TEXT_SetTextColor
;;;549                Write_Limits();
0000c8  f7fffffe          BL       Write_Limits
;;;550                
;;;551                set_sw = set_24;
0000cc  2017              MOVS     r0,#0x17
0000ce  7030              STRB     r0,[r6,#0]
;;;552                bit = 1;
0000d0  491e              LDR      r1,|L3.332|
0000d2  2001              MOVS     r0,#1
0000d4  7008              STRB     r0,[r1,#0]
;;;553                dot_flag = 0;
0000d6  481e              LDR      r0,|L3.336|
0000d8  7005              STRB     r5,[r0,#0]
                  |L3.218|
;;;554                break;
;;;555            }
;;;556        }
;;;557    }
0000da  e8bd9ffc          POP      {r2-r12,pc}
                  |L3.222|
0000de  4639              MOV      r1,r7                 ;517
0000e0  4617              MOV      r7,r2                 ;517
0000e2  f7fffffe          BL       WM_GetDialogItem
0000e6  4604              MOV      r4,r0                 ;517
0000e8  4649              MOV      r1,r9                 ;518
0000ea  4620              MOV      r0,r4                 ;518
0000ec  f7fffffe          BL       TEXT_SetBkColor
0000f0  4651              MOV      r1,r10                ;519
0000f2  4620              MOV      r0,r4                 ;519
0000f4  f7fffffe          BL       TEXT_SetTextColor
0000f8  4659              MOV      r1,r11                ;521
0000fa  6878              LDR      r0,[r7,#4]            ;521  ; load_wind
0000fc  f7fffffe          BL       WM_GetDialogItem
000100  4604              MOV      r4,r0                 ;521
000102  4641              MOV      r1,r8                 ;522
000104  4620              MOV      r0,r4                 ;522
000106  f7fffffe          BL       TEXT_SetBkColor
00010a  2100              MOVS     r1,#0                 ;523
00010c  4620              MOV      r0,r4                 ;523
00010e  f7fffffe          BL       TEXT_SetTextColor
000112  2000              MOVS     r0,#0                 ;524
000114  490f              LDR      r1,|L3.340|
000116  e002              B        |L3.286|
                  |L3.280|
000118  540d              STRB     r5,[r1,r0]            ;526
00011a  1c40              ADDS     r0,r0,#1              ;524
00011c  b2c0              UXTB     r0,r0                 ;524
                  |L3.286|
00011e  2805              CMP      r0,#5                 ;524
000120  d3fa              BCC      |L3.280|
000122  2018              MOVS     r0,#0x18              ;528
000124  7030              STRB     r0,[r6,#0]            ;528
000126  e7d8              B        |L3.218|
;;;558    
                          ENDP

                  |L3.296|
                          DCD      set_sw
                  |L3.300|
                          DCD      0x00bfffff
                  |L3.304|
                          DCD      ||.data||
                  |L3.308|
                          DCD      Run_Control
                  |L3.312|
000138  42c80000          DCFS     0x42c80000 ; 100
                  |L3.316|
                          DCD      DISS_Voltage
                  |L3.320|
                          DCD      0x42480000
                  |L3.324|
000144  252e3266          DCB      "%.2f",0
000148  00      
000149  00                DCB      0
00014a  00                DCB      0
00014b  00                DCB      0
                  |L3.332|
                          DCD      bit
                  |L3.336|
                          DCD      dot_flag
                  |L3.340|
                          DCD      set_limit

                          AREA ||i.ResetLoad||, CODE, READONLY, ALIGN=2

                  ResetLoad PROC
;;;499    
;;;500    WM_HWIN ResetLoad(void) {
000000  b51c              PUSH     {r2-r4,lr}
;;;501      load_wind = GUI_CreateDialogBox(_aDialogCreate2, GUI_COUNTOF(_aDialogCreate2), _cbDialog2, WM_HBKWIN, 0, 0);
000002  f7fffffe          BL       WM_GetDesktopWindow
000006  4603              MOV      r3,r0
000008  2000              MOVS     r0,#0
00000a  9000              STR      r0,[sp,#0]
00000c  9001              STR      r0,[sp,#4]
00000e  4a04              LDR      r2,|L4.32|
000010  2110              MOVS     r1,#0x10
000012  4804              LDR      r0,|L4.36|
000014  f7fffffe          BL       GUI_CreateDialogBox
000018  4903              LDR      r1,|L4.40|
00001a  6048              STR      r0,[r1,#4]  ; load_wind
;;;502      return load_wind;
;;;503    }
00001c  bd1c              POP      {r2-r4,pc}
;;;504    
                          ENDP

00001e  0000              DCW      0x0000
                  |L4.32|
                          DCD      _cbDialog2
                  |L4.36|
                          DCD      ||.constdata||
                  |L4.40|
                          DCD      ||.data||

                          AREA ||i._cbDialog2||, CODE, READONLY, ALIGN=2

                          REQUIRE _printf_percent
                          REQUIRE _printf_widthprec
                          REQUIRE _printf_f
                          REQUIRE _printf_fp_dec
                          REQUIRE _printf_pre_padding
                          REQUIRE _printf_flags
                          REQUIRE _printf_d
                          REQUIRE _printf_int_dec
                  _cbDialog2 PROC
;;;79     
;;;80     static void _cbDialog2(WM_MESSAGE * pMsg) {
000000  e92d4ff0          PUSH     {r4-r11,lr}
000004  ed2d8b04          VPUSH    {d8-d9}
000008  b083              SUB      sp,sp,#0xc
00000a  4604              MOV      r4,r0
;;;81       WM_HWIN hItem;
;;;82       int     NCode;
;;;83       int     Id;
;;;84       static vu8 status_flash;
;;;85       char    buf[5];
;;;86       float   dis_load_c = (float)SET_Current_Laod/100;
00000c  4dfe              LDR      r5,|L5.1032|
00000e  8928              LDRH     r0,[r5,#8]  ; Run_Control
000010  ee000a10          VMOV     s0,r0
000014  eeb80a40          VCVT.F32.U32 s0,s0
000018  eddf8afc          VLDR     s17,|L5.1036|
00001c  ee808a28          VDIV.F32 s16,s0,s17
;;;87       // USER START (Optionally insert additional variables)
;;;88       // USER END
;;;89     
;;;90       switch (pMsg->MsgId) {
;;;91     
;;;92     	case WM_PAINT://无效化重绘
;;;93     		GUI_SetColor(GUI_WHITE);//设置画笔颜色
;;;94             GUI_FillRect(0,25,480,26);//画一条实线
;;;95             GUI_SetColor(GUI_ORANGE);
;;;96             GUI_SetFont(&GUI_Fontsymbol);
;;;97             GUI_UC_SetEncodeUTF8();
;;;98             GUI_SetTextMode(GUI_TM_TRANS);//设置文本模式为底色透明
;;;99     //        GUI_DispStringAt("Jinko", 5, 1);//SET
;;;100            if(lang == 0)
;;;101            {
;;;102                GUI_SetColor(GUI_WHITE);
;;;103                GUI_SetFont(&GUI_FontHZ20S);
;;;104                GUI_UC_SetEncodeUTF8();
;;;105                GUI_SetTextMode(GUI_TM_TRANS);//设置文本模式为底色透明
;;;106                GUI_DispStringAt("测量显示", 130, 3);//SET
;;;107            }else{
;;;108                GUI_SetColor(GUI_WHITE);
;;;109                GUI_SetFont(&GUI_Font20_ASCII);
;;;110                GUI_DispStringAt("DISPLAY", 130, 3);
;;;111            }
;;;112            GUI_SetColor(GUI_WHITE);//设置前景色为白色
;;;113    //         GUI_SetFont(&GUI_FontD24x32);//
;;;114    // 		GUI_GotoXY(95,72);//设置显示坐标
;;;115    // 		GUI_DispFloatFix(DISS_Voltage,5,2);//显示电压值
;;;116    // 		GUI_GotoXY(95,140);//设置显示坐标
;;;117    // 		GUI_DispFloatFix(DISS_Current,5,2);//显示电流值
;;;118            GUI_SetFont(&GUI_Font24_1);
;;;119            GUI_DispStringAt("A",440,75);
;;;120        
;;;121            GUI_SetFont(&GUI_FontEN40);
;;;122            GUI_SetColor(GUI_LIGHTGRAY);
000020  4ffb              LDR      r7,|L5.1040|
;;;123            GUI_DispStringAt("C:", 28, 190);
;;;124            GUI_SetColor(GUI_LIGHTGRAY);
;;;125            GUI_DispStringAt("m", 217, 196);
;;;126            GUI_DispStringAt("AH", 238, 187);
;;;127    		break;
;;;128    	case WM_KEY://接受按键消息来处理按键功能
;;;129    		switch (((WM_KEY_INFO*)(pMsg->Data.p))->Key) 
;;;130    		{ 
;;;131    			case GUI_KEY_TAB:
;;;132    
;;;133    			break;
;;;134    			
;;;135    			case GUI_KEY_ENTER:
;;;136    			break;
;;;137    		}
;;;138    	break;
;;;139    		
;;;140    	case WM_TIMER://定时模块消息
;;;141    	if(WM_GetTimerId(pMsg->Data.v) == ID_TimerTime1)
;;;142    	{
;;;143            if(clear_flag3 == 1)
;;;144            {
;;;145                if(DISS_Voltage <= clear_lv)
;;;146                {
;;;147                    hItem = WM_GetDialogItem(pMsg->hWin, ID_TEXT_84);
;;;148                    sprintf(buf,"%.2f",0.00);       
000022  ed9f9bfc          VLDR     d9,|L5.1044|
000026  6820              LDR      r0,[r4,#0]            ;90
000028  4efc              LDR      r6,|L5.1052|
00002a  f06f4b7f          MVN      r11,#0xff000000       ;93
00002e  281d              CMP      r0,#0x1d              ;90
000030  d070              BEQ      |L5.276|
000032  dc04              BGT      |L5.62|
000034  280e              CMP      r0,#0xe               ;90
000036  d06a              BEQ      |L5.270|
000038  280f              CMP      r0,#0xf               ;90
00003a  d106              BNE      |L5.74|
00003c  e00d              B        |L5.90|
                  |L5.62|
00003e  2826              CMP      r0,#0x26              ;90
000040  d069              BEQ      |L5.278|
000042  f5a07080          SUB      r0,r0,#0x100          ;90
000046  3813              SUBS     r0,r0,#0x13           ;90
000048  d066              BEQ      |L5.280|
                  |L5.74|
;;;149                    TEXT_SetText(hItem,buf);
;;;150                }else{
;;;151                    hItem = WM_GetDialogItem(pMsg->hWin, ID_TEXT_84);
;;;152                    sprintf(buf,"%.2f",DISS_Voltage);       
;;;153                    TEXT_SetText(hItem,buf);
;;;154                }
;;;155            }else{
;;;156                hItem = WM_GetDialogItem(pMsg->hWin, ID_TEXT_84);
;;;157                sprintf(buf,"%.2f",DISS_Voltage);       
;;;158                TEXT_SetText(hItem,buf);
;;;159            }
;;;160            if((float)SET_Current_Laod/100 * DISS_Voltage > 50){
;;;161                SET_Current_Laod = 0;
;;;162                hItem = WM_GetDialogItem(load_wind, ID_TEXT_49);
;;;163                TEXT_SetBkColor(hItem,GUI_INVALID_COLOR);//选项背景色设为透明
;;;164                TEXT_SetTextColor(hItem, GUI_WHITE);            
;;;165                if(SET_Current_Laod > 1500 || (float)SET_Current_Laod/100 * DISS_Voltage > 50){
;;;166                    SET_Current_Laod = 0;
;;;167                }
;;;168                dis_load_c = (float)SET_Current_Laod/100;
;;;169                sprintf(buf,"%.2f",dis_load_c);
;;;170                TEXT_SetText(hItem,buf);
;;;171            }
;;;172            
;;;173            hItem = WM_GetDialogItem(pMsg->hWin, ID_TEXT_85);
;;;174            sprintf(buf,"%.2f",DISS_Current);        
;;;175    		TEXT_SetText(hItem,buf);
;;;176            
;;;177    //        test_load();
;;;178            
;;;179            if(load_sw == load_on)
;;;180            {
;;;181    //            battery_c = (int)(((float)(GUI_GetTime()/500 - load_time)/3600 * DISS_Current)*1000);
;;;182                battery_c = (int)bc_raw;
;;;183                hItem = WM_GetDialogItem(pMsg->hWin, ID_TEXT_116);
;;;184                sprintf(buf,"%05d",battery_c);     
;;;185                TEXT_SetText(hItem,buf);
;;;186                if(status_flash == 0){
;;;187                    hItem = WM_GetDialogItem(pMsg->hWin, ID_TEXT_89);
;;;188                    TEXT_SetTextColor(hItem, GUI_RED);//设置字体颜色
;;;189                    if(lang == 0)
;;;190                    {
;;;191                        TEXT_SetFont(hItem,&GUI_FontHZ16);//设定文本字体
;;;192                        GUI_UC_SetEncodeUTF8();        
;;;193                        TEXT_SetText(hItem,"放电中");
;;;194                    }else{
;;;195                        TEXT_SetFont(hItem,&GUI_Font20_ASCII);//设定文本字体
;;;196                        GUI_UC_SetEncodeUTF8();        
;;;197                        TEXT_SetText(hItem,"Discharging");
;;;198                    }
;;;199                    status_flash = 1;
;;;200                }else{
;;;201                    hItem = WM_GetDialogItem(pMsg->hWin, ID_TEXT_89);
;;;202                    TEXT_SetText(hItem,"");
;;;203                    status_flash = 0;
;;;204                }
;;;205    
;;;206                
;;;207            }else{
;;;208                hItem = WM_GetDialogItem(pMsg->hWin, ID_TEXT_89);
;;;209                TEXT_SetText(hItem,"");
;;;210            }
;;;211            
;;;212    		WM_RestartTimer(pMsg->Data.v, 50);
;;;213    	}
;;;214    	break;
;;;215    	
;;;216        case WM_INIT_DIALOG://重绘外观
;;;217        //
;;;218        // Initialization of 'Window'
;;;219        //
;;;220            hItem = pMsg->hWin;
;;;221            WINDOW_SetBkColor(hItem, GUI_BLACK);
;;;222    		WM_CreateTimer(hItem,ID_TimerTime1,500,0);//创建本窗口定时器
;;;223        //
;;;224        // Initialization of 'Button'
;;;225        //
;;;226    //         hItem = WM_GetDialogItem(pMsg->hWin, ID_BUTTON_6);
;;;227    // 		BUTTON_SetTextColor(hItem,0,GUI_BLACK);//设置字体颜色为黑色
;;;228    // 		BUTTON_SetFont      (hItem,    &GUI_FontHZ16);//设定按钮文本字体
;;;229    // 		GUI_UC_SetEncodeUTF8();
;;;230    // 		BUTTON_SetText(hItem,"充放电");
;;;231        //
;;;232        // Initialization of 'Button'
;;;233        //
;;;234            if(lang == 0)
;;;235            {
;;;236                hItem = WM_GetDialogItem(pMsg->hWin, ID_BUTTON_7);
;;;237                BUTTON_SetTextColor(hItem,0,GUI_BLACK);//设置字体颜色为黑色
;;;238                BUTTON_SetFont      (hItem,    &GUI_FontHZ16);//设定按钮文本字体
;;;239                GUI_UC_SetEncodeUTF8();
;;;240                BUTTON_SetText(hItem, "内阻测试");
;;;241            //
;;;242            // Initialization of 'Button'
;;;243            //
;;;244                hItem = WM_GetDialogItem(pMsg->hWin, ID_BUTTON_8);
;;;245                BUTTON_SetPressed(hItem,1);
;;;246                BUTTON_SetTextColor(hItem,0,GUI_BLACK);//设置字体颜色为黑色
;;;247                BUTTON_SetFont      (hItem,    &GUI_FontHZ16);//设定按钮文本字体
;;;248                GUI_UC_SetEncodeUTF8();
;;;249                BUTTON_SetText(hItem, "程控负载");
;;;250            //
;;;251            // Initialization of 'Button'
;;;252            //
;;;253                hItem = WM_GetDialogItem(pMsg->hWin, ID_BUTTON_9);
;;;254                BUTTON_SetTextColor(hItem,0,GUI_BLACK);//设置字体颜色为黑色
;;;255                BUTTON_SetFont      (hItem,    &GUI_FontHZ16);//设定按钮文本字体
;;;256                GUI_UC_SetEncodeUTF8();
;;;257                BUTTON_SetText(hItem, "程控电源");
;;;258            //
;;;259            // Initialization of 'Button'
;;;260            //
;;;261                hItem = WM_GetDialogItem(pMsg->hWin, ID_BUTTON_10);
;;;262                BUTTON_SetTextColor(hItem,0,GUI_BLACK);//设置字体颜色为黑色
;;;263                BUTTON_SetFont      (hItem,    &GUI_FontHZ16);//设定按钮文本字体
;;;264                GUI_UC_SetEncodeUTF8();
;;;265                BUTTON_SetText(hItem, "充放电");
;;;266            //
;;;267            // Initialization of 'Button'
;;;268            //
;;;269                hItem = WM_GetDialogItem(pMsg->hWin, ID_BUTTON_11);
;;;270                BUTTON_SetTextColor(hItem,0,GUI_BLACK);//设置字体颜色为黑色
;;;271                BUTTON_SetFont      (hItem,    &GUI_FontHZ16);//设定按钮文本字体
;;;272                GUI_UC_SetEncodeUTF8();
;;;273                BUTTON_SetText(hItem, "曲线");
;;;274            }else{
;;;275                hItem = WM_GetDialogItem(pMsg->hWin, ID_BUTTON_7);
;;;276                BUTTON_SetTextColor(hItem,0,GUI_BLACK);//设置字体颜色为黑色
;;;277                BUTTON_SetFont      (hItem,    &GUI_Font16B_ASCII);//设定按钮文本字体
;;;278                GUI_UC_SetEncodeUTF8();
;;;279                BUTTON_SetText(hItem, "I.R. TEST");
;;;280            //
;;;281            // Initialization of 'Button'
;;;282            //
;;;283                hItem = WM_GetDialogItem(pMsg->hWin, ID_BUTTON_8);
;;;284                BUTTON_SetPressed(hItem,1);
;;;285                BUTTON_SetTextColor(hItem,0,GUI_BLACK);//设置字体颜色为黑色
;;;286                BUTTON_SetFont      (hItem,    &GUI_Font16B_ASCII);//设定按钮文本字体
;;;287                GUI_UC_SetEncodeUTF8();
;;;288                BUTTON_SetText(hItem, "LOAD");
;;;289            //
;;;290            // Initialization of 'Button'
;;;291            //
;;;292                hItem = WM_GetDialogItem(pMsg->hWin, ID_BUTTON_9);
;;;293                BUTTON_SetTextColor(hItem,0,GUI_BLACK);//设置字体颜色为黑色
;;;294                BUTTON_SetFont      (hItem,    &GUI_Font16B_ASCII);//设定按钮文本字体
;;;295                GUI_UC_SetEncodeUTF8();
;;;296                BUTTON_SetText(hItem, "POWER");
;;;297            //
;;;298            // Initialization of 'Button'
;;;299            //
;;;300                hItem = WM_GetDialogItem(pMsg->hWin, ID_BUTTON_10);
;;;301                BUTTON_SetTextColor(hItem,0,GUI_BLACK);//设置字体颜色为黑色
;;;302                BUTTON_SetFont      (hItem,    &GUI_Font16B_ASCII);//设定按钮文本字体
;;;303                GUI_UC_SetEncodeUTF8();
;;;304                BUTTON_SetText(hItem, "C&DC");
;;;305            //
;;;306            // Initialization of 'Button'
;;;307            //
;;;308                hItem = WM_GetDialogItem(pMsg->hWin, ID_BUTTON_11);
;;;309                BUTTON_SetTextColor(hItem,0,GUI_BLACK);//设置字体颜色为黑色
;;;310                BUTTON_SetFont      (hItem,    &GUI_Font16B_ASCII);//设定按钮文本字体
;;;311                GUI_UC_SetEncodeUTF8();
;;;312                BUTTON_SetText(hItem, "GRAPH");
;;;313            }
;;;314    		
;;;315    		
;;;316    		hItem = WM_GetDialogItem(pMsg->hWin, ID_TEXT_11);
;;;317    		TEXT_SetTextColor(hItem, GUI_LIGHTGRAY);//设置字体颜色
;;;318            TEXT_SetFont(hItem,&GUI_FontEN40);//设定文本字体
;;;319    		GUI_UC_SetEncodeUTF8();
;;;320    		TEXT_SetText(hItem,"V:");
;;;321    		
;;;322    		hItem = WM_GetDialogItem(pMsg->hWin, ID_TEXT_12);
;;;323    		TEXT_SetTextColor(hItem, GUI_LIGHTGRAY);//设置字体颜色
;;;324            TEXT_SetFont(hItem,&GUI_FontEN40);//设定文本字体
;;;325    		GUI_UC_SetEncodeUTF8();
;;;326    		TEXT_SetText(hItem,"I:");
;;;327            
;;;328            hItem = WM_GetDialogItem(pMsg->hWin, ID_TEXT_13);
;;;329    		TEXT_SetTextColor(hItem, GUI_LIGHTGRAY);//设置字体颜色
;;;330            TEXT_SetFont(hItem,&GUI_FontEN40);//设定文本字体
;;;331    		GUI_UC_SetEncodeUTF8();
;;;332    		TEXT_SetText(hItem,"V");
;;;333    		
;;;334    		hItem = WM_GetDialogItem(pMsg->hWin, ID_TEXT_14);
;;;335    		TEXT_SetTextColor(hItem, GUI_LIGHTGRAY);//设置字体颜色
;;;336            TEXT_SetFont(hItem,&GUI_FontEN40);//设定文本字体
;;;337    		GUI_UC_SetEncodeUTF8();
;;;338    		TEXT_SetText(hItem,"A");
;;;339            
;;;340            hItem = WM_GetDialogItem(pMsg->hWin, ID_TEXT_48);
;;;341    		TEXT_SetTextColor(hItem, GUI_BLACK);//设置字体颜色
;;;342            TEXT_SetBkColor(hItem,0x00BFFFFF);
;;;343            if(lang == 0)
;;;344            {
;;;345                TEXT_SetFont(hItem,&GUI_Fontset_font);//设定文本字体
;;;346                GUI_UC_SetEncodeUTF8();
;;;347                TEXT_SetText(hItem,"负载电流");
;;;348            }else{
;;;349                TEXT_SetFont(hItem,&GUI_Font20_ASCII);//设定文本字体
;;;350                GUI_UC_SetEncodeUTF8();
;;;351                TEXT_SetText(hItem,"Load C");
;;;352            }
;;;353            
;;;354            hItem = WM_GetDialogItem(pMsg->hWin, ID_TEXT_49);
;;;355            sprintf(buf,"%.2f",dis_load_c);
;;;356    		TEXT_SetTextColor(hItem, GUI_WHITE);//设置字体颜色
;;;357            TEXT_SetFont(hItem,&GUI_Font24_1);//设定文本字体
;;;358    		GUI_UC_SetEncodeUTF8();     
;;;359    		TEXT_SetText(hItem,buf);
;;;360            
;;;361            hItem = WM_GetDialogItem(pMsg->hWin, ID_TEXT_84);
;;;362            sprintf(buf,"%.2f",0.00);
;;;363    		TEXT_SetTextColor(hItem, GUI_GREEN);//设置字体颜色
;;;364            TEXT_SetFont(hItem,&GUI_FontD24x32);//设定文本字体
;;;365    		GUI_UC_SetEncodeUTF8();        
;;;366    		TEXT_SetText(hItem,buf);
;;;367            
;;;368            hItem = WM_GetDialogItem(pMsg->hWin, ID_TEXT_85);
;;;369            sprintf(buf,"%.2f",0.00);
;;;370    		TEXT_SetTextColor(hItem, GUI_GREEN);//设置字体颜色
;;;371            TEXT_SetFont(hItem,&GUI_FontD24x32);//设定文本字体
;;;372    		GUI_UC_SetEncodeUTF8();        
;;;373    		TEXT_SetText(hItem,buf);
;;;374            
;;;375            hItem = WM_GetDialogItem(pMsg->hWin, ID_TEXT_116);
;;;376            sprintf(buf,"%05d",0);
;;;377            TEXT_SetTextColor(hItem, GUI_GREEN);//设置字体颜色
;;;378            TEXT_SetFont(hItem,&GUI_FontD24x32);//设定文本字体
;;;379            GUI_UC_SetEncodeUTF8();        
;;;380            TEXT_SetText(hItem,buf);
;;;381        // USER START (Optionally insert additional code for further widget initialization)
;;;382        // USER END
;;;383        break;
;;;384      case WM_NOTIFY_PARENT:
;;;385        Id    = WM_GetId(pMsg->hWinSrc);
;;;386        NCode = pMsg->Data.v;
;;;387        switch(Id) {
;;;388        case ID_BUTTON_6: // Notifications sent by 'Button'
;;;389          switch(NCode) {
;;;390          case WM_NOTIFICATION_CLICKED:
;;;391            // USER START (Optionally insert code for reacting on notification message)
;;;392            // USER END
;;;393            break;
;;;394          case WM_NOTIFICATION_RELEASED:
;;;395            // USER START (Optionally insert code for reacting on notification message)
;;;396            // USER END
;;;397            break;
;;;398          // USER START (Optionally insert additional code for further notification handling)
;;;399          // USER END
;;;400          }
;;;401          break;
;;;402        case ID_BUTTON_7: // Notifications sent by 'Button'
;;;403          switch(NCode) {
;;;404          case WM_NOTIFICATION_CLICKED:
;;;405            // USER START (Optionally insert code for reacting on notification message)
;;;406            // USER END
;;;407            break;
;;;408          case WM_NOTIFICATION_RELEASED:
;;;409    				
;;;410            // USER START (Optionally insert code for reacting on notification message)
;;;411            // USER END
;;;412            break;
;;;413          // USER START (Optionally insert additional code for further notification handling)
;;;414          // USER END
;;;415          }
;;;416          break;
;;;417        case ID_BUTTON_8: // Notifications sent by 'Button'
;;;418          switch(NCode) {
;;;419          case WM_NOTIFICATION_CLICKED:
;;;420            // USER START (Optionally insert code for reacting on notification message)
;;;421            // USER END
;;;422            break;
;;;423          case WM_NOTIFICATION_RELEASED:
;;;424            // USER START (Optionally insert code for reacting on notification message)
;;;425            // USER END
;;;426            break;
;;;427          // USER START (Optionally insert additional code for further notification handling)
;;;428          // USER END
;;;429          }
;;;430          break;
;;;431        case ID_BUTTON_9: // Notifications sent by 'Button'
;;;432          switch(NCode) {
;;;433          case WM_NOTIFICATION_CLICKED:
;;;434            // USER START (Optionally insert code for reacting on notification message)
;;;435            // USER END
;;;436            break;
;;;437          case WM_NOTIFICATION_RELEASED:
;;;438            // USER START (Optionally insert code for reacting on notification message)
;;;439            // USER END
;;;440            break;
;;;441          // USER START (Optionally insert additional code for further notification handling)
;;;442          // USER END
;;;443          }
;;;444          break;
;;;445        case ID_BUTTON_10: // Notifications sent by 'Button'
;;;446          switch(NCode) {
;;;447          case WM_NOTIFICATION_CLICKED:
;;;448            // USER START (Optionally insert code for reacting on notification message)
;;;449            // USER END
;;;450            break;
;;;451          case WM_NOTIFICATION_RELEASED:
;;;452            // USER START (Optionally insert code for reacting on notification message)
;;;453            // USER END
;;;454            break;
;;;455          // USER START (Optionally insert additional code for further notification handling)
;;;456          // USER END
;;;457          }
;;;458          break;
;;;459        case ID_BUTTON_11: // Notifications sent by 'Button'
;;;460          switch(NCode) {
;;;461          case WM_NOTIFICATION_CLICKED:
;;;462            // USER START (Optionally insert code for reacting on notification message)
;;;463            // USER END
;;;464            break;
;;;465          case WM_NOTIFICATION_RELEASED:
;;;466            // USER START (Optionally insert code for reacting on notification message)
;;;467            // USER END
;;;468            break;
;;;469          // USER START (Optionally insert additional code for further notification handling)
;;;470          // USER END
;;;471          }
;;;472          break;
;;;473        // USER START (Optionally insert additional code for further Ids)
;;;474        // USER END
;;;475        }
;;;476        break;
;;;477      // USER START (Optionally insert additional message handling)
;;;478      // USER END
;;;479      default:
;;;480        WM_DefaultProc(pMsg);
00004a  4620              MOV      r0,r4
00004c  f7fffffe          BL       WM_DefaultProc
                  |L5.80|
;;;481        break;
;;;482      }
;;;483    }
000050  b003              ADD      sp,sp,#0xc
000052  ecbd8b04          VPOP     {d8-d9}
000056  e8bd8ff0          POP      {r4-r11,pc}
                  |L5.90|
00005a  4658              MOV      r0,r11                ;93
00005c  f7fffffe          BL       GUI_SetColor
000060  231a              MOVS     r3,#0x1a              ;94
000062  f44f72f0          MOV      r2,#0x1e0             ;94
000066  2119              MOVS     r1,#0x19              ;94
000068  2000              MOVS     r0,#0                 ;94
00006a  f7fffffe          BL       GUI_FillRect
00006e  f24a50ff          MOV      r0,#0xa5ff            ;95
000072  f7fffffe          BL       GUI_SetColor
000076  48ea              LDR      r0,|L5.1056|
000078  f7fffffe          BL       GUI_SetFont
00007c  f7fffffe          BL       GUI_UC_SetEncodeUTF8
000080  2002              MOVS     r0,#2                 ;98
000082  f7fffffe          BL       GUI_SetTextMode
000086  7831              LDRB     r1,[r6,#0]            ;100  ; lang
000088  b379              CBZ      r1,|L5.234|
00008a  4658              MOV      r0,r11                ;108
00008c  f7fffffe          BL       GUI_SetColor
000090  48e4              LDR      r0,|L5.1060|
000092  f7fffffe          BL       GUI_SetFont
000096  2203              MOVS     r2,#3                 ;110
000098  2182              MOVS     r1,#0x82              ;110
00009a  a0e3              ADR      r0,|L5.1064|
00009c  f7fffffe          BL       GUI_DispStringAt
                  |L5.160|
0000a0  4658              MOV      r0,r11                ;112
0000a2  f7fffffe          BL       GUI_SetColor
0000a6  48e2              LDR      r0,|L5.1072|
0000a8  f7fffffe          BL       GUI_SetFont
0000ac  224b              MOVS     r2,#0x4b              ;119
0000ae  f44f71dc          MOV      r1,#0x1b8             ;119
0000b2  a0e0              ADR      r0,|L5.1076|
0000b4  f7fffffe          BL       GUI_DispStringAt
0000b8  48df              LDR      r0,|L5.1080|
0000ba  f7fffffe          BL       GUI_SetFont
0000be  4638              MOV      r0,r7                 ;122
0000c0  f7fffffe          BL       GUI_SetColor
0000c4  22be              MOVS     r2,#0xbe              ;123
0000c6  211c              MOVS     r1,#0x1c              ;123
0000c8  a0dc              ADR      r0,|L5.1084|
0000ca  f7fffffe          BL       GUI_DispStringAt
0000ce  4638              MOV      r0,r7                 ;124
0000d0  f7fffffe          BL       GUI_SetColor
0000d4  22c4              MOVS     r2,#0xc4              ;125
0000d6  21d9              MOVS     r1,#0xd9              ;125
0000d8  a0d9              ADR      r0,|L5.1088|
0000da  f7fffffe          BL       GUI_DispStringAt
0000de  22bb              MOVS     r2,#0xbb              ;126
0000e0  21ee              MOVS     r1,#0xee              ;126
0000e2  a0d8              ADR      r0,|L5.1092|
0000e4  f7fffffe          BL       GUI_DispStringAt
0000e8  e7b2              B        |L5.80|
                  |L5.234|
0000ea  e7ff              B        |L5.236|
                  |L5.236|
0000ec  4658              MOV      r0,r11                ;102
0000ee  f7fffffe          BL       GUI_SetColor
0000f2  48d5              LDR      r0,|L5.1096|
0000f4  f7fffffe          BL       GUI_SetFont
0000f8  f7fffffe          BL       GUI_UC_SetEncodeUTF8
0000fc  2002              MOVS     r0,#2                 ;105
0000fe  f7fffffe          BL       GUI_SetTextMode
000102  2203              MOVS     r2,#3                 ;106
000104  2182              MOVS     r1,#0x82              ;106
000106  a0d1              ADR      r0,|L5.1100|
000108  f7fffffe          BL       GUI_DispStringAt
00010c  e7c8              B        |L5.160|
                  |L5.270|
00010e  68e0              LDR      r0,[r4,#0xc]          ;129
000110  6800              LDR      r0,[r0,#0]            ;129
000112  e79d              B        |L5.80|
                  |L5.276|
000114  e116              B        |L5.836|
                  |L5.278|
000116  e347              B        |L5.1960|
                  |L5.280|
000118  68e0              LDR      r0,[r4,#0xc]          ;141
00011a  f7fffffe          BL       WM_GetTimerId
00011e  2802              CMP      r0,#2                 ;141
000120  d196              BNE      |L5.80|
000122  48ce              LDR      r0,|L5.1116|
000124  7800              LDRB     r0,[r0,#0]            ;143  ; clear_flag3
000126  f8df8338          LDR      r8,|L5.1120|
00012a  2801              CMP      r0,#1                 ;143
00012c  d07e              BEQ      |L5.556|
00012e  f6400191          MOV      r1,#0x891             ;156
000132  6860              LDR      r0,[r4,#4]            ;156
000134  f7fffffe          BL       WM_GetDialogItem
000138  4607              MOV      r7,r0                 ;156
00013a  f8d80000          LDR      r0,[r8,#0]            ;157  ; DISS_Voltage
00013e  f7fffffe          BL       __aeabi_f2d
000142  ec410b10          VMOV     d0,r0,r1              ;157
000146  a1c7              ADR      r1,|L5.1124|
000148  ec532b10          VMOV     r2,r3,d0              ;157
00014c  4668              MOV      r0,sp                 ;157
00014e  f7fffffe          BL       __2sprintf
000152  4669              MOV      r1,sp                 ;158
000154  4638              MOV      r0,r7                 ;158
000156  f7fffffe          BL       TEXT_SetText
                  |L5.346|
00015a  8928              LDRH     r0,[r5,#8]            ;160  ; Run_Control
00015c  f8dfa30c          LDR      r10,|L5.1132|
000160  ee000a10          VMOV     s0,r0                 ;160
000164  4fc2              LDR      r7,|L5.1136|
000166  f04f0900          MOV      r9,#0                 ;94
00016a  eeb80a40          VCVT.F32.U32 s0,s0                 ;160
00016e  eec00a28          VDIV.F32 s1,s0,s17             ;160
000172  ed980a00          VLDR     s0,[r8,#0]            ;160
000176  ee200a80          VMUL.F32 s0,s1,s0              ;160
00017a  ee100a10          VMOV     r0,s0                 ;160
00017e  4550              CMP      r0,r10                ;160
000180  dd3d              BLE      |L5.510|
000182  f8a59008          STRH     r9,[r5,#8]            ;161
000186  f640016e          MOV      r1,#0x86e             ;162
00018a  6878              LDR      r0,[r7,#4]            ;162  ; load_wind
00018c  f7fffffe          BL       WM_GetDialogItem
000190  9002              STR      r0,[sp,#8]            ;162
000192  f06f4170          MVN      r1,#0xf0000000        ;163
000196  9802              LDR      r0,[sp,#8]            ;163
000198  f7fffffe          BL       TEXT_SetBkColor
00019c  4659              MOV      r1,r11                ;164
00019e  9802              LDR      r0,[sp,#8]            ;164
0001a0  f7fffffe          BL       TEXT_SetTextColor
0001a4  8928              LDRH     r0,[r5,#8]            ;165  ; Run_Control
0001a6  f24051dc          MOV      r1,#0x5dc             ;165
0001aa  4288              CMP      r0,r1                 ;165
0001ac  d80e              BHI      |L5.460|
0001ae  8928              LDRH     r0,[r5,#8]            ;165  ; Run_Control
0001b0  ee000a10          VMOV     s0,r0                 ;165
0001b4  eef80a40          VCVT.F32.U32 s1,s0                 ;165
0001b8  ee800aa8          VDIV.F32 s0,s1,s17             ;165
0001bc  edd80a00          VLDR     s1,[r8,#0]            ;165
0001c0  ee200a20          VMUL.F32 s0,s0,s1              ;165
0001c4  ee100a10          VMOV     r0,s0                 ;165
0001c8  4550              CMP      r0,r10                ;165
0001ca  dd01              BLE      |L5.464|
                  |L5.460|
0001cc  f8a59008          STRH     r9,[r5,#8]            ;166
                  |L5.464|
0001d0  8928              LDRH     r0,[r5,#8]            ;168  ; Run_Control
0001d2  ee000a10          VMOV     s0,r0                 ;168
0001d6  eef80a40          VCVT.F32.U32 s1,s0                 ;168
0001da  ee800aa8          VDIV.F32 s0,s1,s17             ;168
0001de  ee100a10          VMOV     r0,s0                 ;169
0001e2  f7fffffe          BL       __aeabi_f2d
0001e6  ec410b10          VMOV     d0,r0,r1              ;169
0001ea  a19e              ADR      r1,|L5.1124|
0001ec  ec532b10          VMOV     r2,r3,d0              ;169
0001f0  4668              MOV      r0,sp                 ;169
0001f2  f7fffffe          BL       __2sprintf
0001f6  4669              MOV      r1,sp                 ;170
0001f8  9802              LDR      r0,[sp,#8]            ;170
0001fa  f7fffffe          BL       TEXT_SetText
                  |L5.510|
0001fe  f6400192          MOV      r1,#0x892             ;173
000202  6860              LDR      r0,[r4,#4]            ;173
000204  f7fffffe          BL       WM_GetDialogItem
000208  4605              MOV      r5,r0                 ;173
00020a  489a              LDR      r0,|L5.1140|
00020c  6800              LDR      r0,[r0,#0]            ;174  ; DISS_Current
00020e  f7fffffe          BL       __aeabi_f2d
000212  ec410b10          VMOV     d0,r0,r1              ;174
000216  a193              ADR      r1,|L5.1124|
000218  ec532b10          VMOV     r2,r3,d0              ;174
00021c  4668              MOV      r0,sp                 ;174
00021e  f7fffffe          BL       __2sprintf
000222  4669              MOV      r1,sp                 ;175
000224  4628              MOV      r0,r5                 ;175
000226  f7fffffe          BL       TEXT_SetText
00022a  e000              B        |L5.558|
                  |L5.556|
00022c  e010              B        |L5.592|
                  |L5.558|
00022e  7838              LDRB     r0,[r7,#0]            ;179  ; load_sw
000230  f6400896          MOV      r8,#0x896             ;187
000234  2801              CMP      r0,#1                 ;179
000236  d040              BEQ      |L5.698|
000238  4641              MOV      r1,r8                 ;208
00023a  6860              LDR      r0,[r4,#4]            ;208
00023c  f7fffffe          BL       WM_GetDialogItem
000240  a185              ADR      r1,|L5.1112|
000242  f7fffffe          BL       TEXT_SetText
                  |L5.582|
000246  2132              MOVS     r1,#0x32              ;212
000248  68e0              LDR      r0,[r4,#0xc]          ;212
00024a  f7fffffe          BL       WM_RestartTimer
00024e  e6ff              B        |L5.80|
                  |L5.592|
000250  4889              LDR      r0,|L5.1144|
000252  edd80a00          VLDR     s1,[r8,#0]            ;145
000256  7800              LDRB     r0,[r0,#0]            ;145  ; clear_lv
000258  ee000a10          VMOV     s0,r0                 ;145
00025c  eeb80a40          VCVT.F32.U32 s0,s0                 ;145
000260  eef40ac0          VCMPE.F32 s1,s0                 ;145
000264  eef1fa10          VMRS     APSR_nzcv,FPSCR       ;145
000268  d810              BHI      |L5.652|
00026a  f6400191          MOV      r1,#0x891             ;147
00026e  6860              LDR      r0,[r4,#4]            ;147
000270  f7fffffe          BL       WM_GetDialogItem
000274  4607              MOV      r7,r0                 ;147
000276  ec532b19          VMOV     r2,r3,d9              ;148
00027a  a17a              ADR      r1,|L5.1124|
00027c  4668              MOV      r0,sp                 ;148
00027e  f7fffffe          BL       __2sprintf
000282  4669              MOV      r1,sp                 ;149
000284  4638              MOV      r0,r7                 ;149
000286  f7fffffe          BL       TEXT_SetText
00028a  e766              B        |L5.346|
                  |L5.652|
00028c  f6400191          MOV      r1,#0x891             ;151
000290  6860              LDR      r0,[r4,#4]            ;151
000292  f7fffffe          BL       WM_GetDialogItem
000296  4607              MOV      r7,r0                 ;151
000298  f8d80000          LDR      r0,[r8,#0]            ;152  ; DISS_Voltage
00029c  f7fffffe          BL       __aeabi_f2d
0002a0  ec410b10          VMOV     d0,r0,r1              ;152
0002a4  a16f              ADR      r1,|L5.1124|
0002a6  ec532b10          VMOV     r2,r3,d0              ;152
0002aa  4668              MOV      r0,sp                 ;152
0002ac  f7fffffe          BL       __2sprintf
0002b0  4669              MOV      r1,sp                 ;153
0002b2  4638              MOV      r0,r7                 ;153
0002b4  f7fffffe          BL       TEXT_SetText
0002b8  e74f              B        |L5.346|
                  |L5.698|
0002ba  ed970a02          VLDR     s0,[r7,#8]            ;182
0002be  eebd0ac0          VCVT.S32.F32 s0,s0                 ;182
0002c2  ee100a10          VMOV     r0,s0                 ;182
0002c6  8078              STRH     r0,[r7,#2]            ;182
0002c8  f640310b          MOV      r1,#0xb0b             ;183
0002cc  6860              LDR      r0,[r4,#4]            ;183
0002ce  f7fffffe          BL       WM_GetDialogItem
0002d2  4605              MOV      r5,r0                 ;183
0002d4  887a              LDRH     r2,[r7,#2]            ;184  ; battery_c
0002d6  a169              ADR      r1,|L5.1148|
0002d8  4668              MOV      r0,sp                 ;184
0002da  f7fffffe          BL       __2sprintf
0002de  4669              MOV      r1,sp                 ;185
0002e0  4628              MOV      r0,r5                 ;185
0002e2  f7fffffe          BL       TEXT_SetText
0002e6  7878              LDRB     r0,[r7,#1]            ;186  ; status_flash
0002e8  b148              CBZ      r0,|L5.766|
0002ea  4641              MOV      r1,r8                 ;201
0002ec  6860              LDR      r0,[r4,#4]            ;201
0002ee  f7fffffe          BL       WM_GetDialogItem
0002f2  a159              ADR      r1,|L5.1112|
0002f4  f7fffffe          BL       TEXT_SetText
0002f8  f8879001          STRB     r9,[r7,#1]            ;203
0002fc  e7a3              B        |L5.582|
                  |L5.766|
0002fe  4641              MOV      r1,r8                 ;187
000300  6860              LDR      r0,[r4,#4]            ;187
000302  f7fffffe          BL       WM_GetDialogItem
000306  4605              MOV      r5,r0                 ;187
000308  21ff              MOVS     r1,#0xff              ;188
00030a  4628              MOV      r0,r5                 ;188
00030c  f7fffffe          BL       TEXT_SetTextColor
000310  7830              LDRB     r0,[r6,#0]            ;189  ; lang
000312  b160              CBZ      r0,|L5.814|
000314  4943              LDR      r1,|L5.1060|
000316  4628              MOV      r0,r5                 ;195
000318  f7fffffe          BL       TEXT_SetFont
00031c  f7fffffe          BL       GUI_UC_SetEncodeUTF8
000320  a158              ADR      r1,|L5.1156|
000322  4628              MOV      r0,r5                 ;197
000324  f7fffffe          BL       TEXT_SetText
                  |L5.808|
000328  2001              MOVS     r0,#1                 ;199
00032a  7078              STRB     r0,[r7,#1]            ;199
00032c  e78b              B        |L5.582|
                  |L5.814|
00032e  4958              LDR      r1,|L5.1168|
000330  4628              MOV      r0,r5                 ;191
000332  f7fffffe          BL       TEXT_SetFont
000336  f7fffffe          BL       GUI_UC_SetEncodeUTF8
00033a  a156              ADR      r1,|L5.1172|
00033c  4628              MOV      r0,r5                 ;193
00033e  f7fffffe          BL       TEXT_SetText
000342  e7f1              B        |L5.808|
                  |L5.836|
000344  6865              LDR      r5,[r4,#4]            ;220
000346  2100              MOVS     r1,#0                 ;221
000348  4628              MOV      r0,r5                 ;221
00034a  f7fffffe          BL       WINDOW_SetBkColor
00034e  2300              MOVS     r3,#0                 ;222
000350  f44f72fa          MOV      r2,#0x1f4             ;222
000354  2102              MOVS     r1,#2                 ;222
000356  4628              MOV      r0,r5                 ;222
000358  f7fffffe          BL       WM_CreateTimer
00035c  7830              LDRB     r0,[r6,#0]            ;234  ; lang
00035e  f640010b          MOV      r1,#0x80b             ;236
000362  1c4d              ADDS     r5,r1,#1              ;244
000364  f640080d          MOV      r8,#0x80d             ;253
000368  f640090e          MOV      r9,#0x80e             ;261
00036c  f6400a0f          MOV      r10,#0x80f            ;269
000370  2800              CMP      r0,#0                 ;234
000372  d047              BEQ      |L5.1028|
000374  6860              LDR      r0,[r4,#4]            ;275
000376  f7fffffe          BL       WM_GetDialogItem
00037a  9002              STR      r0,[sp,#8]            ;275
00037c  2200              MOVS     r2,#0                 ;276
00037e  4611              MOV      r1,r2                 ;276
000380  9802              LDR      r0,[sp,#8]            ;276
000382  f7fffffe          BL       BUTTON_SetTextColor
000386  4946              LDR      r1,|L5.1184|
000388  9802              LDR      r0,[sp,#8]            ;277
00038a  f7fffffe          BL       BUTTON_SetFont
00038e  f7fffffe          BL       GUI_UC_SetEncodeUTF8
000392  a144              ADR      r1,|L5.1188|
000394  9802              LDR      r0,[sp,#8]            ;279
000396  f7fffffe          BL       BUTTON_SetText
00039a  4629              MOV      r1,r5                 ;283
00039c  6860              LDR      r0,[r4,#4]            ;283
00039e  f7fffffe          BL       WM_GetDialogItem
0003a2  4605              MOV      r5,r0                 ;283
0003a4  2101              MOVS     r1,#1                 ;284
0003a6  4628              MOV      r0,r5                 ;284
0003a8  f7fffffe          BL       BUTTON_SetPressed
0003ac  2200              MOVS     r2,#0                 ;285
0003ae  4611              MOV      r1,r2                 ;285
0003b0  4628              MOV      r0,r5                 ;285
0003b2  f7fffffe          BL       BUTTON_SetTextColor
0003b6  493a              LDR      r1,|L5.1184|
0003b8  4628              MOV      r0,r5                 ;286
0003ba  f7fffffe          BL       BUTTON_SetFont
0003be  f7fffffe          BL       GUI_UC_SetEncodeUTF8
0003c2  a13b              ADR      r1,|L5.1200|
0003c4  4628              MOV      r0,r5                 ;288
0003c6  f7fffffe          BL       BUTTON_SetText
0003ca  4641              MOV      r1,r8                 ;292
0003cc  6860              LDR      r0,[r4,#4]            ;292
0003ce  f7fffffe          BL       WM_GetDialogItem
0003d2  4605              MOV      r5,r0                 ;292
0003d4  2200              MOVS     r2,#0                 ;293
0003d6  4611              MOV      r1,r2                 ;293
0003d8  4628              MOV      r0,r5                 ;293
0003da  f7fffffe          BL       BUTTON_SetTextColor
0003de  4930              LDR      r1,|L5.1184|
0003e0  4628              MOV      r0,r5                 ;294
0003e2  f7fffffe          BL       BUTTON_SetFont
0003e6  f7fffffe          BL       GUI_UC_SetEncodeUTF8
0003ea  a133              ADR      r1,|L5.1208|
0003ec  4628              MOV      r0,r5                 ;296
0003ee  f7fffffe          BL       BUTTON_SetText
0003f2  4649              MOV      r1,r9                 ;300
0003f4  6860              LDR      r0,[r4,#4]            ;300
0003f6  f7fffffe          BL       WM_GetDialogItem
0003fa  4605              MOV      r5,r0                 ;300
0003fc  2200              MOVS     r2,#0                 ;301
0003fe  4611              MOV      r1,r2                 ;301
000400  4628              MOV      r0,r5                 ;301
000402  e05d              B        |L5.1216|
                  |L5.1028|
000404  e15d              B        |L5.1730|
000406  0000              DCW      0x0000
                  |L5.1032|
                          DCD      Run_Control
                  |L5.1036|
00040c  42c80000          DCFS     0x42c80000 ; 100
                  |L5.1040|
                          DCD      0x00d3d3d3
                  |L5.1044|
000414  00000000          DCFD     0x0000000000000000 ; 0
000418  00000000
                  |L5.1052|
                          DCD      lang
                  |L5.1056|
                          DCD      GUI_Fontsymbol
                  |L5.1060|
                          DCD      GUI_Font20_ASCII
                  |L5.1064|
000428  44495350          DCB      "DISPLAY",0
00042c  4c415900
                  |L5.1072|
                          DCD      GUI_Font24_1
                  |L5.1076|
000434  4100              DCB      "A",0
000436  00                DCB      0
000437  00                DCB      0
                  |L5.1080|
                          DCD      GUI_FontEN40
                  |L5.1084|
00043c  433a00            DCB      "C:",0
00043f  00                DCB      0
                  |L5.1088|
000440  6d00              DCB      "m",0
000442  00                DCB      0
000443  00                DCB      0
                  |L5.1092|
000444  414800            DCB      "AH",0
000447  00                DCB      0
                  |L5.1096|
                          DCD      GUI_FontHZ20S
                  |L5.1100|
00044c  e6b58be9          DCB      230,181,139,233,135,143,230,152,190,231,164,186
000450  878fe698
000454  bee7a4ba
                  |L5.1112|
000458  00                DCB      0
000459  00                DCB      0
00045a  00                DCB      0
00045b  00                DCB      0
                  |L5.1116|
                          DCD      clear_flag3
                  |L5.1120|
                          DCD      DISS_Voltage
                  |L5.1124|
000464  252e3266          DCB      "%.2f",0
000468  00      
000469  00                DCB      0
00046a  00                DCB      0
00046b  00                DCB      0
                  |L5.1132|
                          DCD      0x42480000
                  |L5.1136|
                          DCD      ||.data||
                  |L5.1140|
                          DCD      DISS_Current
                  |L5.1144|
                          DCD      clear_lv
                  |L5.1148|
00047c  25303564          DCB      "%05d",0
000480  00      
000481  00                DCB      0
000482  00                DCB      0
000483  00                DCB      0
                  |L5.1156|
000484  44697363          DCB      "Discharging",0
000488  68617267
00048c  696e6700
                  |L5.1168|
                          DCD      GUI_FontHZ16
                  |L5.1172|
000494  e694bee7          DCB      230,148,190,231,148,181,228,184,173,0
000498  94b5e4b8
00049c  ad00    
00049e  00                DCB      0
00049f  00                DCB      0
                  |L5.1184|
                          DCD      GUI_Font16B_ASCII
                  |L5.1188|
0004a4  492e522e          DCB      "I.R. TEST",0
0004a8  20544553
0004ac  5400    
0004ae  00                DCB      0
0004af  00                DCB      0
                  |L5.1200|
0004b0  4c4f4144          DCB      "LOAD",0
0004b4  00      
0004b5  00                DCB      0
0004b6  00                DCB      0
0004b7  00                DCB      0
                  |L5.1208|
0004b8  504f5745          DCB      "POWER",0
0004bc  5200    
0004be  00                DCB      0
0004bf  00                DCB      0
                  |L5.1216|
0004c0  f7fffffe          BL       BUTTON_SetTextColor
0004c4  49bc              LDR      r1,|L5.1976|
0004c6  4628              MOV      r0,r5                 ;302
0004c8  f7fffffe          BL       BUTTON_SetFont
0004cc  f7fffffe          BL       GUI_UC_SetEncodeUTF8
0004d0  a1ba              ADR      r1,|L5.1980|
0004d2  4628              MOV      r0,r5                 ;304
0004d4  f7fffffe          BL       BUTTON_SetText
0004d8  4651              MOV      r1,r10                ;308
0004da  6860              LDR      r0,[r4,#4]            ;308
0004dc  f7fffffe          BL       WM_GetDialogItem
0004e0  4605              MOV      r5,r0                 ;308
0004e2  2200              MOVS     r2,#0                 ;309
0004e4  4611              MOV      r1,r2                 ;309
0004e6  4628              MOV      r0,r5                 ;309
0004e8  f7fffffe          BL       BUTTON_SetTextColor
0004ec  49b2              LDR      r1,|L5.1976|
0004ee  4628              MOV      r0,r5                 ;310
0004f0  f7fffffe          BL       BUTTON_SetFont
0004f4  f7fffffe          BL       GUI_UC_SetEncodeUTF8
0004f8  a1b2              ADR      r1,|L5.1988|
0004fa  4628              MOV      r0,r5                 ;312
0004fc  f7fffffe          BL       BUTTON_SetText
                  |L5.1280|
000500  f44f6101          MOV      r1,#0x810             ;316
000504  6860              LDR      r0,[r4,#4]            ;316
000506  f7fffffe          BL       WM_GetDialogItem
00050a  4605              MOV      r5,r0                 ;316
00050c  4639              MOV      r1,r7                 ;317
00050e  4628              MOV      r0,r5                 ;317
000510  f7fffffe          BL       TEXT_SetTextColor
000514  49ad              LDR      r1,|L5.1996|
000516  4628              MOV      r0,r5                 ;318
000518  f7fffffe          BL       TEXT_SetFont
00051c  f7fffffe          BL       GUI_UC_SetEncodeUTF8
000520  a1ab              ADR      r1,|L5.2000|
000522  4628              MOV      r0,r5                 ;320
000524  f7fffffe          BL       TEXT_SetText
000528  f6400111          MOV      r1,#0x811             ;322
00052c  6860              LDR      r0,[r4,#4]            ;322
00052e  f7fffffe          BL       WM_GetDialogItem
000532  4605              MOV      r5,r0                 ;322
000534  4639              MOV      r1,r7                 ;323
000536  4628              MOV      r0,r5                 ;323
000538  f7fffffe          BL       TEXT_SetTextColor
00053c  49a3              LDR      r1,|L5.1996|
00053e  4628              MOV      r0,r5                 ;324
000540  f7fffffe          BL       TEXT_SetFont
000544  f7fffffe          BL       GUI_UC_SetEncodeUTF8
000548  a1a2              ADR      r1,|L5.2004|
00054a  4628              MOV      r0,r5                 ;326
00054c  f7fffffe          BL       TEXT_SetText
000550  f640011e          MOV      r1,#0x81e             ;328
000554  6860              LDR      r0,[r4,#4]            ;328
000556  f7fffffe          BL       WM_GetDialogItem
00055a  4605              MOV      r5,r0                 ;328
00055c  4639              MOV      r1,r7                 ;329
00055e  4628              MOV      r0,r5                 ;329
000560  f7fffffe          BL       TEXT_SetTextColor
000564  4999              LDR      r1,|L5.1996|
000566  4628              MOV      r0,r5                 ;330
000568  f7fffffe          BL       TEXT_SetFont
00056c  f7fffffe          BL       GUI_UC_SetEncodeUTF8
000570  a199              ADR      r1,|L5.2008|
000572  4628              MOV      r0,r5                 ;332
000574  f7fffffe          BL       TEXT_SetText
000578  f640011f          MOV      r1,#0x81f             ;334
00057c  6860              LDR      r0,[r4,#4]            ;334
00057e  f7fffffe          BL       WM_GetDialogItem
000582  4605              MOV      r5,r0                 ;334
000584  4639              MOV      r1,r7                 ;335
000586  4628              MOV      r0,r5                 ;335
000588  f7fffffe          BL       TEXT_SetTextColor
00058c  498f              LDR      r1,|L5.1996|
00058e  4628              MOV      r0,r5                 ;336
000590  f7fffffe          BL       TEXT_SetFont
000594  f7fffffe          BL       GUI_UC_SetEncodeUTF8
000598  f2af1168          ADR      r1,|L5.1076|
00059c  4628              MOV      r0,r5                 ;338
00059e  f7fffffe          BL       TEXT_SetText
0005a2  f640016d          MOV      r1,#0x86d             ;340
0005a6  6860              LDR      r0,[r4,#4]            ;340
0005a8  f7fffffe          BL       WM_GetDialogItem
0005ac  4605              MOV      r5,r0                 ;340
0005ae  2100              MOVS     r1,#0                 ;341
0005b0  4628              MOV      r0,r5                 ;341
0005b2  f7fffffe          BL       TEXT_SetTextColor
0005b6  4989              LDR      r1,|L5.2012|
0005b8  4628              MOV      r0,r5                 ;342
0005ba  f7fffffe          BL       TEXT_SetBkColor
0005be  7830              LDRB     r0,[r6,#0]            ;343  ; lang
0005c0  2800              CMP      r0,#0                 ;343
0005c2  d07d              BEQ      |L5.1728|
0005c4  4986              LDR      r1,|L5.2016|
0005c6  4628              MOV      r0,r5                 ;349
0005c8  f7fffffe          BL       TEXT_SetFont
0005cc  f7fffffe          BL       GUI_UC_SetEncodeUTF8
0005d0  a184              ADR      r1,|L5.2020|
0005d2  4628              MOV      r0,r5                 ;351
0005d4  f7fffffe          BL       TEXT_SetText
                  |L5.1496|
0005d8  f640016e          MOV      r1,#0x86e             ;354
0005dc  6860              LDR      r0,[r4,#4]            ;354
0005de  f7fffffe          BL       WM_GetDialogItem
0005e2  4605              MOV      r5,r0                 ;354
0005e4  ee180a10          VMOV     r0,s16                ;355
0005e8  f7fffffe          BL       __aeabi_f2d
0005ec  ec410b10          VMOV     d0,r0,r1              ;355
0005f0  ec532b10          VMOV     r2,r3,d0              ;355
0005f4  f2af1194          ADR      r1,|L5.1124|
0005f8  4668              MOV      r0,sp                 ;355
0005fa  f7fffffe          BL       __2sprintf
0005fe  4659              MOV      r1,r11                ;356
000600  4628              MOV      r0,r5                 ;356
000602  f7fffffe          BL       TEXT_SetTextColor
000606  4979              LDR      r1,|L5.2028|
000608  4628              MOV      r0,r5                 ;357
00060a  f7fffffe          BL       TEXT_SetFont
00060e  f7fffffe          BL       GUI_UC_SetEncodeUTF8
000612  4669              MOV      r1,sp                 ;359
000614  4628              MOV      r0,r5                 ;359
000616  f7fffffe          BL       TEXT_SetText
00061a  f6400191          MOV      r1,#0x891             ;361
00061e  6860              LDR      r0,[r4,#4]            ;361
000620  f7fffffe          BL       WM_GetDialogItem
000624  4605              MOV      r5,r0                 ;361
000626  ec532b19          VMOV     r2,r3,d9              ;362
00062a  f2af11c8          ADR      r1,|L5.1124|
00062e  4668              MOV      r0,sp                 ;362
000630  f7fffffe          BL       __2sprintf
000634  f44f467f          MOV      r6,#0xff00            ;363
000638  4631              MOV      r1,r6                 ;363
00063a  4628              MOV      r0,r5                 ;363
00063c  f7fffffe          BL       TEXT_SetTextColor
000640  496b              LDR      r1,|L5.2032|
000642  4628              MOV      r0,r5                 ;364
000644  f7fffffe          BL       TEXT_SetFont
000648  f7fffffe          BL       GUI_UC_SetEncodeUTF8
00064c  4669              MOV      r1,sp                 ;366
00064e  4628              MOV      r0,r5                 ;366
000650  f7fffffe          BL       TEXT_SetText
000654  f6400192          MOV      r1,#0x892             ;368
000658  6860              LDR      r0,[r4,#4]            ;368
00065a  f7fffffe          BL       WM_GetDialogItem
00065e  4605              MOV      r5,r0                 ;368
000660  ec532b19          VMOV     r2,r3,d9              ;369
000664  f2af2104          ADR      r1,|L5.1124|
000668  4668              MOV      r0,sp                 ;369
00066a  f7fffffe          BL       __2sprintf
00066e  4631              MOV      r1,r6                 ;370
000670  4628              MOV      r0,r5                 ;370
000672  f7fffffe          BL       TEXT_SetTextColor
000676  495e              LDR      r1,|L5.2032|
000678  4628              MOV      r0,r5                 ;371
00067a  f7fffffe          BL       TEXT_SetFont
00067e  f7fffffe          BL       GUI_UC_SetEncodeUTF8
000682  4669              MOV      r1,sp                 ;373
000684  4628              MOV      r0,r5                 ;373
000686  f7fffffe          BL       TEXT_SetText
00068a  f640310b          MOV      r1,#0xb0b             ;375
00068e  6860              LDR      r0,[r4,#4]            ;375
000690  f7fffffe          BL       WM_GetDialogItem
000694  4604              MOV      r4,r0                 ;375
000696  2200              MOVS     r2,#0                 ;376
000698  f2af2120          ADR      r1,|L5.1148|
00069c  4668              MOV      r0,sp                 ;376
00069e  f7fffffe          BL       __2sprintf
0006a2  4631              MOV      r1,r6                 ;377
0006a4  4620              MOV      r0,r4                 ;377
0006a6  f7fffffe          BL       TEXT_SetTextColor
0006aa  4951              LDR      r1,|L5.2032|
0006ac  4620              MOV      r0,r4                 ;378
0006ae  f7fffffe          BL       TEXT_SetFont
0006b2  f7fffffe          BL       GUI_UC_SetEncodeUTF8
0006b6  4669              MOV      r1,sp                 ;380
0006b8  4620              MOV      r0,r4                 ;380
0006ba  f7fffffe          BL       TEXT_SetText
0006be  e4c7              B        |L5.80|
                  |L5.1728|
0006c0  e067              B        |L5.1938|
                  |L5.1730|
0006c2  6860              LDR      r0,[r4,#4]            ;236
0006c4  f7fffffe          BL       WM_GetDialogItem
0006c8  9002              STR      r0,[sp,#8]            ;236
0006ca  2200              MOVS     r2,#0                 ;237
0006cc  4611              MOV      r1,r2                 ;237
0006ce  9802              LDR      r0,[sp,#8]            ;237
0006d0  f7fffffe          BL       BUTTON_SetTextColor
0006d4  4947              LDR      r1,|L5.2036|
0006d6  9802              LDR      r0,[sp,#8]            ;238
0006d8  f7fffffe          BL       BUTTON_SetFont
0006dc  f7fffffe          BL       GUI_UC_SetEncodeUTF8
0006e0  a145              ADR      r1,|L5.2040|
0006e2  9802              LDR      r0,[sp,#8]            ;240
0006e4  f7fffffe          BL       BUTTON_SetText
0006e8  4629              MOV      r1,r5                 ;244
0006ea  6860              LDR      r0,[r4,#4]            ;244
0006ec  f7fffffe          BL       WM_GetDialogItem
0006f0  4605              MOV      r5,r0                 ;244
0006f2  2101              MOVS     r1,#1                 ;245
0006f4  4628              MOV      r0,r5                 ;245
0006f6  f7fffffe          BL       BUTTON_SetPressed
0006fa  2200              MOVS     r2,#0                 ;246
0006fc  4611              MOV      r1,r2                 ;246
0006fe  4628              MOV      r0,r5                 ;246
000700  f7fffffe          BL       BUTTON_SetTextColor
000704  493b              LDR      r1,|L5.2036|
000706  4628              MOV      r0,r5                 ;247
000708  f7fffffe          BL       BUTTON_SetFont
00070c  f7fffffe          BL       GUI_UC_SetEncodeUTF8
000710  a13d              ADR      r1,|L5.2056|
000712  4628              MOV      r0,r5                 ;249
000714  f7fffffe          BL       BUTTON_SetText
000718  4641              MOV      r1,r8                 ;253
00071a  6860              LDR      r0,[r4,#4]            ;253
00071c  f7fffffe          BL       WM_GetDialogItem
000720  4605              MOV      r5,r0                 ;253
000722  2200              MOVS     r2,#0                 ;254
000724  4611              MOV      r1,r2                 ;254
000726  4628              MOV      r0,r5                 ;254
000728  f7fffffe          BL       BUTTON_SetTextColor
00072c  4931              LDR      r1,|L5.2036|
00072e  4628              MOV      r0,r5                 ;255
000730  f7fffffe          BL       BUTTON_SetFont
000734  f7fffffe          BL       GUI_UC_SetEncodeUTF8
000738  a137              ADR      r1,|L5.2072|
00073a  4628              MOV      r0,r5                 ;257
00073c  f7fffffe          BL       BUTTON_SetText
000740  4649              MOV      r1,r9                 ;261
000742  6860              LDR      r0,[r4,#4]            ;261
000744  f7fffffe          BL       WM_GetDialogItem
000748  4605              MOV      r5,r0                 ;261
00074a  2200              MOVS     r2,#0                 ;262
00074c  4611              MOV      r1,r2                 ;262
00074e  4628              MOV      r0,r5                 ;262
000750  f7fffffe          BL       BUTTON_SetTextColor
000754  4927              LDR      r1,|L5.2036|
000756  4628              MOV      r0,r5                 ;263
000758  f7fffffe          BL       BUTTON_SetFont
00075c  f7fffffe          BL       GUI_UC_SetEncodeUTF8
000760  a131              ADR      r1,|L5.2088|
000762  4628              MOV      r0,r5                 ;265
000764  f7fffffe          BL       BUTTON_SetText
000768  4651              MOV      r1,r10                ;269
00076a  6860              LDR      r0,[r4,#4]            ;269
00076c  f7fffffe          BL       WM_GetDialogItem
000770  4605              MOV      r5,r0                 ;269
000772  2200              MOVS     r2,#0                 ;270
000774  4611              MOV      r1,r2                 ;270
000776  4628              MOV      r0,r5                 ;270
000778  f7fffffe          BL       BUTTON_SetTextColor
00077c  491d              LDR      r1,|L5.2036|
00077e  4628              MOV      r0,r5                 ;271
000780  f7fffffe          BL       BUTTON_SetFont
000784  f7fffffe          BL       GUI_UC_SetEncodeUTF8
000788  a12a              ADR      r1,|L5.2100|
00078a  4628              MOV      r0,r5                 ;273
00078c  f7fffffe          BL       BUTTON_SetText
000790  e6b6              B        |L5.1280|
                  |L5.1938|
000792  492a              LDR      r1,|L5.2108|
000794  4628              MOV      r0,r5                 ;345
000796  f7fffffe          BL       TEXT_SetFont
00079a  f7fffffe          BL       GUI_UC_SetEncodeUTF8
00079e  a128              ADR      r1,|L5.2112|
0007a0  4628              MOV      r0,r5                 ;347
0007a2  f7fffffe          BL       TEXT_SetText
0007a6  e717              B        |L5.1496|
                  |L5.1960|
0007a8  68a0              LDR      r0,[r4,#8]            ;385
0007aa  f7fffffe          BL       WM_GetId
0007ae  4601              MOV      r1,r0                 ;385
0007b0  68e0              LDR      r0,[r4,#0xc]          ;386
0007b2  f6a1010a          SUB      r1,r1,#0x80a          ;387
0007b6  e44b              B        |L5.80|
;;;484    
                          ENDP

                  |L5.1976|
                          DCD      GUI_Font16B_ASCII
                  |L5.1980|
0007bc  43264443          DCB      "C&DC",0
0007c0  00      
0007c1  00                DCB      0
0007c2  00                DCB      0
0007c3  00                DCB      0
                  |L5.1988|
0007c4  47524150          DCB      "GRAPH",0
0007c8  4800    
0007ca  00                DCB      0
0007cb  00                DCB      0
                  |L5.1996|
                          DCD      GUI_FontEN40
                  |L5.2000|
0007d0  563a00            DCB      "V:",0
0007d3  00                DCB      0
                  |L5.2004|
0007d4  493a00            DCB      "I:",0
0007d7  00                DCB      0
                  |L5.2008|
0007d8  5600              DCB      "V",0
0007da  00                DCB      0
0007db  00                DCB      0
                  |L5.2012|
                          DCD      0x00bfffff
                  |L5.2016|
                          DCD      GUI_Font20_ASCII
                  |L5.2020|
0007e4  4c6f6164          DCB      "Load C",0
0007e8  204300  
0007eb  00                DCB      0
                  |L5.2028|
                          DCD      GUI_Font24_1
                  |L5.2032|
                          DCD      GUI_FontD24x32
                  |L5.2036|
                          DCD      GUI_FontHZ16
                  |L5.2040|
0007f8  e58685e9          DCB      229,134,133,233,152,187,230,181,139,232,175,149,0
0007fc  98bbe6b5
000800  8be8af95
000804  00      
000805  00                DCB      0
000806  00                DCB      0
000807  00                DCB      0
                  |L5.2056|
000808  e7a88be6          DCB      231,168,139,230,142,167,232,180,159,232,189,189,0
00080c  8ea7e8b4
000810  9fe8bdbd
000814  00      
000815  00                DCB      0
000816  00                DCB      0
000817  00                DCB      0
                  |L5.2072|
000818  e7a88be6          DCB      231,168,139,230,142,167,231,148,181,230,186,144,0
00081c  8ea7e794
000820  b5e6ba90
000824  00      
000825  00                DCB      0
000826  00                DCB      0
000827  00                DCB      0
                  |L5.2088|
000828  e58585e6          DCB      229,133,133,230,148,190,231,148,181,0
00082c  94bee794
000830  b500    
000832  00                DCB      0
000833  00                DCB      0
                  |L5.2100|
000834  e69bb2e7          DCB      230,155,178,231,186,191,0
000838  babf00  
00083b  00                DCB      0
                  |L5.2108|
                          DCD      GUI_Fontset_font
                  |L5.2112|
000840  e8b49fe8          DCB      232,180,159,232,189,189,231,148,181,230,181,129,0
000844  bdbde794
000848  b5e6b581
00084c  00      
00084d  00                DCB      0
00084e  00                DCB      0
00084f  00                DCB      0

                          AREA ||i.test_load||, CODE, READONLY, ALIGN=2

                  test_load PROC
;;;645    
;;;646    void test_load(void)
000000  b570              PUSH     {r4-r6,lr}
;;;647    {
;;;648    
;;;649        if(load_sw == load_on && para_set1 == set_1_on)
000002  4827              LDR      r0,|L6.160|
000004  7800              LDRB     r0,[r0,#0]  ; load_sw
;;;650        {
;;;651            if(DISS_Voltage*100 > set_max_v || DISS_Voltage*100 < set_min_v)
;;;652            {
;;;653               if(para_set4 == set_4_on){
;;;654                    BEEP_Tiggr();
;;;655                }
;;;656                TM1650_SET_LED(0x68,0x70);//FAIL灯
;;;657                GPIO_SetBits(GPIOD,GPIO_Pin_12);//            
000006  4d27              LDR      r5,|L6.164|
000008  f44f5480          MOV      r4,#0x1000
00000c  2801              CMP      r0,#1                 ;649
00000e  d103              BNE      |L6.24|
000010  4825              LDR      r0,|L6.168|
000012  7800              LDRB     r0,[r0,#0]            ;649  ; para_set1
000014  28ff              CMP      r0,#0xff              ;649
000016  d009              BEQ      |L6.44|
                  |L6.24|
;;;658            }else{
;;;659                GPIO_ResetBits(GPIOD,GPIO_Pin_12);
;;;660                TM1650_SET_LED(0x48,0x71);
;;;661                TM1650_SET_LED(0x68,0xF2);//PASS灯
;;;662            }        
;;;663        }else
;;;664        {
;;;665            TM1650_SET_LED(0x68,0x70);
000018  2170              MOVS     r1,#0x70
00001a  2068              MOVS     r0,#0x68
00001c  f7fffffe          BL       TM1650_SET_LED
;;;666            GPIO_ResetBits(GPIOD,GPIO_Pin_12);//灭灯
000020  4621              MOV      r1,r4
000022  4628              MOV      r0,r5
000024  e8bd4070          POP      {r4-r6,lr}
000028  f7ffbffe          B.W      GPIO_ResetBits
                  |L6.44|
00002c  4a1f              LDR      r2,|L6.172|
00002e  ed9f0a20          VLDR     s0,|L6.176|
000032  edd20a00          VLDR     s1,[r2,#0]            ;651
000036  4a1f              LDR      r2,|L6.180|
000038  ee200a80          VMUL.F32 s0,s1,s0              ;651
00003c  8b93              LDRH     r3,[r2,#0x1c]         ;651  ; Run_Control
00003e  ee003a90          VMOV     s1,r3                 ;651
000042  eef80a60          VCVT.F32.U32 s1,s1                 ;651
000046  eeb40ae0          VCMPE.F32 s0,s1                 ;651
00004a  eef1fa10          VMRS     APSR_nzcv,FPSCR       ;651
00004e  dc09              BGT      |L6.100|
000050  8bd2              LDRH     r2,[r2,#0x1e]         ;651  ; Run_Control
000052  ee002a90          VMOV     s1,r2                 ;651
000056  eef80a60          VCVT.F32.U32 s1,s1                 ;651
00005a  eeb40ae0          VCMPE.F32 s0,s1                 ;651
00005e  eef1fa10          VMRS     APSR_nzcv,FPSCR       ;651
000062  d20f              BCS      |L6.132|
                  |L6.100|
000064  4814              LDR      r0,|L6.184|
000066  7800              LDRB     r0,[r0,#0]            ;653  ; para_set4
000068  28ff              CMP      r0,#0xff              ;653
00006a  d101              BNE      |L6.112|
00006c  f7fffffe          BL       BEEP_Tiggr
                  |L6.112|
000070  2170              MOVS     r1,#0x70              ;656
000072  2068              MOVS     r0,#0x68              ;656
000074  f7fffffe          BL       TM1650_SET_LED
000078  4621              MOV      r1,r4                 ;657
00007a  4628              MOV      r0,r5                 ;657
00007c  e8bd4070          POP      {r4-r6,lr}            ;657
000080  f7ffbffe          B.W      GPIO_SetBits
                  |L6.132|
000084  4621              MOV      r1,r4                 ;659
000086  4628              MOV      r0,r5                 ;659
000088  f7fffffe          BL       GPIO_ResetBits
00008c  2171              MOVS     r1,#0x71              ;660
00008e  2048              MOVS     r0,#0x48              ;660
000090  f7fffffe          BL       TM1650_SET_LED
000094  e8bd4070          POP      {r4-r6,lr}            ;661
000098  21f2              MOVS     r1,#0xf2              ;661
00009a  2068              MOVS     r0,#0x68              ;661
00009c  f7ffbffe          B.W      TM1650_SET_LED
;;;667        }
;;;668    }
                          ENDP

                  |L6.160|
                          DCD      ||.data||
                  |L6.164|
                          DCD      0x40020c00
                  |L6.168|
                          DCD      para_set1
                  |L6.172|
                          DCD      DISS_Voltage
                  |L6.176|
0000b0  42c80000          DCFS     0x42c80000 ; 100
                  |L6.180|
                          DCD      Run_Control
                  |L6.184|
                          DCD      para_set4

                          AREA ||.constdata||, DATA, READONLY, ALIGN=2

                  _aDialogCreate2
                          DCD      WINDOW_CreateIndirect
                          DCD      ||.conststring||
000008  08090000          DCW      0x0809,0x0000
00000c  000001e0          DCW      0x0000,0x01e0
000010  01100000          DCW      0x0110,0x0000
                          DCD      0x00000000
                          DCD      0x00000000
                          DCD      BUTTON_CreateIndirect
                          DCD      ||.conststring||+0x7
000024  080b0053          DCW      0x080b,0x0053
000028  00e2004d          DCW      0x00e2,0x004d
00002c  002d0000          DCW      0x002d,0x0000
                          DCD      0x00000000
                          DCD      0x00000000
                          DCD      BUTTON_CreateIndirect
                          DCD      ||.conststring||+0x7
000040  080c00a3          DCW      0x080c,0x00a3
000044  00e2004d          DCW      0x00e2,0x004d
000048  002d0000          DCW      0x002d,0x0000
                          DCD      0x00000000
                          DCD      0x00000000
                          DCD      BUTTON_CreateIndirect
                          DCD      ||.conststring||+0x7
00005c  080d00f3          DCW      0x080d,0x00f3
000060  00e2004d          DCW      0x00e2,0x004d
000064  002d0000          DCW      0x002d,0x0000
                          DCD      0x00000000
                          DCD      0x00000000
                          DCD      BUTTON_CreateIndirect
                          DCD      ||.conststring||+0x7
000078  080e0143          DCW      0x080e,0x0143
00007c  00e2004d          DCW      0x00e2,0x004d
000080  002d0000          DCW      0x002d,0x0000
                          DCD      0x00000000
                          DCD      0x00000000
                          DCD      BUTTON_CreateIndirect
                          DCD      ||.conststring||+0x7
000094  080f0193          DCW      0x080f,0x0193
000098  00e2004d          DCW      0x00e2,0x004d
00009c  002d0000          DCW      0x002d,0x0000
                          DCD      0x00000000
                          DCD      0x00000000
                          DCD      TEXT_CreateIndirect
                          DCD      ||.conststring||+0xe
0000b0  0810001c          DCW      0x0810,0x001c
0000b4  00320040          DCW      0x0032,0x0040
0000b8  00200000          DCW      0x0020,0x0000
                          DCD      0x00000064
                          DCD      0x00000000
                          DCD      TEXT_CreateIndirect
                          DCD      ||.conststring||+0xe
0000cc  0811001c          DCW      0x0811,0x001c
0000d0  00780040          DCW      0x0078,0x0040
0000d4  00200000          DCW      0x0020,0x0000
                          DCD      0x00000064
                          DCD      0x00000000
                          DCD      TEXT_CreateIndirect
                          DCD      ||.conststring||+0xe
0000e8  081e00d9          DCW      0x081e,0x00d9
0000ec  00320020          DCW      0x0032,0x0020
0000f0  001e0000          DCW      0x001e,0x0000
                          DCD      0x00000000
                          DCD      0x00000000
                          DCD      TEXT_CreateIndirect
                          DCD      ||.conststring||+0xe
000104  081f00d9          DCW      0x081f,0x00d9
000108  00790020          DCW      0x0079,0x0020
00010c  001e0000          DCW      0x001e,0x0000
                          DCD      0x00000000
                          DCD      0x00000000
                          DCD      TEXT_CreateIndirect
                          DCD      ||.conststring||+0xe
000120  086d0122          DCW      0x086d,0x0122
000124  004b0050          DCW      0x004b,0x0050
000128  00140000          DCW      0x0014,0x0000
                          DCD      0x00000000
                          DCD      0x00000000
                          DCD      TEXT_CreateIndirect
                          DCD      ||.conststring||+0xe
00013c  086e017c          DCW      0x086e,0x017c
000140  004b0035          DCW      0x004b,0x0035
000144  00140000          DCW      0x0014,0x0000
                          DCD      0x00000000
                          DCD      0x00000000
                          DCD      TEXT_CreateIndirect
                          DCD      ||.conststring||+0xe
000158  0891005f          DCW      0x0891,0x005f
00015c  00300096          DCW      0x0030,0x0096
000160  00280000          DCW      0x0028,0x0000
                          DCD      0x00000000
                          DCD      0x00000000
                          DCD      TEXT_CreateIndirect
                          DCD      ||.conststring||+0xe
000174  0892005f          DCW      0x0892,0x005f
000178  00740096          DCW      0x0074,0x0096
00017c  00280000          DCW      0x0028,0x0000
                          DCD      0x00000000
                          DCD      0x00000000
                          DCD      TEXT_CreateIndirect
                          DCD      ||.conststring||+0xe
000190  08960181          DCW      0x0896,0x0181
000194  00040064          DCW      0x0004,0x0064
000198  00140000          DCW      0x0014,0x0000
                          DCD      0x00000000
                          DCD      0x00000000
                          DCD      TEXT_CreateIndirect
                          DCD      ||.conststring||+0xe
0001ac  0b0b005f          DCW      0x0b0b,0x005f
0001b0  00b80096          DCW      0x00b8,0x0096
0001b4  00280000          DCW      0x0028,0x0000
                          DCD      0x00000000
                          DCD      0x00000000

                          AREA ||.conststring||, DATA, READONLY, MERGE=1, STRINGS, ALIGN=0

000000  57696e64          DCB      "Window",0
000004  6f7700  
000007  42757474          DCB      "Button",0
00000b  6f6e00  
00000e  54657874          DCB      "Text",0
000012  00      

                          AREA ||.data||, DATA, ALIGN=2

                  load_sw
000000  00                DCB      0x00
                  status_flash
000001  00                DCB      0x00
                  battery_c
000002  0000              DCB      0x00,0x00
                  load_wind
                          DCD      0x00000000
                  bc_raw
                          DCD      0x00000000

;*** Start embedded assembler ***

#line 1 "..\\APP\\load_Face.c"
	AREA ||.rev16_text||, CODE, READONLY
	THUMB
	EXPORT |__asm___11_load_Face_c_load_sw____REV16|
#line 114 "D:\\Keil\\ARM\\CMSIS\\Include\\core_cmInstr.h"
|__asm___11_load_Face_c_load_sw____REV16| PROC
#line 115

 rev16 r0, r0
 bx lr
	ENDP
	AREA ||.revsh_text||, CODE, READONLY
	THUMB
	EXPORT |__asm___11_load_Face_c_load_sw____REVSH|
#line 128
|__asm___11_load_Face_c_load_sw____REVSH| PROC
#line 129

 revsh r0, r0
 bx lr
	ENDP

;*** End   embedded assembler ***
