; generated by ARM C/C++ Compiler, 4.1 [Build 894]
; commandline ArmCC [--list --split_sections --debug -c --asm --interleave -o..\Output\r_face.o --asm_dir=..\Listing\ --list_dir=..\Listing\ --depend=..\Output\r_face.d --cpu=Cortex-M4.fp --apcs=interwork -O1 --diag_suppress=870 -I..\APP -I..\drive -I..\Include -I..\Libraries\CMSIS\inc -I..\Libraries\CMSIS\src -I..\Libraries\FWlib\inc -I..\Libraries\FWlib\src -I..\Listing -I..\Output -I..\Project -I..\STemWinLibrary522\Config -I..\STemWinLibrary522\emWinTask -I..\STemWinLibrary522\GUILib -I..\STemWinLibrary522\inc -I..\User -I..\USB\STM32_USB_HOST_Library\Class\HID\inc -I..\USB\STM32_USB_HOST_Library\Class\MSC\src -I..\USB\STM32_USB_HOST_Library\Core\src -I..\USB\USB_APP -I..\USB\STM32_USB_HOST_Library\Class\HID\src -I..\USB\STM32_USB_HOST_Library\Class\MSC\inc -I..\USB\STM32_USB_HOST_Library\Core\inc -I..\USB\STM32_USB_OTG_Driver\inc -I..\FATFS\exfuns -I..\FATFS\src\option -I..\FATFS\src -I..\MALLOC -ID:\Keil\ARM\RV31\Inc -ID:\Keil\ARM\CMSIS\Include -ID:\Keil\ARM\Inc\ST\STM32F4xx -DUSE_STDPERIPH_DRIVER -DSTM32F40XX -DUSE_USB_OTG_FS -DUSE_EMBEDDED_PHY -DUSE_USB_OTG_HS -DSTM32F40XX --omf_browse=..\Output\r_face.crf ..\APP\R_Face.c]
                          THUMB

                          AREA ||i.CreateR||, CODE, READONLY, ALIGN=2

                  CreateR PROC
;;;1104   WM_HWIN CreateR(void);
;;;1105   WM_HWIN CreateR(void) {
000000  b57c              PUSH     {r2-r6,lr}
;;;1106     set_sw = set_20;
000002  4d13              LDR      r5,|L1.80|
000004  2013              MOVS     r0,#0x13
000006  73a8              STRB     r0,[r5,#0xe]
;;;1107     page_sw = face_r;
000008  2003              MOVS     r0,#3
00000a  70a8              STRB     r0,[r5,#2]
;;;1108     track = face_r;
00000c  4911              LDR      r1,|L1.84|
00000e  7008              STRB     r0,[r1,#0]
;;;1109     con_flag = 0;
000010  2400              MOVS     r4,#0
000012  722c              STRB     r4,[r5,#8]
;;;1110     load_sw = load_off;
000014  4810              LDR      r0,|L1.88|
000016  7004              STRB     r4,[r0,#0]
;;;1111     pow_sw = pow_off;
000018  4810              LDR      r0,|L1.92|
00001a  7004              STRB     r4,[r0,#0]
;;;1112     GPIO_ResetBits(GPIOB,GPIO_Pin_13);
00001c  f44f5100          MOV      r1,#0x2000
000020  480f              LDR      r0,|L1.96|
000022  f7fffffe          BL       GPIO_ResetBits
;;;1113       GPIO_SetBits(GPIOC,GPIO_Pin_1);//OFF
000026  2102              MOVS     r1,#2
000028  480e              LDR      r0,|L1.100|
00002a  f7fffffe          BL       GPIO_SetBits
;;;1114     SET_Current_Laod = set_init_c;
00002e  480e              LDR      r0,|L1.104|
000030  8d81              LDRH     r1,[r0,#0x2c]  ; Run_Control
000032  8101              STRH     r1,[r0,#8]
;;;1115     pass = 0;
000034  480d              LDR      r0,|L1.108|
000036  7004              STRB     r4,[r0,#0]
;;;1116     hWinR = GUI_CreateDialogBox(_aDialogCreate, GUI_COUNTOF(_aDialogCreate), _cbDialog, WM_HBKWIN, 0, 0);
000038  f7fffffe          BL       WM_GetDesktopWindow
00003c  4603              MOV      r3,r0
00003e  9400              STR      r4,[sp,#0]
000040  4a0b              LDR      r2,|L1.112|
000042  211a              MOVS     r1,#0x1a
000044  480b              LDR      r0,|L1.116|
000046  9401              STR      r4,[sp,#4]
000048  f7fffffe          BL       GUI_CreateDialogBox
00004c  62a8              STR      r0,[r5,#0x28]  ; hWinR
;;;1117     return hWinR;
;;;1118   }
00004e  bd7c              POP      {r2-r6,pc}
;;;1119   
                          ENDP

                  |L1.80|
                          DCD      ||.data||
                  |L1.84|
                          DCD      track
                  |L1.88|
                          DCD      load_sw
                  |L1.92|
                          DCD      pow_sw
                  |L1.96|
                          DCD      0x40020400
                  |L1.100|
                          DCD      0x40020800
                  |L1.104|
                          DCD      Run_Control
                  |L1.108|
                          DCD      pass
                  |L1.112|
                          DCD      _cbDialog
                  |L1.116|
                          DCD      ||.constdata||

                          AREA ||i.INPUT_C||, CODE, READONLY, ALIGN=2

                  INPUT_C PROC
;;;1449             
;;;1450   void INPUT_C(char* num){
000000  e92d4ff1          PUSH     {r0,r4-r11,lr}
000004  b082              SUB      sp,sp,#8
;;;1451       switch(set_sw)
000006  4efc              LDR      r6,|L2.1016|
000008  7bb1              LDRB     r1,[r6,#0xe]  ; set_sw
00000a  4630              MOV      r0,r6
;;;1452       {
;;;1453           case set_22:
;;;1454           {
;;;1455               WM_HWIN hItem;
;;;1456   //            WM_InvalidateWindow(hWinR);
;;;1457               hItem = WM_GetDialogItem(hWinR, ID_TEXT_46);
;;;1458               switch(bit){
;;;1459                   case 1:
;;;1460                   {
;;;1461                       set_init_c = atoi(num) * 100;
00000c  4cfb              LDR      r4,|L2.1020|
;;;1462                       strcat(set_limit,num);            
;;;1463                       TEXT_SetText(hItem,set_limit);
;;;1464                       
;;;1465                       bit = 2;
00000e  2702              MOVS     r7,#2
;;;1466                       break;
;;;1467                   }
;;;1468                   case 2:
;;;1469                   {
;;;1470                       strcat(set_limit,num);            
;;;1471                       TEXT_SetText(hItem,set_limit);
;;;1472                       if(set_limit[1] == 0x2e)//判断输入是否为小数点
;;;1473                       {
;;;1474                           dot_flag = 1;
;;;1475                       }else{
;;;1476                           set_init_c = set_init_c * 10 + atoi(num) * 100;
;;;1477                       }
;;;1478                       bit = 3;
;;;1479                       break;
;;;1480                   }
;;;1481                   case 3:
;;;1482                   {
;;;1483                       strcat(set_limit,num);
;;;1484                       TEXT_SetText(hItem,set_limit);
;;;1485                       if(dot_flag == 0)
;;;1486                       {
;;;1487                           if(set_limit[2] == 0x2e)//判断输入是否为小数点
;;;1488                           {                            
;;;1489                               dot_flag = 2;
;;;1490                           }else{
;;;1491                               set_init_c = 0;
000010  2500              MOVS     r5,#0
000012  6a80              LDR      r0,[r0,#0x28]         ;1457
000014  f106093c          ADD      r9,r6,#0x3c           ;1462
000018  f04f0801          MOV      r8,#1                 ;1474
00001c  f04f0a03          MOV      r10,#3                ;1478
;;;1492                           }
;;;1493                       }else{
;;;1494                           set_init_c = set_init_c + atoi(num) * 10;
;;;1495                       }                  
;;;1496                       bit = 4;
000020  f04f0b04          MOV      r11,#4
000024  2915              CMP      r1,#0x15              ;1451
000026  d029              BEQ      |L2.124|
000028  2916              CMP      r1,#0x16              ;1451
00002a  d07c              BEQ      |L2.294|
00002c  2940              CMP      r1,#0x40              ;1451
00002e  d07b              BEQ      |L2.296|
000030  2943              CMP      r1,#0x43              ;1451
000032  d121              BNE      |L2.120|
;;;1497                       break;
;;;1498                   }
;;;1499                   case 4:
;;;1500                   {
;;;1501                       strcat(set_limit,num);
;;;1502                       TEXT_SetText(hItem,set_limit);
;;;1503                       if(dot_flag == 0)
;;;1504                       {
;;;1505                           SET_Current_Laod = 0;
;;;1506                       }else if(dot_flag == 2){
;;;1507                           set_init_c = set_init_c + atoi(num) * 10;
;;;1508                       }else{
;;;1509                           set_init_c = set_init_c + atoi(num);
;;;1510                       }                  
;;;1511                       bit = 5;
;;;1512                       break;
;;;1513                   }
;;;1514                   case 5:
;;;1515                   {
;;;1516                       strcat(set_limit,num);
;;;1517                       TEXT_SetText(hItem,set_limit);
;;;1518                       if(dot_flag == 0)
;;;1519                       {
;;;1520                           set_init_c = 0;
;;;1521                       }else if(dot_flag == 1){
;;;1522                           set_init_c = set_init_c;
;;;1523                       }else{
;;;1524                           set_init_c = set_init_c + atoi(num);
;;;1525                       }                 
;;;1526                       bit = 1;
;;;1527                       break;
;;;1528                   }
;;;1529               }
;;;1530               break;        
;;;1531           }
;;;1532           case set_23:
;;;1533           {
;;;1534               WM_HWIN hItem;
;;;1535   //            WM_InvalidateWindow(hWinR);
;;;1536               hItem = WM_GetDialogItem(hWinR, ID_TEXT_47);
;;;1537               switch(bit){
;;;1538                   case 1:
;;;1539                   {
;;;1540                       set_sbs_c = atoi(num) * 100;
;;;1541                       strcat(set_limit,num);            
;;;1542                       TEXT_SetText(hItem,set_limit);
;;;1543                       
;;;1544                       bit = 2;
;;;1545                       break;
;;;1546                   }
;;;1547                   case 2:
;;;1548                   {
;;;1549                       strcat(set_limit,num);            
;;;1550                       TEXT_SetText(hItem,set_limit);
;;;1551                       if(set_limit[1] == 0x2e)//判断输入是否为小数点
;;;1552                       {
;;;1553                           dot_flag = 1;
;;;1554                       }else{
;;;1555                           set_sbs_c = set_sbs_c * 10 + atoi(num) * 100;
;;;1556                       }
;;;1557                       bit = 3;
;;;1558                       break;
;;;1559                   }
;;;1560                   case 3:
;;;1561                   {
;;;1562                       strcat(set_limit,num);
;;;1563                       TEXT_SetText(hItem,set_limit);
;;;1564                       if(dot_flag == 0)
;;;1565                       {
;;;1566                           if(set_limit[2] == 0x2e)//判断输入是否为小数点
;;;1567                           {                            
;;;1568                               dot_flag = 2;
;;;1569                           }else{
;;;1570                               set_sbs_c = 0;
;;;1571                           }
;;;1572                       }else{
;;;1573                           set_sbs_c = set_sbs_c + atoi(num) * 10;
;;;1574                       }                  
;;;1575                       bit = 4;
;;;1576                       break;
;;;1577                   }
;;;1578                   case 4:
;;;1579                   {
;;;1580                       strcat(set_limit,num);
;;;1581                       TEXT_SetText(hItem,set_limit);
;;;1582                       if(dot_flag == 0)
;;;1583                       {
;;;1584                           set_sbs_c = 0;
;;;1585                       }else if(dot_flag == 2){
;;;1586                           set_sbs_c = set_sbs_c + atoi(num) * 10;
;;;1587                       }else{
;;;1588                           set_sbs_c = set_sbs_c + atoi(num);
;;;1589                       }                  
;;;1590                       bit = 5;
;;;1591                       break;
;;;1592                   }
;;;1593                   case 5:
;;;1594                   {
;;;1595                       strcat(set_limit,num);
;;;1596                       TEXT_SetText(hItem,set_limit);
;;;1597                       if(dot_flag == 0)
;;;1598                       {
;;;1599                           set_sbs_c = 0;
;;;1600                       }else if(dot_flag == 1){
;;;1601                           set_sbs_c = set_sbs_c;
;;;1602                       }else{
;;;1603                           set_sbs_c = set_sbs_c + atoi(num);
;;;1604                       }                 
;;;1605                       bit = 1;
;;;1606                       break;
;;;1607                   }
;;;1608               }
;;;1609               break;        
;;;1610           }
;;;1611           case set_65:
;;;1612           {
;;;1613               WM_HWIN hItem;
;;;1614   //            WM_InvalidateWindow(hWinR);
;;;1615               hItem = WM_GetDialogItem(hWinR, ID_TEXT_97);
;;;1616               switch(bit){
;;;1617                   case 1:
;;;1618                   {
;;;1619                       dis_gate_v = atoi(num) * 100;
;;;1620                       strcat(set_limit,num);            
;;;1621                       TEXT_SetText(hItem,set_limit);
;;;1622                       
;;;1623                       bit = 2;
;;;1624                       break;
;;;1625                   }
;;;1626                   case 2:
;;;1627                   {
;;;1628                       strcat(set_limit,num);            
;;;1629                       TEXT_SetText(hItem,set_limit);
;;;1630                       if(set_limit[1] == 0x2e)//判断输入是否为小数点
;;;1631                       {
;;;1632                           dot_flag = 1;
;;;1633                       }else{
;;;1634                           dis_gate_v = dis_gate_v * 10 + atoi(num) * 100;
;;;1635                       }
;;;1636                       bit = 3;
;;;1637                       break;
;;;1638                   }
;;;1639                   case 3:
;;;1640                   {
;;;1641                       strcat(set_limit,num);
;;;1642                       TEXT_SetText(hItem,set_limit);
;;;1643                       if(dot_flag == 0)
;;;1644                       {
;;;1645                           if(set_limit[2] == 0x2e)//判断输入是否为小数点
;;;1646                           {                            
;;;1647                               dot_flag = 2;
;;;1648                           }else{
;;;1649                               dis_gate_v = 0;
;;;1650                           }
;;;1651                       }else{
;;;1652                           dis_gate_v = dis_gate_v + atoi(num) * 10;
;;;1653                       }                  
;;;1654                       bit = 4;
;;;1655                       break;
;;;1656                   }
;;;1657                   case 4:
;;;1658                   {
;;;1659                       strcat(set_limit,num);
;;;1660                       TEXT_SetText(hItem,set_limit);
;;;1661                       if(dot_flag == 0)
;;;1662                       {
;;;1663                           dis_gate_v = 0;
;;;1664                       }else if(dot_flag == 2){
;;;1665                           dis_gate_v = dis_gate_v + atoi(num) * 10;
;;;1666                       }else{
;;;1667                           dis_gate_v = dis_gate_v + atoi(num);
;;;1668                       }                  
;;;1669                       bit = 5;
;;;1670                       break;
;;;1671                   }
;;;1672                   case 5:
;;;1673                   {
;;;1674                       strcat(set_limit,num);
;;;1675                       TEXT_SetText(hItem,set_limit);
;;;1676                       if(dot_flag == 0)
;;;1677                       {
;;;1678                           dis_gate_v = 0;
;;;1679                       }else if(dot_flag == 1){
;;;1680                           dis_gate_v = dis_gate_v;
;;;1681                       }else{
;;;1682                           dis_gate_v = dis_gate_v + atoi(num);
;;;1683                       }                 
;;;1684                       bit = 1;
;;;1685                       break;
;;;1686                   }
;;;1687               }
;;;1688               break;        
;;;1689           }
;;;1690           case set_68:
;;;1691           {
;;;1692               WM_HWIN hItem;
;;;1693   //            WM_InvalidateWindow(hWinset);
;;;1694               hItem = WM_GetDialogItem(hWinR, ID_TEXT_122);
000034  f6403111          MOV      r1,#0xb11
000038  f7fffffe          BL       WM_GetDialogItem
00003c  4604              MOV      r4,r0
;;;1695               switch(bit){
00003e  7830              LDRB     r0,[r6,#0]  ; bit
000040  2801              CMP      r0,#1
000042  d072              BEQ      |L2.298|
000044  2802              CMP      r0,#2
000046  d071              BEQ      |L2.300|
000048  2803              CMP      r0,#3
00004a  d070              BEQ      |L2.302|
00004c  2804              CMP      r0,#4
00004e  d113              BNE      |L2.120|
;;;1696                   case 1:
;;;1697                   {
;;;1698                       steptime = atoi(num);
;;;1699                       strcat(set_limit,num);            
;;;1700                       TEXT_SetText(hItem,set_limit);
;;;1701                       bit = 2;
;;;1702                       break; 
;;;1703                   }
;;;1704                   case 2:
;;;1705                   {
;;;1706                       steptime = steptime * 10 + atoi(num);
;;;1707                       strcat(set_limit,num);            
;;;1708                       TEXT_SetText(hItem,set_limit);
;;;1709                       bit = 3;
;;;1710                       break; 
;;;1711                   }
;;;1712                   case 3:
;;;1713                   {
;;;1714                       steptime = steptime * 10 + atoi(num);
;;;1715                       strcat(set_limit,num);            
;;;1716                       TEXT_SetText(hItem,set_limit);
;;;1717                       bit = 4;
;;;1718                       break; 
;;;1719                   }
;;;1720                   case 4:
;;;1721                   {
;;;1722                       steptime = steptime * 10 + atoi(num);
000050  9802              LDR      r0,[sp,#8]
000052  f7fffffe          BL       atoi
000056  4601              MOV      r1,r0
000058  8a30              LDRH     r0,[r6,#0x10]  ; steptime
00005a  eb000080          ADD      r0,r0,r0,LSL #2
00005e  eb010040          ADD      r0,r1,r0,LSL #1
000062  8230              STRH     r0,[r6,#0x10]
;;;1723                       strcat(set_limit,num);            
000064  4648              MOV      r0,r9
000066  9902              LDR      r1,[sp,#8]
000068  f7fffffe          BL       strcat
;;;1724                       TEXT_SetText(hItem,set_limit);
00006c  4649              MOV      r1,r9
00006e  4620              MOV      r0,r4
000070  f7fffffe          BL       TEXT_SetText
;;;1725                       bit = 1;
000074  f8868000          STRB     r8,[r6,#0]
                  |L2.120|
;;;1726                       break; 
;;;1727                   }
;;;1728               }
;;;1729               break;           
;;;1730           }
;;;1731           
;;;1732       }
;;;1733   }
000078  e8bd8ffe          POP      {r1-r11,pc}
                  |L2.124|
00007c  f640016b          MOV      r1,#0x86b             ;1457
000080  f7fffffe          BL       WM_GetDialogItem
000084  9001              STR      r0,[sp,#4]            ;1457
000086  7830              LDRB     r0,[r6,#0]            ;1458  ; bit
000088  2806              CMP      r0,#6                 ;1458
00008a  d2f5              BCS      |L2.120|
00008c  e8dff000          TBB      [pc,r0]               ;1458
000090  03041635          DCB      0x03,0x04,0x16,0x35
000094  5b7f              DCB      0x5b,0x7f
000096  e7ef              B        |L2.120|
000098  9802              LDR      r0,[sp,#8]            ;1461
00009a  f7fffffe          BL       atoi
00009e  2164              MOVS     r1,#0x64              ;1461
0000a0  4348              MULS     r0,r1,r0              ;1461
0000a2  85a0              STRH     r0,[r4,#0x2c]         ;1461
0000a4  48d4              LDR      r0,|L2.1016|
0000a6  9902              LDR      r1,[sp,#8]            ;1462
0000a8  303c              ADDS     r0,r0,#0x3c           ;1462
0000aa  f7fffffe          BL       strcat
0000ae  49d2              LDR      r1,|L2.1016|
0000b0  9801              LDR      r0,[sp,#4]            ;1463
0000b2  313c              ADDS     r1,r1,#0x3c           ;1463
0000b4  f7fffffe          BL       TEXT_SetText
0000b8  7037              STRB     r7,[r6,#0]            ;1465
0000ba  e7dd              B        |L2.120|
0000bc  48ce              LDR      r0,|L2.1016|
0000be  9902              LDR      r1,[sp,#8]            ;1470
0000c0  303c              ADDS     r0,r0,#0x3c           ;1470
0000c2  f7fffffe          BL       strcat
0000c6  49cc              LDR      r1,|L2.1016|
0000c8  9801              LDR      r0,[sp,#4]            ;1471
0000ca  313c              ADDS     r1,r1,#0x3c           ;1471
0000cc  f7fffffe          BL       TEXT_SetText
0000d0  f8990001          LDRB     r0,[r9,#1]            ;1472  ; set_limit
0000d4  282e              CMP      r0,#0x2e              ;1472
0000d6  d00d              BEQ      |L2.244|
0000d8  9802              LDR      r0,[sp,#8]            ;1476
0000da  f7fffffe          BL       atoi
0000de  2164              MOVS     r1,#0x64              ;1476
0000e0  4348              MULS     r0,r1,r0              ;1476
0000e2  8da1              LDRH     r1,[r4,#0x2c]         ;1476  ; Run_Control
0000e4  eb010181          ADD      r1,r1,r1,LSL #2       ;1476
0000e8  eb000041          ADD      r0,r0,r1,LSL #1       ;1476
0000ec  85a0              STRH     r0,[r4,#0x2c]         ;1476
                  |L2.238|
0000ee  f886a000          STRB     r10,[r6,#0]           ;1478
                  |L2.242|
0000f2  e7c1              B        |L2.120|
                  |L2.244|
0000f4  f8868001          STRB     r8,[r6,#1]            ;1474
0000f8  e7f9              B        |L2.238|
0000fa  48bf              LDR      r0,|L2.1016|
0000fc  9902              LDR      r1,[sp,#8]            ;1483
0000fe  303c              ADDS     r0,r0,#0x3c           ;1483
000100  f7fffffe          BL       strcat
000104  49bc              LDR      r1,|L2.1016|
000106  9801              LDR      r0,[sp,#4]            ;1484
000108  313c              ADDS     r1,r1,#0x3c           ;1484
00010a  f7fffffe          BL       TEXT_SetText
00010e  7870              LDRB     r0,[r6,#1]            ;1485  ; dot_flag
000110  b188              CBZ      r0,|L2.310|
000112  9802              LDR      r0,[sp,#8]            ;1494
000114  f7fffffe          BL       atoi
000118  8da1              LDRH     r1,[r4,#0x2c]         ;1494  ; Run_Control
00011a  eb000080          ADD      r0,r0,r0,LSL #2       ;1494
00011e  eb010040          ADD      r0,r1,r0,LSL #1       ;1494
000122  85a0              STRH     r0,[r4,#0x2c]         ;1494
                  |L2.292|
000124  e004              B        |L2.304|
                  |L2.294|
000126  e04f              B        |L2.456|
                  |L2.296|
000128  e0ee              B        |L2.776|
                  |L2.298|
00012a  e190              B        |L2.1102|
                  |L2.300|
00012c  e19d              B        |L2.1130|
                  |L2.302|
00012e  e1b1              B        |L2.1172|
                  |L2.304|
000130  f886b000          STRB     r11,[r6,#0]           ;1496
000134  e7a0              B        |L2.120|
                  |L2.310|
000136  f8990002          LDRB     r0,[r9,#2]            ;1487  ; set_limit
00013a  282e              CMP      r0,#0x2e              ;1487
00013c  d001              BEQ      |L2.322|
00013e  85a5              STRH     r5,[r4,#0x2c]         ;1491
000140  e7f0              B        |L2.292|
                  |L2.322|
000142  7077              STRB     r7,[r6,#1]            ;1489
000144  e7ee              B        |L2.292|
000146  48ac              LDR      r0,|L2.1016|
000148  9902              LDR      r1,[sp,#8]            ;1501
00014a  303c              ADDS     r0,r0,#0x3c           ;1501
00014c  f7fffffe          BL       strcat
000150  49a9              LDR      r1,|L2.1016|
000152  9801              LDR      r0,[sp,#4]            ;1502
000154  313c              ADDS     r1,r1,#0x3c           ;1502
000156  f7fffffe          BL       TEXT_SetText
00015a  7870              LDRB     r0,[r6,#1]            ;1503  ; dot_flag
00015c  b158              CBZ      r0,|L2.374|
00015e  7870              LDRB     r0,[r6,#1]            ;1506  ; dot_flag
000160  2802              CMP      r0,#2                 ;1506
000162  d00a              BEQ      |L2.378|
000164  9802              LDR      r0,[sp,#8]            ;1509
000166  f7fffffe          BL       atoi
00016a  8da1              LDRH     r1,[r4,#0x2c]         ;1509  ; Run_Control
00016c  4408              ADD      r0,r0,r1              ;1509
00016e  85a0              STRH     r0,[r4,#0x2c]         ;1509
                  |L2.368|
000170  2005              MOVS     r0,#5                 ;1511
000172  7030              STRB     r0,[r6,#0]            ;1511
000174  e780              B        |L2.120|
                  |L2.374|
000176  8125              STRH     r5,[r4,#8]            ;1505
000178  e7fa              B        |L2.368|
                  |L2.378|
00017a  9802              LDR      r0,[sp,#8]            ;1507
00017c  f7fffffe          BL       atoi
000180  eb000180          ADD      r1,r0,r0,LSL #2       ;1507
000184  8da0              LDRH     r0,[r4,#0x2c]         ;1507  ; Run_Control
000186  eb000041          ADD      r0,r0,r1,LSL #1       ;1507
00018a  85a0              STRH     r0,[r4,#0x2c]         ;1507
00018c  e7f0              B        |L2.368|
00018e  489a              LDR      r0,|L2.1016|
000190  9902              LDR      r1,[sp,#8]            ;1516
000192  303c              ADDS     r0,r0,#0x3c           ;1516
000194  f7fffffe          BL       strcat
000198  4997              LDR      r1,|L2.1016|
00019a  9801              LDR      r0,[sp,#4]            ;1517
00019c  313c              ADDS     r1,r1,#0x3c           ;1517
00019e  f7fffffe          BL       TEXT_SetText
0001a2  7870              LDRB     r0,[r6,#1]            ;1518  ; dot_flag
0001a4  b158              CBZ      r0,|L2.446|
0001a6  7870              LDRB     r0,[r6,#1]            ;1521  ; dot_flag
0001a8  2801              CMP      r0,#1                 ;1521
0001aa  d00a              BEQ      |L2.450|
0001ac  9802              LDR      r0,[sp,#8]            ;1524
0001ae  f7fffffe          BL       atoi
0001b2  8da1              LDRH     r1,[r4,#0x2c]         ;1524  ; Run_Control
0001b4  4408              ADD      r0,r0,r1              ;1524
0001b6  85a0              STRH     r0,[r4,#0x2c]         ;1524
                  |L2.440|
0001b8  f8868000          STRB     r8,[r6,#0]            ;1526
0001bc  e75c              B        |L2.120|
                  |L2.446|
0001be  85a5              STRH     r5,[r4,#0x2c]         ;1520
0001c0  e7fa              B        |L2.440|
                  |L2.450|
0001c2  8da0              LDRH     r0,[r4,#0x2c]         ;1522  ; Run_Control
0001c4  85a0              STRH     r0,[r4,#0x2c]         ;1522
0001c6  e7f7              B        |L2.440|
                  |L2.456|
0001c8  f640016c          MOV      r1,#0x86c             ;1536
0001cc  f7fffffe          BL       WM_GetDialogItem
0001d0  9001              STR      r0,[sp,#4]            ;1536
0001d2  7830              LDRB     r0,[r6,#0]            ;1537  ; bit
0001d4  2806              CMP      r0,#6                 ;1537
0001d6  d28c              BCS      |L2.242|
0001d8  e8dff000          TBB      [pc,r0]               ;1537
0001dc  03041635          DCB      0x03,0x04,0x16,0x35
0001e0  5579              DCB      0x55,0x79
0001e2  e749              B        |L2.120|
0001e4  9802              LDR      r0,[sp,#8]            ;1540
0001e6  f7fffffe          BL       atoi
0001ea  2164              MOVS     r1,#0x64              ;1540
0001ec  4348              MULS     r0,r1,r0              ;1540
0001ee  85e0              STRH     r0,[r4,#0x2e]         ;1540
0001f0  4881              LDR      r0,|L2.1016|
0001f2  9902              LDR      r1,[sp,#8]            ;1541
0001f4  303c              ADDS     r0,r0,#0x3c           ;1541
0001f6  f7fffffe          BL       strcat
0001fa  497f              LDR      r1,|L2.1016|
0001fc  9801              LDR      r0,[sp,#4]            ;1542
0001fe  313c              ADDS     r1,r1,#0x3c           ;1542
000200  f7fffffe          BL       TEXT_SetText
000204  7037              STRB     r7,[r6,#0]            ;1544
000206  e737              B        |L2.120|
000208  487b              LDR      r0,|L2.1016|
00020a  9902              LDR      r1,[sp,#8]            ;1549
00020c  303c              ADDS     r0,r0,#0x3c           ;1549
00020e  f7fffffe          BL       strcat
000212  4979              LDR      r1,|L2.1016|
000214  9801              LDR      r0,[sp,#4]            ;1550
000216  313c              ADDS     r1,r1,#0x3c           ;1550
000218  f7fffffe          BL       TEXT_SetText
00021c  f8990001          LDRB     r0,[r9,#1]            ;1551  ; set_limit
000220  282e              CMP      r0,#0x2e              ;1551
000222  d00d              BEQ      |L2.576|
000224  9802              LDR      r0,[sp,#8]            ;1555
000226  f7fffffe          BL       atoi
00022a  2164              MOVS     r1,#0x64              ;1555
00022c  4348              MULS     r0,r1,r0              ;1555
00022e  8de1              LDRH     r1,[r4,#0x2e]         ;1555  ; Run_Control
000230  eb010181          ADD      r1,r1,r1,LSL #2       ;1555
000234  eb000041          ADD      r0,r0,r1,LSL #1       ;1555
000238  85e0              STRH     r0,[r4,#0x2e]         ;1555
                  |L2.570|
00023a  f886a000          STRB     r10,[r6,#0]           ;1557
                  |L2.574|
00023e  e71b              B        |L2.120|
                  |L2.576|
000240  f8868001          STRB     r8,[r6,#1]            ;1553
000244  e7f9              B        |L2.570|
000246  486c              LDR      r0,|L2.1016|
000248  9902              LDR      r1,[sp,#8]            ;1562
00024a  303c              ADDS     r0,r0,#0x3c           ;1562
00024c  f7fffffe          BL       strcat
000250  4969              LDR      r1,|L2.1016|
000252  9801              LDR      r0,[sp,#4]            ;1563
000254  313c              ADDS     r1,r1,#0x3c           ;1563
000256  f7fffffe          BL       TEXT_SetText
00025a  7870              LDRB     r0,[r6,#1]            ;1564  ; dot_flag
00025c  b158              CBZ      r0,|L2.630|
00025e  9802              LDR      r0,[sp,#8]            ;1573
000260  f7fffffe          BL       atoi
000264  8de1              LDRH     r1,[r4,#0x2e]         ;1573  ; Run_Control
000266  eb000080          ADD      r0,r0,r0,LSL #2       ;1573
00026a  eb010040          ADD      r0,r1,r0,LSL #1       ;1573
00026e  85e0              STRH     r0,[r4,#0x2e]         ;1573
                  |L2.624|
000270  f886b000          STRB     r11,[r6,#0]           ;1575
000274  e700              B        |L2.120|
                  |L2.630|
000276  f8990002          LDRB     r0,[r9,#2]            ;1566  ; set_limit
00027a  282e              CMP      r0,#0x2e              ;1566
00027c  d001              BEQ      |L2.642|
00027e  85e5              STRH     r5,[r4,#0x2e]         ;1570
000280  e7f6              B        |L2.624|
                  |L2.642|
000282  7077              STRB     r7,[r6,#1]            ;1568
000284  e7f4              B        |L2.624|
000286  485c              LDR      r0,|L2.1016|
000288  9902              LDR      r1,[sp,#8]            ;1580
00028a  303c              ADDS     r0,r0,#0x3c           ;1580
00028c  f7fffffe          BL       strcat
000290  4959              LDR      r1,|L2.1016|
000292  9801              LDR      r0,[sp,#4]            ;1581
000294  313c              ADDS     r1,r1,#0x3c           ;1581
000296  f7fffffe          BL       TEXT_SetText
00029a  7870              LDRB     r0,[r6,#1]            ;1582  ; dot_flag
00029c  b158              CBZ      r0,|L2.694|
00029e  7870              LDRB     r0,[r6,#1]            ;1585  ; dot_flag
0002a0  2802              CMP      r0,#2                 ;1585
0002a2  d00a              BEQ      |L2.698|
0002a4  9802              LDR      r0,[sp,#8]            ;1588
0002a6  f7fffffe          BL       atoi
0002aa  8de1              LDRH     r1,[r4,#0x2e]         ;1588  ; Run_Control
0002ac  4408              ADD      r0,r0,r1              ;1588
0002ae  85e0              STRH     r0,[r4,#0x2e]         ;1588
                  |L2.688|
0002b0  2005              MOVS     r0,#5                 ;1590
0002b2  7030              STRB     r0,[r6,#0]            ;1590
0002b4  e6e0              B        |L2.120|
                  |L2.694|
0002b6  85e5              STRH     r5,[r4,#0x2e]         ;1584
0002b8  e7fa              B        |L2.688|
                  |L2.698|
0002ba  9802              LDR      r0,[sp,#8]            ;1586
0002bc  f7fffffe          BL       atoi
0002c0  8de1              LDRH     r1,[r4,#0x2e]         ;1586  ; Run_Control
0002c2  eb000080          ADD      r0,r0,r0,LSL #2       ;1586
0002c6  eb010040          ADD      r0,r1,r0,LSL #1       ;1586
0002ca  85e0              STRH     r0,[r4,#0x2e]         ;1586
0002cc  e7f0              B        |L2.688|
0002ce  484a              LDR      r0,|L2.1016|
0002d0  9902              LDR      r1,[sp,#8]            ;1595
0002d2  303c              ADDS     r0,r0,#0x3c           ;1595
0002d4  f7fffffe          BL       strcat
0002d8  4947              LDR      r1,|L2.1016|
0002da  9801              LDR      r0,[sp,#4]            ;1596
0002dc  313c              ADDS     r1,r1,#0x3c           ;1596
0002de  f7fffffe          BL       TEXT_SetText
0002e2  7870              LDRB     r0,[r6,#1]            ;1597  ; dot_flag
0002e4  b158              CBZ      r0,|L2.766|
0002e6  7870              LDRB     r0,[r6,#1]            ;1600  ; dot_flag
0002e8  2801              CMP      r0,#1                 ;1600
0002ea  d00a              BEQ      |L2.770|
0002ec  9802              LDR      r0,[sp,#8]            ;1603
0002ee  f7fffffe          BL       atoi
0002f2  8de1              LDRH     r1,[r4,#0x2e]         ;1603  ; Run_Control
0002f4  4408              ADD      r0,r0,r1              ;1603
0002f6  85e0              STRH     r0,[r4,#0x2e]         ;1603
                  |L2.760|
0002f8  f8868000          STRB     r8,[r6,#0]            ;1605
0002fc  e6bc              B        |L2.120|
                  |L2.766|
0002fe  85e5              STRH     r5,[r4,#0x2e]         ;1599
000300  e7fa              B        |L2.760|
                  |L2.770|
000302  8de0              LDRH     r0,[r4,#0x2e]         ;1601  ; Run_Control
000304  85e0              STRH     r0,[r4,#0x2e]         ;1601
000306  e7f7              B        |L2.760|
                  |L2.776|
000308  f6401105          MOV      r1,#0x905             ;1615
00030c  f7fffffe          BL       WM_GetDialogItem
000310  4604              MOV      r4,r0                 ;1615
000312  7830              LDRB     r0,[r6,#0]            ;1616  ; bit
000314  2806              CMP      r0,#6                 ;1616
000316  d292              BCS      |L2.574|
000318  e8dff000          TBB      [pc,r0]               ;1616
00031c  03041635          DCB      0x03,0x04,0x16,0x35
000320  557e              DCB      0x55,0x7e
000322  e6a9              B        |L2.120|
000324  9802              LDR      r0,[sp,#8]            ;1619
000326  f7fffffe          BL       atoi
00032a  2164              MOVS     r1,#0x64              ;1619
00032c  4348              MULS     r0,r1,r0              ;1619
00032e  82b0              STRH     r0,[r6,#0x14]         ;1619
000330  4831              LDR      r0,|L2.1016|
000332  9902              LDR      r1,[sp,#8]            ;1620
000334  303c              ADDS     r0,r0,#0x3c           ;1620
000336  f7fffffe          BL       strcat
00033a  492f              LDR      r1,|L2.1016|
00033c  4620              MOV      r0,r4                 ;1621
00033e  313c              ADDS     r1,r1,#0x3c           ;1621
000340  f7fffffe          BL       TEXT_SetText
000344  7037              STRB     r7,[r6,#0]            ;1623
000346  e697              B        |L2.120|
000348  482b              LDR      r0,|L2.1016|
00034a  9902              LDR      r1,[sp,#8]            ;1628
00034c  303c              ADDS     r0,r0,#0x3c           ;1628
00034e  f7fffffe          BL       strcat
000352  4929              LDR      r1,|L2.1016|
000354  4620              MOV      r0,r4                 ;1629
000356  313c              ADDS     r1,r1,#0x3c           ;1629
000358  f7fffffe          BL       TEXT_SetText
00035c  f8990001          LDRB     r0,[r9,#1]            ;1630  ; set_limit
000360  282e              CMP      r0,#0x2e              ;1630
000362  d00d              BEQ      |L2.896|
000364  9802              LDR      r0,[sp,#8]            ;1634
000366  f7fffffe          BL       atoi
00036a  2164              MOVS     r1,#0x64              ;1634
00036c  4348              MULS     r0,r1,r0              ;1634
00036e  8ab1              LDRH     r1,[r6,#0x14]         ;1634  ; dis_gate_v
000370  eb010181          ADD      r1,r1,r1,LSL #2       ;1634
000374  eb000041          ADD      r0,r0,r1,LSL #1       ;1634
000378  82b0              STRH     r0,[r6,#0x14]         ;1634
                  |L2.890|
00037a  f886a000          STRB     r10,[r6,#0]           ;1636
00037e  e67b              B        |L2.120|
                  |L2.896|
000380  f8868001          STRB     r8,[r6,#1]            ;1632
000384  e7f9              B        |L2.890|
000386  481c              LDR      r0,|L2.1016|
000388  9902              LDR      r1,[sp,#8]            ;1641
00038a  303c              ADDS     r0,r0,#0x3c           ;1641
00038c  f7fffffe          BL       strcat
000390  4919              LDR      r1,|L2.1016|
000392  4620              MOV      r0,r4                 ;1642
000394  313c              ADDS     r1,r1,#0x3c           ;1642
000396  f7fffffe          BL       TEXT_SetText
00039a  7870              LDRB     r0,[r6,#1]            ;1643  ; dot_flag
00039c  b158              CBZ      r0,|L2.950|
00039e  9802              LDR      r0,[sp,#8]            ;1652
0003a0  f7fffffe          BL       atoi
0003a4  8ab1              LDRH     r1,[r6,#0x14]         ;1652  ; dis_gate_v
0003a6  eb000080          ADD      r0,r0,r0,LSL #2       ;1652
0003aa  eb010040          ADD      r0,r1,r0,LSL #1       ;1652
0003ae  82b0              STRH     r0,[r6,#0x14]         ;1652
                  |L2.944|
0003b0  f886b000          STRB     r11,[r6,#0]           ;1654
0003b4  e660              B        |L2.120|
                  |L2.950|
0003b6  f8990002          LDRB     r0,[r9,#2]            ;1645  ; set_limit
0003ba  282e              CMP      r0,#0x2e              ;1645
0003bc  d001              BEQ      |L2.962|
0003be  82b5              STRH     r5,[r6,#0x14]         ;1649
0003c0  e7f6              B        |L2.944|
                  |L2.962|
0003c2  7077              STRB     r7,[r6,#1]            ;1647
0003c4  e7f4              B        |L2.944|
0003c6  480c              LDR      r0,|L2.1016|
0003c8  9902              LDR      r1,[sp,#8]            ;1659
0003ca  303c              ADDS     r0,r0,#0x3c           ;1659
0003cc  f7fffffe          BL       strcat
0003d0  4909              LDR      r1,|L2.1016|
0003d2  4620              MOV      r0,r4                 ;1660
0003d4  313c              ADDS     r1,r1,#0x3c           ;1660
0003d6  f7fffffe          BL       TEXT_SetText
0003da  7870              LDRB     r0,[r6,#1]            ;1661  ; dot_flag
0003dc  b180              CBZ      r0,|L2.1024|
0003de  7870              LDRB     r0,[r6,#1]            ;1664  ; dot_flag
0003e0  2802              CMP      r0,#2                 ;1664
0003e2  d00f              BEQ      |L2.1028|
0003e4  9802              LDR      r0,[sp,#8]            ;1667
0003e6  f7fffffe          BL       atoi
0003ea  8ab1              LDRH     r1,[r6,#0x14]         ;1667  ; dis_gate_v
0003ec  4408              ADD      r0,r0,r1              ;1667
0003ee  82b0              STRH     r0,[r6,#0x14]         ;1667
                  |L2.1008|
0003f0  2005              MOVS     r0,#5                 ;1669
0003f2  7030              STRB     r0,[r6,#0]            ;1669
0003f4  e640              B        |L2.120|
0003f6  0000              DCW      0x0000
                  |L2.1016|
                          DCD      ||.data||
                  |L2.1020|
                          DCD      Run_Control
                  |L2.1024|
000400  82b5              STRH     r5,[r6,#0x14]         ;1663
000402  e7f5              B        |L2.1008|
                  |L2.1028|
000404  9802              LDR      r0,[sp,#8]            ;1665
000406  f7fffffe          BL       atoi
00040a  8ab1              LDRH     r1,[r6,#0x14]         ;1665  ; dis_gate_v
00040c  eb000080          ADD      r0,r0,r0,LSL #2       ;1665
000410  eb010040          ADD      r0,r1,r0,LSL #1       ;1665
000414  82b0              STRH     r0,[r6,#0x14]         ;1665
000416  e7eb              B        |L2.1008|
000418  4829              LDR      r0,|L2.1216|
00041a  9902              LDR      r1,[sp,#8]            ;1674
00041c  f7fffffe          BL       strcat
000420  4927              LDR      r1,|L2.1216|
000422  4620              MOV      r0,r4                 ;1675
000424  f7fffffe          BL       TEXT_SetText
000428  7870              LDRB     r0,[r6,#1]            ;1676  ; dot_flag
00042a  b158              CBZ      r0,|L2.1092|
00042c  7870              LDRB     r0,[r6,#1]            ;1679  ; dot_flag
00042e  2801              CMP      r0,#1                 ;1679
000430  d00a              BEQ      |L2.1096|
000432  9802              LDR      r0,[sp,#8]            ;1682
000434  f7fffffe          BL       atoi
000438  8ab1              LDRH     r1,[r6,#0x14]         ;1682  ; dis_gate_v
00043a  4408              ADD      r0,r0,r1              ;1682
00043c  82b0              STRH     r0,[r6,#0x14]         ;1682
                  |L2.1086|
00043e  f8868000          STRB     r8,[r6,#0]            ;1684
000442  e619              B        |L2.120|
                  |L2.1092|
000444  82b5              STRH     r5,[r6,#0x14]         ;1678
000446  e7fa              B        |L2.1086|
                  |L2.1096|
000448  8ab0              LDRH     r0,[r6,#0x14]         ;1680  ; dis_gate_v
00044a  82b0              STRH     r0,[r6,#0x14]         ;1680
00044c  e7f7              B        |L2.1086|
                  |L2.1102|
00044e  9802              LDR      r0,[sp,#8]            ;1698
000450  f7fffffe          BL       atoi
000454  8230              STRH     r0,[r6,#0x10]         ;1698
000456  481a              LDR      r0,|L2.1216|
000458  9902              LDR      r1,[sp,#8]            ;1699
00045a  f7fffffe          BL       strcat
00045e  4918              LDR      r1,|L2.1216|
000460  4620              MOV      r0,r4                 ;1700
000462  f7fffffe          BL       TEXT_SetText
000466  7037              STRB     r7,[r6,#0]            ;1701
000468  e606              B        |L2.120|
                  |L2.1130|
00046a  9802              LDR      r0,[sp,#8]            ;1706
00046c  f7fffffe          BL       atoi
000470  4601              MOV      r1,r0                 ;1706
000472  8a30              LDRH     r0,[r6,#0x10]         ;1706  ; steptime
000474  eb000080          ADD      r0,r0,r0,LSL #2       ;1706
000478  eb010040          ADD      r0,r1,r0,LSL #1       ;1706
00047c  8230              STRH     r0,[r6,#0x10]         ;1706
00047e  4810              LDR      r0,|L2.1216|
000480  9902              LDR      r1,[sp,#8]            ;1707
000482  f7fffffe          BL       strcat
000486  490e              LDR      r1,|L2.1216|
000488  4620              MOV      r0,r4                 ;1708
00048a  f7fffffe          BL       TEXT_SetText
00048e  f886a000          STRB     r10,[r6,#0]           ;1709
000492  e5f1              B        |L2.120|
                  |L2.1172|
000494  9802              LDR      r0,[sp,#8]            ;1714
000496  f7fffffe          BL       atoi
00049a  4601              MOV      r1,r0                 ;1714
00049c  8a30              LDRH     r0,[r6,#0x10]         ;1714  ; steptime
00049e  eb000080          ADD      r0,r0,r0,LSL #2       ;1714
0004a2  eb010040          ADD      r0,r1,r0,LSL #1       ;1714
0004a6  8230              STRH     r0,[r6,#0x10]         ;1714
0004a8  4805              LDR      r0,|L2.1216|
0004aa  9902              LDR      r1,[sp,#8]            ;1715
0004ac  f7fffffe          BL       strcat
0004b0  4903              LDR      r1,|L2.1216|
0004b2  4620              MOV      r0,r4                 ;1716
0004b4  f7fffffe          BL       TEXT_SetText
0004b8  f886b000          STRB     r11,[r6,#0]           ;1717
0004bc  e5dc              B        |L2.120|
;;;1734   
                          ENDP

0004be  0000              DCW      0x0000
                  |L2.1216|
                          DCD      ||.data||+0x3c

                          AREA ||i.OC_ADD||, CODE, READONLY, ALIGN=2

                          REQUIRE _printf_percent
                          REQUIRE _printf_widthprec
                          REQUIRE _printf_f
                          REQUIRE _printf_fp_dec
                  OC_ADD PROC
;;;1735              
;;;1736   void OC_ADD(void){
000000  e92d47f0          PUSH     {r4-r10,lr}
000004  ed2d8b06          VPUSH    {d8-d10}
000008  b082              SUB      sp,sp,#8
;;;1737       WM_HWIN hItem;
;;;1738       char sbs_c[5];
;;;1739       float change_sbs_c;
;;;1740       static float crec1,crec2;
;;;1741   
;;;1742       if(v - DISS_Voltage > v*0.9 && para_set2 == set_2_on)
;;;1743       {
;;;1744   //        oc_data = (float)SET_Current_Laod/100;   
;;;1745           oc_data = crec2;
;;;1746           SET_Current_Laod = set_init_c;
;;;1747           hItem = WM_GetDialogItem(hWinR, ID_TEXT_47);
00000a  f640046c          MOV      r4,#0x86c
;;;1748           change_sbs_c = (float)set_sbs_c/100;
00000e  ed9faa52          VLDR     s20,|L3.344|
;;;1749           sprintf(sbs_c,"%.2f",change_sbs_c);
;;;1750           TEXT_SetText(hItem,sbs_c);
;;;1751           GPIO_SetBits(GPIOC,GPIO_Pin_1);//关闭负载
000012  f8dfa148          LDR      r10,|L3.348|
;;;1752           LOAD_t = 0;
000016  4f52              LDR      r7,|L3.352|
000018  2600              MOVS     r6,#0
;;;1753           oct_sw = oct_off;
;;;1754           finish = 1;
00001a  f04f0801          MOV      r8,#1
;;;1755           crec1 = 0;
00001e  eddf9a51          VLDR     s19,|L3.356|
000022  4d51              LDR      r5,|L3.360|
000024  f8df9144          LDR      r9,|L3.364|
000028  6b28              LDR      r0,[r5,#0x30]         ;1742  ; v
00002a  ee090a10          VMOV     s18,r0                ;1742
00002e  f7fffffe          BL       __aeabi_f2d
000032  ed9f1b4f          VLDR     d1,|L3.368|
000036  ec532b11          VMOV     r2,r3,d1              ;1742
00003a  f7fffffe          BL       __aeabi_dmul
00003e  ec410b18          VMOV     d8,r0,r1              ;1742
000042  484d              LDR      r0,|L3.376|
000044  ed900a00          VLDR     s0,[r0,#0]            ;1742
000048  ee390a40          VSUB.F32 s0,s18,s0             ;1742
00004c  ee100a10          VMOV     r0,s0                 ;1742
000050  f7fffffe          BL       __aeabi_f2d
000054  ec532b18          VMOV     r2,r3,d8              ;1742
000058  f7fffffe          BL       __aeabi_cdrcmple
00005c  d202              BCS      |L3.100|
00005e  78e8              LDRB     r0,[r5,#3]            ;1742  ; para_set2
000060  28ff              CMP      r0,#0xff              ;1742
000062  d048              BEQ      |L3.246|
                  |L3.100|
;;;1756           crec2 = 0;
;;;1757       }else{
;;;1758           SET_Current_Laod = SET_Current_Laod + set_sbs_c;
000064  f8b90008          LDRH     r0,[r9,#8]  ; Run_Control
000068  f8b9102e          LDRH     r1,[r9,#0x2e]  ; Run_Control
00006c  4408              ADD      r0,r0,r1
00006e  f8a90008          STRH     r0,[r9,#8]
;;;1759           crec2 = crec1;
000072  ed950a08          VLDR     s0,[r5,#0x20]
000076  ed850a09          VSTR     s0,[r5,#0x24]
;;;1760           crec1 = DISS_Current;
00007a  4840              LDR      r0,|L3.380|
00007c  edd00a00          VLDR     s1,[r0,#0]
000080  edc50a08          VSTR     s1,[r5,#0x20]
;;;1761           if(crec1 < crec2)
000084  eef40ac0          VCMPE.F32 s1,s0
000088  eef1fa10          VMRS     APSR_nzcv,FPSCR
00008c  d22e              BCS      |L3.236|
;;;1762           {
;;;1763               oc_data = crec2;
00008e  ed850a0b          VSTR     s0,[r5,#0x2c]
;;;1764               SET_Current_Laod = set_init_c;
000092  f8b9002c          LDRH     r0,[r9,#0x2c]  ; Run_Control
000096  f8a90008          STRH     r0,[r9,#8]
;;;1765               hItem = WM_GetDialogItem(hWinR, ID_TEXT_47);
00009a  4621              MOV      r1,r4
00009c  6aa8              LDR      r0,[r5,#0x28]  ; hWinR
00009e  f7fffffe          BL       WM_GetDialogItem
0000a2  4604              MOV      r4,r0
;;;1766               change_sbs_c = (float)set_sbs_c/100;
0000a4  f8b9002e          LDRH     r0,[r9,#0x2e]  ; Run_Control
0000a8  ee000a10          VMOV     s0,r0
0000ac  eef80a40          VCVT.F32.U32 s1,s0
0000b0  ee800a8a          VDIV.F32 s0,s1,s20
;;;1767               sprintf(sbs_c,"%.2f",change_sbs_c);
0000b4  ee100a10          VMOV     r0,s0
0000b8  f7fffffe          BL       __aeabi_f2d
0000bc  ec410b10          VMOV     d0,r0,r1
0000c0  a12f              ADR      r1,|L3.384|
0000c2  ec532b10          VMOV     r2,r3,d0
0000c6  4668              MOV      r0,sp
0000c8  f7fffffe          BL       __2sprintf
;;;1768               TEXT_SetText(hItem,sbs_c);
0000cc  4669              MOV      r1,sp
0000ce  4620              MOV      r0,r4
0000d0  f7fffffe          BL       TEXT_SetText
;;;1769               GPIO_SetBits(GPIOC,GPIO_Pin_1);//关闭负载
0000d4  2102              MOVS     r1,#2
0000d6  4650              MOV      r0,r10
0000d8  f7fffffe          BL       GPIO_SetBits
;;;1770               LOAD_t = 0;
0000dc  703e              STRB     r6,[r7,#0]
;;;1771               oct_sw = oct_off;
0000de  71ae              STRB     r6,[r5,#6]
;;;1772               finish = 1;
0000e0  f8858007          STRB     r8,[r5,#7]
;;;1773               crec1 = 0;
0000e4  edc59a08          VSTR     s19,[r5,#0x20]
;;;1774               crec2 = 0;
0000e8  edc59a09          VSTR     s19,[r5,#0x24]
                  |L3.236|
;;;1775           }
;;;1776       }        
;;;1777   }
0000ec  b002              ADD      sp,sp,#8
0000ee  ecbd8b06          VPOP     {d8-d10}
0000f2  e8bd87f0          POP      {r4-r10,pc}
                  |L3.246|
0000f6  6a68              LDR      r0,[r5,#0x24]         ;1745  ; crec2
0000f8  62e8              STR      r0,[r5,#0x2c]         ;1745  ; oc_data
0000fa  f8b9002c          LDRH     r0,[r9,#0x2c]         ;1746  ; Run_Control
0000fe  f8a90008          STRH     r0,[r9,#8]            ;1746
000102  4621              MOV      r1,r4                 ;1747
000104  6aa8              LDR      r0,[r5,#0x28]         ;1747  ; hWinR
000106  f7fffffe          BL       WM_GetDialogItem
00010a  4604              MOV      r4,r0                 ;1747
00010c  f8b9002e          LDRH     r0,[r9,#0x2e]         ;1748  ; Run_Control
000110  ee000a10          VMOV     s0,r0                 ;1748
000114  eef80a40          VCVT.F32.U32 s1,s0                 ;1748
000118  ee800a8a          VDIV.F32 s0,s1,s20             ;1748
00011c  ee100a10          VMOV     r0,s0                 ;1749
000120  f7fffffe          BL       __aeabi_f2d
000124  ec410b10          VMOV     d0,r0,r1              ;1749
000128  a115              ADR      r1,|L3.384|
00012a  ec532b10          VMOV     r2,r3,d0              ;1749
00012e  4668              MOV      r0,sp                 ;1749
000130  f7fffffe          BL       __2sprintf
000134  4669              MOV      r1,sp                 ;1750
000136  4620              MOV      r0,r4                 ;1750
000138  f7fffffe          BL       TEXT_SetText
00013c  2102              MOVS     r1,#2                 ;1751
00013e  4650              MOV      r0,r10                ;1751
000140  f7fffffe          BL       GPIO_SetBits
000144  703e              STRB     r6,[r7,#0]            ;1752
000146  71ae              STRB     r6,[r5,#6]            ;1753
000148  f8858007          STRB     r8,[r5,#7]            ;1754
00014c  edc59a08          VSTR     s19,[r5,#0x20]        ;1755
000150  edc59a09          VSTR     s19,[r5,#0x24]        ;1756
000154  e7ca              B        |L3.236|
;;;1778   
                          ENDP

000156  0000              DCW      0x0000
                  |L3.344|
000158  42c80000          DCFS     0x42c80000 ; 100
                  |L3.348|
                          DCD      0x40020800
                  |L3.352|
                          DCD      LOAD_t
                  |L3.356|
000164  00000000          DCFS     0x00000000 ; 0
                  |L3.360|
                          DCD      ||.data||
                  |L3.364|
                          DCD      Run_Control
                  |L3.368|
000170  cccccccd          DCFD     0x3feccccccccccccd ; 0.90000000000000002
000174  3feccccc
                  |L3.376|
                          DCD      DISS_Voltage
                  |L3.380|
                          DCD      DISS_Current
                  |L3.384|
000180  252e3266          DCB      "%.2f",0
000184  00      
000185  00                DCB      0
000186  00                DCB      0
000187  00                DCB      0

                          AREA ||i.OC_OP_DOWN||, CODE, READONLY, ALIGN=2

                  OC_OP_DOWN PROC
;;;1126   void OC_OP_DOWN(void);
;;;1127   void OC_OP_DOWN(void)
000000  e92d5ff0          PUSH     {r4-r12,lr}
;;;1128   {
;;;1129       switch(set_sw)
000004  4e44              LDR      r6,|L4.280|
000006  7bb1              LDRB     r1,[r6,#0xe]  ; set_sw
000008  4630              MOV      r0,r6
;;;1130       {
;;;1131           case set_20:
;;;1132           {
;;;1133               WM_HWIN hItem;
;;;1134   //            WM_InvalidateWindow(hWinR);
;;;1135               hItem = WM_GetDialogItem(hWinR, ID_TEXT_44);
;;;1136               TEXT_SetBkColor(hItem,GUI_INVALID_COLOR);
;;;1137               TEXT_SetTextColor(hItem, GUI_WHITE);
;;;1138               
;;;1139               hItem = WM_GetDialogItem(hWinR, ID_TEXT_45);
;;;1140               TEXT_SetBkColor(hItem,0x00BFFFFF);
00000a  4d44              LDR      r5,|L4.284|
00000c  6a80              LDR      r0,[r0,#0x28]         ;1135
00000e  f6400969          MOV      r9,#0x869             ;1135
000012  f06f4770          MVN      r7,#0xf0000000        ;1136
000016  f06f487f          MVN      r8,#0xff000000        ;1137
00001a  f6400a6a          MOV      r10,#0x86a            ;1139
00001e  2913              CMP      r1,#0x13              ;1129
000020  d026              BEQ      |L4.112|
;;;1141               TEXT_SetTextColor(hItem, GUI_BLACK);
;;;1142               
;;;1143               set_sw = set_21;
;;;1144               break;
;;;1145           }
;;;1146           case set_21:
;;;1147           {
;;;1148               WM_HWIN hItem;
;;;1149   //            WM_InvalidateWindow(hWinR);
;;;1150               hItem = WM_GetDialogItem(hWinR, ID_TEXT_45);
;;;1151               TEXT_SetBkColor(hItem,GUI_INVALID_COLOR);
;;;1152               TEXT_SetTextColor(hItem, GUI_WHITE);
;;;1153               
;;;1154               hItem = WM_GetDialogItem(hWinR, ID_TEXT_118);
000022  f6403b0d          MOV      r11,#0xb0d
000026  2914              CMP      r1,#0x14              ;1129
000028  d03e              BEQ      |L4.168|
;;;1155               TEXT_SetBkColor(hItem,0x00BFFFFF);
;;;1156               TEXT_SetTextColor(hItem, GUI_BLACK);
;;;1157               
;;;1158               set_sw = set_64;
;;;1159               break;
;;;1160           }
;;;1161           case set_64:
;;;1162           {
;;;1163               WM_HWIN hItem;
;;;1164   //            WM_InvalidateWindow(hWinR);
;;;1165               hItem = WM_GetDialogItem(hWinR, ID_TEXT_118);
;;;1166               TEXT_SetBkColor(hItem,GUI_INVALID_COLOR);
;;;1167               TEXT_SetTextColor(hItem, GUI_WHITE);
;;;1168               
;;;1169               hItem = WM_GetDialogItem(hWinR, ID_TEXT_43);
00002a  f6400a68          MOV      r10,#0x868
00002e  293f              CMP      r1,#0x3f              ;1129
000030  d056              BEQ      |L4.224|
000032  2942              CMP      r1,#0x42              ;1129
000034  d11a              BNE      |L4.108|
;;;1170               TEXT_SetBkColor(hItem,0x00BFFFFF);
;;;1171               TEXT_SetTextColor(hItem, GUI_BLACK);
;;;1172               
;;;1173               set_sw = set_67;
;;;1174               break;
;;;1175           }
;;;1176           case set_67:
;;;1177           {
;;;1178               WM_HWIN hItem;
;;;1179   //            WM_InvalidateWindow(hWinR);
;;;1180               hItem = WM_GetDialogItem(hWinR, ID_TEXT_43);
000036  4651              MOV      r1,r10
000038  f7fffffe          BL       WM_GetDialogItem
00003c  4604              MOV      r4,r0
;;;1181               TEXT_SetBkColor(hItem,GUI_INVALID_COLOR);
00003e  4639              MOV      r1,r7
000040  4620              MOV      r0,r4
000042  f7fffffe          BL       TEXT_SetBkColor
;;;1182               TEXT_SetTextColor(hItem, GUI_WHITE);
000046  4641              MOV      r1,r8
000048  4620              MOV      r0,r4
00004a  f7fffffe          BL       TEXT_SetTextColor
;;;1183               
;;;1184               hItem = WM_GetDialogItem(hWinR, ID_TEXT_44);
00004e  4649              MOV      r1,r9
000050  6ab0              LDR      r0,[r6,#0x28]  ; hWinR
000052  f7fffffe          BL       WM_GetDialogItem
000056  4604              MOV      r4,r0
;;;1185               TEXT_SetBkColor(hItem,0x00BFFFFF);
000058  4629              MOV      r1,r5
00005a  4620              MOV      r0,r4
00005c  f7fffffe          BL       TEXT_SetBkColor
;;;1186               TEXT_SetTextColor(hItem, GUI_BLACK);
000060  2100              MOVS     r1,#0
000062  4620              MOV      r0,r4
000064  f7fffffe          BL       TEXT_SetTextColor
;;;1187               
;;;1188               set_sw = set_20;
000068  2013              MOVS     r0,#0x13
00006a  73b0              STRB     r0,[r6,#0xe]
                  |L4.108|
;;;1189               break;
;;;1190           }
;;;1191           
;;;1192       }
;;;1193       
;;;1194   }
00006c  e8bd9ff0          POP      {r4-r12,pc}
                  |L4.112|
000070  4649              MOV      r1,r9                 ;1135
000072  f7fffffe          BL       WM_GetDialogItem
000076  4604              MOV      r4,r0                 ;1135
000078  4639              MOV      r1,r7                 ;1136
00007a  4620              MOV      r0,r4                 ;1136
00007c  f7fffffe          BL       TEXT_SetBkColor
000080  4641              MOV      r1,r8                 ;1137
000082  4620              MOV      r0,r4                 ;1137
000084  f7fffffe          BL       TEXT_SetTextColor
000088  4651              MOV      r1,r10                ;1139
00008a  6ab0              LDR      r0,[r6,#0x28]         ;1139  ; hWinR
00008c  f7fffffe          BL       WM_GetDialogItem
000090  4604              MOV      r4,r0                 ;1139
000092  4629              MOV      r1,r5                 ;1140
000094  4620              MOV      r0,r4                 ;1140
000096  f7fffffe          BL       TEXT_SetBkColor
00009a  2100              MOVS     r1,#0                 ;1141
00009c  4620              MOV      r0,r4                 ;1141
00009e  f7fffffe          BL       TEXT_SetTextColor
0000a2  2014              MOVS     r0,#0x14              ;1143
0000a4  73b0              STRB     r0,[r6,#0xe]          ;1143
0000a6  e7e1              B        |L4.108|
                  |L4.168|
0000a8  4651              MOV      r1,r10                ;1150
0000aa  f7fffffe          BL       WM_GetDialogItem
0000ae  4604              MOV      r4,r0                 ;1150
0000b0  4639              MOV      r1,r7                 ;1151
0000b2  4620              MOV      r0,r4                 ;1151
0000b4  f7fffffe          BL       TEXT_SetBkColor
0000b8  4641              MOV      r1,r8                 ;1152
0000ba  4620              MOV      r0,r4                 ;1152
0000bc  f7fffffe          BL       TEXT_SetTextColor
0000c0  4659              MOV      r1,r11                ;1154
0000c2  6ab0              LDR      r0,[r6,#0x28]         ;1154  ; hWinR
0000c4  f7fffffe          BL       WM_GetDialogItem
0000c8  4604              MOV      r4,r0                 ;1154
0000ca  4629              MOV      r1,r5                 ;1155
0000cc  4620              MOV      r0,r4                 ;1155
0000ce  f7fffffe          BL       TEXT_SetBkColor
0000d2  2100              MOVS     r1,#0                 ;1156
0000d4  4620              MOV      r0,r4                 ;1156
0000d6  f7fffffe          BL       TEXT_SetTextColor
0000da  203f              MOVS     r0,#0x3f              ;1158
0000dc  73b0              STRB     r0,[r6,#0xe]          ;1158
0000de  e7c5              B        |L4.108|
                  |L4.224|
0000e0  4659              MOV      r1,r11                ;1165
0000e2  f7fffffe          BL       WM_GetDialogItem
0000e6  4604              MOV      r4,r0                 ;1165
0000e8  4639              MOV      r1,r7                 ;1166
0000ea  4620              MOV      r0,r4                 ;1166
0000ec  f7fffffe          BL       TEXT_SetBkColor
0000f0  4641              MOV      r1,r8                 ;1167
0000f2  4620              MOV      r0,r4                 ;1167
0000f4  f7fffffe          BL       TEXT_SetTextColor
0000f8  4651              MOV      r1,r10                ;1169
0000fa  6ab0              LDR      r0,[r6,#0x28]         ;1169  ; hWinR
0000fc  f7fffffe          BL       WM_GetDialogItem
000100  4604              MOV      r4,r0                 ;1169
000102  4629              MOV      r1,r5                 ;1170
000104  4620              MOV      r0,r4                 ;1170
000106  f7fffffe          BL       TEXT_SetBkColor
00010a  2100              MOVS     r1,#0                 ;1171
00010c  4620              MOV      r0,r4                 ;1171
00010e  f7fffffe          BL       TEXT_SetTextColor
000112  2042              MOVS     r0,#0x42              ;1173
000114  73b0              STRB     r0,[r6,#0xe]          ;1173
000116  e7a9              B        |L4.108|
;;;1195   
                          ENDP

                  |L4.280|
                          DCD      ||.data||
                  |L4.284|
                          DCD      0x00bfffff

                          AREA ||i.OC_OP_UP||, CODE, READONLY, ALIGN=2

                  OC_OP_UP PROC
;;;1196   void OC_OP_UP(void);
;;;1197   void OC_OP_UP(void)
000000  e92d5ff0          PUSH     {r4-r12,lr}
;;;1198   {
;;;1199       switch(set_sw)
000004  4e44              LDR      r6,|L5.280|
000006  7bb1              LDRB     r1,[r6,#0xe]  ; set_sw
000008  4630              MOV      r0,r6
;;;1200       {
;;;1201           case set_20:
;;;1202           {
;;;1203               WM_HWIN hItem;
;;;1204   //            WM_InvalidateWindow(hWinR);
;;;1205               hItem = WM_GetDialogItem(hWinR, ID_TEXT_44);
;;;1206               TEXT_SetBkColor(hItem,GUI_INVALID_COLOR);
;;;1207               TEXT_SetTextColor(hItem, GUI_WHITE);
;;;1208               
;;;1209               hItem = WM_GetDialogItem(hWinR, ID_TEXT_43);
;;;1210               TEXT_SetBkColor(hItem,0x00BFFFFF);
00000a  4d44              LDR      r5,|L5.284|
00000c  6a80              LDR      r0,[r0,#0x28]         ;1205
00000e  f6400969          MOV      r9,#0x869             ;1205
000012  f06f4770          MVN      r7,#0xf0000000        ;1206
000016  f06f487f          MVN      r8,#0xff000000        ;1207
00001a  f6400b68          MOV      r11,#0x868            ;1209
00001e  2913              CMP      r1,#0x13              ;1199
000020  d026              BEQ      |L5.112|
;;;1211               TEXT_SetTextColor(hItem, GUI_BLACK);
;;;1212               
;;;1213               set_sw = set_67;
;;;1214               break;
;;;1215           }
;;;1216           case set_21:
;;;1217           {
;;;1218               WM_HWIN hItem;
;;;1219   //            WM_InvalidateWindow(hWinR);
;;;1220               hItem = WM_GetDialogItem(hWinR, ID_TEXT_45);
000022  f6400a6a          MOV      r10,#0x86a
000026  2914              CMP      r1,#0x14              ;1199
000028  d03e              BEQ      |L5.168|
;;;1221               TEXT_SetBkColor(hItem,GUI_INVALID_COLOR);
;;;1222               TEXT_SetTextColor(hItem, GUI_WHITE);
;;;1223               
;;;1224               
;;;1225               hItem = WM_GetDialogItem(hWinR, ID_TEXT_44);
;;;1226               TEXT_SetBkColor(hItem,0x00BFFFFF);
;;;1227               TEXT_SetTextColor(hItem, GUI_BLACK);
;;;1228               
;;;1229               set_sw = set_20;
;;;1230               break;
;;;1231           }
;;;1232           case set_64:
;;;1233           {
;;;1234               WM_HWIN hItem;
;;;1235   //            WM_InvalidateWindow(hWinR);
;;;1236               hItem = WM_GetDialogItem(hWinR, ID_TEXT_118);
00002a  f640390d          MOV      r9,#0xb0d
00002e  293f              CMP      r1,#0x3f              ;1199
000030  d056              BEQ      |L5.224|
000032  2942              CMP      r1,#0x42              ;1199
000034  d11a              BNE      |L5.108|
;;;1237               TEXT_SetBkColor(hItem,GUI_INVALID_COLOR);
;;;1238               TEXT_SetTextColor(hItem, GUI_WHITE);
;;;1239               
;;;1240               hItem = WM_GetDialogItem(hWinR, ID_TEXT_45);
;;;1241               TEXT_SetBkColor(hItem,0x00BFFFFF);
;;;1242               TEXT_SetTextColor(hItem, GUI_BLACK);
;;;1243               
;;;1244               set_sw = set_21;
;;;1245               break;
;;;1246           }
;;;1247           case set_67:
;;;1248           {
;;;1249               WM_HWIN hItem;
;;;1250   //            WM_InvalidateWindow(hWinR);
;;;1251               hItem = WM_GetDialogItem(hWinR, ID_TEXT_43);
000036  4659              MOV      r1,r11
000038  f7fffffe          BL       WM_GetDialogItem
00003c  4604              MOV      r4,r0
;;;1252               TEXT_SetBkColor(hItem,GUI_INVALID_COLOR);
00003e  4639              MOV      r1,r7
000040  4620              MOV      r0,r4
000042  f7fffffe          BL       TEXT_SetBkColor
;;;1253               TEXT_SetTextColor(hItem, GUI_WHITE);
000046  4641              MOV      r1,r8
000048  4620              MOV      r0,r4
00004a  f7fffffe          BL       TEXT_SetTextColor
;;;1254               
;;;1255               hItem = WM_GetDialogItem(hWinR, ID_TEXT_118);
00004e  4649              MOV      r1,r9
000050  6ab0              LDR      r0,[r6,#0x28]  ; hWinR
000052  f7fffffe          BL       WM_GetDialogItem
000056  4604              MOV      r4,r0
;;;1256               TEXT_SetBkColor(hItem,0x00BFFFFF);
000058  4629              MOV      r1,r5
00005a  4620              MOV      r0,r4
00005c  f7fffffe          BL       TEXT_SetBkColor
;;;1257               TEXT_SetTextColor(hItem, GUI_BLACK);
000060  2100              MOVS     r1,#0
000062  4620              MOV      r0,r4
000064  f7fffffe          BL       TEXT_SetTextColor
;;;1258               
;;;1259               set_sw = set_64;
000068  203f              MOVS     r0,#0x3f
00006a  73b0              STRB     r0,[r6,#0xe]
                  |L5.108|
;;;1260               break;
;;;1261           }
;;;1262           
;;;1263       }
;;;1264       
;;;1265   }
00006c  e8bd9ff0          POP      {r4-r12,pc}
                  |L5.112|
000070  4649              MOV      r1,r9                 ;1205
000072  f7fffffe          BL       WM_GetDialogItem
000076  4604              MOV      r4,r0                 ;1205
000078  4639              MOV      r1,r7                 ;1206
00007a  4620              MOV      r0,r4                 ;1206
00007c  f7fffffe          BL       TEXT_SetBkColor
000080  4641              MOV      r1,r8                 ;1207
000082  4620              MOV      r0,r4                 ;1207
000084  f7fffffe          BL       TEXT_SetTextColor
000088  4659              MOV      r1,r11                ;1209
00008a  6ab0              LDR      r0,[r6,#0x28]         ;1209  ; hWinR
00008c  f7fffffe          BL       WM_GetDialogItem
000090  4604              MOV      r4,r0                 ;1209
000092  4629              MOV      r1,r5                 ;1210
000094  4620              MOV      r0,r4                 ;1210
000096  f7fffffe          BL       TEXT_SetBkColor
00009a  2100              MOVS     r1,#0                 ;1211
00009c  4620              MOV      r0,r4                 ;1211
00009e  f7fffffe          BL       TEXT_SetTextColor
0000a2  2042              MOVS     r0,#0x42              ;1213
0000a4  73b0              STRB     r0,[r6,#0xe]          ;1213
0000a6  e7e1              B        |L5.108|
                  |L5.168|
0000a8  4651              MOV      r1,r10                ;1220
0000aa  f7fffffe          BL       WM_GetDialogItem
0000ae  4604              MOV      r4,r0                 ;1220
0000b0  4639              MOV      r1,r7                 ;1221
0000b2  4620              MOV      r0,r4                 ;1221
0000b4  f7fffffe          BL       TEXT_SetBkColor
0000b8  4641              MOV      r1,r8                 ;1222
0000ba  4620              MOV      r0,r4                 ;1222
0000bc  f7fffffe          BL       TEXT_SetTextColor
0000c0  4649              MOV      r1,r9                 ;1225
0000c2  6ab0              LDR      r0,[r6,#0x28]         ;1225  ; hWinR
0000c4  f7fffffe          BL       WM_GetDialogItem
0000c8  4604              MOV      r4,r0                 ;1225
0000ca  4629              MOV      r1,r5                 ;1226
0000cc  4620              MOV      r0,r4                 ;1226
0000ce  f7fffffe          BL       TEXT_SetBkColor
0000d2  2100              MOVS     r1,#0                 ;1227
0000d4  4620              MOV      r0,r4                 ;1227
0000d6  f7fffffe          BL       TEXT_SetTextColor
0000da  2013              MOVS     r0,#0x13              ;1229
0000dc  73b0              STRB     r0,[r6,#0xe]          ;1229
0000de  e7c5              B        |L5.108|
                  |L5.224|
0000e0  4649              MOV      r1,r9                 ;1236
0000e2  f7fffffe          BL       WM_GetDialogItem
0000e6  4604              MOV      r4,r0                 ;1236
0000e8  4639              MOV      r1,r7                 ;1237
0000ea  4620              MOV      r0,r4                 ;1237
0000ec  f7fffffe          BL       TEXT_SetBkColor
0000f0  4641              MOV      r1,r8                 ;1238
0000f2  4620              MOV      r0,r4                 ;1238
0000f4  f7fffffe          BL       TEXT_SetTextColor
0000f8  4651              MOV      r1,r10                ;1240
0000fa  6ab0              LDR      r0,[r6,#0x28]         ;1240  ; hWinR
0000fc  f7fffffe          BL       WM_GetDialogItem
000100  4604              MOV      r4,r0                 ;1240
000102  4629              MOV      r1,r5                 ;1241
000104  4620              MOV      r0,r4                 ;1241
000106  f7fffffe          BL       TEXT_SetBkColor
00010a  2100              MOVS     r1,#0                 ;1242
00010c  4620              MOV      r0,r4                 ;1242
00010e  f7fffffe          BL       TEXT_SetTextColor
000112  2014              MOVS     r0,#0x14              ;1244
000114  73b0              STRB     r0,[r6,#0xe]          ;1244
000116  e7a9              B        |L5.108|
;;;1266   
                          ENDP

                  |L5.280|
                          DCD      ||.data||
                  |L5.284|
                          DCD      0x00bfffff

                          AREA ||i.OC_SET||, CODE, READONLY, ALIGN=2

                          REQUIRE _printf_percent
                          REQUIRE _printf_widthprec
                          REQUIRE _printf_f
                          REQUIRE _printf_fp_dec
                          REQUIRE _printf_pre_padding
                          REQUIRE _printf_d
                          REQUIRE _printf_int_dec
                  OC_SET PROC
;;;1268   void OC_SET(void);
;;;1269   void OC_SET(void) {
000000  e92d4ff0          PUSH     {r4-r11,lr}
000004  ed2d8b02          VPUSH    {d8}
000008  b083              SUB      sp,sp,#0xc
;;;1270       vu8 i;
;;;1271       char  buf[5];
;;;1272   
;;;1273       float dis_init_c;
;;;1274       float dis_sbs_c;
;;;1275       vu16 dis_steptime = steptime;
00000a  4dda              LDR      r5,|L6.884|
00000c  8a2c              LDRH     r4,[r5,#0x10]  ; steptime
;;;1276       switch(set_sw)
00000e  7baa              LDRB     r2,[r5,#0xe]  ; set_sw
;;;1277       {
;;;1278           case set_20:
;;;1279           {
;;;1280               WM_HWIN hItem;
;;;1281   //            WM_InvalidateWindow(hWinR);
;;;1282               hItem = WM_GetDialogItem(hWinR, ID_TEXT_44);
;;;1283               TEXT_SetBkColor(hItem,GUI_INVALID_COLOR);
;;;1284               TEXT_SetTextColor(hItem, GUI_WHITE);
;;;1285               
;;;1286               
;;;1287               hItem = WM_GetDialogItem(hWinR, ID_TEXT_46);
;;;1288               TEXT_SetBkColor(hItem,0x00BFFFFF);
;;;1289               TEXT_SetTextColor(hItem, GUI_BLACK);
;;;1290               for(i=0;i<5;i++)
;;;1291               {
;;;1292                   set_limit[i] = '\0';
;;;1293               }
;;;1294               set_sw = set_22;
;;;1295               break;
;;;1296           }
;;;1297           case set_22:
;;;1298           {
;;;1299               WM_HWIN hItem;
;;;1300   //            WM_InvalidateWindow(hWinR);
;;;1301               hItem = WM_GetDialogItem(hWinR, ID_TEXT_46);
;;;1302               TEXT_SetBkColor(hItem,GUI_INVALID_COLOR);
;;;1303               TEXT_SetTextColor(hItem, GUI_WHITE);
;;;1304               SET_Current_Laod = set_init_c;
;;;1305               if(SET_Current_Laod > 1500){
;;;1306                   SET_Current_Laod = 0;
;;;1307               }
;;;1308               dis_init_c = (float)set_init_c/100;
000010  ed9f8ad9          VLDR     s16,|L6.888|
000014  4628              MOV      r0,r5                 ;1275
000016  2600              MOVS     r6,#0                 ;1289
000018  6a80              LDR      r0,[r0,#0x28]         ;1282
;;;1309               sprintf(buf,"%.2f",dis_init_c);
;;;1310               TEXT_SetText(hItem,buf);
;;;1311               
;;;1312               hItem = WM_GetDialogItem(hWinR, ID_TEXT_44);
;;;1313               TEXT_SetBkColor(hItem,0x00BFFFFF);
;;;1314               TEXT_SetTextColor(hItem, GUI_BLACK);
;;;1315               Write_Limits();
;;;1316               
;;;1317               set_sw = set_20;
;;;1318               bit =1;
00001a  f04f0801          MOV      r8,#1
;;;1319               dot_flag = 0;
;;;1320               break;
;;;1321           }
;;;1322           case set_21:
;;;1323           {
;;;1324               WM_HWIN hItem;
;;;1325   //            WM_InvalidateWindow(hWinR);
;;;1326               hItem = WM_GetDialogItem(hWinR, ID_TEXT_45);
;;;1327               TEXT_SetBkColor(hItem,GUI_INVALID_COLOR);
;;;1328               TEXT_SetTextColor(hItem, GUI_WHITE);
;;;1329               
;;;1330               
;;;1331               hItem = WM_GetDialogItem(hWinR, ID_TEXT_47);
;;;1332               TEXT_SetBkColor(hItem,0x00BFFFFF);
;;;1333               TEXT_SetTextColor(hItem, GUI_BLACK);
;;;1334               for(i=0;i<5;i++)
;;;1335               {
;;;1336                   set_limit[i] = '\0';
;;;1337               }
;;;1338               
;;;1339               set_sw = set_23;
;;;1340               break;
;;;1341           }
;;;1342           case set_23:
;;;1343           {
;;;1344               WM_HWIN hItem;
;;;1345   //            WM_InvalidateWindow(hWinR);
;;;1346               hItem = WM_GetDialogItem(hWinR, ID_TEXT_47);
;;;1347               TEXT_SetBkColor(hItem,GUI_INVALID_COLOR);
;;;1348               TEXT_SetTextColor(hItem, GUI_WHITE);
;;;1349               dis_sbs_c = (float)set_sbs_c/100;
;;;1350               sprintf(buf,"%.2f",dis_sbs_c);
;;;1351               TEXT_SetText(hItem,buf);
;;;1352               
;;;1353               hItem = WM_GetDialogItem(hWinR, ID_TEXT_45);
;;;1354               TEXT_SetBkColor(hItem,0x00BFFFFF);
;;;1355               TEXT_SetTextColor(hItem, GUI_BLACK);
;;;1356               Write_Limits();
;;;1357               
;;;1358               set_sw = set_21;
;;;1359               bit = 1;
;;;1360               dot_flag = 0;
;;;1361               break;
;;;1362           }
;;;1363           case set_64:
;;;1364           {
;;;1365               WM_HWIN hItem;
;;;1366   //            WM_InvalidateWindow(hWinR);
;;;1367               hItem = WM_GetDialogItem(hWinR, ID_TEXT_118);
00001e  f640390d          MOV      r9,#0xb0d
;;;1368               TEXT_SetBkColor(hItem,GUI_INVALID_COLOR);
;;;1369               TEXT_SetTextColor(hItem, GUI_WHITE);
;;;1370               
;;;1371               
;;;1372               hItem = WM_GetDialogItem(hWinR, ID_TEXT_97);
000022  f6401a05          MOV      r10,#0x905
000026  f105073c          ADD      r7,r5,#0x3c           ;1292
00002a  2a3f              CMP      r2,#0x3f              ;1276
00002c  d07e              BEQ      |L6.300|
00002e  dc4e              BGT      |L6.206|
000030  f6400a69          MOV      r10,#0x869            ;1282
000034  f640096b          MOV      r9,#0x86b             ;1287
000038  2a13              CMP      r2,#0x13              ;1276
00003a  d078              BEQ      |L6.302|
00003c  f640046a          MOV      r4,#0x86a             ;1326
000040  f6400b6c          MOV      r11,#0x86c            ;1331
000044  2a14              CMP      r2,#0x14              ;1276
000046  d073              BEQ      |L6.304|
000048  4fcc              LDR      r7,|L6.892|
00004a  2a15              CMP      r2,#0x15              ;1276
00004c  d071              BEQ      |L6.306|
00004e  2a16              CMP      r2,#0x16              ;1276
000050  d138              BNE      |L6.196|
000052  4659              MOV      r1,r11                ;1346
000054  f7fffffe          BL       WM_GetDialogItem
000058  4681              MOV      r9,r0                 ;1346
00005a  f06f4170          MVN      r1,#0xf0000000        ;1347
00005e  4648              MOV      r0,r9                 ;1347
000060  f7fffffe          BL       TEXT_SetBkColor
000064  f06f417f          MVN      r1,#0xff000000        ;1348
000068  4648              MOV      r0,r9                 ;1348
00006a  f7fffffe          BL       TEXT_SetTextColor
00006e  8df8              LDRH     r0,[r7,#0x2e]         ;1349  ; Run_Control
000070  ee000a10          VMOV     s0,r0                 ;1349
000074  eef80a40          VCVT.F32.U32 s1,s0                 ;1349
000078  ee800a88          VDIV.F32 s0,s1,s16             ;1349
00007c  ee100a10          VMOV     r0,s0                 ;1350
000080  f7fffffe          BL       __aeabi_f2d
000084  ec410b10          VMOV     d0,r0,r1              ;1350
000088  a1bd              ADR      r1,|L6.896|
00008a  ec532b10          VMOV     r2,r3,d0              ;1350
00008e  a801              ADD      r0,sp,#4              ;1350
000090  f7fffffe          BL       __2sprintf
000094  a901              ADD      r1,sp,#4              ;1351
000096  4648              MOV      r0,r9                 ;1351
000098  f7fffffe          BL       TEXT_SetText
00009c  4621              MOV      r1,r4                 ;1353
00009e  6aa8              LDR      r0,[r5,#0x28]         ;1353  ; hWinR
0000a0  f7fffffe          BL       WM_GetDialogItem
0000a4  4604              MOV      r4,r0                 ;1353
0000a6  49b8              LDR      r1,|L6.904|
0000a8  4620              MOV      r0,r4                 ;1354
0000aa  f7fffffe          BL       TEXT_SetBkColor
0000ae  2100              MOVS     r1,#0                 ;1355
0000b0  4620              MOV      r0,r4                 ;1355
0000b2  f7fffffe          BL       TEXT_SetTextColor
0000b6  f7fffffe          BL       Write_Limits
0000ba  2014              MOVS     r0,#0x14              ;1358
0000bc  73a8              STRB     r0,[r5,#0xe]          ;1358
0000be  f8858000          STRB     r8,[r5,#0]            ;1359
0000c2  706e              STRB     r6,[r5,#1]            ;1360
                  |L6.196|
;;;1373               TEXT_SetBkColor(hItem,0x00BFFFFF);
;;;1374               TEXT_SetTextColor(hItem, GUI_BLACK);
;;;1375               for(i=0;i<5;i++)
;;;1376               {
;;;1377                   set_limit[i] = '\0';
;;;1378               }
;;;1379               
;;;1380               set_sw = set_65;
;;;1381               break;
;;;1382           }
;;;1383           case set_65:
;;;1384           {
;;;1385               WM_HWIN hItem;
;;;1386   //            WM_InvalidateWindow(hWinR);
;;;1387               hItem = WM_GetDialogItem(hWinR, ID_TEXT_97);
;;;1388               TEXT_SetBkColor(hItem,GUI_INVALID_COLOR);
;;;1389               TEXT_SetTextColor(hItem, GUI_WHITE);
;;;1390               gate_v = (float)dis_gate_v/100;
;;;1391               sprintf(buf,"%.2f",gate_v);
;;;1392               TEXT_SetText(hItem,buf);
;;;1393               
;;;1394               hItem = WM_GetDialogItem(hWinR, ID_TEXT_118);
;;;1395               TEXT_SetBkColor(hItem,0x00BFFFFF);
;;;1396               TEXT_SetTextColor(hItem, GUI_BLACK);
;;;1397               Write_Limits();
;;;1398               
;;;1399               set_sw = set_64;
;;;1400               bit = 1;
;;;1401               dot_flag = 0;
;;;1402               break;
;;;1403           }
;;;1404           case set_67:
;;;1405           {
;;;1406               WM_HWIN hItem;
;;;1407   //            WM_InvalidateWindow(hWinR);
;;;1408               hItem = WM_GetDialogItem(hWinR, ID_TEXT_43);
;;;1409               TEXT_SetBkColor(hItem,GUI_INVALID_COLOR);
;;;1410               TEXT_SetTextColor(hItem, GUI_WHITE);
;;;1411               
;;;1412               
;;;1413               hItem = WM_GetDialogItem(hWinR, ID_TEXT_122);
;;;1414               TEXT_SetBkColor(hItem,0x00BFFFFF);
;;;1415               TEXT_SetTextColor(hItem, GUI_BLACK);
;;;1416               for(i=0;i<5;i++)
;;;1417               {
;;;1418                   set_limit[i] = '\0';
;;;1419               }
;;;1420               
;;;1421               set_sw = set_68;
;;;1422               break;
;;;1423           }
;;;1424           case set_68:
;;;1425           {
;;;1426               WM_HWIN hItem;
;;;1427   //            WM_InvalidateWindow(hWinR);
;;;1428               hItem = WM_GetDialogItem(hWinR, ID_TEXT_122);
;;;1429               TEXT_SetBkColor(hItem,GUI_INVALID_COLOR);
;;;1430               TEXT_SetTextColor(hItem, GUI_WHITE);
;;;1431               sprintf(buf,"%4d",dis_steptime);
;;;1432               TEXT_SetText(hItem,buf);
;;;1433               
;;;1434               hItem = WM_GetDialogItem(hWinR, ID_TEXT_43);
;;;1435               TEXT_SetBkColor(hItem,0x00BFFFFF);
;;;1436               TEXT_SetTextColor(hItem, GUI_BLACK);
;;;1437               Write_Limits();
;;;1438               
;;;1439               set_sw = set_67;
;;;1440               bit = 1;
;;;1441               dot_flag = 0;
;;;1442               Wrtite_step();
;;;1443               break;
;;;1444           }
;;;1445       }
;;;1446   }
0000c4  b003              ADD      sp,sp,#0xc
0000c6  ecbd8b02          VPOP     {d8}
0000ca  e8bd8ff0          POP      {r4-r11,pc}
                  |L6.206|
0000ce  2a40              CMP      r2,#0x40              ;1276
0000d0  d07d              BEQ      |L6.462|
0000d2  f6400968          MOV      r9,#0x868             ;1408
0000d6  f6403a11          MOV      r10,#0xb11            ;1413
0000da  2a42              CMP      r2,#0x42              ;1276
0000dc  d078              BEQ      |L6.464|
0000de  2a43              CMP      r2,#0x43              ;1276
0000e0  d1f0              BNE      |L6.196|
0000e2  4651              MOV      r1,r10                ;1428
0000e4  f7fffffe          BL       WM_GetDialogItem
0000e8  4607              MOV      r7,r0                 ;1428
0000ea  f06f4170          MVN      r1,#0xf0000000        ;1429
0000ee  4638              MOV      r0,r7                 ;1429
0000f0  f7fffffe          BL       TEXT_SetBkColor
0000f4  f06f417f          MVN      r1,#0xff000000        ;1430
0000f8  4638              MOV      r0,r7                 ;1430
0000fa  f7fffffe          BL       TEXT_SetTextColor
0000fe  4622              MOV      r2,r4                 ;1431
000100  a1a2              ADR      r1,|L6.908|
000102  a801              ADD      r0,sp,#4              ;1431
000104  f7fffffe          BL       __2sprintf
000108  a901              ADD      r1,sp,#4              ;1432
00010a  4638              MOV      r0,r7                 ;1432
00010c  f7fffffe          BL       TEXT_SetText
000110  4649              MOV      r1,r9                 ;1434
000112  6aa8              LDR      r0,[r5,#0x28]         ;1434  ; hWinR
000114  f7fffffe          BL       WM_GetDialogItem
000118  4604              MOV      r4,r0                 ;1434
00011a  499b              LDR      r1,|L6.904|
00011c  4620              MOV      r0,r4                 ;1435
00011e  f7fffffe          BL       TEXT_SetBkColor
000122  2100              MOVS     r1,#0                 ;1436
000124  4620              MOV      r0,r4                 ;1436
000126  f7fffffe          BL       TEXT_SetTextColor
00012a  e003              B        |L6.308|
                  |L6.300|
00012c  e09b              B        |L6.614|
                  |L6.302|
00012e  e00b              B        |L6.328|
                  |L6.304|
000130  e074              B        |L6.540|
                  |L6.306|
000132  e02e              B        |L6.402|
                  |L6.308|
000134  f7fffffe          BL       Write_Limits
000138  2042              MOVS     r0,#0x42              ;1439
00013a  73a8              STRB     r0,[r5,#0xe]          ;1439
00013c  f8858000          STRB     r8,[r5,#0]            ;1440
000140  706e              STRB     r6,[r5,#1]            ;1441
000142  f7fffffe          BL       Wrtite_step
000146  e7bd              B        |L6.196|
                  |L6.328|
000148  4651              MOV      r1,r10                ;1282
00014a  f7fffffe          BL       WM_GetDialogItem
00014e  4604              MOV      r4,r0                 ;1282
000150  f06f4170          MVN      r1,#0xf0000000        ;1283
000154  4620              MOV      r0,r4                 ;1283
000156  f7fffffe          BL       TEXT_SetBkColor
00015a  f06f417f          MVN      r1,#0xff000000        ;1284
00015e  4620              MOV      r0,r4                 ;1284
000160  f7fffffe          BL       TEXT_SetTextColor
000164  4649              MOV      r1,r9                 ;1287
000166  6aa8              LDR      r0,[r5,#0x28]         ;1287  ; hWinR
000168  f7fffffe          BL       WM_GetDialogItem
00016c  4604              MOV      r4,r0                 ;1287
00016e  4986              LDR      r1,|L6.904|
000170  4620              MOV      r0,r4                 ;1288
000172  f7fffffe          BL       TEXT_SetBkColor
000176  2100              MOVS     r1,#0                 ;1289
000178  4620              MOV      r0,r4                 ;1289
00017a  f7fffffe          BL       TEXT_SetTextColor
00017e  2000              MOVS     r0,#0                 ;1290
000180  e002              B        |L6.392|
                  |L6.386|
000182  543e              STRB     r6,[r7,r0]            ;1292
000184  1c40              ADDS     r0,r0,#1              ;1290
000186  b2c0              UXTB     r0,r0                 ;1290
                  |L6.392|
000188  2805              CMP      r0,#5                 ;1290
00018a  d3fa              BCC      |L6.386|
00018c  2015              MOVS     r0,#0x15              ;1294
00018e  73a8              STRB     r0,[r5,#0xe]          ;1294
000190  e798              B        |L6.196|
                  |L6.402|
000192  4649              MOV      r1,r9                 ;1301
000194  f7fffffe          BL       WM_GetDialogItem
000198  4604              MOV      r4,r0                 ;1301
00019a  f06f4170          MVN      r1,#0xf0000000        ;1302
00019e  4620              MOV      r0,r4                 ;1302
0001a0  f7fffffe          BL       TEXT_SetBkColor
0001a4  f06f417f          MVN      r1,#0xff000000        ;1303
0001a8  4620              MOV      r0,r4                 ;1303
0001aa  f7fffffe          BL       TEXT_SetTextColor
0001ae  8db8              LDRH     r0,[r7,#0x2c]         ;1304  ; Run_Control
0001b0  8138              STRH     r0,[r7,#8]            ;1304
0001b2  8938              LDRH     r0,[r7,#8]            ;1305  ; Run_Control
0001b4  f24051dc          MOV      r1,#0x5dc             ;1305
0001b8  4288              CMP      r0,r1                 ;1305
0001ba  d900              BLS      |L6.446|
0001bc  813e              STRH     r6,[r7,#8]            ;1306
                  |L6.446|
0001be  8db8              LDRH     r0,[r7,#0x2c]         ;1308  ; Run_Control
0001c0  ee000a10          VMOV     s0,r0                 ;1308
0001c4  eef80a40          VCVT.F32.U32 s1,s0                 ;1308
0001c8  ee800a88          VDIV.F32 s0,s1,s16             ;1308
0001cc  e001              B        |L6.466|
                  |L6.462|
0001ce  e06f              B        |L6.688|
                  |L6.464|
0001d0  e0aa              B        |L6.808|
                  |L6.466|
0001d2  ee100a10          VMOV     r0,s0                 ;1309
0001d6  f7fffffe          BL       __aeabi_f2d
0001da  ec410b10          VMOV     d0,r0,r1              ;1309
0001de  a168              ADR      r1,|L6.896|
0001e0  ec532b10          VMOV     r2,r3,d0              ;1309
0001e4  a801              ADD      r0,sp,#4              ;1309
0001e6  f7fffffe          BL       __2sprintf
0001ea  a901              ADD      r1,sp,#4              ;1310
0001ec  4620              MOV      r0,r4                 ;1310
0001ee  f7fffffe          BL       TEXT_SetText
0001f2  4651              MOV      r1,r10                ;1312
0001f4  6aa8              LDR      r0,[r5,#0x28]         ;1312  ; hWinR
0001f6  f7fffffe          BL       WM_GetDialogItem
0001fa  4604              MOV      r4,r0                 ;1312
0001fc  4962              LDR      r1,|L6.904|
0001fe  4620              MOV      r0,r4                 ;1313
000200  f7fffffe          BL       TEXT_SetBkColor
000204  2100              MOVS     r1,#0                 ;1314
000206  4620              MOV      r0,r4                 ;1314
000208  f7fffffe          BL       TEXT_SetTextColor
00020c  f7fffffe          BL       Write_Limits
000210  2013              MOVS     r0,#0x13              ;1317
000212  73a8              STRB     r0,[r5,#0xe]          ;1317
000214  f8858000          STRB     r8,[r5,#0]            ;1318
000218  706e              STRB     r6,[r5,#1]            ;1319
00021a  e753              B        |L6.196|
                  |L6.540|
00021c  4621              MOV      r1,r4                 ;1326
00021e  f7fffffe          BL       WM_GetDialogItem
000222  4604              MOV      r4,r0                 ;1326
000224  f06f4170          MVN      r1,#0xf0000000        ;1327
000228  4620              MOV      r0,r4                 ;1327
00022a  f7fffffe          BL       TEXT_SetBkColor
00022e  f06f417f          MVN      r1,#0xff000000        ;1328
000232  4620              MOV      r0,r4                 ;1328
000234  f7fffffe          BL       TEXT_SetTextColor
000238  4659              MOV      r1,r11                ;1331
00023a  6aa8              LDR      r0,[r5,#0x28]         ;1331  ; hWinR
00023c  f7fffffe          BL       WM_GetDialogItem
000240  4604              MOV      r4,r0                 ;1331
000242  4951              LDR      r1,|L6.904|
000244  4620              MOV      r0,r4                 ;1332
000246  f7fffffe          BL       TEXT_SetBkColor
00024a  2100              MOVS     r1,#0                 ;1333
00024c  4620              MOV      r0,r4                 ;1333
00024e  f7fffffe          BL       TEXT_SetTextColor
000252  2000              MOVS     r0,#0                 ;1334
000254  e002              B        |L6.604|
                  |L6.598|
000256  543e              STRB     r6,[r7,r0]            ;1336
000258  1c40              ADDS     r0,r0,#1              ;1334
00025a  b2c0              UXTB     r0,r0                 ;1334
                  |L6.604|
00025c  2805              CMP      r0,#5                 ;1334
00025e  d3fa              BCC      |L6.598|
000260  2016              MOVS     r0,#0x16              ;1339
000262  73a8              STRB     r0,[r5,#0xe]          ;1339
000264  e72e              B        |L6.196|
                  |L6.614|
000266  4649              MOV      r1,r9                 ;1367
000268  f7fffffe          BL       WM_GetDialogItem
00026c  4604              MOV      r4,r0                 ;1367
00026e  f06f4170          MVN      r1,#0xf0000000        ;1368
000272  4620              MOV      r0,r4                 ;1368
000274  f7fffffe          BL       TEXT_SetBkColor
000278  f06f417f          MVN      r1,#0xff000000        ;1369
00027c  4620              MOV      r0,r4                 ;1369
00027e  f7fffffe          BL       TEXT_SetTextColor
000282  4651              MOV      r1,r10                ;1372
000284  6aa8              LDR      r0,[r5,#0x28]         ;1372  ; hWinR
000286  f7fffffe          BL       WM_GetDialogItem
00028a  4604              MOV      r4,r0                 ;1372
00028c  493e              LDR      r1,|L6.904|
00028e  4620              MOV      r0,r4                 ;1373
000290  f7fffffe          BL       TEXT_SetBkColor
000294  2100              MOVS     r1,#0                 ;1374
000296  4620              MOV      r0,r4                 ;1374
000298  f7fffffe          BL       TEXT_SetTextColor
00029c  2000              MOVS     r0,#0                 ;1375
00029e  e002              B        |L6.678|
                  |L6.672|
0002a0  543e              STRB     r6,[r7,r0]            ;1377
0002a2  1c40              ADDS     r0,r0,#1              ;1375
0002a4  b2c0              UXTB     r0,r0                 ;1375
                  |L6.678|
0002a6  2805              CMP      r0,#5                 ;1375
0002a8  d3fa              BCC      |L6.672|
0002aa  2040              MOVS     r0,#0x40              ;1380
0002ac  73a8              STRB     r0,[r5,#0xe]          ;1380
0002ae  e709              B        |L6.196|
                  |L6.688|
0002b0  4651              MOV      r1,r10                ;1387
0002b2  f7fffffe          BL       WM_GetDialogItem
0002b6  4604              MOV      r4,r0                 ;1387
0002b8  f06f4170          MVN      r1,#0xf0000000        ;1388
0002bc  4620              MOV      r0,r4                 ;1388
0002be  f7fffffe          BL       TEXT_SetBkColor
0002c2  f06f417f          MVN      r1,#0xff000000        ;1389
0002c6  4620              MOV      r0,r4                 ;1389
0002c8  f7fffffe          BL       TEXT_SetTextColor
0002cc  8aa8              LDRH     r0,[r5,#0x14]         ;1390  ; dis_gate_v
0002ce  ee000a10          VMOV     s0,r0                 ;1390
0002d2  eef80a40          VCVT.F32.U32 s1,s0                 ;1390
0002d6  ee800a88          VDIV.F32 s0,s1,s16             ;1390
0002da  ed850a07          VSTR     s0,[r5,#0x1c]         ;1390
0002de  ee100a10          VMOV     r0,s0                 ;1391
0002e2  f7fffffe          BL       __aeabi_f2d
0002e6  ec410b10          VMOV     d0,r0,r1              ;1391
0002ea  a125              ADR      r1,|L6.896|
0002ec  ec532b10          VMOV     r2,r3,d0              ;1391
0002f0  a801              ADD      r0,sp,#4              ;1391
0002f2  f7fffffe          BL       __2sprintf
0002f6  a901              ADD      r1,sp,#4              ;1392
0002f8  4620              MOV      r0,r4                 ;1392
0002fa  f7fffffe          BL       TEXT_SetText
0002fe  4649              MOV      r1,r9                 ;1394
000300  6aa8              LDR      r0,[r5,#0x28]         ;1394  ; hWinR
000302  f7fffffe          BL       WM_GetDialogItem
000306  4604              MOV      r4,r0                 ;1394
000308  491f              LDR      r1,|L6.904|
00030a  4620              MOV      r0,r4                 ;1395
00030c  f7fffffe          BL       TEXT_SetBkColor
000310  2100              MOVS     r1,#0                 ;1396
000312  4620              MOV      r0,r4                 ;1396
000314  f7fffffe          BL       TEXT_SetTextColor
000318  f7fffffe          BL       Write_Limits
00031c  203f              MOVS     r0,#0x3f              ;1399
00031e  73a8              STRB     r0,[r5,#0xe]          ;1399
000320  f8858000          STRB     r8,[r5,#0]            ;1400
000324  706e              STRB     r6,[r5,#1]            ;1401
000326  e6cd              B        |L6.196|
                  |L6.808|
000328  4649              MOV      r1,r9                 ;1408
00032a  f7fffffe          BL       WM_GetDialogItem
00032e  4604              MOV      r4,r0                 ;1408
000330  f06f4170          MVN      r1,#0xf0000000        ;1409
000334  4620              MOV      r0,r4                 ;1409
000336  f7fffffe          BL       TEXT_SetBkColor
00033a  f06f417f          MVN      r1,#0xff000000        ;1410
00033e  4620              MOV      r0,r4                 ;1410
000340  f7fffffe          BL       TEXT_SetTextColor
000344  4651              MOV      r1,r10                ;1413
000346  6aa8              LDR      r0,[r5,#0x28]         ;1413  ; hWinR
000348  f7fffffe          BL       WM_GetDialogItem
00034c  4604              MOV      r4,r0                 ;1413
00034e  490e              LDR      r1,|L6.904|
000350  4620              MOV      r0,r4                 ;1414
000352  f7fffffe          BL       TEXT_SetBkColor
000356  2100              MOVS     r1,#0                 ;1415
000358  4620              MOV      r0,r4                 ;1415
00035a  f7fffffe          BL       TEXT_SetTextColor
00035e  2000              MOVS     r0,#0                 ;1416
000360  e002              B        |L6.872|
                  |L6.866|
000362  543e              STRB     r6,[r7,r0]            ;1418
000364  1c40              ADDS     r0,r0,#1              ;1416
000366  b2c0              UXTB     r0,r0                 ;1416
                  |L6.872|
000368  2805              CMP      r0,#5                 ;1416
00036a  d3fa              BCC      |L6.866|
00036c  2043              MOVS     r0,#0x43              ;1421
00036e  73a8              STRB     r0,[r5,#0xe]          ;1421
000370  e6a8              B        |L6.196|
;;;1447   
                          ENDP

000372  0000              DCW      0x0000
                  |L6.884|
                          DCD      ||.data||
                  |L6.888|
000378  42c80000          DCFS     0x42c80000 ; 100
                  |L6.892|
                          DCD      Run_Control
                  |L6.896|
000380  252e3266          DCB      "%.2f",0
000384  00      
000385  00                DCB      0
000386  00                DCB      0
000387  00                DCB      0
                  |L6.904|
                          DCD      0x00bfffff
                  |L6.908|
00038c  25346400          DCB      "%4d",0

                          AREA ||i.ResetR||, CODE, READONLY, ALIGN=2

                  ResetR PROC
;;;1119   
;;;1120   WM_HWIN ResetR(void) {
000000  b51c              PUSH     {r2-r4,lr}
;;;1121     hWinR = GUI_CreateDialogBox(_aDialogCreate, GUI_COUNTOF(_aDialogCreate), _cbDialog, WM_HBKWIN, 0, 0);
000002  f7fffffe          BL       WM_GetDesktopWindow
000006  4603              MOV      r3,r0
000008  2000              MOVS     r0,#0
00000a  9000              STR      r0,[sp,#0]
00000c  9001              STR      r0,[sp,#4]
00000e  4a04              LDR      r2,|L7.32|
000010  211a              MOVS     r1,#0x1a
000012  4804              LDR      r0,|L7.36|
000014  f7fffffe          BL       GUI_CreateDialogBox
000018  4903              LDR      r1,|L7.40|
00001a  6288              STR      r0,[r1,#0x28]  ; hWinR
;;;1122     return hWinR;
;;;1123   }
00001c  bd1c              POP      {r2-r4,pc}
;;;1124   
                          ENDP

00001e  0000              DCW      0x0000
                  |L7.32|
                          DCD      _cbDialog
                  |L7.36|
                          DCD      ||.constdata||
                  |L7.40|
                          DCD      ||.data||

                          AREA ||i._cbDialog||, CODE, READONLY, ALIGN=2

                          REQUIRE _printf_pre_padding
                          REQUIRE _printf_percent
                          REQUIRE _printf_widthprec
                          REQUIRE _printf_d
                          REQUIRE _printf_int_dec
                          REQUIRE _printf_f
                          REQUIRE _printf_fp_dec
                          REQUIRE _printf_flags
                  _cbDialog PROC
;;;169    */
;;;170    static void _cbDialog(WM_MESSAGE * pMsg) {
000000  e92d4ff0          PUSH     {r4-r11,lr}
000004  ed2d8b06          VPUSH    {d8-d10}
000008  b083              SUB      sp,sp,#0xc
00000a  4604              MOV      r4,r0
;;;171        WM_HWIN hItem;
;;;172    //    int     NCode;
;;;173    //    int     Id;
;;;174        
;;;175        char  buf[5];
;;;176        float dis_init_c = (float)set_init_c/100;
00000c  4dfd              LDR      r5,|L8.1028|
00000e  8da8              LDRH     r0,[r5,#0x2c]  ; Run_Control
000010  ee000a10          VMOV     s0,r0
000014  eef80a40          VCVT.F32.U32 s1,s0
000018  ed9f0afb          VLDR     s0,|L8.1032|
00001c  ee808a80          VDIV.F32 s16,s1,s0
;;;177        float dis_sbs_c = (float)set_sbs_c/100;
000020  8de8              LDRH     r0,[r5,#0x2e]  ; Run_Control
000022  ee000a90          VMOV     s1,r0
000026  eef80a60          VCVT.F32.U32 s1,s1
00002a  eec08a80          VDIV.F32 s17,s1,s0
;;;178        static float short1,short2;
;;;179    
;;;180    
;;;181      // USER START (Optionally insert additional variables)
;;;182      // USER END
;;;183    //    int i;
;;;184            
;;;185    
;;;186    
;;;187      switch (pMsg->MsgId) {
00002e  6820              LDR      r0,[r4,#0]
;;;188    		
;;;189    	case WM_PAINT:
;;;190    	GUI_SetColor(GUI_WHITE);//设置画笔颜色
;;;191    	GUI_FillRect(0,25,480,26);//画一条实线
;;;192        GUI_SetColor(GUI_ORANGE);
;;;193    	GUI_SetFont(&GUI_Fontsymbol);
;;;194    	GUI_UC_SetEncodeUTF8();
;;;195    	GUI_SetTextMode(GUI_TM_TRANS);//设置文本模式为底色透明
;;;196    //	GUI_DispStringAt("Jinko", 5, 1);//SET
;;;197        if(lang == 0)
;;;198        {
;;;199            GUI_SetColor(GUI_WHITE);
;;;200            GUI_SetFont(&GUI_FontHZ20S);
;;;201            GUI_UC_SetEncodeUTF8();
;;;202            GUI_SetTextMode(GUI_TM_TRANS);//设置文本模式为底色透明
;;;203            GUI_DispStringAt("测量显示", 130, 3);//SET
;;;204        }else{
;;;205            GUI_SetColor(GUI_WHITE);
;;;206            GUI_SetFont(&GUI_Font20_ASCII);
;;;207            GUI_DispStringAt("DISPLAY", 130, 3);
;;;208        }
;;;209        GUI_SetFont(&GUI_Font24_1);
;;;210    
;;;211    
;;;212        switch(para_set2){
;;;213                case set_2_on:
;;;214                {
;;;215    //                 GUI_SetFont(&GUI_FontD24x32);
;;;216    //                 GUI_GotoXY(95,184);//
;;;217    //                 GUI_DispFloatFix(DISS_Current,5,2);
;;;218                    GUI_SetFont(&GUI_FontEN40);
;;;219                    GUI_SetColor(GUI_LIGHTGRAY);
000030  4ff6              LDR      r7,|L8.1036|
000032  f8dfa3dc          LDR      r10,|L8.1040|
000036  280f              CMP      r0,#0xf               ;187
000038  d00f              BEQ      |L8.90|
;;;220                    GUI_DispStringAt("I:", 28, 190);
;;;221                    GUI_SetColor(GUI_LIGHTGRAY);
;;;222                    GUI_DispStringAt("A", 217, 187);
;;;223                    GUI_SetFont(&GUI_Font24_1);
;;;224                    GUI_SetColor(GUI_WHITE);
;;;225                    GUI_DispStringAt("A",460,60);
;;;226                    GUI_DispStringAt("A",460,90);
;;;227                    GUI_DispStringAt("V",460,120);
;;;228                    GUI_DispStringAt("ms",450,150);
;;;229                    GUI_DispStringAt("A",460,175);
;;;230                    GUI_DispStringAt("ms",450,200);                
;;;231                    if(lang == 0)
;;;232                    {
;;;233                        GUI_SetFont(&GUI_Fontset_font);
;;;234                        GUI_DispStringAt("电流", 300, 175);
;;;235                        GUI_DispStringAt("短路时间", 300, 200);//SET
;;;236                        GUI_DispStringAt("过流测试", 340, 30);//SET
;;;237                    }else{
;;;238                        GUI_SetFont(&GUI_Font20_ASCII);
;;;239                        GUI_DispStringAt("Current", 300, 170);
;;;240                        GUI_DispStringAt("Short Time", 300, 200);//SET
;;;241                        GUI_DispStringAt("Overflow test", 340, 30);//SET
;;;242                    }
;;;243                    break;
;;;244                }
;;;245                case set_2_off:
;;;246                {
;;;247                    break;
;;;248                }
;;;249        }
;;;250    	break;
;;;251    	case WM_TIMER://定时模块消息
;;;252    	if(WM_GetTimerId(pMsg->Data.v) == ID_TimerTime)
;;;253    	{
;;;254            
;;;255            if(para_set2 == set_2_on)
;;;256            {
;;;257                if(short_finish == 1)
;;;258                {
;;;259                    if(gate_v == 0)
;;;260                    {
;;;261                        if(GUI_GetTime()/500 - test_ftime == 1)
00003a  f44f79fa          MOV      r9,#0x1f4
00003e  281d              CMP      r0,#0x1d              ;187
000040  d07e              BEQ      |L8.320|
000042  f5a07080          SUB      r0,r0,#0x100          ;187
000046  3813              SUBS     r0,r0,#0x13           ;187
000048  d07b              BEQ      |L8.322|
;;;262                        {
;;;263                            GPIO_ResetBits(GPIOB,GPIO_Pin_13);
;;;264                            Mode_SW_CONT(0x01);
;;;265                        }
;;;266                        if(/*mode_sw == mode_pow && */DISS_Voltage < 0.3  && GUI_GetTime()/500 - test_ftime > 1 /*&&                         < 50*/)
;;;267                        {
;;;268                            GPIO_ResetBits(GPIOB,GPIO_Pin_13);
;;;269                            Mode_SW_CONT(0x01);
;;;270                            finish = 0;
;;;271                            con_flag = 0;
;;;272                            short_finish = 0;
;;;273                            test_finish = 0;
;;;274                            r_test = 0;
;;;275                            v = 0;
;;;276                        }
;;;277                    }else{
;;;278                        if(GUI_GetTime()/500 - test_ftime == 2)
;;;279                        {
;;;280                            GPIO_ResetBits(GPIOB,GPIO_Pin_13);
;;;281                            Mode_SW_CONT(0x01);
;;;282                        }
;;;283                        if(/* mode_sw == mode_pow && */(r_test == 0 || DISS_Voltage < gate_v) && GUI_GetTime()/500 - test_ftime > 1/*&& R_VLUE < 50*/)
;;;284                        { 
;;;285                            GPIO_ResetBits(GPIOB,GPIO_Pin_13);
;;;286                            Mode_SW_CONT(0x01);
;;;287                            finish = 0;
;;;288                            con_flag = 0;
;;;289                            short_finish = 0;
;;;290                            test_finish = 0;
;;;291                            r_test = 0;
;;;292                            v = 0;
;;;293                        }
;;;294                    }                    
;;;295                }else{
;;;296                    if(para_set2 == set_2_on)
;;;297                    {
;;;298                        if(gate_v == 0)
;;;299                        {
;;;300                            if(DISS_Voltage > 1 && R_VLUE > 50 && con_flag == 0 && finish == 0)
;;;301                            {
;;;302                                con_flag = 1;
;;;303                                time1 = (float)GUI_GetTime()/500.0;
;;;304                            }
;;;305                            
;;;306                            if(con_flag == 1 && oct_sw == oct_off && finish == 0)
;;;307                            {
;;;308                                if((float)(GUI_GetTime()/500.0 - time1) > 0.8)
;;;309                                {
;;;310                                    r = R_VLUE;
;;;311    //                                v = DISS_Voltage;
;;;312                                    oct_sw = oct_on;
;;;313                                    clear_flag1 = 0;
;;;314                                }else{
;;;315                                    if(v < DISS_Voltage)
;;;316                                    {
;;;317                                        v = DISS_Voltage;
;;;318                                    }
;;;319                                }
;;;320                            }
;;;321                        }else{
;;;322                            if(DISS_Voltage > gate_v && R_VLUE > 50 && con_flag == 0 && finish == 0 && r_test == 1)
;;;323                            {
;;;324                                con_flag = 1;
;;;325                                time1 = (float)GUI_GetTime()/500.0;
;;;326                                
;;;327                            }
;;;328                            if(con_flag == 1 && oct_sw == oct_off && finish == 0)
;;;329                            {
;;;330                                if((float)(GUI_GetTime()/500.0 - time1) > 0.8)
;;;331                                {
;;;332                                    r = R_VLUE;
;;;333    //                                v = DISS_Voltage;
;;;334                                    oct_sw = oct_on;
;;;335                                    clear_flag1 = 0;
;;;336                                }else{
;;;337                                    if(v < DISS_Voltage)
;;;338                                    {
;;;339                                        v = DISS_Voltage;
;;;340                                    }
;;;341                                }
;;;342                            }
;;;343                        }
;;;344                    }
;;;345                    
;;;346                }
;;;347                
;;;348                
;;;349                
;;;350                if(oct_sw == oct_on && para_set2 == set_2_on)
;;;351                {
;;;352                    Mode_SW_CONT(0x02);
;;;353                    GPIO_ResetBits(GPIOC,GPIO_Pin_1);
;;;354    //                OC_ADD();
;;;355                    hItem = WM_GetDialogItem(pMsg->hWin, ID_TEXT_81);
;;;356                    TEXT_SetFont(hItem,&GUI_FontD24x32);
;;;357                    sprintf(buf,"%4d",r);       
;;;358                    TEXT_SetText(hItem,buf);
;;;359                    
;;;360        //             if(status_flash == 0){
;;;361    
;;;362                    hItem = WM_GetDialogItem(pMsg->hWin, ID_TEXT_98);
;;;363                    TEXT_SetTextColor(hItem, GUI_RED);
;;;364                    if(lang == 0)
;;;365                    {
;;;366                        GUI_SetFont(&GUI_Fontset_font);
;;;367                        TEXT_SetText(hItem, "测试中");
;;;368                        status_flash = 1;
;;;369                    }else{
;;;370                        GUI_SetFont(&GUI_Font20_ASCII);
;;;371                        TEXT_SetText(hItem, "Testing");
;;;372                        status_flash = 1;
;;;373                    }
;;;374                        
;;;375        //             }else{
;;;376        //                 hItem = WM_GetDialogItem(pMsg->hWin, ID_TEXT_98);
;;;377        //                 TEXT_SetText(hItem,"");
;;;378        //                 status_flash = 0;
;;;379        //             }
;;;380                    
;;;381                }else
;;;382                {
;;;383                    hItem = WM_GetDialogItem(pMsg->hWin, ID_TEXT_98);
;;;384                    TEXT_SetTextColor(hItem, GUI_WHITE);
;;;385                    
;;;386                    
;;;387                    if(lang == 0)
;;;388                    {
;;;389                        GUI_SetFont(&GUI_Fontset_font);
;;;390                        TEXT_SetText(hItem, "未测试");
;;;391                    }else{
;;;392                        GUI_SetFont(&GUI_Font20_ASCII);
;;;393                        TEXT_SetText(hItem, "Untested");
;;;394                    }
;;;395                }
;;;396                
;;;397                if(oct_sw == oct_off && finish == 0)
;;;398                {
;;;399                    if(DISS_Voltage > 1 && r_stable == 0)
;;;400                    {
;;;401                        r_stable = 1;
;;;402                        stable_time = GUI_GetTime()/500;
;;;403                    }else if(DISS_Voltage < 1){
;;;404                        r_stable = 0;
;;;405                    }                    
;;;406                    if(clear_flag1 == 1 && DISS_Voltage <= clear_v)
;;;407                    {
;;;408                        hItem = WM_GetDialogItem(pMsg->hWin, ID_TEXT_80);
;;;409                        sprintf(buf,"%.2f",0);       
;;;410                        TEXT_SetText(hItem,buf);
;;;411                    }else{
;;;412                        hItem = WM_GetDialogItem(pMsg->hWin, ID_TEXT_80);
;;;413                        sprintf(buf,"%.2f",DISS_Voltage);       
;;;414                        TEXT_SetText(hItem,buf);
;;;415                    }
;;;416                    if(clear_flag1 == 1 && R_VLUE <= clear_r)
;;;417                    {
;;;418                        hItem = WM_GetDialogItem(pMsg->hWin, ID_TEXT_81);
;;;419                        sprintf(buf,"%4d",0);       
;;;420                        TEXT_SetText(hItem,buf);
;;;421                    }
;;;422    //                 else if(R_VLUE >= 1000)
;;;423    //                 {
;;;424    //                     hItem = WM_GetDialogItem(pMsg->hWin, ID_TEXT_81);
;;;425    //                     TEXT_SetFont(hItem,&GUI_FontEN40);//设定文本字体
;;;426    //                     TEXT_SetText(hItem,"");
;;;427    //                 }
;;;428                    else{
;;;429                            if(GUI_GetTime()/500 - stable_time == 1 && r_stable == 1)
;;;430                            {
;;;431                                r = R_VLUE;
;;;432                                hItem = WM_GetDialogItem(pMsg->hWin, ID_TEXT_81);
;;;433                                TEXT_SetFont(hItem,&GUI_FontD24x32);
;;;434                                sprintf(buf,"%4d",r);       
;;;435                                TEXT_SetText(hItem,buf);
;;;436                            }else if(r_stable == 0)
;;;437                            {
;;;438                                if(DISS_Voltage < 0.3)
;;;439                                {
;;;440                                    if(para_set1 == set_1_on)
;;;441                                    {
;;;442                                        TM1650_SET_LED(0x68,0x70);
;;;443                                        GPIO_ResetBits(GPIOD,GPIO_Pin_12);//灭灯
;;;444                                    }
;;;445                                    hItem = WM_GetDialogItem(pMsg->hWin, ID_TEXT_81);
;;;446                                    TEXT_SetFont(hItem,&GUI_FontD24x32);
;;;447                                    TEXT_SetTextColor(hItem, GUI_GREEN);
;;;448                                    sprintf(buf,"%4d",0);       
;;;449                                    TEXT_SetText(hItem,buf);
;;;450                                }else{
;;;451                                    
;;;452    //                                 hItem = WM_GetDialogItem(pMsg->hWin, ID_TEXT_81);
;;;453    //                                 TEXT_SetFont(hItem,&GUI_FontD24x32);
;;;454    //                                 
;;;455    //                                 sprintf(buf,"%4d",R_VLUE);       
;;;456    //                                 TEXT_SetText(hItem,buf);
;;;457                                }
;;;458    //                              hItem = WM_GetDialogItem(pMsg->hWin, ID_TEXT_81);
;;;459    //                                 TEXT_SetFont(hItem,&GUI_FontD24x32);
;;;460    //                                 
;;;461    //                                 sprintf(buf,"%4d",R_VLUE);       
;;;462    //                                 TEXT_SetText(hItem,buf);
;;;463                            }                        
;;;464                    }
;;;465                    short_time = 0;
;;;466                    hItem = WM_GetDialogItem(pMsg->hWin, ID_TEXT_117);
;;;467                    sprintf(buf,"%4d",short_time);
;;;468                    TEXT_SetFont(hItem,&GUI_Font24_1);//设定文本字体      
;;;469                    TEXT_SetText(hItem,buf);
;;;470                    
;;;471                    oc_data = 0;
;;;472                    hItem = WM_GetDialogItem(pMsg->hWin, ID_TEXT_82);
;;;473                    sprintf(buf,"%.2f",oc_data);
;;;474                    TEXT_SetText(hItem,buf);
;;;475                }else{
;;;476                    if(para_set2 == set_2_on)
;;;477                    {
;;;478                        hItem = WM_GetDialogItem(pMsg->hWin, ID_TEXT_80);
;;;479                        sprintf(buf,"%.2f",v);       
;;;480                        TEXT_SetText(hItem,buf);
;;;481                        
;;;482                        hItem = WM_GetDialogItem(pMsg->hWin, ID_TEXT_81);
;;;483                        TEXT_SetFont(hItem,&GUI_FontD24x32);
;;;484                        sprintf(buf,"%4d",r);       
;;;485                        TEXT_SetText(hItem,buf);
;;;486                        
;;;487                        hItem = WM_GetDialogItem(pMsg->hWin, ID_TEXT_117);
;;;488                        sprintf(buf,"%4d",short_time);
;;;489                        TEXT_SetFont(hItem,&GUI_Font24_1);//设定文本字体      
;;;490                        TEXT_SetText(hItem,buf);
;;;491                        
;;;492                        if(short_finish == 0 ){
;;;493                            if(DISS_Voltage < 1 && short_flag == 0 && oct_sw == oct_off)
;;;494                            {
;;;495                                SET_Voltage =1000;
;;;496                                SET_Current = 1000;
;;;497                                Mode_SW_CONT(0x03);
;;;498                                GPIO_SetBits(GPIOB,GPIO_Pin_13);
;;;499                                //GPIO_ResetBits(GPIOB,GPIO_Pin_13);
;;;500                            }else if(oct_sw == oct_off && short_flag == 0){
;;;501                                Mode_SW_CONT(0x02);
;;;502                                SET_Current_Laod = 1000;
;;;503                                short_flag =1;
;;;504                                short_start = GUI_GetTime()*2;
;;;505                            }
;;;506                            if(short_flag == 1)
;;;507                            {
;;;508                                GPIO_ResetBits(GPIOC,GPIO_Pin_1);
;;;509                                if(DISS_Voltage < 1){
;;;510                                    SET_Current_Laod = set_init_c;
;;;511                                    short_time = GUI_GetTime()*2 - short_start;
;;;512                                    short_flag = 0;
;;;513                                    short_finish = 1;
;;;514                                    hItem = WM_GetDialogItem(pMsg->hWin, ID_TEXT_117);
;;;515                                    sprintf(buf,"%4d",short_time);     
;;;516                                    TEXT_SetText(hItem,buf);
;;;517                                }
;;;518                            }
;;;519                        }
;;;520                        if(short_finish == 1 && test_finish == 0)
;;;521                        {
;;;522                            GPIO_SetBits(GPIOC,GPIO_Pin_1);
;;;523                            Mode_SW_CONT(0x03);
;;;524                            SET_Voltage = 1000;
;;;525                            SET_Current = 1000;
;;;526                            GPIO_SetBits(GPIOB,GPIO_Pin_13);
;;;527                            
;;;528                            
;;;529    //                         GPIO_ResetBits(GPIOB,GPIO_Pin_13);                                                
;;;530    //                         Mode_SW_CONT(0x01);
;;;531                            
;;;532                            test_ftime = GUI_GetTime()/500;
;;;533                            test_finish = 1;
;;;534                        } 
;;;535                    }
;;;536                    
;;;537                    
;;;538                    
;;;539        //             if(R_VLUE >= 1000)
;;;540        //             {
;;;541        //                 hItem = WM_GetDialogItem(pMsg->hWin, ID_TEXT_81);
;;;542        //                 TEXT_SetFont(hItem,&GUI_FontEN40);//设定文本字体
;;;543        //                 TEXT_SetText(hItem,"");
;;;544        //             }else{
;;;545                        
;;;546        //             }
;;;547                }
;;;548                
;;;549                
;;;550                
;;;551                
;;;552                        
;;;553                hItem = WM_GetDialogItem(pMsg->hWin, ID_TEXT_82);
;;;554                sprintf(buf,"%.2f",oc_data);
;;;555                TEXT_SetText(hItem,buf);
;;;556                
;;;557                hItem = WM_GetDialogItem(pMsg->hWin, ID_TEXT_83);
;;;558                sprintf(buf,"%.2f",DISS_Current);
;;;559                TEXT_SetText(hItem,buf); 
;;;560            }else{
;;;561                
;;;562                if(DISS_Voltage > 1 && r_stable == 0)
;;;563                {
;;;564                    r_stable = 1;
;;;565                    stable_time = GUI_GetTime()/500;
;;;566                }else if(DISS_Voltage < 1){
;;;567                    r_stable = 0;
;;;568                }
;;;569                    
;;;570                if(clear_flag1 == 1 && DISS_Voltage <= clear_v)
;;;571                    {
;;;572                        hItem = WM_GetDialogItem(pMsg->hWin, ID_TEXT_80);
;;;573                        sprintf(buf,"%.2f",0);       
;;;574                        TEXT_SetText(hItem,buf);
;;;575                    }else{
;;;576                        hItem = WM_GetDialogItem(pMsg->hWin, ID_TEXT_80);
;;;577                        sprintf(buf,"%.2f",DISS_Voltage);       
;;;578                        TEXT_SetText(hItem,buf);
;;;579                    }
;;;580                    if(clear_flag1 == 1 && R_VLUE <= clear_r)
;;;581                    {
;;;582                        hItem = WM_GetDialogItem(pMsg->hWin, ID_TEXT_81);
;;;583                        sprintf(buf,"%4d",0);       
;;;584                        TEXT_SetText(hItem,buf);
;;;585                    }
;;;586                    else if(R_VLUE >= 1000 && DISS_Voltage > 1)
;;;587                    {
;;;588                        hItem = WM_GetDialogItem(pMsg->hWin, ID_TEXT_81);
;;;589                        TEXT_SetFont(hItem,&GUI_FontEN40);//设定文本字体
;;;590                        TEXT_SetText(hItem,"");
;;;591                    }else{
;;;592                        if(GUI_GetTime()/500 - stable_time == 1 && r_stable == 1)
;;;593                        {
;;;594                            r = R_VLUE;
;;;595                            hItem = WM_GetDialogItem(pMsg->hWin, ID_TEXT_81);
;;;596                            TEXT_SetFont(hItem,&GUI_FontD24x32);
;;;597                            sprintf(buf,"%4d",r);       
;;;598                            TEXT_SetText(hItem,buf);
;;;599                        }else if(r_stable == 0)
;;;600                        {
;;;601                            if(DISS_Voltage < 0.3)
;;;602                                {
;;;603                                    if(para_set1 == set_1_on)
;;;604                                    {
;;;605                                        TM1650_SET_LED(0x68,0x70);
;;;606                                        GPIO_ResetBits(GPIOD,GPIO_Pin_12);//灭灯
;;;607                                    }
;;;608                                    hItem = WM_GetDialogItem(pMsg->hWin, ID_TEXT_81);
;;;609                                    TEXT_SetFont(hItem,&GUI_FontD24x32);
;;;610                                    TEXT_SetTextColor(hItem, GUI_GREEN);
;;;611                                    sprintf(buf,"%4d",0);       
;;;612                                    TEXT_SetText(hItem,buf);
;;;613                                }else{
;;;614                                       
;;;615    //                                 hItem = WM_GetDialogItem(pMsg->hWin, ID_TEXT_81);
;;;616    //                                 TEXT_SetFont(hItem,&GUI_FontD24x32);
;;;617    //                                 
;;;618    //                                 sprintf(buf,"%4d",R_VLUE);       
;;;619    //                                 TEXT_SetText(hItem,buf);
;;;620                                }
;;;621    //                              hItem = WM_GetDialogItem(pMsg->hWin, ID_TEXT_81);
;;;622    //                                 TEXT_SetFont(hItem,&GUI_FontD24x32);
;;;623    //                                 
;;;624    //                                 sprintf(buf,"%4d",R_VLUE);       
;;;625    //                                 TEXT_SetText(hItem,buf);
;;;626                        }                 
;;;627                    }
;;;628                
;;;629            }
;;;630                   
;;;631            
;;;632            if(para_set1 == set_1_on && oct_sw == oct_off && DISS_Voltage > 1)
;;;633            {
;;;634                 test_r();
;;;635            }else
;;;636            {
;;;637                TM1650_SET_LED(0x68,0x70);
;;;638                GPIO_ResetBits(GPIOD,GPIO_Pin_12);//灭灯
;;;639    //            led_sw = 1;
;;;640            }
;;;641    //         if(para_set2 == set_2_on)
;;;642    //         {
;;;643    //             if(para_set1 == set_1_on && oct_sw == oct_off && finish == 1)
;;;644    //             {
;;;645    //                  test_r();
;;;646    //             }else
;;;647    //             {
;;;648    //                 TM1650_SET_LED(0x68,0x70);
;;;649    //                 GPIO_ResetBits(GPIOD,GPIO_Pin_12);//灭灯
;;;650    //             }
;;;651    //         }else{
;;;652    //             if(para_set1 == set_1_on && DISS_Voltage > 1)
;;;653    //             {
;;;654    //                  test_r();
;;;655    //             }else
;;;656    //             {
;;;657    //                 TM1650_SET_LED(0x68,0x70);
;;;658    //                 GPIO_ResetBits(GPIOD,GPIO_Pin_12);//灭灯
;;;659    //             }
;;;660    //         }
;;;661    
;;;662            
;;;663            if(oct_sw == oct_off)
;;;664            {
;;;665                switch(b_type)
;;;666                {
;;;667                    case Lion:
;;;668                    {
;;;669                        if(R_VLUE != 0  && DISS_Voltage >= 3.4 && DISS_Voltage <= 4.2)
;;;670                        {
;;;671                            hItem = WM_GetDialogItem(pMsg->hWin, ID_TEXT_96);
;;;672                            TEXT_SetTextColor(hItem, GUI_WHITE);//设置字体颜色      
;;;673                            if(lang == 0)
;;;674                            {
;;;675                                TEXT_SetFont(hItem,&GUI_Fontset_font);
;;;676                                TEXT_SetText(hItem,"锂电池");
;;;677                            }else{
;;;678                                TEXT_SetFont(hItem,&GUI_Font20_ASCII);
;;;679                                TEXT_SetText(hItem,"Lion");
;;;680                            }
;;;681                        }else{
;;;682                            hItem = WM_GetDialogItem(pMsg->hWin, ID_TEXT_96);
;;;683                            TEXT_SetTextColor(hItem, GUI_RED);//设置字体颜色      
;;;684                            TEXT_SetText(hItem,"");
;;;685                        }
;;;686                        break;
;;;687                    }
;;;688                    case NiMH:
;;;689                    {
;;;690                        if(R_VLUE != 0  && DISS_Voltage >= 0.9 && DISS_Voltage <= 1.4)
;;;691                        {
;;;692                            hItem = WM_GetDialogItem(pMsg->hWin, ID_TEXT_96);
;;;693                            TEXT_SetTextColor(hItem, GUI_WHITE);//设置字体颜色      
;;;694                            if(lang == 0)
;;;695                            {
;;;696                                TEXT_SetFont(hItem,&GUI_Fontset_font);
;;;697                                TEXT_SetText(hItem,"镍氢电池");
;;;698                            }else{
;;;699                                TEXT_SetFont(hItem,&GUI_Font20_ASCII);
;;;700                                TEXT_SetText(hItem,"NiMH");
;;;701                            }
;;;702                        }else{
;;;703                            hItem = WM_GetDialogItem(pMsg->hWin, ID_TEXT_96);
;;;704                            TEXT_SetTextColor(hItem, GUI_RED);//设置字体颜色      
;;;705                            TEXT_SetText(hItem,"");
;;;706                        }
;;;707                        break;
;;;708                    }
;;;709                    case NiCd:
;;;710                    {
;;;711                        if(R_VLUE != 0 && DISS_Voltage >= 0.9 && DISS_Voltage <= 1.4)
;;;712                        {
;;;713                            hItem = WM_GetDialogItem(pMsg->hWin, ID_TEXT_96);
;;;714                            TEXT_SetTextColor(hItem, GUI_WHITE);//设置字体颜色      
;;;715                            if(lang == 0)
;;;716                            {
;;;717                                TEXT_SetFont(hItem,&GUI_Fontset_font);
;;;718                                TEXT_SetText(hItem,"镍镉电池");
;;;719                            }else{
;;;720                                TEXT_SetFont(hItem,&GUI_Font20_ASCII);
;;;721                                TEXT_SetText(hItem,"NiCd");
;;;722                            }
;;;723                        }else{
;;;724                            hItem = WM_GetDialogItem(pMsg->hWin, ID_TEXT_96);
;;;725                            TEXT_SetTextColor(hItem, GUI_RED);//设置字体颜色      
;;;726                            TEXT_SetText(hItem,"");
;;;727                        }
;;;728                        break;
;;;729                    }
;;;730                    case SLA:
;;;731                    {
;;;732                        if(R_VLUE != 0  && DISS_Voltage >= 1.8 && DISS_Voltage <= 2.4)
;;;733                        {
;;;734                            hItem = WM_GetDialogItem(pMsg->hWin, ID_TEXT_96);
;;;735                            TEXT_SetTextColor(hItem, GUI_WHITE);//设置字体颜色      
;;;736                            if(lang == 0)
;;;737                            {
;;;738                                TEXT_SetFont(hItem,&GUI_Fontset_font);
;;;739                                TEXT_SetText(hItem,"小型铅酸电池");
;;;740                            }else{
;;;741                                TEXT_SetFont(hItem,&GUI_Font20_ASCII);
;;;742                                TEXT_SetText(hItem,"SLA");
;;;743                            }
;;;744                        }else{
;;;745                            hItem = WM_GetDialogItem(pMsg->hWin, ID_TEXT_96);
;;;746                            TEXT_SetTextColor(hItem, GUI_RED);//设置字体颜色      
;;;747                            TEXT_SetText(hItem,"");
;;;748                        }
;;;749                        break;
;;;750                    }
;;;751                    case LiMH:
;;;752                    {
;;;753                        if(R_VLUE != 0  && DISS_Voltage >= 2.8 && DISS_Voltage <= 3.3)
;;;754                        {
;;;755                            hItem = WM_GetDialogItem(pMsg->hWin, ID_TEXT_96);
;;;756                            TEXT_SetTextColor(hItem, GUI_WHITE);//设置字体颜色      
;;;757                            if(lang == 0)
;;;758                            {
;;;759                                TEXT_SetFont(hItem,&GUI_Fontset_font);
;;;760                                TEXT_SetText(hItem,"锂锰电池");
;;;761                            }else{
;;;762                                TEXT_SetFont(hItem,&GUI_Font20_ASCII);
;;;763                                TEXT_SetText(hItem,"LiMH");
;;;764                            }
;;;765                        }else{
;;;766                            hItem = WM_GetDialogItem(pMsg->hWin, ID_TEXT_96);
;;;767                            TEXT_SetTextColor(hItem, GUI_RED);//设置字体颜色      
;;;768                            TEXT_SetText(hItem,"");
;;;769                        }
;;;770                        break;
;;;771                    }
;;;772                }
;;;773            }
;;;774     		WM_RestartTimer(pMsg->Data.v, 20);//复位定时器数值越大刷新时间越短
;;;775    	}
;;;776    	break;
;;;777        		
;;;778      case WM_INIT_DIALOG:
;;;779        //
;;;780        // Initialization of 'R'
;;;781    	
;;;782        //
;;;783            hItem = pMsg->hWin;
;;;784            WINDOW_SetBkColor(hItem, GUI_BLACK);
;;;785    		WM_CreateTimer(hItem,ID_TimerTime,500,0);//创建本窗口定时器  
;;;786    
;;;787    	
;;;788            if(lang == 0)
;;;789            {
;;;790                hItem = WM_GetDialogItem(pMsg->hWin, ID_BUTTON_13);
;;;791                BUTTON_SetTextColor(hItem,0,GUI_BLACK);//设置字体颜色为黑色
;;;792                BUTTON_SetPressed(hItem,1);
;;;793                BUTTON_SetFont      (hItem,    &GUI_FontHZ16);//设定按钮文本字体
;;;794                GUI_UC_SetEncodeUTF8();
;;;795                BUTTON_SetText(hItem,"内阻测试");
;;;796            
;;;797                hItem = WM_GetDialogItem(pMsg->hWin, ID_BUTTON_14);
;;;798                BUTTON_SetTextColor(hItem,0,GUI_BLACK);//设置字体颜色为黑色
;;;799                BUTTON_SetFont      (hItem,    &GUI_FontHZ16);//设定按钮文本字体
;;;800                GUI_UC_SetEncodeUTF8();
;;;801                BUTTON_SetText(hItem,"程控负载");
;;;802                
;;;803                hItem = WM_GetDialogItem(pMsg->hWin, ID_BUTTON_15);
;;;804                BUTTON_SetTextColor(hItem,0,GUI_BLACK);//设置字体颜色为黑色
;;;805                BUTTON_SetFont      (hItem,    &GUI_FontHZ16);//设定按钮文本字体
;;;806                GUI_UC_SetEncodeUTF8();
;;;807                BUTTON_SetText(hItem,"程控电源");
;;;808                
;;;809                hItem = WM_GetDialogItem(pMsg->hWin, ID_BUTTON_16);
;;;810                BUTTON_SetTextColor(hItem,0,GUI_BLACK);//设置字体颜色为黑色
;;;811                BUTTON_SetFont      (hItem,    &GUI_FontHZ16);//设定按钮文本字体
;;;812                GUI_UC_SetEncodeUTF8();
;;;813                BUTTON_SetText(hItem,"充放电");
;;;814                
;;;815                
;;;816                
;;;817                hItem = WM_GetDialogItem(pMsg->hWin, ID_BUTTON_17);
;;;818                BUTTON_SetTextColor(hItem,0,GUI_BLACK);//设置字体颜色为黑色
;;;819                BUTTON_SetFont      (hItem,&GUI_FontHZ16);//设定按钮文本字体
;;;820                GUI_UC_SetEncodeUTF8();
;;;821                BUTTON_SetText(hItem,"曲线");
;;;822            }else{
;;;823                hItem = WM_GetDialogItem(pMsg->hWin, ID_BUTTON_13);
;;;824                BUTTON_SetTextColor(hItem,0,GUI_BLACK);//设置字体颜色为黑色
;;;825                BUTTON_SetPressed(hItem,1);
;;;826                BUTTON_SetFont      (hItem,    &GUI_Font16B_ASCII);//设定按钮文本字体
;;;827                GUI_UC_SetEncodeUTF8();
;;;828                BUTTON_SetText(hItem,"I.R. TEST");
;;;829            
;;;830                hItem = WM_GetDialogItem(pMsg->hWin, ID_BUTTON_14);
;;;831                BUTTON_SetTextColor(hItem,0,GUI_BLACK);//设置字体颜色为黑色
;;;832                BUTTON_SetFont      (hItem,    &GUI_Font16B_ASCII);//设定按钮文本字体
;;;833                GUI_UC_SetEncodeUTF8();
;;;834                BUTTON_SetText(hItem,"LOAD");
;;;835                
;;;836                hItem = WM_GetDialogItem(pMsg->hWin, ID_BUTTON_15);
;;;837                BUTTON_SetTextColor(hItem,0,GUI_BLACK);//设置字体颜色为黑色
;;;838                BUTTON_SetFont      (hItem,    &GUI_Font16B_ASCII);//设定按钮文本字体
;;;839                GUI_UC_SetEncodeUTF8();
;;;840                BUTTON_SetText(hItem,"POWER");
;;;841                
;;;842                hItem = WM_GetDialogItem(pMsg->hWin, ID_BUTTON_16);
;;;843                BUTTON_SetTextColor(hItem,0,GUI_BLACK);//设置字体颜色为黑色
;;;844                BUTTON_SetFont      (hItem,    &GUI_Font16B_ASCII);//设定按钮文本字体
;;;845                GUI_UC_SetEncodeUTF8();
;;;846                BUTTON_SetText(hItem,"C&DC");
;;;847                
;;;848                
;;;849                
;;;850                hItem = WM_GetDialogItem(pMsg->hWin, ID_BUTTON_17);
;;;851                BUTTON_SetTextColor(hItem,0,GUI_BLACK);//设置字体颜色为黑色
;;;852                BUTTON_SetFont      (hItem,&GUI_Font16B_ASCII);//设定按钮文本字体
;;;853                GUI_UC_SetEncodeUTF8();
;;;854                BUTTON_SetText(hItem,"GRAPH");           
;;;855            }
;;;856    		
;;;857        // Initialization of 'Text'
;;;858        //
;;;859            hItem = WM_GetDialogItem(pMsg->hWin, ID_TEXT_0);
;;;860            TEXT_SetTextColor(hItem, GUI_LIGHTGRAY);
;;;861            TEXT_SetFont(hItem,&GUI_FontEN40);//设定文本字体
;;;862            GUI_UC_SetEncodeUTF8();
;;;863    		TEXT_SetText(hItem,"V:");
;;;864        //
;;;865        // Initialization of 'Text'
;;;866        //
;;;867            hItem = WM_GetDialogItem(pMsg->hWin, ID_TEXT_1);
;;;868            GUI_UC_SetEncodeUTF8();
;;;869            TEXT_SetText(hItem, "R:");
;;;870            TEXT_SetTextColor(hItem, GUI_LIGHTGRAY);
;;;871            TEXT_SetFont(hItem,&GUI_FontEN40);//设定文本字体
;;;872        //
;;;873        // Initialization of 'Text'
;;;874        //
;;;875    		hItem = WM_GetDialogItem(pMsg->hWin, ID_TEXT_3);
;;;876    		TEXT_SetText(hItem, "V");
;;;877            TEXT_SetTextColor(hItem, GUI_LIGHTGRAY);
;;;878            TEXT_SetFont(hItem, &GUI_FontEN40);
;;;879        //
;;;880        // Initialization of 'Text'
;;;881        //
;;;882            hItem = WM_GetDialogItem(pMsg->hWin, ID_TEXT_4);
;;;883    		GUI_UC_SetEncodeUTF8();
;;;884    		TEXT_SetText(hItem, "Ω");
;;;885            TEXT_SetTextColor(hItem, GUI_LIGHTGRAY);
;;;886    		TEXT_SetFont(hItem,&GUI_FontHZ32);//设定按钮文本字体
;;;887        //
;;;888        // Initialization of 'Text'
;;;889        //		
;;;890    		hItem = WM_GetDialogItem(pMsg->hWin, ID_TEXT_6);
;;;891            GUI_UC_SetEncodeUTF8();
;;;892    		TEXT_SetText(hItem, "m");
;;;893            TEXT_SetTextColor(hItem, GUI_LIGHTGRAY);
;;;894    		TEXT_SetFont(hItem, &GUI_FontEN40);
;;;895            
;;;896            hItem = WM_GetDialogItem(pMsg->hWin, ID_TEXT_80);
;;;897            TEXT_SetTextColor(hItem, GUI_GREEN);//设置字体颜色
;;;898            TEXT_SetFont(hItem,&GUI_FontD24x32);//设定文本字体
;;;899            GUI_UC_SetEncodeUTF8();        
;;;900            TEXT_SetText(hItem,"0.00");
;;;901                
;;;902            hItem = WM_GetDialogItem(pMsg->hWin, ID_TEXT_81);
;;;903            sprintf(buf,"%04d",0);
;;;904            TEXT_SetTextColor(hItem, GUI_GREEN);//设置字体颜色
;;;905            TEXT_SetFont(hItem,&GUI_FontD24x32);//设定文本字体
;;;906            GUI_UC_SetEncodeUTF8();        
;;;907            TEXT_SetText(hItem,buf);
;;;908            
;;;909            hItem = WM_GetDialogItem(pMsg->hWin, ID_TEXT_96);
;;;910            TEXT_SetTextColor(hItem, GUI_WHITE);//设置字体颜色
;;;911            TEXT_SetFont(hItem,&GUI_Fontset_font);//设定文本字体
;;;912            GUI_UC_SetEncodeUTF8();        
;;;913            TEXT_SetText(hItem,"");
;;;914            
;;;915            switch(para_set2){
;;;916                case set_2_on:
;;;917                {
;;;918                    if(lang == 0)
;;;919                    {
;;;920                        hItem = WM_GetDialogItem(pMsg->hWin, ID_TEXT_43);
;;;921                        GUI_UC_SetEncodeUTF8();
;;;922                        TEXT_SetText(hItem, "步进时间");
;;;923                        TEXT_SetTextColor(hItem, GUI_WHITE);
;;;924                        TEXT_SetFont(hItem, &GUI_Fontset_font);
;;;925                        
;;;926                        hItem = WM_GetDialogItem(pMsg->hWin, ID_TEXT_44);
;;;927                        GUI_UC_SetEncodeUTF8();
;;;928                        TEXT_SetText(hItem, "起始电流");
;;;929                        TEXT_SetBkColor(hItem,0x00BFFFFF);
;;;930                        TEXT_SetTextColor(hItem, GUI_BLACK);
;;;931                        TEXT_SetFont(hItem, &GUI_Fontset_font);
;;;932                        
;;;933                        hItem = WM_GetDialogItem(pMsg->hWin, ID_TEXT_45);
;;;934                        GUI_UC_SetEncodeUTF8();
;;;935                        TEXT_SetText(hItem, "步进电流");
;;;936                        TEXT_SetTextColor(hItem, GUI_WHITE);
;;;937                        TEXT_SetFont(hItem, &GUI_Fontset_font);
;;;938                        
;;;939                        hItem = WM_GetDialogItem(pMsg->hWin, ID_TEXT_118);
;;;940                        GUI_UC_SetEncodeUTF8();
;;;941                        TEXT_SetText(hItem, "门槛电压");
;;;942                        TEXT_SetTextColor(hItem, GUI_WHITE);
;;;943                        TEXT_SetFont(hItem, &GUI_Fontset_font);
;;;944                    }else{
;;;945                        hItem = WM_GetDialogItem(pMsg->hWin, ID_TEXT_43);
;;;946                        GUI_UC_SetEncodeUTF8();
;;;947                        TEXT_SetText(hItem, "Step time");
;;;948                        TEXT_SetTextColor(hItem, GUI_WHITE);
;;;949                        TEXT_SetFont(hItem, &GUI_Font20_ASCII);
;;;950    
;;;951                        hItem = WM_GetDialogItem(pMsg->hWin, ID_TEXT_44);
;;;952                        GUI_UC_SetEncodeUTF8();
;;;953                        TEXT_SetText(hItem, "Starting C");
;;;954                        TEXT_SetBkColor(hItem,0x00BFFFFF);
;;;955                        TEXT_SetTextColor(hItem, GUI_BLACK);
;;;956                        TEXT_SetFont(hItem, &GUI_Font20_ASCII);
;;;957                        
;;;958                        hItem = WM_GetDialogItem(pMsg->hWin, ID_TEXT_45);
;;;959                        GUI_UC_SetEncodeUTF8();
;;;960                        TEXT_SetText(hItem, "Stepping C");
;;;961                        TEXT_SetTextColor(hItem, GUI_WHITE);
;;;962                        TEXT_SetFont(hItem, &GUI_Font20_ASCII);
;;;963                        
;;;964                        hItem = WM_GetDialogItem(pMsg->hWin, ID_TEXT_118);
;;;965                        GUI_UC_SetEncodeUTF8();
;;;966                        TEXT_SetText(hItem, "Threshlod V");
;;;967                        TEXT_SetTextColor(hItem, GUI_WHITE);
;;;968                        TEXT_SetFont(hItem, &GUI_Font20_ASCII);
;;;969                    }
;;;970                    
;;;971                    hItem = WM_GetDialogItem(pMsg->hWin, ID_TEXT_97);
;;;972                    sprintf(buf,"%.2f",gate_v);
;;;973                    TEXT_SetFont(hItem,&GUI_Font24_1);//设定文本字体
;;;974                    TEXT_SetText(hItem,buf);
;;;975                    TEXT_SetTextColor(hItem, GUI_WHITE);
;;;976                    
;;;977                    if(lang == 0)
;;;978                    {
;;;979                        hItem = WM_GetDialogItem(pMsg->hWin, ID_TEXT_98);
;;;980                        GUI_UC_SetEncodeUTF8();
;;;981                        TEXT_SetText(hItem, "未测试");
;;;982                        TEXT_SetTextColor(hItem, GUI_WHITE);
;;;983                        TEXT_SetFont(hItem, &GUI_Fontset_font);
;;;984                    }else{
;;;985                        hItem = WM_GetDialogItem(pMsg->hWin, ID_TEXT_98);
;;;986                        GUI_UC_SetEncodeUTF8();
;;;987                        TEXT_SetText(hItem, "Untested");
;;;988                        TEXT_SetTextColor(hItem, GUI_WHITE);
;;;989                        TEXT_SetFont(hItem, &GUI_Font20_ASCII);
;;;990                    }
;;;991                    
;;;992                    hItem = WM_GetDialogItem(pMsg->hWin, ID_TEXT_46);
;;;993                    sprintf(buf,"%.2f",dis_init_c);
;;;994                    TEXT_SetTextColor(hItem, GUI_WHITE);//设置字体颜色
;;;995                    TEXT_SetFont(hItem,&GUI_Font24_1);//设定文本字体
;;;996                    GUI_UC_SetEncodeUTF8();        
;;;997                    TEXT_SetText(hItem,buf);
;;;998                    SET_Current_Laod = set_init_c;
;;;999    
;;;1000                   hItem = WM_GetDialogItem(pMsg->hWin, ID_TEXT_47);
;;;1001                   sprintf(buf,"%.2f",dis_sbs_c);
;;;1002                   TEXT_SetTextColor(hItem, GUI_WHITE);//设置字体颜色
;;;1003                   TEXT_SetFont(hItem,&GUI_Font24_1);//设定文本字体
;;;1004                   GUI_UC_SetEncodeUTF8();        
;;;1005                   TEXT_SetText(hItem,buf);
;;;1006                   
;;;1007                   hItem = WM_GetDialogItem(pMsg->hWin, ID_TEXT_82);
;;;1008                   TEXT_SetTextColor(hItem, GUI_GREEN);//设置字体颜色
;;;1009                   TEXT_SetFont(hItem,&GUI_FontD24x32);//设定文本字体
;;;1010                   GUI_UC_SetEncodeUTF8();        
;;;1011                   TEXT_SetText(hItem,"0.00");
;;;1012                   
;;;1013                   hItem = WM_GetDialogItem(pMsg->hWin, ID_TEXT_83);
;;;1014                   TEXT_SetTextColor(hItem, GUI_WHITE);//设置字体颜色
;;;1015                   TEXT_SetFont(hItem,&GUI_Font24_1);//设定文本字体
;;;1016                   GUI_UC_SetEncodeUTF8();        
;;;1017                   TEXT_SetText(hItem,"0.00");
;;;1018                   
;;;1019                   hItem = WM_GetDialogItem(pMsg->hWin, ID_TEXT_117);
;;;1020                   sprintf(buf,"%4d",short_time);
;;;1021                   TEXT_SetTextColor(hItem, GUI_WHITE);//设置字体颜色
;;;1022                   TEXT_SetFont(hItem,&GUI_Font24_1);//设定文本字体
;;;1023                   GUI_UC_SetEncodeUTF8();        
;;;1024                   TEXT_SetText(hItem,buf);
;;;1025                   
;;;1026                   hItem = WM_GetDialogItem(pMsg->hWin,ID_TEXT_122);
;;;1027                   sprintf(buf,"%4d",steptime);
;;;1028                   TEXT_SetTextColor(hItem, GUI_WHITE);//设置字体颜色
;;;1029                   TEXT_SetFont(hItem,&GUI_Font24_1);//设定文本字体
;;;1030                   GUI_UC_SetEncodeUTF8();        
;;;1031                   TEXT_SetText(hItem,buf);
;;;1032                   
;;;1033                   
;;;1034                   break;
;;;1035               }
;;;1036               case set_2_off:
;;;1037               {
;;;1038                   hItem = WM_GetDialogItem(pMsg->hWin, ID_TEXT_43);
;;;1039                   TEXT_SetText(hItem, "");
;;;1040                   TEXT_SetTextColor(hItem, GUI_INVALID_COLOR);
;;;1041                   
;;;1042                   hItem = WM_GetDialogItem(pMsg->hWin, ID_TEXT_44);
;;;1043                   TEXT_SetText(hItem, "");
;;;1044                   TEXT_SetTextColor(hItem, GUI_INVALID_COLOR);
;;;1045                  
;;;1046                   
;;;1047                   hItem = WM_GetDialogItem(pMsg->hWin, ID_TEXT_45);
;;;1048                   TEXT_SetText(hItem, "");
;;;1049                   TEXT_SetTextColor(hItem, GUI_INVALID_COLOR);
;;;1050                   
;;;1051                   hItem = WM_GetDialogItem(pMsg->hWin, ID_TEXT_46);
;;;1052                   TEXT_SetText(hItem, "");
;;;1053                   TEXT_SetTextColor(hItem, GUI_INVALID_COLOR);
;;;1054   
;;;1055                   hItem = WM_GetDialogItem(pMsg->hWin, ID_TEXT_47);
;;;1056                   TEXT_SetText(hItem, "");
;;;1057                   TEXT_SetTextColor(hItem, GUI_INVALID_COLOR);
;;;1058                   
;;;1059                   hItem = WM_GetDialogItem(pMsg->hWin, ID_TEXT_97);
;;;1060                   TEXT_SetText(hItem, "");
;;;1061                   TEXT_SetTextColor(hItem, GUI_INVALID_COLOR);
;;;1062                   
;;;1063                   hItem = WM_GetDialogItem(pMsg->hWin, ID_TEXT_118);
;;;1064                   TEXT_SetText(hItem, "");
;;;1065                   TEXT_SetTextColor(hItem, GUI_INVALID_COLOR);
;;;1066                   
;;;1067                   hItem = WM_GetDialogItem(pMsg->hWin, ID_TEXT_98);
;;;1068                   TEXT_SetText(hItem, "");
;;;1069                   TEXT_SetTextColor(hItem, GUI_INVALID_COLOR);
;;;1070                   
;;;1071                   hItem = WM_GetDialogItem(pMsg->hWin, ID_TEXT_117);
;;;1072                   TEXT_SetText(hItem, "");      
;;;1073                   TEXT_SetTextColor(hItem, GUI_INVALID_COLOR);
;;;1074                   
;;;1075                   hItem = WM_GetDialogItem(pMsg->hWin, ID_TEXT_122);
;;;1076                   TEXT_SetText(hItem, "");      
;;;1077                   TEXT_SetTextColor(hItem, GUI_INVALID_COLOR);
;;;1078                   break;
;;;1079               }
;;;1080           }
;;;1081           
;;;1082       // USER START (Optionally insert additional code for further widget initialization)
;;;1083       // USER END
;;;1084           break;
;;;1085           
;;;1086     // USER START (Optionally insert additional message handling)
;;;1087     // USER END
;;;1088       default:
;;;1089           WM_DefaultProc(pMsg);
00004a  4620              MOV      r0,r4
00004c  f7fffffe          BL       WM_DefaultProc
                  |L8.80|
;;;1090       break;
;;;1091     }
;;;1092   }
000050  b003              ADD      sp,sp,#0xc
000052  ecbd8b06          VPOP     {d8-d10}
000056  e8bd8ff0          POP      {r4-r11,pc}
                  |L8.90|
00005a  f06f447f          MVN      r4,#0xff000000        ;190
00005e  4620              MOV      r0,r4                 ;190
000060  f7fffffe          BL       GUI_SetColor
000064  231a              MOVS     r3,#0x1a              ;191
000066  f44f72f0          MOV      r2,#0x1e0             ;191
00006a  2119              MOVS     r1,#0x19              ;191
00006c  2000              MOVS     r0,#0                 ;191
00006e  f7fffffe          BL       GUI_FillRect
000072  f24a50ff          MOV      r0,#0xa5ff            ;192
000076  f7fffffe          BL       GUI_SetColor
00007a  48e6              LDR      r0,|L8.1044|
00007c  f7fffffe          BL       GUI_SetFont
000080  f7fffffe          BL       GUI_UC_SetEncodeUTF8
000084  2002              MOVS     r0,#2                 ;195
000086  f7fffffe          BL       GUI_SetTextMode
00008a  f89a000d          LDRB     r0,[r10,#0xd]         ;197  ; lang
00008e  2800              CMP      r0,#0                 ;197
000090  d06b              BEQ      |L8.362|
000092  4620              MOV      r0,r4                 ;205
000094  f7fffffe          BL       GUI_SetColor
000098  48df              LDR      r0,|L8.1048|
00009a  f7fffffe          BL       GUI_SetFont
00009e  2203              MOVS     r2,#3                 ;207
0000a0  2182              MOVS     r1,#0x82              ;207
0000a2  a0de              ADR      r0,|L8.1052|
0000a4  f7fffffe          BL       GUI_DispStringAt
                  |L8.168|
0000a8  48de              LDR      r0,|L8.1060|
0000aa  f7fffffe          BL       GUI_SetFont
0000ae  f89a0003          LDRB     r0,[r10,#3]           ;212  ; para_set2
0000b2  2800              CMP      r0,#0                 ;212
0000b4  d0cc              BEQ      |L8.80|
0000b6  28ff              CMP      r0,#0xff              ;212
0000b8  d1ca              BNE      |L8.80|
0000ba  48db              LDR      r0,|L8.1064|
0000bc  f7fffffe          BL       GUI_SetFont
0000c0  4638              MOV      r0,r7                 ;219
0000c2  f7fffffe          BL       GUI_SetColor
0000c6  22be              MOVS     r2,#0xbe              ;220
0000c8  211c              MOVS     r1,#0x1c              ;220
0000ca  a0d8              ADR      r0,|L8.1068|
0000cc  f7fffffe          BL       GUI_DispStringAt
0000d0  4638              MOV      r0,r7                 ;221
0000d2  f7fffffe          BL       GUI_SetColor
0000d6  22bb              MOVS     r2,#0xbb              ;222
0000d8  21d9              MOVS     r1,#0xd9              ;222
0000da  a0d5              ADR      r0,|L8.1072|
0000dc  f7fffffe          BL       GUI_DispStringAt
0000e0  48d0              LDR      r0,|L8.1060|
0000e2  f7fffffe          BL       GUI_SetFont
0000e6  4620              MOV      r0,r4                 ;224
0000e8  f7fffffe          BL       GUI_SetColor
0000ec  f44f74e6          MOV      r4,#0x1cc             ;225
0000f0  223c              MOVS     r2,#0x3c              ;225
0000f2  4621              MOV      r1,r4                 ;225
0000f4  a0ce              ADR      r0,|L8.1072|
0000f6  f7fffffe          BL       GUI_DispStringAt
0000fa  225a              MOVS     r2,#0x5a              ;226
0000fc  4621              MOV      r1,r4                 ;226
0000fe  a0cc              ADR      r0,|L8.1072|
000100  f7fffffe          BL       GUI_DispStringAt
000104  2278              MOVS     r2,#0x78              ;227
000106  4621              MOV      r1,r4                 ;227
000108  a0ca              ADR      r0,|L8.1076|
00010a  f7fffffe          BL       GUI_DispStringAt
00010e  f44f75e1          MOV      r5,#0x1c2             ;228
000112  2296              MOVS     r2,#0x96              ;228
000114  4629              MOV      r1,r5                 ;228
000116  a0c8              ADR      r0,|L8.1080|
000118  f7fffffe          BL       GUI_DispStringAt
00011c  22af              MOVS     r2,#0xaf              ;229
00011e  4621              MOV      r1,r4                 ;229
000120  a0c3              ADR      r0,|L8.1072|
000122  f7fffffe          BL       GUI_DispStringAt
000126  22c8              MOVS     r2,#0xc8              ;230
000128  4629              MOV      r1,r5                 ;230
00012a  a0c3              ADR      r0,|L8.1080|
00012c  f7fffffe          BL       GUI_DispStringAt
000130  f89a000d          LDRB     r0,[r10,#0xd]         ;231  ; lang
000134  f44f7496          MOV      r4,#0x12c             ;234
000138  f44f75aa          MOV      r5,#0x154             ;236
00013c  b330              CBZ      r0,|L8.396|
00013e  e001              B        |L8.324|
                  |L8.320|
000140  e3de              B        |L8.2304|
                  |L8.322|
000142  e036              B        |L8.434|
                  |L8.324|
000144  48b4              LDR      r0,|L8.1048|
000146  f7fffffe          BL       GUI_SetFont
00014a  22aa              MOVS     r2,#0xaa              ;239
00014c  4621              MOV      r1,r4                 ;239
00014e  a0bb              ADR      r0,|L8.1084|
000150  f7fffffe          BL       GUI_DispStringAt
000154  22c8              MOVS     r2,#0xc8              ;240
000156  4621              MOV      r1,r4                 ;240
000158  a0ba              ADR      r0,|L8.1092|
00015a  f7fffffe          BL       GUI_DispStringAt
00015e  221e              MOVS     r2,#0x1e              ;241
000160  4629              MOV      r1,r5                 ;241
000162  a0bb              ADR      r0,|L8.1104|
000164  f7fffffe          BL       GUI_DispStringAt
                  |L8.360|
000168  e772              B        |L8.80|
                  |L8.362|
00016a  4620              MOV      r0,r4                 ;199
00016c  f7fffffe          BL       GUI_SetColor
000170  48bb              LDR      r0,|L8.1120|
000172  f7fffffe          BL       GUI_SetFont
000176  f7fffffe          BL       GUI_UC_SetEncodeUTF8
00017a  2002              MOVS     r0,#2                 ;202
00017c  f7fffffe          BL       GUI_SetTextMode
000180  2203              MOVS     r2,#3                 ;203
000182  2182              MOVS     r1,#0x82              ;203
000184  a0b7              ADR      r0,|L8.1124|
000186  f7fffffe          BL       GUI_DispStringAt
00018a  e78d              B        |L8.168|
                  |L8.396|
00018c  48b9              LDR      r0,|L8.1140|
00018e  f7fffffe          BL       GUI_SetFont
000192  22af              MOVS     r2,#0xaf              ;234
000194  4621              MOV      r1,r4                 ;234
000196  a0b8              ADR      r0,|L8.1144|
000198  f7fffffe          BL       GUI_DispStringAt
00019c  22c8              MOVS     r2,#0xc8              ;235
00019e  4621              MOV      r1,r4                 ;235
0001a0  a0b7              ADR      r0,|L8.1152|
0001a2  f7fffffe          BL       GUI_DispStringAt
0001a6  221e              MOVS     r2,#0x1e              ;236
0001a8  4629              MOV      r1,r5                 ;236
0001aa  a0b9              ADR      r0,|L8.1168|
0001ac  f7fffffe          BL       GUI_DispStringAt
0001b0  e74e              B        |L8.80|
                  |L8.434|
0001b2  68e0              LDR      r0,[r4,#0xc]          ;252
0001b4  f7fffffe          BL       WM_GetTimerId
0001b8  2801              CMP      r0,#1                 ;252
0001ba  d1d5              BNE      |L8.360|
0001bc  f89a0003          LDRB     r0,[r10,#3]           ;255  ; para_set2
0001c0  2701              MOVS     r7,#1                 ;264
0001c2  4eb7              LDR      r6,|L8.1184|
0001c4  f04f0800          MOV      r8,#0                 ;191
0001c8  f04f5b7e          MOV      r11,#0x3f800000       ;300
0001cc  28ff              CMP      r0,#0xff              ;255
0001ce  d00f              BEQ      |L8.496|
0001d0  6830              LDR      r0,[r6,#0]            ;562  ; DISS_Voltage
0001d2  4558              CMP      r0,r11                ;562
0001d4  dd03              BLE      |L8.478|
0001d6  f89a1005          LDRB     r1,[r10,#5]           ;562  ; r_stable
0001da  2900              CMP      r1,#0                 ;562
0001dc  d07d              BEQ      |L8.730|
                  |L8.478|
0001de  4558              CMP      r0,r11                ;566
0001e0  da01              BGE      |L8.486|
0001e2  f88a8005          STRB     r8,[r10,#5]           ;567
                  |L8.486|
0001e6  4faf              LDR      r7,|L8.1188|
0001e8  7838              LDRB     r0,[r7,#0]            ;570  ; clear_flag1
0001ea  2801              CMP      r0,#1                 ;570
0001ec  d076              BEQ      |L8.732|
0001ee  e3fd              B        |L8.2540|
                  |L8.496|
0001f0  f89a000a          LDRB     r0,[r10,#0xa]         ;257  ; short_finish
0001f4  ed9faaac          VLDR     s20,|L8.1192|
0001f8  2801              CMP      r0,#1                 ;257
0001fa  d004              BEQ      |L8.518|
0001fc  f89a0003          LDRB     r0,[r10,#3]           ;296  ; para_set2
000200  28ff              CMP      r0,#0xff              ;296
000202  d079              BEQ      |L8.760|
                  |L8.516|
000204  e197              B        |L8.1334|
                  |L8.518|
000206  ed9a0a07          VLDR     s0,[r10,#0x1c]        ;259
00020a  eeb50ac0          VCMPE.F32 s0,#0.0               ;259
00020e  eef1fa10          VMRS     APSR_nzcv,FPSCR       ;259
000212  d132              BNE      |L8.634|
000214  f7fffffe          BL       GUI_GetTime
000218  fb90f0f9          SDIV     r0,r0,r9              ;261
00021c  f8da1038          LDR      r1,[r10,#0x38]        ;261  ; test_ftime
000220  1a40              SUBS     r0,r0,r1              ;261
000222  2801              CMP      r0,#1                 ;261
000224  d106              BNE      |L8.564|
000226  0341              LSLS     r1,r0,#13             ;263
000228  48a0              LDR      r0,|L8.1196|
00022a  f7fffffe          BL       GPIO_ResetBits
00022e  2001              MOVS     r0,#1                 ;264
000230  f7fffffe          BL       Mode_SW_CONT
                  |L8.564|
000234  489e              LDR      r0,|L8.1200|
000236  6831              LDR      r1,[r6,#0]            ;266  ; DISS_Voltage
000238  4281              CMP      r1,r0                 ;266
00023a  dae3              BGE      |L8.516|
00023c  f7fffffe          BL       GUI_GetTime
000240  fb90f0f9          SDIV     r0,r0,r9              ;266
000244  f8da1038          LDR      r1,[r10,#0x38]        ;266  ; test_ftime
000248  1a40              SUBS     r0,r0,r1              ;266
00024a  2801              CMP      r0,#1                 ;266
00024c  ddda              BLE      |L8.516|
00024e  f44f5100          MOV      r1,#0x2000            ;268
000252  4896              LDR      r0,|L8.1196|
000254  f7fffffe          BL       GPIO_ResetBits
000258  2001              MOVS     r0,#1                 ;269
00025a  f7fffffe          BL       Mode_SW_CONT
00025e  f88a8007          STRB     r8,[r10,#7]           ;270
000262  f88a8008          STRB     r8,[r10,#8]           ;271
000266  f88a800a          STRB     r8,[r10,#0xa]         ;272
00026a  f88a800b          STRB     r8,[r10,#0xb]         ;273
00026e  4891              LDR      r0,|L8.1204|
000270  f8808000          STRB     r8,[r0,#0]            ;274
000274  ed8aaa0c          VSTR     s20,[r10,#0x30]       ;275
000278  e15d              B        |L8.1334|
                  |L8.634|
00027a  f7fffffe          BL       GUI_GetTime
00027e  fb90f0f9          SDIV     r0,r0,r9              ;278
000282  f8da1038          LDR      r1,[r10,#0x38]        ;278  ; test_ftime
000286  1a40              SUBS     r0,r0,r1              ;278
000288  2802              CMP      r0,#2                 ;278
00028a  d106              BNE      |L8.666|
00028c  0301              LSLS     r1,r0,#12             ;280
00028e  4887              LDR      r0,|L8.1196|
000290  f7fffffe          BL       GPIO_ResetBits
000294  2001              MOVS     r0,#1                 ;281
000296  f7fffffe          BL       Mode_SW_CONT
                  |L8.666|
00029a  4886              LDR      r0,|L8.1204|
00029c  7800              LDRB     r0,[r0,#0]            ;283  ; r_test
00029e  b140              CBZ      r0,|L8.690|
0002a0  ed960a00          VLDR     s0,[r6,#0]            ;283
0002a4  edda0a07          VLDR     s1,[r10,#0x1c]        ;283
0002a8  eeb40ae0          VCMPE.F32 s0,s1                 ;283
0002ac  eef1fa10          VMRS     APSR_nzcv,FPSCR       ;283
0002b0  d221              BCS      |L8.758|
                  |L8.690|
0002b2  f7fffffe          BL       GUI_GetTime
0002b6  fb90f0f9          SDIV     r0,r0,r9              ;283
0002ba  f8da1038          LDR      r1,[r10,#0x38]        ;283  ; test_ftime
0002be  1a40              SUBS     r0,r0,r1              ;283
0002c0  2801              CMP      r0,#1                 ;283
0002c2  dd18              BLE      |L8.758|
0002c4  f44f5100          MOV      r1,#0x2000            ;285
0002c8  4878              LDR      r0,|L8.1196|
0002ca  f7fffffe          BL       GPIO_ResetBits
0002ce  2001              MOVS     r0,#1                 ;286
0002d0  f7fffffe          BL       Mode_SW_CONT
0002d4  f88a8007          STRB     r8,[r10,#7]           ;287
0002d8  e002              B        |L8.736|
                  |L8.730|
0002da  e39b              B        |L8.2580|
                  |L8.732|
0002dc  e3a4              B        |L8.2600|
0002de  e00b              B        |L8.760|
                  |L8.736|
0002e0  f88a8008          STRB     r8,[r10,#8]           ;288
0002e4  f88a800a          STRB     r8,[r10,#0xa]         ;289
0002e8  f88a800b          STRB     r8,[r10,#0xb]         ;290
0002ec  4871              LDR      r0,|L8.1204|
0002ee  f8808000          STRB     r8,[r0,#0]            ;291
0002f2  ed8aaa0c          VSTR     s20,[r10,#0x30]       ;292
                  |L8.758|
0002f6  e11e              B        |L8.1334|
                  |L8.760|
0002f8  ed9a0a07          VLDR     s0,[r10,#0x1c]        ;298
0002fc  ed9f9b6e          VLDR     d9,|L8.1208|
000300  eeb50ac0          VCMPE.F32 s0,#0.0               ;298
000304  eef1fa10          VMRS     APSR_nzcv,FPSCR       ;298
000308  d156              BNE      |L8.952|
00030a  6830              LDR      r0,[r6,#0]            ;300  ; DISS_Voltage
00030c  4558              CMP      r0,r11                ;300
00030e  dd1c              BLE      |L8.842|
000310  8b68              LDRH     r0,[r5,#0x1a]         ;300  ; Run_Control
000312  2832              CMP      r0,#0x32              ;300
000314  d919              BLS      |L8.842|
000316  f89a0008          LDRB     r0,[r10,#8]           ;300  ; con_flag
00031a  b9b0              CBNZ     r0,|L8.842|
00031c  f89a0007          LDRB     r0,[r10,#7]           ;300  ; finish
000320  b998              CBNZ     r0,|L8.842|
000322  f88a7008          STRB     r7,[r10,#8]           ;302
000326  f7fffffe          BL       GUI_GetTime
00032a  ee000a10          VMOV     s0,r0                 ;303
00032e  eeb80ac0          VCVT.F32.S32 s0,s0                 ;303
000332  ee100a10          VMOV     r0,s0                 ;303
000336  f7fffffe          BL       __aeabi_f2d
00033a  ec532b19          VMOV     r2,r3,d9              ;303
00033e  f7fffffe          BL       __aeabi_ddiv
000342  f7fffffe          BL       __aeabi_d2f
000346  f8ca0034          STR      r0,[r10,#0x34]        ;303  ; time1
                  |L8.842|
00034a  f89a0008          LDRB     r0,[r10,#8]           ;306  ; con_flag
00034e  2801              CMP      r0,#1                 ;306
000350  d131              BNE      |L8.950|
000352  f89a0006          LDRB     r0,[r10,#6]           ;306  ; oct_sw
000356  2800              CMP      r0,#0                 ;306
000358  d12d              BNE      |L8.950|
00035a  f89a0007          LDRB     r0,[r10,#7]           ;306  ; finish
00035e  bb50              CBNZ     r0,|L8.950|
000360  f8da0034          LDR      r0,[r10,#0x34]        ;308  ; time1
000364  f7fffffe          BL       __aeabi_f2d
000368  ec410b18          VMOV     d8,r0,r1              ;308
00036c  f7fffffe          BL       GUI_GetTime
000370  f7fffffe          BL       __aeabi_i2d
000374  ec532b19          VMOV     r2,r3,d9              ;308
000378  f7fffffe          BL       __aeabi_ddiv
00037c  ec532b18          VMOV     r2,r3,d8              ;308
000380  f7fffffe          BL       __aeabi_dsub
000384  f7fffffe          BL       __aeabi_d2f
000388  494d              LDR      r1,|L8.1216|
00038a  4288              CMP      r0,r1                 ;308
00038c  db08              BLT      |L8.928|
00038e  8b68              LDRH     r0,[r5,#0x1a]         ;310  ; Run_Control
000390  f8aa0016          STRH     r0,[r10,#0x16]        ;310
000394  f88a7006          STRB     r7,[r10,#6]           ;312
000398  4842              LDR      r0,|L8.1188|
00039a  f8808000          STRB     r8,[r0,#0]            ;313
00039e  e0ca              B        |L8.1334|
                  |L8.928|
0003a0  edda0a0c          VLDR     s1,[r10,#0x30]        ;315
0003a4  ed960a00          VLDR     s0,[r6,#0]            ;315
0003a8  eef40ac0          VCMPE.F32 s1,s0                 ;315
0003ac  eef1fa10          VMRS     APSR_nzcv,FPSCR       ;315
0003b0  d201              BCS      |L8.950|
0003b2  ed8a0a0c          VSTR     s0,[r10,#0x30]        ;317
                  |L8.950|
0003b6  e0be              B        |L8.1334|
                  |L8.952|
0003b8  edd60a00          VLDR     s1,[r6,#0]            ;322
0003bc  eef40ac0          VCMPE.F32 s1,s0                 ;322
0003c0  eef1fa10          VMRS     APSR_nzcv,FPSCR       ;322
0003c4  dd1d              BLE      |L8.1026|
0003c6  8b68              LDRH     r0,[r5,#0x1a]         ;322  ; Run_Control
0003c8  2832              CMP      r0,#0x32              ;322
0003ca  d97f              BLS      |L8.1228|
0003cc  f89a0008          LDRB     r0,[r10,#8]           ;322  ; con_flag
0003d0  b9b8              CBNZ     r0,|L8.1026|
0003d2  f89a0007          LDRB     r0,[r10,#7]           ;322  ; finish
0003d6  b9a0              CBNZ     r0,|L8.1026|
0003d8  4836              LDR      r0,|L8.1204|
0003da  7800              LDRB     r0,[r0,#0]            ;322  ; r_test
0003dc  2801              CMP      r0,#1                 ;322
0003de  d175              BNE      |L8.1228|
0003e0  f88a7008          STRB     r7,[r10,#8]           ;324
0003e4  f7fffffe          BL       GUI_GetTime
0003e8  ee000a10          VMOV     s0,r0                 ;325
0003ec  eeb80ac0          VCVT.F32.S32 s0,s0                 ;325
0003f0  ee100a10          VMOV     r0,s0                 ;325
0003f4  f7fffffe          BL       __aeabi_f2d
0003f8  ec532b19          VMOV     r2,r3,d9              ;325
0003fc  f7fffffe          BL       __aeabi_ddiv
000400  e060              B        |L8.1220|
                  |L8.1026|
000402  e063              B        |L8.1228|
                  |L8.1028|
                          DCD      Run_Control
                  |L8.1032|
000408  42c80000          DCFS     0x42c80000 ; 100
                  |L8.1036|
                          DCD      0x00d3d3d3
                  |L8.1040|
                          DCD      ||.data||
                  |L8.1044|
                          DCD      GUI_Fontsymbol
                  |L8.1048|
                          DCD      GUI_Font20_ASCII
                  |L8.1052|
00041c  44495350          DCB      "DISPLAY",0
000420  4c415900
                  |L8.1060|
                          DCD      GUI_Font24_1
                  |L8.1064|
                          DCD      GUI_FontEN40
                  |L8.1068|
00042c  493a00            DCB      "I:",0
00042f  00                DCB      0
                  |L8.1072|
000430  4100              DCB      "A",0
000432  00                DCB      0
000433  00                DCB      0
                  |L8.1076|
000434  5600              DCB      "V",0
000436  00                DCB      0
000437  00                DCB      0
                  |L8.1080|
000438  6d7300            DCB      "ms",0
00043b  00                DCB      0
                  |L8.1084|
00043c  43757272          DCB      "Current",0
000440  656e7400
                  |L8.1092|
000444  53686f72          DCB      "Short Time",0
000448  74205469
00044c  6d6500  
00044f  00                DCB      0
                  |L8.1104|
000450  4f766572          DCB      "Overflow test",0
000454  666c6f77
000458  20746573
00045c  7400    
00045e  00                DCB      0
00045f  00                DCB      0
                  |L8.1120|
                          DCD      GUI_FontHZ20S
                  |L8.1124|
000464  e6b58be9          DCB      230,181,139,233,135,143,230,152,190,231,164,186,0
000468  878fe698
00046c  bee7a4ba
000470  00      
000471  00                DCB      0
000472  00                DCB      0
000473  00                DCB      0
                  |L8.1140|
                          DCD      GUI_Fontset_font
                  |L8.1144|
000478  e794b5e6          DCB      231,148,181,230,181,129,0
00047c  b58100  
00047f  00                DCB      0
                  |L8.1152|
000480  e79fade8          DCB      231,159,173,232,183,175,230,151,182,233,151,180,0
000484  b7afe697
000488  b6e997b4
00048c  00      
00048d  00                DCB      0
00048e  00                DCB      0
00048f  00                DCB      0
                  |L8.1168|
000490  e8bf87e6          DCB      232,191,135,230,181,129,230,181,139,232,175,149,0
000494  b581e6b5
000498  8be8af95
00049c  00      
00049d  00                DCB      0
00049e  00                DCB      0
00049f  00                DCB      0
                  |L8.1184|
                          DCD      DISS_Voltage
                  |L8.1188|
                          DCD      clear_flag1
                  |L8.1192|
0004a8  00000000          DCFS     0x00000000 ; 0
                  |L8.1196|
                          DCD      0x40020400
                  |L8.1200|
                          DCD      0x3e99999a
                  |L8.1204|
                          DCD      r_test
                  |L8.1208|
0004b8  00000000          DCFD     0x407f400000000000 ; 500
0004bc  407f4000
                  |L8.1216|
                          DCD      0x3f4ccccd
                  |L8.1220|
0004c4  f7fffffe          BL       __aeabi_d2f
0004c8  f8ca0034          STR      r0,[r10,#0x34]        ;325  ; time1
                  |L8.1228|
0004cc  f89a0008          LDRB     r0,[r10,#8]           ;328  ; con_flag
0004d0  2801              CMP      r0,#1                 ;328
0004d2  d130              BNE      |L8.1334|
0004d4  f89a0006          LDRB     r0,[r10,#6]           ;328  ; oct_sw
0004d8  bb08              CBNZ     r0,|L8.1310|
0004da  f89a0007          LDRB     r0,[r10,#7]           ;328  ; finish
0004de  b9f0              CBNZ     r0,|L8.1310|
0004e0  f8da0034          LDR      r0,[r10,#0x34]        ;330  ; time1
0004e4  f7fffffe          BL       __aeabi_f2d
0004e8  ec410b18          VMOV     d8,r0,r1              ;330
0004ec  f7fffffe          BL       GUI_GetTime
0004f0  f7fffffe          BL       __aeabi_i2d
0004f4  ec532b19          VMOV     r2,r3,d9              ;330
0004f8  f7fffffe          BL       __aeabi_ddiv
0004fc  ec532b18          VMOV     r2,r3,d8              ;330
000500  f7fffffe          BL       __aeabi_dsub
000504  f7fffffe          BL       __aeabi_d2f
000508  49fe              LDR      r1,|L8.2308|
00050a  4288              CMP      r0,r1                 ;330
00050c  db08              BLT      |L8.1312|
00050e  8b68              LDRH     r0,[r5,#0x1a]         ;332  ; Run_Control
000510  f8aa0016          STRH     r0,[r10,#0x16]        ;332
000514  f88a7006          STRB     r7,[r10,#6]           ;334
000518  48fb              LDR      r0,|L8.2312|
00051a  f8808000          STRB     r8,[r0,#0]            ;335
                  |L8.1310|
00051e  e00a              B        |L8.1334|
                  |L8.1312|
000520  edda0a0c          VLDR     s1,[r10,#0x30]        ;337
000524  ed960a00          VLDR     s0,[r6,#0]            ;337
000528  eef40ac0          VCMPE.F32 s1,s0                 ;337
00052c  eef1fa10          VMRS     APSR_nzcv,FPSCR       ;337
000530  d201              BCS      |L8.1334|
000532  ed8a0a0c          VSTR     s0,[r10,#0x30]        ;339
                  |L8.1334|
000536  f89a0006          LDRB     r0,[r10,#6]           ;350  ; oct_sw
00053a  2801              CMP      r0,#1                 ;350
00053c  d103              BNE      |L8.1350|
00053e  f89a0003          LDRB     r0,[r10,#3]           ;350  ; para_set2
000542  28ff              CMP      r0,#0xff              ;350
000544  d018              BEQ      |L8.1400|
                  |L8.1350|
000546  f6401106          MOV      r1,#0x906             ;383
00054a  6860              LDR      r0,[r4,#4]            ;383
00054c  f7fffffe          BL       WM_GetDialogItem
000550  9002              STR      r0,[sp,#8]            ;383
000552  f06f417f          MVN      r1,#0xff000000        ;384
000556  9802              LDR      r0,[sp,#8]            ;384
000558  f7fffffe          BL       TEXT_SetTextColor
00055c  f89a000d          LDRB     r0,[r10,#0xd]         ;387  ; lang
000560  b3e0              CBZ      r0,|L8.1500|
000562  48ea              LDR      r0,|L8.2316|
000564  f7fffffe          BL       GUI_SetFont
000568  a1e9              ADR      r1,|L8.2320|
00056a  9802              LDR      r0,[sp,#8]            ;393
00056c  f7fffffe          BL       TEXT_SetText
                  |L8.1392|
000570  f89a0006          LDRB     r0,[r10,#6]           ;397  ; oct_sw
000574  b398              CBZ      r0,|L8.1502|
000576  e048              B        |L8.1546|
                  |L8.1400|
000578  2002              MOVS     r0,#2                 ;352
00057a  f7fffffe          BL       Mode_SW_CONT
00057e  2102              MOVS     r1,#2                 ;353
000580  48e6              LDR      r0,|L8.2332|
000582  f7fffffe          BL       GPIO_ResetBits
000586  f640018e          MOV      r1,#0x88e             ;355
00058a  6860              LDR      r0,[r4,#4]            ;355
00058c  f7fffffe          BL       WM_GetDialogItem
000590  9002              STR      r0,[sp,#8]            ;355
000592  49e3              LDR      r1,|L8.2336|
000594  9802              LDR      r0,[sp,#8]            ;356
000596  f7fffffe          BL       TEXT_SetFont
00059a  f8ba2016          LDRH     r2,[r10,#0x16]        ;357  ; r
00059e  a1e1              ADR      r1,|L8.2340|
0005a0  4668              MOV      r0,sp                 ;357
0005a2  f7fffffe          BL       __2sprintf
0005a6  4669              MOV      r1,sp                 ;358
0005a8  9802              LDR      r0,[sp,#8]            ;358
0005aa  f7fffffe          BL       TEXT_SetText
0005ae  f6401106          MOV      r1,#0x906             ;362
0005b2  6860              LDR      r0,[r4,#4]            ;362
0005b4  f7fffffe          BL       WM_GetDialogItem
0005b8  9002              STR      r0,[sp,#8]            ;362
0005ba  21ff              MOVS     r1,#0xff              ;363
0005bc  9802              LDR      r0,[sp,#8]            ;363
0005be  f7fffffe          BL       TEXT_SetTextColor
0005c2  f89a000d          LDRB     r0,[r10,#0xd]         ;364  ; lang
0005c6  b158              CBZ      r0,|L8.1504|
0005c8  48d0              LDR      r0,|L8.2316|
0005ca  f7fffffe          BL       GUI_SetFont
0005ce  a1d6              ADR      r1,|L8.2344|
0005d0  9802              LDR      r0,[sp,#8]            ;371
0005d2  f7fffffe          BL       TEXT_SetText
0005d6  48d6              LDR      r0,|L8.2352|
0005d8  7007              STRB     r7,[r0,#0]            ;372
0005da  e7c9              B        |L8.1392|
                  |L8.1500|
0005dc  e00a              B        |L8.1524|
                  |L8.1502|
0005de  e011              B        |L8.1540|
                  |L8.1504|
0005e0  48d4              LDR      r0,|L8.2356|
0005e2  f7fffffe          BL       GUI_SetFont
0005e6  a1d4              ADR      r1,|L8.2360|
0005e8  9802              LDR      r0,[sp,#8]            ;367
0005ea  f7fffffe          BL       TEXT_SetText
0005ee  48d0              LDR      r0,|L8.2352|
0005f0  7007              STRB     r7,[r0,#0]            ;368
0005f2  e7bd              B        |L8.1392|
                  |L8.1524|
0005f4  48cf              LDR      r0,|L8.2356|
0005f6  f7fffffe          BL       GUI_SetFont
0005fa  a1d2              ADR      r1,|L8.2372|
0005fc  9802              LDR      r0,[sp,#8]            ;390
0005fe  f7fffffe          BL       TEXT_SetText
000602  e7b5              B        |L8.1392|
                  |L8.1540|
000604  f89a0007          LDRB     r0,[r10,#7]           ;397  ; finish
000608  b120              CBZ      r0,|L8.1556|
                  |L8.1546|
00060a  f89a0003          LDRB     r0,[r10,#3]           ;476  ; para_set2
00060e  28ff              CMP      r0,#0xff              ;476
000610  d070              BEQ      |L8.1780|
000612  e1ce              B        |L8.2482|
                  |L8.1556|
000614  6830              LDR      r0,[r6,#0]            ;399  ; DISS_Voltage
000616  4558              CMP      r0,r11                ;399
000618  dd02              BLE      |L8.1568|
00061a  f89a1005          LDRB     r1,[r10,#5]           ;399  ; r_stable
00061e  b141              CBZ      r1,|L8.1586|
                  |L8.1568|
000620  4558              CMP      r0,r11                ;403
000622  da01              BGE      |L8.1576|
000624  f88a8005          STRB     r8,[r10,#5]           ;404
                  |L8.1576|
000628  4fb7              LDR      r7,|L8.2312|
00062a  7838              LDRB     r0,[r7,#0]            ;406  ; clear_flag1
00062c  2801              CMP      r0,#1                 ;406
00062e  d009              BEQ      |L8.1604|
000630  e022              B        |L8.1656|
                  |L8.1586|
000632  f88a7005          STRB     r7,[r10,#5]           ;401
000636  f7fffffe          BL       GUI_GetTime
00063a  fb90f0f9          SDIV     r0,r0,r9              ;402
00063e  f8aa0012          STRH     r0,[r10,#0x12]        ;402
000642  e7f1              B        |L8.1576|
                  |L8.1604|
000644  48c2              LDR      r0,|L8.2384|
000646  ed960a00          VLDR     s0,[r6,#0]            ;406
00064a  edd00a00          VLDR     s1,[r0,#0]            ;406
00064e  eeb40ae0          VCMPE.F32 s0,s1                 ;406
000652  eef1fa10          VMRS     APSR_nzcv,FPSCR       ;406
000656  d80f              BHI      |L8.1656|
000658  f640018d          MOV      r1,#0x88d             ;408
00065c  6860              LDR      r0,[r4,#4]            ;408
00065e  f7fffffe          BL       WM_GetDialogItem
000662  9002              STR      r0,[sp,#8]            ;408
000664  2200              MOVS     r2,#0                 ;409
000666  a1bb              ADR      r1,|L8.2388|
000668  4668              MOV      r0,sp                 ;409
00066a  f7fffffe          BL       __2sprintf
00066e  4669              MOV      r1,sp                 ;410
000670  9802              LDR      r0,[sp,#8]            ;410
000672  f7fffffe          BL       TEXT_SetText
000676  e014              B        |L8.1698|
                  |L8.1656|
000678  f640018d          MOV      r1,#0x88d             ;412
00067c  6860              LDR      r0,[r4,#4]            ;412
00067e  f7fffffe          BL       WM_GetDialogItem
000682  9002              STR      r0,[sp,#8]            ;412
000684  6830              LDR      r0,[r6,#0]            ;413  ; DISS_Voltage
000686  f7fffffe          BL       __aeabi_f2d
00068a  ec410b10          VMOV     d0,r0,r1              ;413
00068e  a1b1              ADR      r1,|L8.2388|
000690  ec532b10          VMOV     r2,r3,d0              ;413
000694  4668              MOV      r0,sp                 ;413
000696  f7fffffe          BL       __2sprintf
00069a  4669              MOV      r1,sp                 ;414
00069c  9802              LDR      r0,[sp,#8]            ;414
00069e  f7fffffe          BL       TEXT_SetText
                  |L8.1698|
0006a2  7838              LDRB     r0,[r7,#0]            ;416  ; clear_flag1
0006a4  2801              CMP      r0,#1                 ;416
0006a6  d114              BNE      |L8.1746|
0006a8  8b69              LDRH     r1,[r5,#0x1a]         ;416  ; Run_Control
0006aa  48ac              LDR      r0,|L8.2396|
0006ac  7800              LDRB     r0,[r0,#0]            ;416  ; clear_r
0006ae  4281              CMP      r1,r0                 ;416
0006b0  d80f              BHI      |L8.1746|
0006b2  f640018e          MOV      r1,#0x88e             ;418
0006b6  6860              LDR      r0,[r4,#4]            ;418
0006b8  f7fffffe          BL       WM_GetDialogItem
0006bc  4607              MOV      r7,r0                 ;418
0006be  2200              MOVS     r2,#0                 ;419
0006c0  a198              ADR      r1,|L8.2340|
0006c2  4668              MOV      r0,sp                 ;419
0006c4  f7fffffe          BL       __2sprintf
0006c8  4669              MOV      r1,sp                 ;420
0006ca  4638              MOV      r0,r7                 ;420
0006cc  f7fffffe          BL       TEXT_SetText
0006d0  e052              B        |L8.1912|
                  |L8.1746|
0006d2  f7fffffe          BL       GUI_GetTime
0006d6  fb90f0f9          SDIV     r0,r0,r9              ;429
0006da  f8ba1012          LDRH     r1,[r10,#0x12]        ;429  ; stable_time
0006de  1a40              SUBS     r0,r0,r1              ;429
0006e0  2801              CMP      r0,#1                 ;429
0006e2  d103              BNE      |L8.1772|
0006e4  f89a0005          LDRB     r0,[r10,#5]           ;429  ; r_stable
0006e8  2801              CMP      r0,#1                 ;429
0006ea  d004              BEQ      |L8.1782|
                  |L8.1772|
0006ec  f89a0005          LDRB     r0,[r10,#5]           ;436  ; r_stable
0006f0  b1c8              CBZ      r0,|L8.1830|
0006f2  e041              B        |L8.1912|
                  |L8.1780|
0006f4  e06f              B        |L8.2006|
                  |L8.1782|
0006f6  8b68              LDRH     r0,[r5,#0x1a]         ;431  ; Run_Control
0006f8  f8aa0016          STRH     r0,[r10,#0x16]        ;431
0006fc  f640018e          MOV      r1,#0x88e             ;432
000700  6860              LDR      r0,[r4,#4]            ;432
000702  f7fffffe          BL       WM_GetDialogItem
000706  4607              MOV      r7,r0                 ;432
000708  4985              LDR      r1,|L8.2336|
00070a  4638              MOV      r0,r7                 ;433
00070c  f7fffffe          BL       TEXT_SetFont
000710  f8ba2016          LDRH     r2,[r10,#0x16]        ;434  ; r
000714  a183              ADR      r1,|L8.2340|
000716  4668              MOV      r0,sp                 ;434
000718  f7fffffe          BL       __2sprintf
00071c  4669              MOV      r1,sp                 ;435
00071e  4638              MOV      r0,r7                 ;435
000720  f7fffffe          BL       TEXT_SetText
000724  e028              B        |L8.1912|
                  |L8.1830|
000726  498e              LDR      r1,|L8.2400|
000728  6830              LDR      r0,[r6,#0]            ;438  ; DISS_Voltage
00072a  4288              CMP      r0,r1                 ;438
00072c  da24              BGE      |L8.1912|
00072e  f89a000c          LDRB     r0,[r10,#0xc]         ;440  ; para_set1
000732  28ff              CMP      r0,#0xff              ;440
000734  d108              BNE      |L8.1864|
000736  2170              MOVS     r1,#0x70              ;442
000738  2068              MOVS     r0,#0x68              ;442
00073a  f7fffffe          BL       TM1650_SET_LED
00073e  f44f5180          MOV      r1,#0x1000            ;443
000742  4888              LDR      r0,|L8.2404|
000744  f7fffffe          BL       GPIO_ResetBits
                  |L8.1864|
000748  f640018e          MOV      r1,#0x88e             ;445
00074c  6860              LDR      r0,[r4,#4]            ;445
00074e  f7fffffe          BL       WM_GetDialogItem
000752  4607              MOV      r7,r0                 ;445
000754  4972              LDR      r1,|L8.2336|
000756  4638              MOV      r0,r7                 ;446
000758  f7fffffe          BL       TEXT_SetFont
00075c  f44f417f          MOV      r1,#0xff00            ;447
000760  4638              MOV      r0,r7                 ;447
000762  f7fffffe          BL       TEXT_SetTextColor
000766  2200              MOVS     r2,#0                 ;448
000768  a16e              ADR      r1,|L8.2340|
00076a  4668              MOV      r0,sp                 ;448
00076c  f7fffffe          BL       __2sprintf
000770  4669              MOV      r1,sp                 ;449
000772  4638              MOV      r0,r7                 ;449
000774  f7fffffe          BL       TEXT_SetText
                  |L8.1912|
000778  f8aa801a          STRH     r8,[r10,#0x1a]        ;465
00077c  f640310c          MOV      r1,#0xb0c             ;466
000780  6860              LDR      r0,[r4,#4]            ;466
000782  f7fffffe          BL       WM_GetDialogItem
000786  4607              MOV      r7,r0                 ;466
000788  f8ba201a          LDRH     r2,[r10,#0x1a]        ;467  ; short_time
00078c  a165              ADR      r1,|L8.2340|
00078e  4668              MOV      r0,sp                 ;467
000790  f7fffffe          BL       __2sprintf
000794  4974              LDR      r1,|L8.2408|
000796  4638              MOV      r0,r7                 ;468
000798  f7fffffe          BL       TEXT_SetFont
00079c  4669              MOV      r1,sp                 ;469
00079e  4638              MOV      r0,r7                 ;469
0007a0  f7fffffe          BL       TEXT_SetText
0007a4  ed8aaa0b          VSTR     s20,[r10,#0x2c]       ;471
0007a8  f640018f          MOV      r1,#0x88f             ;472
0007ac  6860              LDR      r0,[r4,#4]            ;472
0007ae  f7fffffe          BL       WM_GetDialogItem
0007b2  4607              MOV      r7,r0                 ;472
0007b4  f8da002c          LDR      r0,[r10,#0x2c]        ;473  ; oc_data
0007b8  f7fffffe          BL       __aeabi_f2d
0007bc  ec410b10          VMOV     d0,r0,r1              ;473
0007c0  a164              ADR      r1,|L8.2388|
0007c2  ec532b10          VMOV     r2,r3,d0              ;473
0007c6  4668              MOV      r0,sp                 ;473
0007c8  f7fffffe          BL       __2sprintf
0007cc  4669              MOV      r1,sp                 ;474
0007ce  4638              MOV      r0,r7                 ;474
0007d0  f7fffffe          BL       TEXT_SetText
0007d4  e0ed              B        |L8.2482|
                  |L8.2006|
0007d6  f640018d          MOV      r1,#0x88d             ;478
0007da  6860              LDR      r0,[r4,#4]            ;478
0007dc  f7fffffe          BL       WM_GetDialogItem
0007e0  9002              STR      r0,[sp,#8]            ;478
0007e2  f8da0030          LDR      r0,[r10,#0x30]        ;479  ; v
0007e6  f7fffffe          BL       __aeabi_f2d
0007ea  ec410b10          VMOV     d0,r0,r1              ;479
0007ee  a159              ADR      r1,|L8.2388|
0007f0  ec532b10          VMOV     r2,r3,d0              ;479
0007f4  4668              MOV      r0,sp                 ;479
0007f6  f7fffffe          BL       __2sprintf
0007fa  4669              MOV      r1,sp                 ;480
0007fc  9802              LDR      r0,[sp,#8]            ;480
0007fe  f7fffffe          BL       TEXT_SetText
000802  f640018e          MOV      r1,#0x88e             ;482
000806  6860              LDR      r0,[r4,#4]            ;482
000808  f7fffffe          BL       WM_GetDialogItem
00080c  9002              STR      r0,[sp,#8]            ;482
00080e  4944              LDR      r1,|L8.2336|
000810  9802              LDR      r0,[sp,#8]            ;483
000812  f7fffffe          BL       TEXT_SetFont
000816  f8ba2016          LDRH     r2,[r10,#0x16]        ;484  ; r
00081a  a142              ADR      r1,|L8.2340|
00081c  4668              MOV      r0,sp                 ;484
00081e  f7fffffe          BL       __2sprintf
000822  4669              MOV      r1,sp                 ;485
000824  9802              LDR      r0,[sp,#8]            ;485
000826  f7fffffe          BL       TEXT_SetText
00082a  f640310c          MOV      r1,#0xb0c             ;487
00082e  6860              LDR      r0,[r4,#4]            ;487
000830  f7fffffe          BL       WM_GetDialogItem
000834  9002              STR      r0,[sp,#8]            ;487
000836  f8ba201a          LDRH     r2,[r10,#0x1a]        ;488  ; short_time
00083a  a13a              ADR      r1,|L8.2340|
00083c  4668              MOV      r0,sp                 ;488
00083e  f7fffffe          BL       __2sprintf
000842  4949              LDR      r1,|L8.2408|
000844  9802              LDR      r0,[sp,#8]            ;489
000846  f7fffffe          BL       TEXT_SetFont
00084a  4669              MOV      r1,sp                 ;490
00084c  9802              LDR      r0,[sp,#8]            ;490
00084e  f7fffffe          BL       TEXT_SetText
000852  f89a000a          LDRB     r0,[r10,#0xa]         ;492  ; short_finish
000856  bbe8              CBNZ     r0,|L8.2260|
000858  6830              LDR      r0,[r6,#0]            ;493  ; DISS_Voltage
00085a  4558              CMP      r0,r11                ;493
00085c  da05              BGE      |L8.2154|
00085e  f89a0009          LDRB     r0,[r10,#9]           ;493  ; short_flag
000862  b910              CBNZ     r0,|L8.2154|
000864  f89a0006          LDRB     r0,[r10,#6]           ;493  ; oct_sw
000868  b118              CBZ      r0,|L8.2162|
                  |L8.2154|
00086a  f89a0006          LDRB     r0,[r10,#6]           ;500  ; oct_sw
00086e  b168              CBZ      r0,|L8.2188|
000870  e01c              B        |L8.2220|
                  |L8.2162|
000872  f44f707a          MOV      r0,#0x3e8             ;495
000876  8068              STRH     r0,[r5,#2]            ;495
000878  80a8              STRH     r0,[r5,#4]            ;496
00087a  2003              MOVS     r0,#3                 ;497
00087c  f7fffffe          BL       Mode_SW_CONT
000880  f44f5100          MOV      r1,#0x2000            ;498
000884  4839              LDR      r0,|L8.2412|
000886  f7fffffe          BL       GPIO_SetBits
00088a  e00f              B        |L8.2220|
                  |L8.2188|
00088c  f89a0009          LDRB     r0,[r10,#9]           ;500  ; short_flag
000890  b960              CBNZ     r0,|L8.2220|
000892  2002              MOVS     r0,#2                 ;501
000894  f7fffffe          BL       Mode_SW_CONT
000898  f44f707a          MOV      r0,#0x3e8             ;502
00089c  8128              STRH     r0,[r5,#8]            ;502
00089e  f88a7009          STRB     r7,[r10,#9]           ;503
0008a2  f7fffffe          BL       GUI_GetTime
0008a6  0040              LSLS     r0,r0,#1              ;504
0008a8  f8aa0018          STRH     r0,[r10,#0x18]        ;504
                  |L8.2220|
0008ac  f89a0009          LDRB     r0,[r10,#9]           ;506  ; short_flag
0008b0  2801              CMP      r0,#1                 ;506
0008b2  d15f              BNE      |L8.2420|
0008b4  2102              MOVS     r1,#2                 ;508
0008b6  4819              LDR      r0,|L8.2332|
0008b8  f7fffffe          BL       GPIO_ResetBits
0008bc  6830              LDR      r0,[r6,#0]            ;509  ; DISS_Voltage
0008be  4558              CMP      r0,r11                ;509
0008c0  da58              BGE      |L8.2420|
0008c2  8da8              LDRH     r0,[r5,#0x2c]         ;510  ; Run_Control
0008c4  8128              STRH     r0,[r5,#8]            ;510
0008c6  f7fffffe          BL       GUI_GetTime
0008ca  f8ba1018          LDRH     r1,[r10,#0x18]        ;511  ; short_start
0008ce  ebc10040          RSB      r0,r1,r0,LSL #1       ;511
0008d2  e000              B        |L8.2262|
                  |L8.2260|
0008d4  e04e              B        |L8.2420|
                  |L8.2262|
0008d6  f8aa001a          STRH     r0,[r10,#0x1a]        ;511
0008da  f88a8009          STRB     r8,[r10,#9]           ;512
0008de  f88a700a          STRB     r7,[r10,#0xa]         ;513
0008e2  f640310c          MOV      r1,#0xb0c             ;514
0008e6  6860              LDR      r0,[r4,#4]            ;514
0008e8  f7fffffe          BL       WM_GetDialogItem
0008ec  4680              MOV      r8,r0                 ;514
0008ee  f8ba201a          LDRH     r2,[r10,#0x1a]        ;515  ; short_time
0008f2  a10c              ADR      r1,|L8.2340|
0008f4  4668              MOV      r0,sp                 ;515
0008f6  f7fffffe          BL       __2sprintf
0008fa  4669              MOV      r1,sp                 ;516
0008fc  4640              MOV      r0,r8                 ;516
0008fe  e037              B        |L8.2416|
                  |L8.2304|
000900  e2d5              B        |L8.3758|
000902  0000              DCW      0x0000
                  |L8.2308|
                          DCD      0x3f4ccccd
                  |L8.2312|
                          DCD      clear_flag1
                  |L8.2316|
                          DCD      GUI_Font20_ASCII
                  |L8.2320|
000910  556e7465          DCB      "Untested"
000914  73746564
                  |L8.2328|
000918  00                DCB      0
000919  00                DCB      0
00091a  00                DCB      0
00091b  00                DCB      0
                  |L8.2332|
                          DCD      0x40020800
                  |L8.2336|
                          DCD      GUI_FontD24x32
                  |L8.2340|
000924  25346400          DCB      "%4d",0
                  |L8.2344|
000928  54657374          DCB      "Testing",0
00092c  696e6700
                  |L8.2352|
                          DCD      status_flash
                  |L8.2356|
                          DCD      GUI_Fontset_font
                  |L8.2360|
000938  e6b58be8          DCB      230,181,139,232,175,149,228,184,173,0
00093c  af95e4b8
000940  ad00    
000942  00                DCB      0
000943  00                DCB      0
                  |L8.2372|
000944  e69caae6          DCB      230,156,170,230,181,139,232,175,149,0
000948  b58be8af
00094c  9500    
00094e  00                DCB      0
00094f  00                DCB      0
                  |L8.2384|
                          DCD      clear_v
                  |L8.2388|
000954  252e3266          DCB      "%.2f",0
000958  00      
000959  00                DCB      0
00095a  00                DCB      0
00095b  00                DCB      0
                  |L8.2396|
                          DCD      clear_r
                  |L8.2400|
                          DCD      0x3e99999a
                  |L8.2404|
                          DCD      0x40020c00
                  |L8.2408|
                          DCD      GUI_Font24_1
                  |L8.2412|
                          DCD      0x40020400
                  |L8.2416|
000970  f7fffffe          BL       TEXT_SetText
                  |L8.2420|
000974  f89a000a          LDRB     r0,[r10,#0xa]         ;520  ; short_finish
000978  2801              CMP      r0,#1                 ;520
00097a  d11a              BNE      |L8.2482|
00097c  f89a000b          LDRB     r0,[r10,#0xb]         ;520  ; test_finish
000980  b9b8              CBNZ     r0,|L8.2482|
000982  2102              MOVS     r1,#2                 ;522
000984  48f9              LDR      r0,|L8.3436|
000986  f7fffffe          BL       GPIO_SetBits
00098a  2003              MOVS     r0,#3                 ;523
00098c  f7fffffe          BL       Mode_SW_CONT
000990  f44f707a          MOV      r0,#0x3e8             ;524
000994  8068              STRH     r0,[r5,#2]            ;524
000996  80a8              STRH     r0,[r5,#4]            ;525
000998  f44f5100          MOV      r1,#0x2000            ;526
00099c  48f4              LDR      r0,|L8.3440|
00099e  f7fffffe          BL       GPIO_SetBits
0009a2  f7fffffe          BL       GUI_GetTime
0009a6  fb90f0f9          SDIV     r0,r0,r9              ;532
0009aa  f8ca0038          STR      r0,[r10,#0x38]        ;532  ; test_ftime
0009ae  f88a700b          STRB     r7,[r10,#0xb]         ;533
                  |L8.2482|
0009b2  f640018f          MOV      r1,#0x88f             ;553
0009b6  6860              LDR      r0,[r4,#4]            ;553
0009b8  f7fffffe          BL       WM_GetDialogItem
0009bc  4607              MOV      r7,r0                 ;553
0009be  f8da002c          LDR      r0,[r10,#0x2c]        ;554  ; oc_data
0009c2  f7fffffe          BL       __aeabi_f2d
0009c6  ec410b10          VMOV     d0,r0,r1              ;554
0009ca  ec532b10          VMOV     r2,r3,d0              ;554
0009ce  f2af017c          ADR      r1,|L8.2388|
0009d2  4668              MOV      r0,sp                 ;554
0009d4  f7fffffe          BL       __2sprintf
0009d8  4669              MOV      r1,sp                 ;555
0009da  4638              MOV      r0,r7                 ;555
0009dc  f7fffffe          BL       TEXT_SetText
0009e0  f44f6109          MOV      r1,#0x890             ;557
0009e4  6860              LDR      r0,[r4,#4]            ;557
0009e6  f7fffffe          BL       WM_GetDialogItem
0009ea  e000              B        |L8.2542|
                  |L8.2540|
0009ec  e037              B        |L8.2654|
                  |L8.2542|
0009ee  4607              MOV      r7,r0                 ;557
0009f0  48e0              LDR      r0,|L8.3444|
0009f2  6800              LDR      r0,[r0,#0]            ;558  ; DISS_Current
0009f4  f7fffffe          BL       __aeabi_f2d
0009f8  ec410b10          VMOV     d0,r0,r1              ;558
0009fc  ec532b10          VMOV     r2,r3,d0              ;558
000a00  f2af01b0          ADR      r1,|L8.2388|
000a04  4668              MOV      r0,sp                 ;558
000a06  f7fffffe          BL       __2sprintf
000a0a  4669              MOV      r1,sp                 ;559
000a0c  4638              MOV      r0,r7                 ;559
000a0e  f7fffffe          BL       TEXT_SetText
000a12  e0be              B        |L8.2962|
                  |L8.2580|
000a14  f88a7005          STRB     r7,[r10,#5]           ;564
000a18  f7fffffe          BL       GUI_GetTime
000a1c  fb90f0f9          SDIV     r0,r0,r9              ;565
000a20  f8aa0012          STRH     r0,[r10,#0x12]        ;565
000a24  f7ffbbdf          B        |L8.486|
                  |L8.2600|
000a28  48d3              LDR      r0,|L8.3448|
000a2a  ed960a00          VLDR     s0,[r6,#0]            ;570
000a2e  edd00a00          VLDR     s1,[r0,#0]            ;570
000a32  eeb40ae0          VCMPE.F32 s0,s1                 ;570
000a36  eef1fa10          VMRS     APSR_nzcv,FPSCR       ;570
000a3a  d810              BHI      |L8.2654|
000a3c  f640018d          MOV      r1,#0x88d             ;572
000a40  6860              LDR      r0,[r4,#4]            ;572
000a42  f7fffffe          BL       WM_GetDialogItem
000a46  4680              MOV      r8,r0                 ;572
000a48  2200              MOVS     r2,#0                 ;573
000a4a  f2af01f8          ADR      r1,|L8.2388|
000a4e  4668              MOV      r0,sp                 ;573
000a50  f7fffffe          BL       __2sprintf
000a54  4669              MOV      r1,sp                 ;574
000a56  4640              MOV      r0,r8                 ;574
000a58  f7fffffe          BL       TEXT_SetText
000a5c  e015              B        |L8.2698|
                  |L8.2654|
000a5e  f640018d          MOV      r1,#0x88d             ;576
000a62  6860              LDR      r0,[r4,#4]            ;576
000a64  f7fffffe          BL       WM_GetDialogItem
000a68  4680              MOV      r8,r0                 ;576
000a6a  6830              LDR      r0,[r6,#0]            ;577  ; DISS_Voltage
000a6c  f7fffffe          BL       __aeabi_f2d
000a70  ec410b10          VMOV     d0,r0,r1              ;577
000a74  ec532b10          VMOV     r2,r3,d0              ;577
000a78  f2af1128          ADR      r1,|L8.2388|
000a7c  4668              MOV      r0,sp                 ;577
000a7e  f7fffffe          BL       __2sprintf
000a82  4669              MOV      r1,sp                 ;578
000a84  4640              MOV      r0,r8                 ;578
000a86  f7fffffe          BL       TEXT_SetText
                  |L8.2698|
000a8a  7838              LDRB     r0,[r7,#0]            ;580  ; clear_flag1
000a8c  2801              CMP      r0,#1                 ;580
000a8e  d115              BNE      |L8.2748|
000a90  8b69              LDRH     r1,[r5,#0x1a]         ;580  ; Run_Control
000a92  48ba              LDR      r0,|L8.3452|
000a94  7800              LDRB     r0,[r0,#0]            ;580  ; clear_r
000a96  4281              CMP      r1,r0                 ;580
000a98  d810              BHI      |L8.2748|
000a9a  f640018e          MOV      r1,#0x88e             ;582
000a9e  6860              LDR      r0,[r4,#4]            ;582
000aa0  f7fffffe          BL       WM_GetDialogItem
000aa4  4607              MOV      r7,r0                 ;582
000aa6  2200              MOVS     r2,#0                 ;583
000aa8  f2af1188          ADR      r1,|L8.2340|
000aac  4668              MOV      r0,sp                 ;583
000aae  f7fffffe          BL       __2sprintf
000ab2  4669              MOV      r1,sp                 ;584
000ab4  4638              MOV      r0,r7                 ;584
000ab6  f7fffffe          BL       TEXT_SetText
000aba  e06a              B        |L8.2962|
                  |L8.2748|
000abc  8b68              LDRH     r0,[r5,#0x1a]         ;586  ; Run_Control
000abe  f5b07f7a          CMP      r0,#0x3e8             ;586
000ac2  d312              BCC      |L8.2794|
000ac4  6830              LDR      r0,[r6,#0]            ;586  ; DISS_Voltage
000ac6  4558              CMP      r0,r11                ;586
000ac8  dd0f              BLE      |L8.2794|
000aca  f640018e          MOV      r1,#0x88e             ;588
000ace  6860              LDR      r0,[r4,#4]            ;588
000ad0  f7fffffe          BL       WM_GetDialogItem
000ad4  4607              MOV      r7,r0                 ;588
000ad6  49aa              LDR      r1,|L8.3456|
000ad8  4638              MOV      r0,r7                 ;589
000ada  f7fffffe          BL       TEXT_SetFont
000ade  f2af11c8          ADR      r1,|L8.2328|
000ae2  4638              MOV      r0,r7                 ;590
000ae4  f7fffffe          BL       TEXT_SetText
000ae8  e053              B        |L8.2962|
                  |L8.2794|
000aea  f7fffffe          BL       GUI_GetTime
000aee  fb90f0f9          SDIV     r0,r0,r9              ;592
000af2  f8ba1012          LDRH     r1,[r10,#0x12]        ;592  ; stable_time
000af6  1a40              SUBS     r0,r0,r1              ;592
000af8  2801              CMP      r0,#1                 ;592
000afa  d103              BNE      |L8.2820|
000afc  f89a0005          LDRB     r0,[r10,#5]           ;592  ; r_stable
000b00  2801              CMP      r0,#1                 ;592
000b02  d003              BEQ      |L8.2828|
                  |L8.2820|
000b04  f89a0005          LDRB     r0,[r10,#5]           ;599  ; r_stable
000b08  b1c8              CBZ      r0,|L8.2878|
000b0a  e042              B        |L8.2962|
                  |L8.2828|
000b0c  8b68              LDRH     r0,[r5,#0x1a]         ;594  ; Run_Control
000b0e  f8aa0016          STRH     r0,[r10,#0x16]        ;594
000b12  f640018e          MOV      r1,#0x88e             ;595
000b16  6860              LDR      r0,[r4,#4]            ;595
000b18  f7fffffe          BL       WM_GetDialogItem
000b1c  4607              MOV      r7,r0                 ;595
000b1e  4999              LDR      r1,|L8.3460|
000b20  4638              MOV      r0,r7                 ;596
000b22  f7fffffe          BL       TEXT_SetFont
000b26  f8ba2016          LDRH     r2,[r10,#0x16]        ;597  ; r
000b2a  f2af2108          ADR      r1,|L8.2340|
000b2e  4668              MOV      r0,sp                 ;597
000b30  f7fffffe          BL       __2sprintf
000b34  4669              MOV      r1,sp                 ;598
000b36  4638              MOV      r0,r7                 ;598
000b38  f7fffffe          BL       TEXT_SetText
000b3c  e029              B        |L8.2962|
                  |L8.2878|
000b3e  4992              LDR      r1,|L8.3464|
000b40  6830              LDR      r0,[r6,#0]            ;601  ; DISS_Voltage
000b42  4288              CMP      r0,r1                 ;601
000b44  da25              BGE      |L8.2962|
000b46  f89a000c          LDRB     r0,[r10,#0xc]         ;603  ; para_set1
000b4a  28ff              CMP      r0,#0xff              ;603
000b4c  d108              BNE      |L8.2912|
000b4e  2170              MOVS     r1,#0x70              ;605
000b50  2068              MOVS     r0,#0x68              ;605
000b52  f7fffffe          BL       TM1650_SET_LED
000b56  f44f5180          MOV      r1,#0x1000            ;606
000b5a  488c              LDR      r0,|L8.3468|
000b5c  f7fffffe          BL       GPIO_ResetBits
                  |L8.2912|
000b60  f640018e          MOV      r1,#0x88e             ;608
000b64  6860              LDR      r0,[r4,#4]            ;608
000b66  f7fffffe          BL       WM_GetDialogItem
000b6a  4607              MOV      r7,r0                 ;608
000b6c  4985              LDR      r1,|L8.3460|
000b6e  4638              MOV      r0,r7                 ;609
000b70  f7fffffe          BL       TEXT_SetFont
000b74  f44f417f          MOV      r1,#0xff00            ;610
000b78  4638              MOV      r0,r7                 ;610
000b7a  f7fffffe          BL       TEXT_SetTextColor
000b7e  2200              MOVS     r2,#0                 ;611
000b80  f2af2160          ADR      r1,|L8.2340|
000b84  4668              MOV      r0,sp                 ;611
000b86  f7fffffe          BL       __2sprintf
000b8a  4669              MOV      r1,sp                 ;612
000b8c  4638              MOV      r0,r7                 ;612
000b8e  f7fffffe          BL       TEXT_SetText
                  |L8.2962|
000b92  f89a000c          LDRB     r0,[r10,#0xc]         ;632  ; para_set1
000b96  28ff              CMP      r0,#0xff              ;632
000b98  d108              BNE      |L8.2988|
000b9a  f89a0006          LDRB     r0,[r10,#6]           ;632  ; oct_sw
000b9e  b928              CBNZ     r0,|L8.2988|
000ba0  6830              LDR      r0,[r6,#0]            ;632  ; DISS_Voltage
000ba2  4558              CMP      r0,r11                ;632
000ba4  dd02              BLE      |L8.2988|
000ba6  f7fffffe          BL       test_r
000baa  e008              B        |L8.3006|
                  |L8.2988|
000bac  2170              MOVS     r1,#0x70              ;637
000bae  2068              MOVS     r0,#0x68              ;637
000bb0  f7fffffe          BL       TM1650_SET_LED
000bb4  f44f5180          MOV      r1,#0x1000            ;638
000bb8  4874              LDR      r0,|L8.3468|
000bba  f7fffffe          BL       GPIO_ResetBits
                  |L8.3006|
000bbe  f89a0006          LDRB     r0,[r10,#6]           ;663  ; oct_sw
000bc2  2800              CMP      r0,#0                 ;663
000bc4  d129              BNE      |L8.3098|
000bc6  4872              LDR      r0,|L8.3472|
000bc8  7800              LDRB     r0,[r0,#0]            ;665  ; b_type
000bca  4a72              LDR      r2,|L8.3476|
000bcc  4972              LDR      r1,|L8.3480|
000bce  2806              CMP      r0,#6                 ;665
000bd0  d223              BCS      |L8.3098|
000bd2  e8dff000          TBB      [pc,r0]               ;665
000bd6  2203              DCB      0x22,0x03
000bd8  3b71a7c9          DCB      0x3b,0x71,0xa7,0xc9
000bdc  8b68              LDRH     r0,[r5,#0x1a]         ;669  ; Run_Control
000bde  b330              CBZ      r0,|L8.3118|
000be0  6830              LDR      r0,[r6,#0]            ;669  ; DISS_Voltage
000be2  496e              LDR      r1,|L8.3484|
000be4  4288              CMP      r0,r1                 ;669
000be6  db22              BLT      |L8.3118|
000be8  496d              LDR      r1,|L8.3488|
000bea  4288              CMP      r0,r1                 ;669
000bec  dc1f              BGT      |L8.3118|
000bee  f6401104          MOV      r1,#0x904             ;671
000bf2  6860              LDR      r0,[r4,#4]            ;671
000bf4  f7fffffe          BL       WM_GetDialogItem
000bf8  4605              MOV      r5,r0                 ;671
000bfa  f06f417f          MVN      r1,#0xff000000        ;672
000bfe  4628              MOV      r0,r5                 ;672
000c00  f7fffffe          BL       TEXT_SetTextColor
000c04  f89a000d          LDRB     r0,[r10,#0xd]         ;673  ; lang
000c08  b140              CBZ      r0,|L8.3100|
000c0a  4966              LDR      r1,|L8.3492|
000c0c  4628              MOV      r0,r5                 ;678
000c0e  f7fffffe          BL       TEXT_SetFont
000c12  a165              ADR      r1,|L8.3496|
000c14  4628              MOV      r0,r5                 ;679
000c16  f7fffffe          BL       TEXT_SetText
                  |L8.3098|
000c1a  e13f              B        |L8.3740|
                  |L8.3100|
000c1c  4964              LDR      r1,|L8.3504|
000c1e  4628              MOV      r0,r5                 ;675
000c20  f7fffffe          BL       TEXT_SetFont
000c24  a163              ADR      r1,|L8.3508|
000c26  4628              MOV      r0,r5                 ;676
000c28  f7fffffe          BL       TEXT_SetText
000c2c  e136              B        |L8.3740|
                  |L8.3118|
000c2e  f6401104          MOV      r1,#0x904             ;682
000c32  6860              LDR      r0,[r4,#4]            ;682
000c34  f7fffffe          BL       WM_GetDialogItem
000c38  4605              MOV      r5,r0                 ;682
000c3a  21ff              MOVS     r1,#0xff              ;683
000c3c  4628              MOV      r0,r5                 ;683
000c3e  f7fffffe          BL       TEXT_SetTextColor
000c42  a15a              ADR      r1,|L8.3500|
000c44  4628              MOV      r0,r5                 ;684
000c46  f7fffffe          BL       TEXT_SetText
000c4a  e127              B        |L8.3740|
000c4c  8b68              LDRH     r0,[r5,#0x1a]         ;690  ; Run_Control
000c4e  b320              CBZ      r0,|L8.3226|
000c50  6830              LDR      r0,[r6,#0]            ;690  ; DISS_Voltage
000c52  4290              CMP      r0,r2                 ;690
000c54  dd21              BLE      |L8.3226|
000c56  4288              CMP      r0,r1                 ;690
000c58  dc1f              BGT      |L8.3226|
000c5a  f6401104          MOV      r1,#0x904             ;692
000c5e  6860              LDR      r0,[r4,#4]            ;692
000c60  f7fffffe          BL       WM_GetDialogItem
000c64  4605              MOV      r5,r0                 ;692
000c66  f06f417f          MVN      r1,#0xff000000        ;693
000c6a  4628              MOV      r0,r5                 ;693
000c6c  f7fffffe          BL       TEXT_SetTextColor
000c70  f89a000d          LDRB     r0,[r10,#0xd]         ;694  ; lang
000c74  b140              CBZ      r0,|L8.3208|
000c76  494b              LDR      r1,|L8.3492|
000c78  4628              MOV      r0,r5                 ;699
000c7a  f7fffffe          BL       TEXT_SetFont
000c7e  a150              ADR      r1,|L8.3520|
000c80  4628              MOV      r0,r5                 ;700
000c82  f7fffffe          BL       TEXT_SetText
000c86  e109              B        |L8.3740|
                  |L8.3208|
000c88  4949              LDR      r1,|L8.3504|
000c8a  4628              MOV      r0,r5                 ;696
000c8c  f7fffffe          BL       TEXT_SetFont
000c90  a14d              ADR      r1,|L8.3528|
000c92  4628              MOV      r0,r5                 ;697
000c94  f7fffffe          BL       TEXT_SetText
000c98  e100              B        |L8.3740|
                  |L8.3226|
000c9a  f6401104          MOV      r1,#0x904             ;703
000c9e  6860              LDR      r0,[r4,#4]            ;703
000ca0  f7fffffe          BL       WM_GetDialogItem
000ca4  4605              MOV      r5,r0                 ;703
000ca6  21ff              MOVS     r1,#0xff              ;704
000ca8  4628              MOV      r0,r5                 ;704
000caa  f7fffffe          BL       TEXT_SetTextColor
000cae  a13f              ADR      r1,|L8.3500|
000cb0  4628              MOV      r0,r5                 ;705
000cb2  f7fffffe          BL       TEXT_SetText
000cb6  e0f1              B        |L8.3740|
000cb8  8b68              LDRH     r0,[r5,#0x1a]         ;711  ; Run_Control
000cba  b320              CBZ      r0,|L8.3334|
000cbc  6830              LDR      r0,[r6,#0]            ;711  ; DISS_Voltage
000cbe  4290              CMP      r0,r2                 ;711
000cc0  dd21              BLE      |L8.3334|
000cc2  4288              CMP      r0,r1                 ;711
000cc4  dc1f              BGT      |L8.3334|
000cc6  f6401104          MOV      r1,#0x904             ;713
000cca  6860              LDR      r0,[r4,#4]            ;713
000ccc  f7fffffe          BL       WM_GetDialogItem
000cd0  4605              MOV      r5,r0                 ;713
000cd2  f06f417f          MVN      r1,#0xff000000        ;714
000cd6  4628              MOV      r0,r5                 ;714
000cd8  f7fffffe          BL       TEXT_SetTextColor
000cdc  f89a000d          LDRB     r0,[r10,#0xd]         ;715  ; lang
000ce0  b140              CBZ      r0,|L8.3316|
000ce2  4930              LDR      r1,|L8.3492|
000ce4  4628              MOV      r0,r5                 ;720
000ce6  f7fffffe          BL       TEXT_SetFont
000cea  a13b              ADR      r1,|L8.3544|
000cec  4628              MOV      r0,r5                 ;721
000cee  f7fffffe          BL       TEXT_SetText
000cf2  e0d3              B        |L8.3740|
                  |L8.3316|
000cf4  492e              LDR      r1,|L8.3504|
000cf6  4628              MOV      r0,r5                 ;717
000cf8  f7fffffe          BL       TEXT_SetFont
000cfc  a138              ADR      r1,|L8.3552|
000cfe  4628              MOV      r0,r5                 ;718
000d00  f7fffffe          BL       TEXT_SetText
000d04  e0ca              B        |L8.3740|
                  |L8.3334|
000d06  f6401104          MOV      r1,#0x904             ;724
000d0a  6860              LDR      r0,[r4,#4]            ;724
000d0c  f7fffffe          BL       WM_GetDialogItem
000d10  4605              MOV      r5,r0                 ;724
000d12  21ff              MOVS     r1,#0xff              ;725
000d14  4628              MOV      r0,r5                 ;725
000d16  f7fffffe          BL       TEXT_SetTextColor
000d1a  a124              ADR      r1,|L8.3500|
000d1c  4628              MOV      r0,r5                 ;726
000d1e  f7fffffe          BL       TEXT_SetText
000d22  e0bb              B        |L8.3740|
000d24  8b68              LDRH     r0,[r5,#0x1a]         ;732  ; Run_Control
000d26  b1e8              CBZ      r0,|L8.3428|
000d28  6830              LDR      r0,[r6,#0]            ;732  ; DISS_Voltage
000d2a  4931              LDR      r1,|L8.3568|
000d2c  4288              CMP      r0,r1                 ;732
000d2e  dd6e              BLE      |L8.3598|
000d30  4930              LDR      r1,|L8.3572|
000d32  4288              CMP      r0,r1                 ;732
000d34  da6b              BGE      |L8.3598|
000d36  f6401104          MOV      r1,#0x904             ;734
000d3a  6860              LDR      r0,[r4,#4]            ;734
000d3c  f7fffffe          BL       WM_GetDialogItem
000d40  4605              MOV      r5,r0                 ;734
000d42  f06f417f          MVN      r1,#0xff000000        ;735
000d46  4628              MOV      r0,r5                 ;735
000d48  f7fffffe          BL       TEXT_SetTextColor
000d4c  f89a000d          LDRB     r0,[r10,#0xd]         ;736  ; lang
000d50  b148              CBZ      r0,|L8.3430|
000d52  4914              LDR      r1,|L8.3492|
000d54  4628              MOV      r0,r5                 ;741
000d56  f7fffffe          BL       TEXT_SetFont
000d5a  a127              ADR      r1,|L8.3576|
000d5c  4628              MOV      r0,r5                 ;742
000d5e  f7fffffe          BL       TEXT_SetText
000d62  e09b              B        |L8.3740|
                  |L8.3428|
000d64  e053              B        |L8.3598|
                  |L8.3430|
000d66  e049              B        |L8.3580|
000d68  e061              B        |L8.3630|
000d6a  0000              DCW      0x0000
                  |L8.3436|
                          DCD      0x40020800
                  |L8.3440|
                          DCD      0x40020400
                  |L8.3444|
                          DCD      DISS_Current
                  |L8.3448|
                          DCD      clear_v
                  |L8.3452|
                          DCD      clear_r
                  |L8.3456|
                          DCD      GUI_FontEN40
                  |L8.3460|
                          DCD      GUI_FontD24x32
                  |L8.3464|
                          DCD      0x3e99999a
                  |L8.3468|
                          DCD      0x40020c00
                  |L8.3472|
                          DCD      b_type
                  |L8.3476|
                          DCD      0x3f666666
                  |L8.3480|
                          DCD      0x3fb33333
                  |L8.3484|
                          DCD      0x4059999a
                  |L8.3488|
                          DCD      0x40866666
                  |L8.3492|
                          DCD      GUI_Font20_ASCII
                  |L8.3496|
000da8  4c696f6e          DCB      "Lion"
                  |L8.3500|
000dac  00                DCB      0
000dad  00                DCB      0
000dae  00                DCB      0
000daf  00                DCB      0
                  |L8.3504|
                          DCD      GUI_Fontset_font
                  |L8.3508|
000db4  e99482e7          DCB      233,148,130,231,148,181,230,177,160,0
000db8  94b5e6b1
000dbc  a000    
000dbe  00                DCB      0
000dbf  00                DCB      0
                  |L8.3520|
000dc0  4e694d48          DCB      "NiMH",0
000dc4  00      
000dc5  00                DCB      0
000dc6  00                DCB      0
000dc7  00                DCB      0
                  |L8.3528|
000dc8  e9958de6          DCB      233,149,141,230,176,162,231,148,181,230,177,160,0
000dcc  b0a2e794
000dd0  b5e6b1a0
000dd4  00      
000dd5  00                DCB      0
000dd6  00                DCB      0
000dd7  00                DCB      0
                  |L8.3544|
000dd8  4e694364          DCB      "NiCd",0
000ddc  00      
000ddd  00                DCB      0
000dde  00                DCB      0
000ddf  00                DCB      0
                  |L8.3552|
000de0  e9958de9          DCB      233,149,141,233,149,137,231,148,181,230,177,160,0
000de4  9589e794
000de8  b5e6b1a0
000dec  00      
000ded  00                DCB      0
000dee  00                DCB      0
000def  00                DCB      0
                  |L8.3568|
                          DCD      0x3fe66666
                  |L8.3572|
                          DCD      0x4019999a
                  |L8.3576|
000df8  534c4100          DCB      "SLA",0
                  |L8.3580|
000dfc  49fe              LDR      r1,|L8.4600|
000dfe  4628              MOV      r0,r5                 ;738
000e00  f7fffffe          BL       TEXT_SetFont
000e04  a1fd              ADR      r1,|L8.4604|
000e06  4628              MOV      r0,r5                 ;739
000e08  f7fffffe          BL       TEXT_SetText
000e0c  e046              B        |L8.3740|
                  |L8.3598|
000e0e  f6401104          MOV      r1,#0x904             ;745
000e12  6860              LDR      r0,[r4,#4]            ;745
000e14  f7fffffe          BL       WM_GetDialogItem
000e18  4605              MOV      r5,r0                 ;745
000e1a  21ff              MOVS     r1,#0xff              ;746
000e1c  4628              MOV      r0,r5                 ;746
000e1e  f7fffffe          BL       TEXT_SetTextColor
000e22  f2af0178          ADR      r1,|L8.3500|
000e26  4628              MOV      r0,r5                 ;747
000e28  f7fffffe          BL       TEXT_SetText
000e2c  e036              B        |L8.3740|
                  |L8.3630|
000e2e  8b68              LDRH     r0,[r5,#0x1a]         ;753  ; Run_Control
000e30  b330              CBZ      r0,|L8.3712|
000e32  6830              LDR      r0,[r6,#0]            ;753  ; DISS_Voltage
000e34  49f6              LDR      r1,|L8.4624|
000e36  4288              CMP      r0,r1                 ;753
000e38  dd22              BLE      |L8.3712|
000e3a  49f6              LDR      r1,|L8.4628|
000e3c  4288              CMP      r0,r1                 ;753
000e3e  dc1f              BGT      |L8.3712|
000e40  f6401104          MOV      r1,#0x904             ;755
000e44  6860              LDR      r0,[r4,#4]            ;755
000e46  f7fffffe          BL       WM_GetDialogItem
000e4a  4605              MOV      r5,r0                 ;755
000e4c  f06f417f          MVN      r1,#0xff000000        ;756
000e50  4628              MOV      r0,r5                 ;756
000e52  f7fffffe          BL       TEXT_SetTextColor
000e56  f89a000d          LDRB     r0,[r10,#0xd]         ;757  ; lang
000e5a  b140              CBZ      r0,|L8.3694|
000e5c  49ee              LDR      r1,|L8.4632|
000e5e  4628              MOV      r0,r5                 ;762
000e60  f7fffffe          BL       TEXT_SetFont
000e64  a1ed              ADR      r1,|L8.4636|
000e66  4628              MOV      r0,r5                 ;763
000e68  f7fffffe          BL       TEXT_SetText
000e6c  e016              B        |L8.3740|
                  |L8.3694|
000e6e  49e2              LDR      r1,|L8.4600|
000e70  4628              MOV      r0,r5                 ;759
000e72  f7fffffe          BL       TEXT_SetFont
000e76  a1eb              ADR      r1,|L8.4644|
000e78  4628              MOV      r0,r5                 ;760
000e7a  f7fffffe          BL       TEXT_SetText
000e7e  e00d              B        |L8.3740|
                  |L8.3712|
000e80  f6401104          MOV      r1,#0x904             ;766
000e84  6860              LDR      r0,[r4,#4]            ;766
000e86  f7fffffe          BL       WM_GetDialogItem
000e8a  4605              MOV      r5,r0                 ;766
000e8c  21ff              MOVS     r1,#0xff              ;767
000e8e  4628              MOV      r0,r5                 ;767
000e90  f7fffffe          BL       TEXT_SetTextColor
000e94  a1e2              ADR      r1,|L8.4640|
000e96  4628              MOV      r0,r5                 ;768
000e98  f7fffffe          BL       TEXT_SetText
                  |L8.3740|
000e9c  2114              MOVS     r1,#0x14              ;774
000e9e  68e0              LDR      r0,[r4,#0xc]          ;774
000ea0  f7fffffe          BL       WM_RestartTimer
                  |L8.3748|
000ea4  b003              ADD      sp,sp,#0xc
000ea6  ecbd8b06          VPOP     {d8-d10}
000eaa  e8bd8ff0          POP      {r4-r11,pc}
                  |L8.3758|
000eae  6866              LDR      r6,[r4,#4]            ;783
000eb0  2100              MOVS     r1,#0                 ;784
000eb2  4630              MOV      r0,r6                 ;784
000eb4  f7fffffe          BL       WINDOW_SetBkColor
000eb8  2300              MOVS     r3,#0                 ;785
000eba  464a              MOV      r2,r9                 ;785
000ebc  2101              MOVS     r1,#1                 ;785
000ebe  4630              MOV      r0,r6                 ;785
000ec0  f7fffffe          BL       WM_CreateTimer
000ec4  f89a000d          LDRB     r0,[r10,#0xd]         ;788  ; lang
000ec8  f6400119          MOV      r1,#0x819             ;790
000ecc  1c4e              ADDS     r6,r1,#1              ;797
000ece  f640091b          MOV      r9,#0x81b             ;803
000ed2  f6400b1c          MOV      r11,#0x81c            ;809
000ed6  f640081d          MOV      r8,#0x81d             ;817
000eda  2800              CMP      r0,#0                 ;788
000edc  d07e              BEQ      |L8.4060|
000ede  6860              LDR      r0,[r4,#4]            ;823
000ee0  f7fffffe          BL       WM_GetDialogItem
000ee4  9002              STR      r0,[sp,#8]            ;823
000ee6  2200              MOVS     r2,#0                 ;824
000ee8  4611              MOV      r1,r2                 ;824
000eea  9802              LDR      r0,[sp,#8]            ;824
000eec  f7fffffe          BL       BUTTON_SetTextColor
000ef0  2101              MOVS     r1,#1                 ;825
000ef2  9802              LDR      r0,[sp,#8]            ;825
000ef4  f7fffffe          BL       BUTTON_SetPressed
000ef8  49ce              LDR      r1,|L8.4660|
000efa  9802              LDR      r0,[sp,#8]            ;826
000efc  f7fffffe          BL       BUTTON_SetFont
000f00  f7fffffe          BL       GUI_UC_SetEncodeUTF8
000f04  a1cc              ADR      r1,|L8.4664|
000f06  9802              LDR      r0,[sp,#8]            ;828
000f08  f7fffffe          BL       BUTTON_SetText
000f0c  4631              MOV      r1,r6                 ;830
000f0e  6860              LDR      r0,[r4,#4]            ;830
000f10  f7fffffe          BL       WM_GetDialogItem
000f14  4606              MOV      r6,r0                 ;830
000f16  2200              MOVS     r2,#0                 ;831
000f18  4611              MOV      r1,r2                 ;831
000f1a  4630              MOV      r0,r6                 ;831
000f1c  f7fffffe          BL       BUTTON_SetTextColor
000f20  49c4              LDR      r1,|L8.4660|
000f22  4630              MOV      r0,r6                 ;832
000f24  f7fffffe          BL       BUTTON_SetFont
000f28  f7fffffe          BL       GUI_UC_SetEncodeUTF8
000f2c  a1c5              ADR      r1,|L8.4676|
000f2e  4630              MOV      r0,r6                 ;834
000f30  f7fffffe          BL       BUTTON_SetText
000f34  4649              MOV      r1,r9                 ;836
000f36  6860              LDR      r0,[r4,#4]            ;836
000f38  f7fffffe          BL       WM_GetDialogItem
000f3c  4606              MOV      r6,r0                 ;836
000f3e  2200              MOVS     r2,#0                 ;837
000f40  4611              MOV      r1,r2                 ;837
000f42  4630              MOV      r0,r6                 ;837
000f44  f7fffffe          BL       BUTTON_SetTextColor
000f48  49ba              LDR      r1,|L8.4660|
000f4a  4630              MOV      r0,r6                 ;838
000f4c  f7fffffe          BL       BUTTON_SetFont
000f50  f7fffffe          BL       GUI_UC_SetEncodeUTF8
000f54  a1bd              ADR      r1,|L8.4684|
000f56  4630              MOV      r0,r6                 ;840
000f58  f7fffffe          BL       BUTTON_SetText
000f5c  4659              MOV      r1,r11                ;842
000f5e  6860              LDR      r0,[r4,#4]            ;842
000f60  f7fffffe          BL       WM_GetDialogItem
000f64  4606              MOV      r6,r0                 ;842
000f66  2200              MOVS     r2,#0                 ;843
000f68  4611              MOV      r1,r2                 ;843
000f6a  4630              MOV      r0,r6                 ;843
000f6c  f7fffffe          BL       BUTTON_SetTextColor
000f70  49b0              LDR      r1,|L8.4660|
000f72  4630              MOV      r0,r6                 ;844
000f74  f7fffffe          BL       BUTTON_SetFont
000f78  f7fffffe          BL       GUI_UC_SetEncodeUTF8
000f7c  a1b5              ADR      r1,|L8.4692|
000f7e  4630              MOV      r0,r6                 ;846
000f80  f7fffffe          BL       BUTTON_SetText
000f84  4641              MOV      r1,r8                 ;850
000f86  6860              LDR      r0,[r4,#4]            ;850
000f88  f7fffffe          BL       WM_GetDialogItem
000f8c  4606              MOV      r6,r0                 ;850
000f8e  2200              MOVS     r2,#0                 ;851
000f90  4611              MOV      r1,r2                 ;851
000f92  4630              MOV      r0,r6                 ;851
000f94  f7fffffe          BL       BUTTON_SetTextColor
000f98  49a6              LDR      r1,|L8.4660|
000f9a  4630              MOV      r0,r6                 ;852
000f9c  f7fffffe          BL       BUTTON_SetFont
000fa0  f7fffffe          BL       GUI_UC_SetEncodeUTF8
000fa4  a1ad              ADR      r1,|L8.4700|
000fa6  4630              MOV      r0,r6                 ;854
000fa8  f7fffffe          BL       BUTTON_SetText
                  |L8.4012|
000fac  f6400113          MOV      r1,#0x813             ;859
000fb0  6860              LDR      r0,[r4,#4]            ;859
000fb2  f7fffffe          BL       WM_GetDialogItem
000fb6  4606              MOV      r6,r0                 ;859
000fb8  4639              MOV      r1,r7                 ;860
000fba  4630              MOV      r0,r6                 ;860
000fbc  f7fffffe          BL       TEXT_SetTextColor
000fc0  49a8              LDR      r1,|L8.4708|
000fc2  4630              MOV      r0,r6                 ;861
000fc4  f7fffffe          BL       TEXT_SetFont
000fc8  f7fffffe          BL       GUI_UC_SetEncodeUTF8
000fcc  a1a6              ADR      r1,|L8.4712|
000fce  4630              MOV      r0,r6                 ;863
000fd0  f7fffffe          BL       TEXT_SetText
000fd4  f6400114          MOV      r1,#0x814             ;867
000fd8  6860              LDR      r0,[r4,#4]            ;867
000fda  e000              B        |L8.4062|
                  |L8.4060|
000fdc  e240              B        |L8.5216|
                  |L8.4062|
000fde  f7fffffe          BL       WM_GetDialogItem
000fe2  4606              MOV      r6,r0                 ;867
000fe4  f7fffffe          BL       GUI_UC_SetEncodeUTF8
000fe8  a1a0              ADR      r1,|L8.4716|
000fea  4630              MOV      r0,r6                 ;869
000fec  f7fffffe          BL       TEXT_SetText
000ff0  4639              MOV      r1,r7                 ;870
000ff2  4630              MOV      r0,r6                 ;870
000ff4  f7fffffe          BL       TEXT_SetTextColor
000ff8  499a              LDR      r1,|L8.4708|
000ffa  4630              MOV      r0,r6                 ;871
000ffc  f7fffffe          BL       TEXT_SetFont
001000  f6400115          MOV      r1,#0x815             ;875
001004  6860              LDR      r0,[r4,#4]            ;875
001006  f7fffffe          BL       WM_GetDialogItem
00100a  4606              MOV      r6,r0                 ;875
00100c  f6af31dc          ADR      r1,|L8.1076|
001010  4630              MOV      r0,r6                 ;876
001012  f7fffffe          BL       TEXT_SetText
001016  4639              MOV      r1,r7                 ;877
001018  4630              MOV      r0,r6                 ;877
00101a  f7fffffe          BL       TEXT_SetTextColor
00101e  4991              LDR      r1,|L8.4708|
001020  4630              MOV      r0,r6                 ;878
001022  f7fffffe          BL       TEXT_SetFont
001026  f6400116          MOV      r1,#0x816             ;882
00102a  6860              LDR      r0,[r4,#4]            ;882
00102c  f7fffffe          BL       WM_GetDialogItem
001030  4606              MOV      r6,r0                 ;882
001032  f7fffffe          BL       GUI_UC_SetEncodeUTF8
001036  a18e              ADR      r1,|L8.4720|
001038  4630              MOV      r0,r6                 ;884
00103a  f7fffffe          BL       TEXT_SetText
00103e  4639              MOV      r1,r7                 ;885
001040  4630              MOV      r0,r6                 ;885
001042  f7fffffe          BL       TEXT_SetTextColor
001046  498b              LDR      r1,|L8.4724|
001048  4630              MOV      r0,r6                 ;886
00104a  f7fffffe          BL       TEXT_SetFont
00104e  f6400117          MOV      r1,#0x817             ;890
001052  6860              LDR      r0,[r4,#4]            ;890
001054  f7fffffe          BL       WM_GetDialogItem
001058  4606              MOV      r6,r0                 ;890
00105a  f7fffffe          BL       GUI_UC_SetEncodeUTF8
00105e  a186              ADR      r1,|L8.4728|
001060  4630              MOV      r0,r6                 ;892
001062  f7fffffe          BL       TEXT_SetText
001066  4639              MOV      r1,r7                 ;893
001068  4630              MOV      r0,r6                 ;893
00106a  f7fffffe          BL       TEXT_SetTextColor
00106e  497d              LDR      r1,|L8.4708|
001070  4630              MOV      r0,r6                 ;894
001072  f7fffffe          BL       TEXT_SetFont
001076  f640018d          MOV      r1,#0x88d             ;896
00107a  6860              LDR      r0,[r4,#4]            ;896
00107c  f7fffffe          BL       WM_GetDialogItem
001080  4606              MOV      r6,r0                 ;896
001082  f44f477f          MOV      r7,#0xff00            ;897
001086  4639              MOV      r1,r7                 ;897
001088  4630              MOV      r0,r6                 ;897
00108a  f7fffffe          BL       TEXT_SetTextColor
00108e  497b              LDR      r1,|L8.4732|
001090  4630              MOV      r0,r6                 ;898
001092  f7fffffe          BL       TEXT_SetFont
001096  f7fffffe          BL       GUI_UC_SetEncodeUTF8
00109a  a179              ADR      r1,|L8.4736|
00109c  4630              MOV      r0,r6                 ;900
00109e  f7fffffe          BL       TEXT_SetText
0010a2  f640018e          MOV      r1,#0x88e             ;902
0010a6  6860              LDR      r0,[r4,#4]            ;902
0010a8  f7fffffe          BL       WM_GetDialogItem
0010ac  4606              MOV      r6,r0                 ;902
0010ae  2200              MOVS     r2,#0                 ;903
0010b0  a175              ADR      r1,|L8.4744|
0010b2  4668              MOV      r0,sp                 ;903
0010b4  f7fffffe          BL       __2sprintf
0010b8  4639              MOV      r1,r7                 ;904
0010ba  4630              MOV      r0,r6                 ;904
0010bc  f7fffffe          BL       TEXT_SetTextColor
0010c0  496e              LDR      r1,|L8.4732|
0010c2  4630              MOV      r0,r6                 ;905
0010c4  f7fffffe          BL       TEXT_SetFont
0010c8  f7fffffe          BL       GUI_UC_SetEncodeUTF8
0010cc  4669              MOV      r1,sp                 ;907
0010ce  4630              MOV      r0,r6                 ;907
0010d0  f7fffffe          BL       TEXT_SetText
0010d4  f6401104          MOV      r1,#0x904             ;909
0010d8  6860              LDR      r0,[r4,#4]            ;909
0010da  f7fffffe          BL       WM_GetDialogItem
0010de  4680              MOV      r8,r0                 ;909
0010e0  f06f467f          MVN      r6,#0xff000000        ;910
0010e4  4631              MOV      r1,r6                 ;910
0010e6  4640              MOV      r0,r8                 ;910
0010e8  f7fffffe          BL       TEXT_SetTextColor
0010ec  4942              LDR      r1,|L8.4600|
0010ee  4640              MOV      r0,r8                 ;911
0010f0  f7fffffe          BL       TEXT_SetFont
0010f4  f7fffffe          BL       GUI_UC_SetEncodeUTF8
0010f8  a149              ADR      r1,|L8.4640|
0010fa  4640              MOV      r0,r8                 ;913
0010fc  f7fffffe          BL       TEXT_SetText
001100  f89a0003          LDRB     r0,[r10,#3]           ;915  ; para_set2
001104  f6400168          MOV      r1,#0x868             ;920
001108  f6400969          MOV      r9,#0x869             ;926
00110c  f6400b6a          MOV      r11,#0x86a            ;933
001110  2800              CMP      r0,#0                 ;915
001112  d06e              BEQ      |L8.4594|
001114  28ff              CMP      r0,#0xff              ;915
001116  f47faec5          BNE      |L8.3748|
00111a  f89a000d          LDRB     r0,[r10,#0xd]         ;918  ; lang
00111e  f8df8170          LDR      r8,|L8.4752|
001122  2800              CMP      r0,#0                 ;918
001124  d066              BEQ      |L8.4596|
001126  6860              LDR      r0,[r4,#4]            ;945
001128  f7fffffe          BL       WM_GetDialogItem
00112c  9002              STR      r0,[sp,#8]            ;945
00112e  f7fffffe          BL       GUI_UC_SetEncodeUTF8
001132  a158              ADR      r1,|L8.4756|
001134  9802              LDR      r0,[sp,#8]            ;947
001136  f7fffffe          BL       TEXT_SetText
00113a  4631              MOV      r1,r6                 ;948
00113c  9802              LDR      r0,[sp,#8]            ;948
00113e  f7fffffe          BL       TEXT_SetTextColor
001142  4935              LDR      r1,|L8.4632|
001144  9802              LDR      r0,[sp,#8]            ;949
001146  f7fffffe          BL       TEXT_SetFont
00114a  4649              MOV      r1,r9                 ;951
00114c  6860              LDR      r0,[r4,#4]            ;951
00114e  f7fffffe          BL       WM_GetDialogItem
001152  4681              MOV      r9,r0                 ;951
001154  f7fffffe          BL       GUI_UC_SetEncodeUTF8
001158  a151              ADR      r1,|L8.4768|
00115a  4648              MOV      r0,r9                 ;953
00115c  f7fffffe          BL       TEXT_SetText
001160  4641              MOV      r1,r8                 ;954
001162  4648              MOV      r0,r9                 ;954
001164  f7fffffe          BL       TEXT_SetBkColor
001168  2100              MOVS     r1,#0                 ;955
00116a  4648              MOV      r0,r9                 ;955
00116c  f7fffffe          BL       TEXT_SetTextColor
001170  4929              LDR      r1,|L8.4632|
001172  4648              MOV      r0,r9                 ;956
001174  f7fffffe          BL       TEXT_SetFont
001178  4659              MOV      r1,r11                ;958
00117a  6860              LDR      r0,[r4,#4]            ;958
00117c  f7fffffe          BL       WM_GetDialogItem
001180  4680              MOV      r8,r0                 ;958
001182  f7fffffe          BL       GUI_UC_SetEncodeUTF8
001186  a149              ADR      r1,|L8.4780|
001188  4640              MOV      r0,r8                 ;960
00118a  f7fffffe          BL       TEXT_SetText
00118e  4631              MOV      r1,r6                 ;961
001190  4640              MOV      r0,r8                 ;961
001192  f7fffffe          BL       TEXT_SetTextColor
001196  4920              LDR      r1,|L8.4632|
001198  4640              MOV      r0,r8                 ;962
00119a  f7fffffe          BL       TEXT_SetFont
00119e  f640310d          MOV      r1,#0xb0d             ;964
0011a2  6860              LDR      r0,[r4,#4]            ;964
0011a4  f7fffffe          BL       WM_GetDialogItem
0011a8  4680              MOV      r8,r0                 ;964
0011aa  f7fffffe          BL       GUI_UC_SetEncodeUTF8
0011ae  a142              ADR      r1,|L8.4792|
0011b0  4640              MOV      r0,r8                 ;966
0011b2  f7fffffe          BL       TEXT_SetText
0011b6  4631              MOV      r1,r6                 ;967
0011b8  4640              MOV      r0,r8                 ;967
0011ba  f7fffffe          BL       TEXT_SetTextColor
0011be  4916              LDR      r1,|L8.4632|
0011c0  4640              MOV      r0,r8                 ;968
0011c2  f7fffffe          BL       TEXT_SetFont
                  |L8.4550|
0011c6  f6401105          MOV      r1,#0x905             ;971
0011ca  6860              LDR      r0,[r4,#4]            ;971
0011cc  f7fffffe          BL       WM_GetDialogItem
0011d0  4681              MOV      r9,r0                 ;971
0011d2  f8da001c          LDR      r0,[r10,#0x1c]        ;972  ; gate_v
0011d6  f7fffffe          BL       __aeabi_f2d
0011da  ec410b10          VMOV     d0,r0,r1              ;972
0011de  ec532b10          VMOV     r2,r3,d0              ;972
0011e2  f6af0190          ADR      r1,|L8.2388|
0011e6  4668              MOV      r0,sp                 ;972
0011e8  f7fffffe          BL       __2sprintf
0011ec  4935              LDR      r1,|L8.4804|
0011ee  4648              MOV      r0,r9                 ;973
0011f0  e06a              B        |L8.4808|
                  |L8.4594|
0011f2  e204              B        |L8.5630|
                  |L8.4596|
0011f4  e19c              B        |L8.5424|
0011f6  0000              DCW      0x0000
                  |L8.4600|
                          DCD      GUI_Fontset_font
                  |L8.4604|
0011fc  e5b08fe5          DCB      229,176,143,229,158,139,233,147,133,233,133,184,231,148,181
001200  9e8be993
001204  85e985b8
001208  e794b5  
00120b  e6b1a000          DCB      230,177,160,0
00120f  00                DCB      0
                  |L8.4624|
                          DCD      0x40333333
                  |L8.4628|
                          DCD      0x40533333
                  |L8.4632|
                          DCD      GUI_Font20_ASCII
                  |L8.4636|
00121c  4c694d48          DCB      "LiMH"
                  |L8.4640|
001220  00                DCB      0
001221  00                DCB      0
001222  00                DCB      0
001223  00                DCB      0
                  |L8.4644|
001224  e99482e9          DCB      233,148,130,233,148,176,231,148,181,230,177,160,0
001228  94b0e794
00122c  b5e6b1a0
001230  00      
001231  00                DCB      0
001232  00                DCB      0
001233  00                DCB      0
                  |L8.4660|
                          DCD      GUI_Font16B_ASCII
                  |L8.4664|
001238  492e522e          DCB      "I.R. TEST",0
00123c  20544553
001240  5400    
001242  00                DCB      0
001243  00                DCB      0
                  |L8.4676|
001244  4c4f4144          DCB      "LOAD",0
001248  00      
001249  00                DCB      0
00124a  00                DCB      0
00124b  00                DCB      0
                  |L8.4684|
00124c  504f5745          DCB      "POWER",0
001250  5200    
001252  00                DCB      0
001253  00                DCB      0
                  |L8.4692|
001254  43264443          DCB      "C&DC",0
001258  00      
001259  00                DCB      0
00125a  00                DCB      0
00125b  00                DCB      0
                  |L8.4700|
00125c  47524150          DCB      "GRAPH",0
001260  4800    
001262  00                DCB      0
001263  00                DCB      0
                  |L8.4708|
                          DCD      GUI_FontEN40
                  |L8.4712|
001268  563a00            DCB      "V:",0
00126b  00                DCB      0
                  |L8.4716|
00126c  523a00            DCB      "R:",0
00126f  00                DCB      0
                  |L8.4720|
001270  cea900            DCB      206,169,0
001273  00                DCB      0
                  |L8.4724|
                          DCD      GUI_FontHZ32
                  |L8.4728|
001278  6d00              DCB      "m",0
00127a  00                DCB      0
00127b  00                DCB      0
                  |L8.4732|
                          DCD      GUI_FontD24x32
                  |L8.4736|
001280  302e3030          DCB      "0.00",0
001284  00      
001285  00                DCB      0
001286  00                DCB      0
001287  00                DCB      0
                  |L8.4744|
001288  25303464          DCB      "%04d",0
00128c  00      
00128d  00                DCB      0
00128e  00                DCB      0
00128f  00                DCB      0
                  |L8.4752|
                          DCD      0x00bfffff
                  |L8.4756|
001294  53746570          DCB      "Step time",0
001298  2074696d
00129c  6500    
00129e  00                DCB      0
00129f  00                DCB      0
                  |L8.4768|
0012a0  53746172          DCB      "Starting C",0
0012a4  74696e67
0012a8  204300  
0012ab  00                DCB      0
                  |L8.4780|
0012ac  53746570          DCB      "Stepping C",0
0012b0  70696e67
0012b4  204300  
0012b7  00                DCB      0
                  |L8.4792|
0012b8  54687265          DCB      "Threshlod V",0
0012bc  73686c6f
0012c0  64205600
                  |L8.4804|
                          DCD      GUI_Font24_1
                  |L8.4808|
0012c8  f7fffffe          BL       TEXT_SetFont
0012cc  4669              MOV      r1,sp                 ;974
0012ce  4648              MOV      r0,r9                 ;974
0012d0  f7fffffe          BL       TEXT_SetText
0012d4  46b0              MOV      r8,r6                 ;975
0012d6  4641              MOV      r1,r8                 ;975
0012d8  4648              MOV      r0,r9                 ;975
0012da  f7fffffe          BL       TEXT_SetTextColor
0012de  f89a000d          LDRB     r0,[r10,#0xd]         ;977  ; lang
0012e2  2800              CMP      r0,#0                 ;977
0012e4  d07d              BEQ      |L8.5090|
0012e6  f6401106          MOV      r1,#0x906             ;985
0012ea  6860              LDR      r0,[r4,#4]            ;985
0012ec  f7fffffe          BL       WM_GetDialogItem
0012f0  4606              MOV      r6,r0                 ;985
0012f2  f7fffffe          BL       GUI_UC_SetEncodeUTF8
0012f6  f6af11e8          ADR      r1,|L8.2320|
0012fa  4630              MOV      r0,r6                 ;987
0012fc  f7fffffe          BL       TEXT_SetText
001300  4641              MOV      r1,r8                 ;988
001302  4630              MOV      r0,r6                 ;988
001304  f7fffffe          BL       TEXT_SetTextColor
001308  49fe              LDR      r1,|L8.5892|
00130a  4630              MOV      r0,r6                 ;989
00130c  f7fffffe          BL       TEXT_SetFont
                  |L8.4880|
001310  f640016b          MOV      r1,#0x86b             ;992
001314  6860              LDR      r0,[r4,#4]            ;992
001316  f7fffffe          BL       WM_GetDialogItem
00131a  4681              MOV      r9,r0                 ;992
00131c  ee180a10          VMOV     r0,s16                ;993
001320  f7fffffe          BL       __aeabi_f2d
001324  ec410b10          VMOV     d0,r0,r1              ;993
001328  ec532b10          VMOV     r2,r3,d0              ;993
00132c  f6af11dc          ADR      r1,|L8.2388|
001330  4668              MOV      r0,sp                 ;993
001332  f7fffffe          BL       __2sprintf
001336  4646              MOV      r6,r8                 ;994
001338  4631              MOV      r1,r6                 ;994
00133a  4648              MOV      r0,r9                 ;994
00133c  f7fffffe          BL       TEXT_SetTextColor
001340  49f1              LDR      r1,|L8.5896|
001342  4648              MOV      r0,r9                 ;995
001344  f7fffffe          BL       TEXT_SetFont
001348  f7fffffe          BL       GUI_UC_SetEncodeUTF8
00134c  4669              MOV      r1,sp                 ;997
00134e  4648              MOV      r0,r9                 ;997
001350  f7fffffe          BL       TEXT_SetText
001354  8da8              LDRH     r0,[r5,#0x2c]         ;998  ; Run_Control
001356  8128              STRH     r0,[r5,#8]            ;998
001358  f640016c          MOV      r1,#0x86c             ;1000
00135c  6860              LDR      r0,[r4,#4]            ;1000
00135e  f7fffffe          BL       WM_GetDialogItem
001362  4605              MOV      r5,r0                 ;1000
001364  ee180a90          VMOV     r0,s17                ;1001
001368  f7fffffe          BL       __aeabi_f2d
00136c  ec410b10          VMOV     d0,r0,r1              ;1001
001370  ec532b10          VMOV     r2,r3,d0              ;1001
001374  f6af2124          ADR      r1,|L8.2388|
001378  4668              MOV      r0,sp                 ;1001
00137a  f7fffffe          BL       __2sprintf
00137e  4631              MOV      r1,r6                 ;1002
001380  4628              MOV      r0,r5                 ;1002
001382  f7fffffe          BL       TEXT_SetTextColor
001386  49e0              LDR      r1,|L8.5896|
001388  4628              MOV      r0,r5                 ;1003
00138a  f7fffffe          BL       TEXT_SetFont
00138e  f7fffffe          BL       GUI_UC_SetEncodeUTF8
001392  4669              MOV      r1,sp                 ;1005
001394  4628              MOV      r0,r5                 ;1005
001396  f7fffffe          BL       TEXT_SetText
00139a  f640018f          MOV      r1,#0x88f             ;1007
00139e  6860              LDR      r0,[r4,#4]            ;1007
0013a0  f7fffffe          BL       WM_GetDialogItem
0013a4  4605              MOV      r5,r0                 ;1007
0013a6  4639              MOV      r1,r7                 ;1008
0013a8  4628              MOV      r0,r5                 ;1008
0013aa  f7fffffe          BL       TEXT_SetTextColor
0013ae  49d7              LDR      r1,|L8.5900|
0013b0  4628              MOV      r0,r5                 ;1009
0013b2  f7fffffe          BL       TEXT_SetFont
0013b6  f7fffffe          BL       GUI_UC_SetEncodeUTF8
0013ba  f2af113c          ADR      r1,|L8.4736|
0013be  4628              MOV      r0,r5                 ;1011
0013c0  f7fffffe          BL       TEXT_SetText
0013c4  f44f6109          MOV      r1,#0x890             ;1013
0013c8  6860              LDR      r0,[r4,#4]            ;1013
0013ca  f7fffffe          BL       WM_GetDialogItem
0013ce  4605              MOV      r5,r0                 ;1013
0013d0  4631              MOV      r1,r6                 ;1014
0013d2  4628              MOV      r0,r5                 ;1014
0013d4  f7fffffe          BL       TEXT_SetTextColor
0013d8  49cb              LDR      r1,|L8.5896|
0013da  4628              MOV      r0,r5                 ;1015
0013dc  f7fffffe          BL       TEXT_SetFont
0013e0  e000              B        |L8.5092|
                  |L8.5090|
0013e2  e0f6              B        |L8.5586|
                  |L8.5092|
0013e4  f7fffffe          BL       GUI_UC_SetEncodeUTF8
0013e8  f2af116c          ADR      r1,|L8.4736|
0013ec  4628              MOV      r0,r5                 ;1017
0013ee  f7fffffe          BL       TEXT_SetText
0013f2  f640310c          MOV      r1,#0xb0c             ;1019
0013f6  6860              LDR      r0,[r4,#4]            ;1019
0013f8  f7fffffe          BL       WM_GetDialogItem
0013fc  4605              MOV      r5,r0                 ;1019
0013fe  f8ba201a          LDRH     r2,[r10,#0x1a]        ;1020  ; short_time
001402  f6af21e0          ADR      r1,|L8.2340|
001406  4668              MOV      r0,sp                 ;1020
001408  f7fffffe          BL       __2sprintf
00140c  4631              MOV      r1,r6                 ;1021
00140e  4628              MOV      r0,r5                 ;1021
001410  f7fffffe          BL       TEXT_SetTextColor
001414  49bc              LDR      r1,|L8.5896|
001416  4628              MOV      r0,r5                 ;1022
001418  f7fffffe          BL       TEXT_SetFont
00141c  f7fffffe          BL       GUI_UC_SetEncodeUTF8
001420  4669              MOV      r1,sp                 ;1024
001422  4628              MOV      r0,r5                 ;1024
001424  f7fffffe          BL       TEXT_SetText
001428  f6403111          MOV      r1,#0xb11             ;1026
00142c  6860              LDR      r0,[r4,#4]            ;1026
00142e  f7fffffe          BL       WM_GetDialogItem
001432  4604              MOV      r4,r0                 ;1026
001434  f8ba2010          LDRH     r2,[r10,#0x10]        ;1027  ; steptime
001438  f6af3118          ADR      r1,|L8.2340|
00143c  4668              MOV      r0,sp                 ;1027
00143e  f7fffffe          BL       __2sprintf
001442  4631              MOV      r1,r6                 ;1028
001444  4620              MOV      r0,r4                 ;1028
001446  f7fffffe          BL       TEXT_SetTextColor
00144a  49af              LDR      r1,|L8.5896|
00144c  4620              MOV      r0,r4                 ;1029
00144e  f7fffffe          BL       TEXT_SetFont
001452  f7fffffe          BL       GUI_UC_SetEncodeUTF8
001456  4669              MOV      r1,sp                 ;1031
001458  4620              MOV      r0,r4                 ;1031
00145a  f7fffffe          BL       TEXT_SetText
                  |L8.5214|
00145e  e521              B        |L8.3748|
                  |L8.5216|
001460  6860              LDR      r0,[r4,#4]            ;790
001462  f7fffffe          BL       WM_GetDialogItem
001466  9002              STR      r0,[sp,#8]            ;790
001468  2200              MOVS     r2,#0                 ;791
00146a  4611              MOV      r1,r2                 ;791
00146c  9802              LDR      r0,[sp,#8]            ;791
00146e  f7fffffe          BL       BUTTON_SetTextColor
001472  2101              MOVS     r1,#1                 ;792
001474  9802              LDR      r0,[sp,#8]            ;792
001476  f7fffffe          BL       BUTTON_SetPressed
00147a  49a5              LDR      r1,|L8.5904|
00147c  9802              LDR      r0,[sp,#8]            ;793
00147e  f7fffffe          BL       BUTTON_SetFont
001482  f7fffffe          BL       GUI_UC_SetEncodeUTF8
001486  a1a3              ADR      r1,|L8.5908|
001488  9802              LDR      r0,[sp,#8]            ;795
00148a  f7fffffe          BL       BUTTON_SetText
00148e  4631              MOV      r1,r6                 ;797
001490  6860              LDR      r0,[r4,#4]            ;797
001492  f7fffffe          BL       WM_GetDialogItem
001496  4606              MOV      r6,r0                 ;797
001498  2200              MOVS     r2,#0                 ;798
00149a  4611              MOV      r1,r2                 ;798
00149c  4630              MOV      r0,r6                 ;798
00149e  f7fffffe          BL       BUTTON_SetTextColor
0014a2  499b              LDR      r1,|L8.5904|
0014a4  4630              MOV      r0,r6                 ;799
0014a6  f7fffffe          BL       BUTTON_SetFont
0014aa  f7fffffe          BL       GUI_UC_SetEncodeUTF8
0014ae  a19d              ADR      r1,|L8.5924|
0014b0  4630              MOV      r0,r6                 ;801
0014b2  f7fffffe          BL       BUTTON_SetText
0014b6  4649              MOV      r1,r9                 ;803
0014b8  6860              LDR      r0,[r4,#4]            ;803
0014ba  f7fffffe          BL       WM_GetDialogItem
0014be  4606              MOV      r6,r0                 ;803
0014c0  2200              MOVS     r2,#0                 ;804
0014c2  4611              MOV      r1,r2                 ;804
0014c4  4630              MOV      r0,r6                 ;804
0014c6  f7fffffe          BL       BUTTON_SetTextColor
0014ca  4991              LDR      r1,|L8.5904|
0014cc  4630              MOV      r0,r6                 ;805
0014ce  f7fffffe          BL       BUTTON_SetFont
0014d2  f7fffffe          BL       GUI_UC_SetEncodeUTF8
0014d6  a197              ADR      r1,|L8.5940|
0014d8  4630              MOV      r0,r6                 ;807
0014da  f7fffffe          BL       BUTTON_SetText
0014de  4659              MOV      r1,r11                ;809
0014e0  6860              LDR      r0,[r4,#4]            ;809
0014e2  f7fffffe          BL       WM_GetDialogItem
0014e6  4606              MOV      r6,r0                 ;809
0014e8  2200              MOVS     r2,#0                 ;810
0014ea  4611              MOV      r1,r2                 ;810
0014ec  4630              MOV      r0,r6                 ;810
0014ee  f7fffffe          BL       BUTTON_SetTextColor
0014f2  4987              LDR      r1,|L8.5904|
0014f4  4630              MOV      r0,r6                 ;811
0014f6  f7fffffe          BL       BUTTON_SetFont
0014fa  f7fffffe          BL       GUI_UC_SetEncodeUTF8
0014fe  a191              ADR      r1,|L8.5956|
001500  4630              MOV      r0,r6                 ;813
001502  f7fffffe          BL       BUTTON_SetText
001506  4641              MOV      r1,r8                 ;817
001508  6860              LDR      r0,[r4,#4]            ;817
00150a  f7fffffe          BL       WM_GetDialogItem
00150e  4606              MOV      r6,r0                 ;817
001510  2200              MOVS     r2,#0                 ;818
001512  4611              MOV      r1,r2                 ;818
001514  4630              MOV      r0,r6                 ;818
001516  f7fffffe          BL       BUTTON_SetTextColor
00151a  497d              LDR      r1,|L8.5904|
00151c  4630              MOV      r0,r6                 ;819
00151e  f7fffffe          BL       BUTTON_SetFont
001522  f7fffffe          BL       GUI_UC_SetEncodeUTF8
001526  a18a              ADR      r1,|L8.5968|
001528  4630              MOV      r0,r6                 ;821
00152a  f7fffffe          BL       BUTTON_SetText
00152e  e53d              B        |L8.4012|
                  |L8.5424|
001530  6860              LDR      r0,[r4,#4]            ;920
001532  f7fffffe          BL       WM_GetDialogItem
001536  9002              STR      r0,[sp,#8]            ;920
001538  f7fffffe          BL       GUI_UC_SetEncodeUTF8
00153c  a186              ADR      r1,|L8.5976|
00153e  9802              LDR      r0,[sp,#8]            ;922
001540  f7fffffe          BL       TEXT_SetText
001544  4631              MOV      r1,r6                 ;923
001546  9802              LDR      r0,[sp,#8]            ;923
001548  f7fffffe          BL       TEXT_SetTextColor
00154c  4986              LDR      r1,|L8.5992|
00154e  9802              LDR      r0,[sp,#8]            ;924
001550  f7fffffe          BL       TEXT_SetFont
001554  4649              MOV      r1,r9                 ;926
001556  6860              LDR      r0,[r4,#4]            ;926
001558  f7fffffe          BL       WM_GetDialogItem
00155c  4681              MOV      r9,r0                 ;926
00155e  f7fffffe          BL       GUI_UC_SetEncodeUTF8
001562  a182              ADR      r1,|L8.5996|
001564  4648              MOV      r0,r9                 ;928
001566  f7fffffe          BL       TEXT_SetText
00156a  4641              MOV      r1,r8                 ;929
00156c  4648              MOV      r0,r9                 ;929
00156e  f7fffffe          BL       TEXT_SetBkColor
001572  2100              MOVS     r1,#0                 ;930
001574  4648              MOV      r0,r9                 ;930
001576  f7fffffe          BL       TEXT_SetTextColor
00157a  497b              LDR      r1,|L8.5992|
00157c  4648              MOV      r0,r9                 ;931
00157e  f7fffffe          BL       TEXT_SetFont
001582  4659              MOV      r1,r11                ;933
001584  6860              LDR      r0,[r4,#4]            ;933
001586  f7fffffe          BL       WM_GetDialogItem
00158a  4680              MOV      r8,r0                 ;933
00158c  f7fffffe          BL       GUI_UC_SetEncodeUTF8
001590  a17a              ADR      r1,|L8.6012|
001592  4640              MOV      r0,r8                 ;935
001594  f7fffffe          BL       TEXT_SetText
001598  4631              MOV      r1,r6                 ;936
00159a  4640              MOV      r0,r8                 ;936
00159c  f7fffffe          BL       TEXT_SetTextColor
0015a0  4971              LDR      r1,|L8.5992|
0015a2  4640              MOV      r0,r8                 ;937
0015a4  f7fffffe          BL       TEXT_SetFont
0015a8  f640310d          MOV      r1,#0xb0d             ;939
0015ac  6860              LDR      r0,[r4,#4]            ;939
0015ae  f7fffffe          BL       WM_GetDialogItem
0015b2  4680              MOV      r8,r0                 ;939
0015b4  f7fffffe          BL       GUI_UC_SetEncodeUTF8
0015b8  a174              ADR      r1,|L8.6028|
0015ba  4640              MOV      r0,r8                 ;941
0015bc  f7fffffe          BL       TEXT_SetText
0015c0  4631              MOV      r1,r6                 ;942
0015c2  4640              MOV      r0,r8                 ;942
0015c4  f7fffffe          BL       TEXT_SetTextColor
0015c8  4967              LDR      r1,|L8.5992|
0015ca  4640              MOV      r0,r8                 ;943
0015cc  f7fffffe          BL       TEXT_SetFont
0015d0  e5f9              B        |L8.4550|
                  |L8.5586|
0015d2  f6401106          MOV      r1,#0x906             ;979
0015d6  6860              LDR      r0,[r4,#4]            ;979
0015d8  f7fffffe          BL       WM_GetDialogItem
0015dc  4606              MOV      r6,r0                 ;979
0015de  f7fffffe          BL       GUI_UC_SetEncodeUTF8
0015e2  f6af41a0          ADR      r1,|L8.2372|
0015e6  4630              MOV      r0,r6                 ;981
0015e8  f7fffffe          BL       TEXT_SetText
0015ec  4641              MOV      r1,r8                 ;982
0015ee  4630              MOV      r0,r6                 ;982
0015f0  f7fffffe          BL       TEXT_SetTextColor
0015f4  495c              LDR      r1,|L8.5992|
0015f6  4630              MOV      r0,r6                 ;983
0015f8  f7fffffe          BL       TEXT_SetFont
0015fc  e688              B        |L8.4880|
                  |L8.5630|
0015fe  6860              LDR      r0,[r4,#4]            ;1038
001600  f7fffffe          BL       WM_GetDialogItem
001604  4605              MOV      r5,r0                 ;1038
001606  a146              ADR      r1,|L8.5920|
001608  4628              MOV      r0,r5                 ;1039
00160a  f7fffffe          BL       TEXT_SetText
00160e  f06f4670          MVN      r6,#0xf0000000        ;1040
001612  4631              MOV      r1,r6                 ;1040
001614  4628              MOV      r0,r5                 ;1040
001616  f7fffffe          BL       TEXT_SetTextColor
00161a  4649              MOV      r1,r9                 ;1042
00161c  6860              LDR      r0,[r4,#4]            ;1042
00161e  f7fffffe          BL       WM_GetDialogItem
001622  4605              MOV      r5,r0                 ;1042
001624  a13e              ADR      r1,|L8.5920|
001626  4628              MOV      r0,r5                 ;1043
001628  f7fffffe          BL       TEXT_SetText
00162c  4631              MOV      r1,r6                 ;1044
00162e  4628              MOV      r0,r5                 ;1044
001630  f7fffffe          BL       TEXT_SetTextColor
001634  4659              MOV      r1,r11                ;1047
001636  6860              LDR      r0,[r4,#4]            ;1047
001638  f7fffffe          BL       WM_GetDialogItem
00163c  4605              MOV      r5,r0                 ;1047
00163e  a138              ADR      r1,|L8.5920|
001640  4628              MOV      r0,r5                 ;1048
001642  f7fffffe          BL       TEXT_SetText
001646  4631              MOV      r1,r6                 ;1049
001648  4628              MOV      r0,r5                 ;1049
00164a  f7fffffe          BL       TEXT_SetTextColor
00164e  f640016b          MOV      r1,#0x86b             ;1051
001652  6860              LDR      r0,[r4,#4]            ;1051
001654  f7fffffe          BL       WM_GetDialogItem
001658  4605              MOV      r5,r0                 ;1051
00165a  a131              ADR      r1,|L8.5920|
00165c  4628              MOV      r0,r5                 ;1052
00165e  f7fffffe          BL       TEXT_SetText
001662  4631              MOV      r1,r6                 ;1053
001664  4628              MOV      r0,r5                 ;1053
001666  f7fffffe          BL       TEXT_SetTextColor
00166a  f640016c          MOV      r1,#0x86c             ;1055
00166e  6860              LDR      r0,[r4,#4]            ;1055
001670  f7fffffe          BL       WM_GetDialogItem
001674  4605              MOV      r5,r0                 ;1055
001676  a12a              ADR      r1,|L8.5920|
001678  4628              MOV      r0,r5                 ;1056
00167a  f7fffffe          BL       TEXT_SetText
00167e  4631              MOV      r1,r6                 ;1057
001680  4628              MOV      r0,r5                 ;1057
001682  f7fffffe          BL       TEXT_SetTextColor
001686  f6401105          MOV      r1,#0x905             ;1059
00168a  6860              LDR      r0,[r4,#4]            ;1059
00168c  f7fffffe          BL       WM_GetDialogItem
001690  4605              MOV      r5,r0                 ;1059
001692  a123              ADR      r1,|L8.5920|
001694  4628              MOV      r0,r5                 ;1060
001696  f7fffffe          BL       TEXT_SetText
00169a  4631              MOV      r1,r6                 ;1061
00169c  4628              MOV      r0,r5                 ;1061
00169e  f7fffffe          BL       TEXT_SetTextColor
0016a2  f640310d          MOV      r1,#0xb0d             ;1063
0016a6  6860              LDR      r0,[r4,#4]            ;1063
0016a8  f7fffffe          BL       WM_GetDialogItem
0016ac  4605              MOV      r5,r0                 ;1063
0016ae  a11c              ADR      r1,|L8.5920|
0016b0  4628              MOV      r0,r5                 ;1064
0016b2  f7fffffe          BL       TEXT_SetText
0016b6  4631              MOV      r1,r6                 ;1065
0016b8  4628              MOV      r0,r5                 ;1065
0016ba  f7fffffe          BL       TEXT_SetTextColor
0016be  f6401106          MOV      r1,#0x906             ;1067
0016c2  6860              LDR      r0,[r4,#4]            ;1067
0016c4  f7fffffe          BL       WM_GetDialogItem
0016c8  4605              MOV      r5,r0                 ;1067
0016ca  a115              ADR      r1,|L8.5920|
0016cc  4628              MOV      r0,r5                 ;1068
0016ce  f7fffffe          BL       TEXT_SetText
0016d2  4631              MOV      r1,r6                 ;1069
0016d4  4628              MOV      r0,r5                 ;1069
0016d6  f7fffffe          BL       TEXT_SetTextColor
0016da  f640310c          MOV      r1,#0xb0c             ;1071
0016de  6860              LDR      r0,[r4,#4]            ;1071
0016e0  f7fffffe          BL       WM_GetDialogItem
0016e4  4605              MOV      r5,r0                 ;1071
0016e6  a10e              ADR      r1,|L8.5920|
0016e8  4628              MOV      r0,r5                 ;1072
0016ea  f7fffffe          BL       TEXT_SetText
0016ee  4631              MOV      r1,r6                 ;1073
0016f0  4628              MOV      r0,r5                 ;1073
0016f2  f7fffffe          BL       TEXT_SetTextColor
0016f6  f6403111          MOV      r1,#0xb11             ;1075
0016fa  6860              LDR      r0,[r4,#4]            ;1075
0016fc  f7fffffe          BL       WM_GetDialogItem
001700  4604              MOV      r4,r0                 ;1075
001702  e04b              B        |L8.6044|
                  |L8.5892|
                          DCD      GUI_Font20_ASCII
                  |L8.5896|
                          DCD      GUI_Font24_1
                  |L8.5900|
                          DCD      GUI_FontD24x32
                  |L8.5904|
                          DCD      GUI_FontHZ16
                  |L8.5908|
001714  e58685e9          DCB      229,134,133,233,152,187,230,181,139,232,175,149
001718  98bbe6b5
00171c  8be8af95
                  |L8.5920|
001720  00                DCB      0
001721  00                DCB      0
001722  00                DCB      0
001723  00                DCB      0
                  |L8.5924|
001724  e7a88be6          DCB      231,168,139,230,142,167,232,180,159,232,189,189,0
001728  8ea7e8b4
00172c  9fe8bdbd
001730  00      
001731  00                DCB      0
001732  00                DCB      0
001733  00                DCB      0
                  |L8.5940|
001734  e7a88be6          DCB      231,168,139,230,142,167,231,148,181,230,186,144,0
001738  8ea7e794
00173c  b5e6ba90
001740  00      
001741  00                DCB      0
001742  00                DCB      0
001743  00                DCB      0
                  |L8.5956|
001744  e58585e6          DCB      229,133,133,230,148,190,231,148,181,0
001748  94bee794
00174c  b500    
00174e  00                DCB      0
00174f  00                DCB      0
                  |L8.5968|
001750  e69bb2e7          DCB      230,155,178,231,186,191,0
001754  babf00  
001757  00                DCB      0
                  |L8.5976|
001758  e6ada5e8          DCB      230,173,165,232,191,155,230,151,182,233,151,180,0
00175c  bf9be697
001760  b6e997b4
001764  00      
001765  00                DCB      0
001766  00                DCB      0
001767  00                DCB      0
                  |L8.5992|
                          DCD      GUI_Fontset_font
                  |L8.5996|
00176c  e8b5b7e5          DCB      232,181,183,229,167,139,231,148,181,230,181,129,0
001770  a78be794
001774  b5e6b581
001778  00      
001779  00                DCB      0
00177a  00                DCB      0
00177b  00                DCB      0
                  |L8.6012|
00177c  e6ada5e8          DCB      230,173,165,232,191,155,231,148,181,230,181,129,0
001780  bf9be794
001784  b5e6b581
001788  00      
001789  00                DCB      0
00178a  00                DCB      0
00178b  00                DCB      0
                  |L8.6028|
00178c  e997a8e6          DCB      233,151,168,230,167,155,231,148,181,229,142,139,0
001790  a79be794
001794  b5e58e8b
001798  00      
001799  00                DCB      0
00179a  00                DCB      0
00179b  00                DCB      0
                  |L8.6044|
00179c  f2af0180          ADR      r1,|L8.5920|
0017a0  4620              MOV      r0,r4                 ;1076
0017a2  f7fffffe          BL       TEXT_SetText
0017a6  4631              MOV      r1,r6                 ;1077
0017a8  4620              MOV      r0,r4                 ;1077
0017aa  f7fffffe          BL       TEXT_SetTextColor
0017ae  e656              B        |L8.5214|
;;;1093   
                          ENDP


                          AREA ||i.test_r||, CODE, READONLY, ALIGN=2

                  test_r PROC
;;;1778   
;;;1779   void test_r(void)
000000  e92d5ff0          PUSH     {r4-r12,lr}
;;;1780   {
000004  ed2d8b02          VPUSH    {d8}
;;;1781       WM_HWIN hItem;
;;;1782       if(para_set2 == set_2_off)
000008  4cfe              LDR      r4,|L9.1028|
00000a  78e1              LDRB     r1,[r4,#3]  ; para_set2
;;;1783       {
;;;1784           if(R_VLUE > set_max_r || R_VLUE < set_min_r || DISS_Voltage*100 > set_max_v || DISS_Voltage*100 < set_min_v)
00000c  4eff              LDR      r6,|L9.1036|
00000e  4620              MOV      r0,r4                 ;1782
;;;1785           {
;;;1786               if(para_set4 == set_4_on){
;;;1787                   BEEP_Tiggr();
;;;1788               }
;;;1789               TM1650_SET_LED(0x68,0x70);//FAIL灯
;;;1790               GPIO_SetBits(GPIOD,GPIO_Pin_12);//
000010  f8df93f4          LDR      r9,|L9.1032|
;;;1791               if(R_VLUE > set_max_r || R_VLUE < set_min_r)
;;;1792               {
;;;1793                   hItem = WM_GetDialogItem(hWinR, ID_TEXT_81);
000014  6a80              LDR      r0,[r0,#0x28]
000016  ed960a00          VLDR     s0,[r6,#0]            ;1784
00001a  f44f5880          MOV      r8,#0x1000            ;1790
00001e  f6400a8e          MOV      r10,#0x88e
;;;1794                   TEXT_SetTextColor(hItem, GUI_RED);
;;;1795               }else{
;;;1796                   hItem = WM_GetDialogItem(hWinR, ID_TEXT_81);
;;;1797                   TEXT_SetTextColor(hItem, GUI_GREEN);
;;;1798               }
;;;1799               if(DISS_Voltage*100 > set_max_v || DISS_Voltage*100 < set_min_v){
;;;1800                   hItem = WM_GetDialogItem(hWinR, ID_TEXT_80);
000022  f6400b8d          MOV      r11,#0x88d
000026  ed9f8afa          VLDR     s16,|L9.1040|
00002a  4dfa              LDR      r5,|L9.1044|
00002c  f44f477f          MOV      r7,#0xff00            ;1797
000030  ee200a08          VMUL.F32 s0,s0,s16             ;1784
000034  b3f1              CBZ      r1,|L9.180|
;;;1801                   TEXT_SetTextColor(hItem, GUI_RED);
;;;1802               }else{
;;;1803                   hItem = WM_GetDialogItem(hWinR, ID_TEXT_80);
;;;1804                   TEXT_SetTextColor(hItem, GUI_GREEN);
;;;1805               }
;;;1806           }else{
;;;1807               hItem = WM_GetDialogItem(hWinR, ID_TEXT_80);
;;;1808               TEXT_SetTextColor(hItem, GUI_GREEN);
;;;1809               hItem = WM_GetDialogItem(hWinR, ID_TEXT_81);
;;;1810               TEXT_SetTextColor(hItem, GUI_GREEN);
;;;1811               
;;;1812               GPIO_ResetBits(GPIOD,GPIO_Pin_12);
;;;1813               TM1650_SET_LED(0x48,0x71);
;;;1814               TM1650_SET_LED(0x68,0xF2);//PASS灯
;;;1815           }
;;;1816       }else{
;;;1817           if(finish == 0)
000036  79e1              LDRB     r1,[r4,#7]  ; finish
000038  2900              CMP      r1,#0
00003a  d078              BEQ      |L9.302|
;;;1818           {
;;;1819               if(R_VLUE > set_max_r || R_VLUE < set_min_r || DISS_Voltage*100 > set_max_v || DISS_Voltage*100 < set_min_v)
;;;1820               {
;;;1821                   if(para_set4 == set_4_on){
;;;1822                       BEEP_Tiggr();
;;;1823                   }
;;;1824                   
;;;1825                   TM1650_SET_LED(0x68,0x70);//FAIL灯
;;;1826                   GPIO_SetBits(GPIOD,GPIO_Pin_12);//
;;;1827                   
;;;1828                   if(R_VLUE > set_max_r || R_VLUE < set_min_r)
;;;1829                   {
;;;1830                       hItem = WM_GetDialogItem(hWinR, ID_TEXT_81);
;;;1831                       TEXT_SetTextColor(hItem, GUI_RED);
;;;1832                   }else{
;;;1833                       hItem = WM_GetDialogItem(hWinR, ID_TEXT_81);
;;;1834                       TEXT_SetTextColor(hItem, GUI_GREEN);
;;;1835                   }
;;;1836                   if(DISS_Voltage*100 > set_max_v || DISS_Voltage*100 < set_min_v){
;;;1837                       hItem = WM_GetDialogItem(hWinR, ID_TEXT_80);
;;;1838                       TEXT_SetTextColor(hItem, GUI_RED);
;;;1839                   }else{
;;;1840                       hItem = WM_GetDialogItem(hWinR, ID_TEXT_80);
;;;1841                       TEXT_SetTextColor(hItem, GUI_GREEN);
;;;1842                   }
;;;1843               }else{
;;;1844                   hItem = WM_GetDialogItem(hWinR, ID_TEXT_80);
;;;1845                   TEXT_SetTextColor(hItem, GUI_GREEN);
;;;1846                   hItem = WM_GetDialogItem(hWinR, ID_TEXT_81);
;;;1847                   TEXT_SetTextColor(hItem, GUI_GREEN);
;;;1848                   
;;;1849                   GPIO_ResetBits(GPIOD,GPIO_Pin_12);
;;;1850                   TM1650_SET_LED(0x48,0x71);
;;;1851                   TM1650_SET_LED(0x68,0xF2);//PASS灯
;;;1852               }
;;;1853           }else{
;;;1854               if(r > set_max_r || r < set_min_r || v*100 > set_max_v || v*100 < set_min_v || oc_data*100 > set_max_c || oc_data*100 < set_min_c)
00003c  8c29              LDRH     r1,[r5,#0x20]  ; Run_Control
00003e  8ae2              LDRH     r2,[r4,#0x16]  ; r
;;;1855               {
;;;1856                   if(para_set4 == set_4_on){
;;;1857                       BEEP_Tiggr();
;;;1858                   }
;;;1859                   TM1650_SET_LED(0x68,0x70);//FAIL灯
;;;1860                   GPIO_SetBits(GPIOD,GPIO_Pin_12);//
;;;1861                   if(r > set_max_r || r < set_min_r)
;;;1862                   {
;;;1863                       hItem = WM_GetDialogItem(hWinR, ID_TEXT_81);
;;;1864                       TEXT_SetTextColor(hItem, GUI_RED);
;;;1865                   }else{
;;;1866                       hItem = WM_GetDialogItem(hWinR, ID_TEXT_81);
;;;1867                       TEXT_SetTextColor(hItem, GUI_GREEN);
;;;1868                   }
;;;1869                   if(v*100 > set_max_v || v*100 < set_min_v){
;;;1870                       hItem = WM_GetDialogItem(hWinR, ID_TEXT_80);
;;;1871                       TEXT_SetTextColor(hItem, GUI_RED);
;;;1872                   }else{
;;;1873                       hItem = WM_GetDialogItem(hWinR, ID_TEXT_80);
;;;1874                       TEXT_SetTextColor(hItem, GUI_GREEN);
;;;1875                   }
;;;1876                   if(oc_data*100 > set_max_c || oc_data*100 < set_min_c){
;;;1877                       hItem = WM_GetDialogItem(hWinR, ID_TEXT_82);
000040  f640068f          MOV      r6,#0x88f
000044  4291              CMP      r1,r2                 ;1854
000046  d333              BCC      |L9.176|
000048  8c69              LDRH     r1,[r5,#0x22]         ;1854  ; Run_Control
00004a  8ae2              LDRH     r2,[r4,#0x16]         ;1854  ; r
00004c  4291              CMP      r1,r2                 ;1854
00004e  d82f              BHI      |L9.176|
000050  ed940a0c          VLDR     s0,[r4,#0x30]         ;1854
000054  8ba9              LDRH     r1,[r5,#0x1c]         ;1854  ; Run_Control
000056  ee200a08          VMUL.F32 s0,s0,s16             ;1854
00005a  ee001a90          VMOV     s1,r1                 ;1854
00005e  eef80a60          VCVT.F32.U32 s1,s1                 ;1854
000062  eeb40ae0          VCMPE.F32 s0,s1                 ;1854
000066  eef1fa10          VMRS     APSR_nzcv,FPSCR       ;1854
00006a  dc21              BGT      |L9.176|
00006c  8be9              LDRH     r1,[r5,#0x1e]         ;1854  ; Run_Control
00006e  ee001a90          VMOV     s1,r1                 ;1854
000072  eef80a60          VCVT.F32.U32 s1,s1                 ;1854
000076  eeb40ae0          VCMPE.F32 s0,s1                 ;1854
00007a  eef1fa10          VMRS     APSR_nzcv,FPSCR       ;1854
00007e  d317              BCC      |L9.176|
000080  ed940a0b          VLDR     s0,[r4,#0x2c]         ;1854
000084  8ca9              LDRH     r1,[r5,#0x24]         ;1854  ; Run_Control
000086  ee200a08          VMUL.F32 s0,s0,s16             ;1854
00008a  ee001a90          VMOV     s1,r1                 ;1854
00008e  eef80a60          VCVT.F32.U32 s1,s1                 ;1854
000092  eeb40ae0          VCMPE.F32 s0,s1                 ;1854
000096  eef1fa10          VMRS     APSR_nzcv,FPSCR       ;1854
00009a  dc09              BGT      |L9.176|
00009c  8ce9              LDRH     r1,[r5,#0x26]         ;1854  ; Run_Control
00009e  ee001a90          VMOV     s1,r1                 ;1854
0000a2  eef80a60          VCVT.F32.U32 s1,s1                 ;1854
0000a6  eeb40ae0          VCMPE.F32 s0,s1                 ;1854
0000aa  eef1fa10          VMRS     APSR_nzcv,FPSCR       ;1854
0000ae  d27d              BCS      |L9.428|
                  |L9.176|
0000b0  7920              LDRB     r0,[r4,#4]            ;1856  ; para_set4
0000b2  e000              B        |L9.182|
                  |L9.180|
0000b4  e002              B        |L9.188|
                  |L9.182|
0000b6  28ff              CMP      r0,#0xff              ;1856
0000b8  d079              BEQ      |L9.430|
0000ba  e11b              B        |L9.756|
                  |L9.188|
0000bc  8b69              LDRH     r1,[r5,#0x1a]         ;1784  ; Run_Control
0000be  8c2a              LDRH     r2,[r5,#0x20]         ;1784  ; Run_Control
0000c0  4291              CMP      r1,r2                 ;1784
0000c2  d817              BHI      |L9.244|
0000c4  8b69              LDRH     r1,[r5,#0x1a]         ;1784  ; Run_Control
0000c6  8c6a              LDRH     r2,[r5,#0x22]         ;1784  ; Run_Control
0000c8  4291              CMP      r1,r2                 ;1784
0000ca  d313              BCC      |L9.244|
0000cc  8ba9              LDRH     r1,[r5,#0x1c]         ;1784  ; Run_Control
0000ce  ee001a90          VMOV     s1,r1                 ;1784
0000d2  eef80a60          VCVT.F32.U32 s1,s1                 ;1784
0000d6  eeb40ae0          VCMPE.F32 s0,s1                 ;1784
0000da  eef1fa10          VMRS     APSR_nzcv,FPSCR       ;1784
0000de  dc09              BGT      |L9.244|
0000e0  8be9              LDRH     r1,[r5,#0x1e]         ;1784  ; Run_Control
0000e2  ee001a90          VMOV     s1,r1                 ;1784
0000e6  eef80a60          VCVT.F32.U32 s1,s1                 ;1784
0000ea  eeb40ae0          VCMPE.F32 s0,s1                 ;1784
0000ee  eef1fa10          VMRS     APSR_nzcv,FPSCR       ;1784
0000f2  d252              BCS      |L9.410|
                  |L9.244|
0000f4  7920              LDRB     r0,[r4,#4]            ;1786  ; para_set4
0000f6  28ff              CMP      r0,#0xff              ;1786
0000f8  d101              BNE      |L9.254|
0000fa  f7fffffe          BL       BEEP_Tiggr
                  |L9.254|
0000fe  2170              MOVS     r1,#0x70              ;1789
000100  2068              MOVS     r0,#0x68              ;1789
000102  f7fffffe          BL       TM1650_SET_LED
000106  4641              MOV      r1,r8                 ;1790
000108  4648              MOV      r0,r9                 ;1790
00010a  f7fffffe          BL       GPIO_SetBits
00010e  8b68              LDRH     r0,[r5,#0x1a]         ;1791  ; Run_Control
000110  8c29              LDRH     r1,[r5,#0x20]         ;1791  ; Run_Control
000112  4288              CMP      r0,r1                 ;1791
000114  d803              BHI      |L9.286|
000116  8b68              LDRH     r0,[r5,#0x1a]         ;1791  ; Run_Control
000118  8c69              LDRH     r1,[r5,#0x22]         ;1791  ; Run_Control
00011a  4288              CMP      r0,r1                 ;1791
00011c  d208              BCS      |L9.304|
                  |L9.286|
00011e  4651              MOV      r1,r10                ;1793
000120  6aa0              LDR      r0,[r4,#0x28]         ;1793  ; hWinR
000122  f7fffffe          BL       WM_GetDialogItem
000126  21ff              MOVS     r1,#0xff              ;1794
000128  f7fffffe          BL       TEXT_SetTextColor
00012c  e007              B        |L9.318|
                  |L9.302|
00012e  e054              B        |L9.474|
                  |L9.304|
000130  4651              MOV      r1,r10                ;1796
000132  6aa0              LDR      r0,[r4,#0x28]         ;1796  ; hWinR
000134  f7fffffe          BL       WM_GetDialogItem
000138  4639              MOV      r1,r7                 ;1797
00013a  f7fffffe          BL       TEXT_SetTextColor
                  |L9.318|
00013e  ed960a00          VLDR     s0,[r6,#0]            ;1799
000142  8ba8              LDRH     r0,[r5,#0x1c]         ;1799  ; Run_Control
000144  ee200a08          VMUL.F32 s0,s0,s16             ;1799
000148  ee000a90          VMOV     s1,r0                 ;1799
00014c  eef80a60          VCVT.F32.U32 s1,s1                 ;1799
000150  eeb40ae0          VCMPE.F32 s0,s1                 ;1799
000154  eef1fa10          VMRS     APSR_nzcv,FPSCR       ;1799
000158  dc09              BGT      |L9.366|
00015a  8be8              LDRH     r0,[r5,#0x1e]         ;1799  ; Run_Control
00015c  ee000a90          VMOV     s1,r0                 ;1799
000160  eef80a60          VCVT.F32.U32 s1,s1                 ;1799
000164  eeb40ae0          VCMPE.F32 s0,s1                 ;1799
000168  eef1fa10          VMRS     APSR_nzcv,FPSCR       ;1799
00016c  d20a              BCS      |L9.388|
                  |L9.366|
00016e  4659              MOV      r1,r11                ;1800
000170  6aa0              LDR      r0,[r4,#0x28]         ;1800  ; hWinR
000172  f7fffffe          BL       WM_GetDialogItem
000176  ecbd8b02          VPOP     {d8}                  ;1801
00017a  21ff              MOVS     r1,#0xff              ;1801
00017c  e8bd5ff0          POP      {r4-r12,lr}           ;1801
000180  f7ffbffe          B.W      TEXT_SetTextColor
                  |L9.388|
000184  4659              MOV      r1,r11                ;1803
000186  6aa0              LDR      r0,[r4,#0x28]         ;1803  ; hWinR
000188  f7fffffe          BL       WM_GetDialogItem
00018c  ecbd8b02          VPOP     {d8}                  ;1804
000190  4639              MOV      r1,r7                 ;1804
000192  e8bd5ff0          POP      {r4-r12,lr}           ;1804
000196  f7ffbffe          B.W      TEXT_SetTextColor
                  |L9.410|
00019a  4659              MOV      r1,r11                ;1807
00019c  f7fffffe          BL       WM_GetDialogItem
0001a0  4639              MOV      r1,r7                 ;1808
0001a2  f7fffffe          BL       TEXT_SetTextColor
0001a6  4651              MOV      r1,r10                ;1809
0001a8  6aa0              LDR      r0,[r4,#0x28]         ;1809  ; hWinR
0001aa  e001              B        |L9.432|
                  |L9.428|
0001ac  e116              B        |L9.988|
                  |L9.430|
0001ae  e09f              B        |L9.752|
                  |L9.432|
0001b0  f7fffffe          BL       WM_GetDialogItem
0001b4  4639              MOV      r1,r7                 ;1810
0001b6  f7fffffe          BL       TEXT_SetTextColor
0001ba  4641              MOV      r1,r8                 ;1812
0001bc  4648              MOV      r0,r9                 ;1812
0001be  f7fffffe          BL       GPIO_ResetBits
0001c2  2171              MOVS     r1,#0x71              ;1813
0001c4  2048              MOVS     r0,#0x48              ;1813
0001c6  f7fffffe          BL       TM1650_SET_LED
0001ca  ecbd8b02          VPOP     {d8}                  ;1814
0001ce  21f2              MOVS     r1,#0xf2              ;1814
0001d0  e8bd5ff0          POP      {r4-r12,lr}           ;1814
0001d4  2068              MOVS     r0,#0x68              ;1814
0001d6  f7ffbffe          B.W      TM1650_SET_LED
                  |L9.474|
0001da  8b69              LDRH     r1,[r5,#0x1a]         ;1819  ; Run_Control
0001dc  8c2a              LDRH     r2,[r5,#0x20]         ;1819  ; Run_Control
0001de  4291              CMP      r1,r2                 ;1819
0001e0  d817              BHI      |L9.530|
0001e2  8b69              LDRH     r1,[r5,#0x1a]         ;1819  ; Run_Control
0001e4  8c6a              LDRH     r2,[r5,#0x22]         ;1819  ; Run_Control
0001e6  4291              CMP      r1,r2                 ;1819
0001e8  d313              BCC      |L9.530|
0001ea  8ba9              LDRH     r1,[r5,#0x1c]         ;1819  ; Run_Control
0001ec  ee001a90          VMOV     s1,r1                 ;1819
0001f0  eef80a60          VCVT.F32.U32 s1,s1                 ;1819
0001f4  eeb40ae0          VCMPE.F32 s0,s1                 ;1819
0001f8  eef1fa10          VMRS     APSR_nzcv,FPSCR       ;1819
0001fc  dc09              BGT      |L9.530|
0001fe  8be9              LDRH     r1,[r5,#0x1e]         ;1819  ; Run_Control
000200  ee001a90          VMOV     s1,r1                 ;1819
000204  eef80a60          VCVT.F32.U32 s1,s1                 ;1819
000208  eeb40ae0          VCMPE.F32 s0,s1                 ;1819
00020c  eef1fa10          VMRS     APSR_nzcv,FPSCR       ;1819
000210  d251              BCS      |L9.694|
                  |L9.530|
000212  7920              LDRB     r0,[r4,#4]            ;1821  ; para_set4
000214  28ff              CMP      r0,#0xff              ;1821
000216  d101              BNE      |L9.540|
000218  f7fffffe          BL       BEEP_Tiggr
                  |L9.540|
00021c  2170              MOVS     r1,#0x70              ;1825
00021e  2068              MOVS     r0,#0x68              ;1825
000220  f7fffffe          BL       TM1650_SET_LED
000224  4641              MOV      r1,r8                 ;1826
000226  4648              MOV      r0,r9                 ;1826
000228  f7fffffe          BL       GPIO_SetBits
00022c  8b68              LDRH     r0,[r5,#0x1a]         ;1828  ; Run_Control
00022e  8c29              LDRH     r1,[r5,#0x20]         ;1828  ; Run_Control
000230  4288              CMP      r0,r1                 ;1828
000232  d803              BHI      |L9.572|
000234  8b68              LDRH     r0,[r5,#0x1a]         ;1828  ; Run_Control
000236  8c69              LDRH     r1,[r5,#0x22]         ;1828  ; Run_Control
000238  4288              CMP      r0,r1                 ;1828
00023a  d207              BCS      |L9.588|
                  |L9.572|
00023c  4651              MOV      r1,r10                ;1830
00023e  6aa0              LDR      r0,[r4,#0x28]         ;1830  ; hWinR
000240  f7fffffe          BL       WM_GetDialogItem
000244  21ff              MOVS     r1,#0xff              ;1831
000246  f7fffffe          BL       TEXT_SetTextColor
00024a  e006              B        |L9.602|
                  |L9.588|
00024c  4651              MOV      r1,r10                ;1833
00024e  6aa0              LDR      r0,[r4,#0x28]         ;1833  ; hWinR
000250  f7fffffe          BL       WM_GetDialogItem
000254  4639              MOV      r1,r7                 ;1834
000256  f7fffffe          BL       TEXT_SetTextColor
                  |L9.602|
00025a  ed960a00          VLDR     s0,[r6,#0]            ;1836
00025e  8ba8              LDRH     r0,[r5,#0x1c]         ;1836  ; Run_Control
000260  ee200a08          VMUL.F32 s0,s0,s16             ;1836
000264  ee000a90          VMOV     s1,r0                 ;1836
000268  eef80a60          VCVT.F32.U32 s1,s1                 ;1836
00026c  eeb40ae0          VCMPE.F32 s0,s1                 ;1836
000270  eef1fa10          VMRS     APSR_nzcv,FPSCR       ;1836
000274  dc09              BGT      |L9.650|
000276  8be8              LDRH     r0,[r5,#0x1e]         ;1836  ; Run_Control
000278  ee000a90          VMOV     s1,r0                 ;1836
00027c  eef80a60          VCVT.F32.U32 s1,s1                 ;1836
000280  eeb40ae0          VCMPE.F32 s0,s1                 ;1836
000284  eef1fa10          VMRS     APSR_nzcv,FPSCR       ;1836
000288  d20a              BCS      |L9.672|
                  |L9.650|
00028a  4659              MOV      r1,r11                ;1837
00028c  6aa0              LDR      r0,[r4,#0x28]         ;1837  ; hWinR
00028e  f7fffffe          BL       WM_GetDialogItem
000292  ecbd8b02          VPOP     {d8}                  ;1838
000296  21ff              MOVS     r1,#0xff              ;1838
000298  e8bd5ff0          POP      {r4-r12,lr}           ;1838
00029c  f7ffbffe          B.W      TEXT_SetTextColor
                  |L9.672|
0002a0  4659              MOV      r1,r11                ;1840
0002a2  6aa0              LDR      r0,[r4,#0x28]         ;1840  ; hWinR
0002a4  f7fffffe          BL       WM_GetDialogItem
0002a8  ecbd8b02          VPOP     {d8}                  ;1841
0002ac  4639              MOV      r1,r7                 ;1841
0002ae  e8bd5ff0          POP      {r4-r12,lr}           ;1841
0002b2  f7ffbffe          B.W      TEXT_SetTextColor
                  |L9.694|
0002b6  4659              MOV      r1,r11                ;1844
0002b8  f7fffffe          BL       WM_GetDialogItem
0002bc  4639              MOV      r1,r7                 ;1845
0002be  f7fffffe          BL       TEXT_SetTextColor
0002c2  4651              MOV      r1,r10                ;1846
0002c4  6aa0              LDR      r0,[r4,#0x28]         ;1846  ; hWinR
0002c6  f7fffffe          BL       WM_GetDialogItem
0002ca  4639              MOV      r1,r7                 ;1847
0002cc  f7fffffe          BL       TEXT_SetTextColor
0002d0  4641              MOV      r1,r8                 ;1849
0002d2  4648              MOV      r0,r9                 ;1849
0002d4  f7fffffe          BL       GPIO_ResetBits
0002d8  2171              MOVS     r1,#0x71              ;1850
0002da  2048              MOVS     r0,#0x48              ;1850
0002dc  f7fffffe          BL       TM1650_SET_LED
0002e0  ecbd8b02          VPOP     {d8}                  ;1851
0002e4  21f2              MOVS     r1,#0xf2              ;1851
0002e6  e8bd5ff0          POP      {r4-r12,lr}           ;1851
0002ea  2068              MOVS     r0,#0x68              ;1851
0002ec  f7ffbffe          B.W      TM1650_SET_LED
                  |L9.752|
0002f0  f7fffffe          BL       BEEP_Tiggr
                  |L9.756|
0002f4  2170              MOVS     r1,#0x70              ;1859
0002f6  2068              MOVS     r0,#0x68              ;1859
0002f8  f7fffffe          BL       TM1650_SET_LED
0002fc  4641              MOV      r1,r8                 ;1860
0002fe  4648              MOV      r0,r9                 ;1860
000300  f7fffffe          BL       GPIO_SetBits
000304  8c28              LDRH     r0,[r5,#0x20]         ;1861  ; Run_Control
000306  8ae1              LDRH     r1,[r4,#0x16]         ;1861  ; r
000308  4288              CMP      r0,r1                 ;1861
00030a  d303              BCC      |L9.788|
00030c  8c68              LDRH     r0,[r5,#0x22]         ;1861  ; Run_Control
00030e  8ae1              LDRH     r1,[r4,#0x16]         ;1861  ; r
000310  4288              CMP      r0,r1                 ;1861
000312  d907              BLS      |L9.804|
                  |L9.788|
000314  4651              MOV      r1,r10                ;1863
000316  6aa0              LDR      r0,[r4,#0x28]         ;1863  ; hWinR
000318  f7fffffe          BL       WM_GetDialogItem
00031c  21ff              MOVS     r1,#0xff              ;1864
00031e  f7fffffe          BL       TEXT_SetTextColor
000322  e006              B        |L9.818|
                  |L9.804|
000324  4651              MOV      r1,r10                ;1866
000326  6aa0              LDR      r0,[r4,#0x28]         ;1866  ; hWinR
000328  f7fffffe          BL       WM_GetDialogItem
00032c  4639              MOV      r1,r7                 ;1867
00032e  f7fffffe          BL       TEXT_SetTextColor
                  |L9.818|
000332  ed940a0c          VLDR     s0,[r4,#0x30]         ;1869
000336  8ba8              LDRH     r0,[r5,#0x1c]         ;1869  ; Run_Control
000338  ee200a08          VMUL.F32 s0,s0,s16             ;1869
00033c  ee000a90          VMOV     s1,r0                 ;1869
000340  eef80a60          VCVT.F32.U32 s1,s1                 ;1869
000344  eeb40ae0          VCMPE.F32 s0,s1                 ;1869
000348  eef1fa10          VMRS     APSR_nzcv,FPSCR       ;1869
00034c  dc09              BGT      |L9.866|
00034e  8be8              LDRH     r0,[r5,#0x1e]         ;1869  ; Run_Control
000350  ee000a90          VMOV     s1,r0                 ;1869
000354  eef80a60          VCVT.F32.U32 s1,s1                 ;1869
000358  eeb40ae0          VCMPE.F32 s0,s1                 ;1869
00035c  eef1fa10          VMRS     APSR_nzcv,FPSCR       ;1869
000360  d207              BCS      |L9.882|
                  |L9.866|
000362  4659              MOV      r1,r11                ;1870
000364  6aa0              LDR      r0,[r4,#0x28]         ;1870  ; hWinR
000366  f7fffffe          BL       WM_GetDialogItem
00036a  21ff              MOVS     r1,#0xff              ;1871
00036c  f7fffffe          BL       TEXT_SetTextColor
000370  e006              B        |L9.896|
                  |L9.882|
000372  4659              MOV      r1,r11                ;1873
000374  6aa0              LDR      r0,[r4,#0x28]         ;1873  ; hWinR
000376  f7fffffe          BL       WM_GetDialogItem
00037a  4639              MOV      r1,r7                 ;1874
00037c  f7fffffe          BL       TEXT_SetTextColor
                  |L9.896|
000380  ed940a0b          VLDR     s0,[r4,#0x2c]         ;1876
000384  8ca8              LDRH     r0,[r5,#0x24]         ;1876  ; Run_Control
000386  ee200a08          VMUL.F32 s0,s0,s16             ;1876
00038a  ee000a90          VMOV     s1,r0                 ;1876
00038e  eef80a60          VCVT.F32.U32 s1,s1                 ;1876
000392  eeb40ae0          VCMPE.F32 s0,s1                 ;1876
000396  eef1fa10          VMRS     APSR_nzcv,FPSCR       ;1876
00039a  dc09              BGT      |L9.944|
00039c  8ce8              LDRH     r0,[r5,#0x26]         ;1876  ; Run_Control
00039e  ee000a90          VMOV     s1,r0                 ;1876
0003a2  eef80a60          VCVT.F32.U32 s1,s1                 ;1876
0003a6  eeb40ae0          VCMPE.F32 s0,s1                 ;1876
0003aa  eef1fa10          VMRS     APSR_nzcv,FPSCR       ;1876
0003ae  d20a              BCS      |L9.966|
                  |L9.944|
0003b0  4631              MOV      r1,r6
0003b2  6aa0              LDR      r0,[r4,#0x28]  ; hWinR
0003b4  f7fffffe          BL       WM_GetDialogItem
;;;1878                       TEXT_SetTextColor(hItem, GUI_RED);
0003b8  ecbd8b02          VPOP     {d8}
0003bc  21ff              MOVS     r1,#0xff
0003be  e8bd5ff0          POP      {r4-r12,lr}
0003c2  f7ffbffe          B.W      TEXT_SetTextColor
                  |L9.966|
;;;1879                   }else{
;;;1880                       hItem = WM_GetDialogItem(hWinR, ID_TEXT_82);
0003c6  4631              MOV      r1,r6
0003c8  6aa0              LDR      r0,[r4,#0x28]  ; hWinR
0003ca  f7fffffe          BL       WM_GetDialogItem
;;;1881                       TEXT_SetTextColor(hItem, GUI_GREEN);
0003ce  ecbd8b02          VPOP     {d8}
0003d2  4639              MOV      r1,r7
0003d4  e8bd5ff0          POP      {r4-r12,lr}
0003d8  f7ffbffe          B.W      TEXT_SetTextColor
                  |L9.988|
;;;1882                   }
;;;1883               }else{
;;;1884                   hItem = WM_GetDialogItem(hWinR, ID_TEXT_80);
0003dc  4659              MOV      r1,r11
0003de  f7fffffe          BL       WM_GetDialogItem
;;;1885                   TEXT_SetTextColor(hItem, GUI_GREEN);
0003e2  4639              MOV      r1,r7
0003e4  f7fffffe          BL       TEXT_SetTextColor
;;;1886                   hItem = WM_GetDialogItem(hWinR, ID_TEXT_81);
0003e8  4651              MOV      r1,r10
0003ea  6aa0              LDR      r0,[r4,#0x28]  ; hWinR
0003ec  f7fffffe          BL       WM_GetDialogItem
;;;1887                   TEXT_SetTextColor(hItem, GUI_GREEN);
0003f0  4639              MOV      r1,r7
0003f2  f7fffffe          BL       TEXT_SetTextColor
;;;1888                   hItem = WM_GetDialogItem(hWinR, ID_TEXT_82);
0003f6  4631              MOV      r1,r6
0003f8  6aa0              LDR      r0,[r4,#0x28]  ; hWinR
0003fa  f7fffffe          BL       WM_GetDialogItem
;;;1889                   TEXT_SetTextColor(hItem, GUI_GREEN);
0003fe  4639              MOV      r1,r7
000400  e00a              B        |L9.1048|
000402  0000              DCW      0x0000
                  |L9.1028|
                          DCD      ||.data||
                  |L9.1032|
                          DCD      0x40020c00
                  |L9.1036|
                          DCD      DISS_Voltage
                  |L9.1040|
000410  42c80000          DCFS     0x42c80000 ; 100
                  |L9.1044|
                          DCD      Run_Control
                  |L9.1048|
000418  f7fffffe          BL       TEXT_SetTextColor
;;;1890                   
;;;1891                   GPIO_ResetBits(GPIOD,GPIO_Pin_12);
00041c  4641              MOV      r1,r8
00041e  4648              MOV      r0,r9
000420  f7fffffe          BL       GPIO_ResetBits
;;;1892                   TM1650_SET_LED(0x48,0x71);
000424  2171              MOVS     r1,#0x71
000426  2048              MOVS     r0,#0x48
000428  f7fffffe          BL       TM1650_SET_LED
;;;1893                   TM1650_SET_LED(0x68,0xF2);//PASS灯
00042c  ecbd8b02          VPOP     {d8}
000430  21f2              MOVS     r1,#0xf2
000432  e8bd5ff0          POP      {r4-r12,lr}
000436  2068              MOVS     r0,#0x68
000438  f7ffbffe          B.W      TM1650_SET_LED
;;;1894               }
;;;1895           }
;;;1896                  
;;;1897       }
;;;1898   //     else
;;;1899   //     {
;;;1900   //         TM1650_SET_LED(0x68,0x70);
;;;1901   //         GPIO_ResetBits(GPIOD,GPIO_Pin_12);//灭灯
;;;1902   //     }
;;;1903   }
;;;1904   
                          ENDP


                          AREA ||.constdata||, DATA, READONLY, ALIGN=2

                  _aDialogCreate
                          DCD      WINDOW_CreateIndirect
                          DCD      ||.conststring||
000008  08120000          DCW      0x0812,0x0000
00000c  000001e0          DCW      0x0000,0x01e0
000010  01100000          DCW      0x0110,0x0000
                          DCD      0x00000000
                          DCD      0x00000000
                          DCD      TEXT_CreateIndirect
                          DCD      ||.conststring||+0x2
000024  0813001c          DCW      0x0813,0x001c
000028  00320040          DCW      0x0032,0x0040
00002c  00200000          DCW      0x0020,0x0000
                          DCD      0x00000064
                          DCD      0x00000000
                          DCD      TEXT_CreateIndirect
                          DCD      ||.conststring||+0x2
000040  0814001c          DCW      0x0814,0x001c
000044  00780040          DCW      0x0078,0x0040
000048  00200000          DCW      0x0020,0x0000
                          DCD      0x00000064
                          DCD      0x00000000
                          DCD      TEXT_CreateIndirect
                          DCD      ||.conststring||+0x2
00005c  081500d9          DCW      0x0815,0x00d9
000060  00320020          DCW      0x0032,0x0020
000064  001e0000          DCW      0x001e,0x0000
                          DCD      0x00000000
                          DCD      0x00000000
                          DCD      TEXT_CreateIndirect
                          DCD      ||.conststring||+0x2
000078  081600ef          DCW      0x0816,0x00ef
00007c  00790020          DCW      0x0079,0x0020
000080  00200000          DCW      0x0020,0x0000
                          DCD      0x00000000
                          DCD      0x00000000
                          DCD      TEXT_CreateIndirect
                          DCD      ||.conststring||+0x2
000094  081700d9          DCW      0x0817,0x00d9
000098  00800020          DCW      0x0080,0x0020
00009c  00140000          DCW      0x0014,0x0000
                          DCD      0x00000000
                          DCD      0x00000000
                          DCD      TEXT_CreateIndirect
                          DCD      ||.conststring||+0x2
0000b0  0868012c          DCW      0x0868,0x012c
0000b4  00960064          DCW      0x0096,0x0064
0000b8  00140000          DCW      0x0014,0x0000
                          DCD      0x00000000
                          DCD      0x00000000
                          DCD      TEXT_CreateIndirect
                          DCD      ||.conststring||+0x2
0000cc  0869012c          DCW      0x0869,0x012c
0000d0  003c0064          DCW      0x003c,0x0064
0000d4  00140000          DCW      0x0014,0x0000
                          DCD      0x00000000
                          DCD      0x00000000
                          DCD      TEXT_CreateIndirect
                          DCD      ||.conststring||+0x2
0000e8  086a012c          DCW      0x086a,0x012c
0000ec  005a0064          DCW      0x005a,0x0064
0000f0  00140000          DCW      0x0014,0x0000
                          DCD      0x00000000
                          DCD      0x00000000
                          DCD      TEXT_CreateIndirect
                          DCD      ||.conststring||+0x2
000104  086b0190          DCW      0x086b,0x0190
000108  003c0039          DCW      0x003c,0x0039
00010c  00140000          DCW      0x0014,0x0000
                          DCD      0x00000000
                          DCD      0x00000000
                          DCD      TEXT_CreateIndirect
                          DCD      ||.conststring||+0x2
000120  086c0190          DCW      0x086c,0x0190
000124  005a0039          DCW      0x005a,0x0039
000128  00140000          DCW      0x0014,0x0000
                          DCD      0x00000000
                          DCD      0x00000000
                          DCD      TEXT_CreateIndirect
                          DCD      ||.conststring||+0x2
00013c  088d005f          DCW      0x088d,0x005f
000140  00300096          DCW      0x0030,0x0096
000144  00280000          DCW      0x0028,0x0000
                          DCD      0x00000000
                          DCD      0x00000000
                          DCD      TEXT_CreateIndirect
                          DCD      ||.conststring||+0x2
000158  088e005f          DCW      0x088e,0x005f
00015c  00740096          DCW      0x0074,0x0096
000160  00280000          DCW      0x0028,0x0000
                          DCD      0x00000000
                          DCD      0x00000000
                          DCD      TEXT_CreateIndirect
                          DCD      ||.conststring||+0x2
000174  088f005f          DCW      0x088f,0x005f
000178  00b80096          DCW      0x00b8,0x0096
00017c  00280000          DCW      0x0028,0x0000
                          DCD      0x00000000
                          DCD      0x00000000
                          DCD      TEXT_CreateIndirect
                          DCD      ||.conststring||+0x2
000190  08900190          DCW      0x0890,0x0190
000194  00af0039          DCW      0x00af,0x0039
000198  00140000          DCW      0x0014,0x0000
                          DCD      0x00000000
                          DCD      0x00000000
                          DCD      TEXT_CreateIndirect
                          DCD      ||.conststring||+0x2
0001ac  0904012c          DCW      0x0904,0x012c
0001b0  00050078          DCW      0x0005,0x0078
0001b4  00140000          DCW      0x0014,0x0000
                          DCD      0x00000000
                          DCD      0x00000000
                          DCD      TEXT_CreateIndirect
                          DCD      ||.conststring||+0x2
0001c8  09050190          DCW      0x0905,0x0190
0001cc  0078003c          DCW      0x0078,0x003c
0001d0  00140000          DCW      0x0014,0x0000
                          DCD      0x00000000
                          DCD      0x00000000
                          DCD      TEXT_CreateIndirect
                          DCD      ||.conststring||+0x2
0001e4  09060195          DCW      0x0906,0x0195
0001e8  00050050          DCW      0x0005,0x0050
0001ec  00140000          DCW      0x0014,0x0000
                          DCD      0x00000000
                          DCD      0x00000000
                          DCD      TEXT_CreateIndirect
                          DCD      ||.conststring||+0x2
000200  0b0c0190          DCW      0x0b0c,0x0190
000204  00c8003c          DCW      0x00c8,0x003c
000208  00140000          DCW      0x0014,0x0000
                          DCD      0x00000000
                          DCD      0x00000000
                          DCD      TEXT_CreateIndirect
                          DCD      ||.conststring||+0x2
00021c  0b0d012c          DCW      0x0b0d,0x012c
000220  00780064          DCW      0x0078,0x0064
000224  00140000          DCW      0x0014,0x0000
                          DCD      0x00000000
                          DCD      0x00000000
                          DCD      TEXT_CreateIndirect
                          DCD      ||.conststring||+0x2
000238  0b110190          DCW      0x0b11,0x0190
00023c  0096003c          DCW      0x0096,0x003c
000240  00140000          DCW      0x0014,0x0000
                          DCD      0x00000000
                          DCD      0x00000000
                          DCD      BUTTON_CreateIndirect
                          DCD      ||.conststring||+0x7
000254  08190053          DCW      0x0819,0x0053
000258  00e2004d          DCW      0x00e2,0x004d
00025c  002d0000          DCW      0x002d,0x0000
                          DCD      0x00000000
                          DCD      0x00000000
                          DCD      BUTTON_CreateIndirect
                          DCD      ||.conststring||+0x7
000270  081a00a3          DCW      0x081a,0x00a3
000274  00e2004d          DCW      0x00e2,0x004d
000278  002d0000          DCW      0x002d,0x0000
                          DCD      0x00000000
                          DCD      0x00000000
                          DCD      BUTTON_CreateIndirect
                          DCD      ||.conststring||+0x7
00028c  081b00f3          DCW      0x081b,0x00f3
000290  00e2004d          DCW      0x00e2,0x004d
000294  002d0000          DCW      0x002d,0x0000
                          DCD      0x00000000
                          DCD      0x00000000
                          DCD      BUTTON_CreateIndirect
                          DCD      ||.conststring||+0x7
0002a8  081c0143          DCW      0x081c,0x0143
0002ac  00e2004d          DCW      0x00e2,0x004d
0002b0  002d0000          DCW      0x002d,0x0000
                          DCD      0x00000000
                          DCD      0x00000000
                          DCD      BUTTON_CreateIndirect
                          DCD      ||.conststring||+0x7
0002c4  081d0193          DCW      0x081d,0x0193
0002c8  00e2004d          DCW      0x00e2,0x004d
0002cc  002d0000          DCW      0x002d,0x0000
                          DCD      0x00000000
                          DCD      0x00000000

                          AREA ||.conststring||, DATA, READONLY, MERGE=1, STRINGS, ALIGN=0

000000  5200              DCB      "R",0
000002  54657874          DCB      "Text",0
000006  00      
000007  42757474          DCB      "Button",0
00000b  6f6e00  

                          AREA ||.data||, DATA, ALIGN=2

                  bit
000000  01                DCB      0x01
                  dot_flag
000001  00                DCB      0x00
                  page_sw
000002  03                DCB      0x03
                  para_set2
000003  ff                DCB      0xff
                  para_set4
000004  00                DCB      0x00
                  r_stable
000005  00                DCB      0x00
                  oct_sw
000006  00                DCB      0x00
                  finish
000007  00                DCB      0x00
                  con_flag
000008  00                DCB      0x00
                  short_flag
000009  00                DCB      0x00
                  short_finish
00000a  00                DCB      0x00
                  test_finish
00000b  00                DCB      0x00
                  para_set1
00000c  00                DCB      0x00
                  lang
00000d  00                DCB      0x00
                  set_sw
00000e  0000              DCB      0x00,0x00
                  steptime
000010  0001              DCW      0x0001
                  stable_time
000012  0000              DCB      0x00,0x00
                  dis_gate_v
000014  0000              DCB      0x00,0x00
                  r
000016  0000              DCB      0x00,0x00
                  short_start
000018  0000              DCB      0x00,0x00
                  short_time
00001a  0000              DCB      0x00,0x00
                  gate_v
00001c  00000000          DCFS     0x00000000 ; 0
                  crec1
                          DCD      0x00000000
                  crec2
                          DCD      0x00000000
                  hWinR
                          DCD      0x00000000
                  oc_data
                          DCD      0x00000000
                  v
                          DCD      0x00000000
                  time1
                          DCD      0x00000000
                  test_ftime
                          DCD      0x00000000
                  set_limit
                          DCD      0x00000000
000040  00                DCB      0x00

                          AREA ||area_number.15||, DATA, ALIGN=0

                          EXPORTAS ||area_number.15||, ||.data||
                  test_num
000000  00                DCB      0x00

                          AREA ||area_number.16||, DATA, ALIGN=0

                          EXPORTAS ||area_number.16||, ||.data||
                  para_set3
000000  00                DCB      0x00

                          AREA ||area_number.17||, DATA, ALIGN=2

                          EXPORTAS ||area_number.17||, ||.data||
                  DISS_R
                          DCD      0x00000000

                          AREA ||area_number.18||, DATA, ALIGN=1

                          EXPORTAS ||area_number.18||, ||.data||
                  s_time
000000  0000              DCB      0x00,0x00

                          AREA ||area_number.19||, DATA, ALIGN=0

                          EXPORTAS ||area_number.19||, ||.data||
                  wait_flag
000000  00                DCB      0x00

;*** Start embedded assembler ***

#line 1 "..\\APP\\R_Face.c"
	AREA ||.rev16_text||, CODE, READONLY
	THUMB
	EXPORT |__asm___8_R_Face_c_bit____REV16|
#line 114 "D:\\Keil\\ARM\\CMSIS\\Include\\core_cmInstr.h"
|__asm___8_R_Face_c_bit____REV16| PROC
#line 115

 rev16 r0, r0
 bx lr
	ENDP
	AREA ||.revsh_text||, CODE, READONLY
	THUMB
	EXPORT |__asm___8_R_Face_c_bit____REVSH|
#line 128
|__asm___8_R_Face_c_bit____REVSH| PROC
#line 129

 revsh r0, r0
 bx lr
	ENDP

;*** End   embedded assembler ***
