; generated by ARM C/C++ Compiler, 4.1 [Build 894]
; commandline ArmCC [--list --split_sections --debug -c --asm --interleave -o..\Output\r_face.o --asm_dir=..\Listing\ --list_dir=..\Listing\ --depend=..\Output\r_face.d --cpu=Cortex-M4.fp --apcs=interwork -O1 --diag_suppress=870 -I..\APP -I..\drive -I..\Include -I..\Libraries\CMSIS\inc -I..\Libraries\CMSIS\src -I..\Libraries\FWlib\inc -I..\Libraries\FWlib\src -I..\Listing -I..\Output -I..\Project -I..\STemWinLibrary522\Config -I..\STemWinLibrary522\emWinTask -I..\STemWinLibrary522\GUILib -I..\STemWinLibrary522\inc -I..\User -I..\USB\STM32_USB_HOST_Library\Class\HID\inc -I..\USB\STM32_USB_HOST_Library\Class\MSC\src -I..\USB\STM32_USB_HOST_Library\Core\src -I..\USB\USB_APP -I..\USB\STM32_USB_HOST_Library\Class\HID\src -I..\USB\STM32_USB_HOST_Library\Class\MSC\inc -I..\USB\STM32_USB_HOST_Library\Core\inc -I..\USB\STM32_USB_OTG_Driver\inc -I..\FATFS\exfuns -I..\FATFS\src\option -I..\FATFS\src -I..\MALLOC -ID:\Keil\ARM\RV31\Inc -ID:\Keil\ARM\CMSIS\Include -ID:\Keil\ARM\Inc\ST\STM32F4xx -DUSE_STDPERIPH_DRIVER -DSTM32F40XX -DUSE_USB_OTG_FS -DUSE_EMBEDDED_PHY -DUSE_USB_OTG_HS -DSTM32F40XX --omf_browse=..\Output\r_face.crf ..\APP\R_Face.c]
                          THUMB

                          AREA ||i.CreateR||, CODE, READONLY, ALIGN=2

                  CreateR PROC
;;;1098   WM_HWIN CreateR(void);
;;;1099   WM_HWIN CreateR(void) {
000000  b57c              PUSH     {r2-r6,lr}
;;;1100     oc_sw = set_20;
000002  4c0d              LDR      r4,|L1.56|
000004  2013              MOVS     r0,#0x13
000006  7120              STRB     r0,[r4,#4]
;;;1101     page_sw = face_r;
000008  2003              MOVS     r0,#3
00000a  70a0              STRB     r0,[r4,#2]
;;;1102     track = face_r;
00000c  490b              LDR      r1,|L1.60|
00000e  7008              STRB     r0,[r1,#0]
;;;1103     con_flag = 0;
000010  2500              MOVS     r5,#0
000012  7165              STRB     r5,[r4,#5]
;;;1104     SET_Current_Laod = set_init_c;
000014  480a              LDR      r0,|L1.64|
000016  8d81              LDRH     r1,[r0,#0x2c]  ; Run_Control
000018  8101              STRH     r1,[r0,#8]
;;;1105     pass = 0;
00001a  480a              LDR      r0,|L1.68|
00001c  7005              STRB     r5,[r0,#0]
;;;1106     hWinR = GUI_CreateDialogBox(_aDialogCreate, GUI_COUNTOF(_aDialogCreate), _cbDialog, WM_HBKWIN, 0, 0);
00001e  f7fffffe          BL       WM_GetDesktopWindow
000022  4603              MOV      r3,r0
000024  9500              STR      r5,[sp,#0]
000026  4a08              LDR      r2,|L1.72|
000028  211a              MOVS     r1,#0x1a
00002a  4808              LDR      r0,|L1.76|
00002c  9501              STR      r5,[sp,#4]
00002e  f7fffffe          BL       GUI_CreateDialogBox
000032  61a0              STR      r0,[r4,#0x18]  ; hWinR
;;;1107     return hWinR;
;;;1108   }
000034  bd7c              POP      {r2-r6,pc}
;;;1109   
                          ENDP

000036  0000              DCW      0x0000
                  |L1.56|
                          DCD      ||.data||
                  |L1.60|
                          DCD      track
                  |L1.64|
                          DCD      Run_Control
                  |L1.68|
                          DCD      pass
                  |L1.72|
                          DCD      _cbDialog
                  |L1.76|
                          DCD      ||.constdata||

                          AREA ||i.INPUT_C||, CODE, READONLY, ALIGN=2

                  INPUT_C PROC
;;;1434   void INPUT_C(char* num);            
;;;1435   void INPUT_C(char* num){
000000  e92d4ff1          PUSH     {r0,r4-r11,lr}
000004  b082              SUB      sp,sp,#8
;;;1436       switch(oc_sw)
000006  4efc              LDR      r6,|L2.1016|
000008  7931              LDRB     r1,[r6,#4]  ; oc_sw
00000a  4630              MOV      r0,r6
;;;1437       {
;;;1438           case set_22:
;;;1439           {
;;;1440               WM_HWIN hItem;
;;;1441   //            WM_InvalidateWindow(hWinR);
;;;1442               hItem = WM_GetDialogItem(hWinR, ID_TEXT_46);
;;;1443               switch(bit){
;;;1444                   case 1:
;;;1445                   {
;;;1446                       set_init_c = atoi(num) * 100;
00000c  4cfb              LDR      r4,|L2.1020|
;;;1447                       strcat(set_limit,num);            
;;;1448                       TEXT_SetText(hItem,set_limit);
;;;1449                       
;;;1450                       bit = 2;
00000e  2702              MOVS     r7,#2
;;;1451                       break;
;;;1452                   }
;;;1453                   case 2:
;;;1454                   {
;;;1455                       strcat(set_limit,num);            
;;;1456                       TEXT_SetText(hItem,set_limit);
;;;1457                       if(set_limit[1] == 0x2e)//判断输入是否为小数点
;;;1458                       {
;;;1459                           dot_flag = 1;
;;;1460                       }else{
;;;1461                           set_init_c = set_init_c * 10 + atoi(num) * 100;
;;;1462                       }
;;;1463                       bit = 3;
;;;1464                       break;
;;;1465                   }
;;;1466                   case 3:
;;;1467                   {
;;;1468                       strcat(set_limit,num);
;;;1469                       TEXT_SetText(hItem,set_limit);
;;;1470                       if(dot_flag == 0)
;;;1471                       {
;;;1472                           if(set_limit[2] == 0x2e)//判断输入是否为小数点
;;;1473                           {                            
;;;1474                               dot_flag = 2;
;;;1475                           }else{
;;;1476                               set_init_c = 0;
000010  2500              MOVS     r5,#0
000012  6980              LDR      r0,[r0,#0x18]         ;1442
000014  f1060924          ADD      r9,r6,#0x24           ;1447
000018  f04f0801          MOV      r8,#1                 ;1459
00001c  f04f0a03          MOV      r10,#3                ;1463
;;;1477                           }
;;;1478                       }else{
;;;1479                           set_init_c = set_init_c + atoi(num) * 10;
;;;1480                       }                  
;;;1481                       bit = 4;
000020  f04f0b04          MOV      r11,#4
000024  2915              CMP      r1,#0x15              ;1436
000026  d029              BEQ      |L2.124|
000028  2916              CMP      r1,#0x16              ;1436
00002a  d07c              BEQ      |L2.294|
00002c  2940              CMP      r1,#0x40              ;1436
00002e  d07b              BEQ      |L2.296|
000030  2943              CMP      r1,#0x43              ;1436
000032  d121              BNE      |L2.120|
;;;1482                       break;
;;;1483                   }
;;;1484                   case 4:
;;;1485                   {
;;;1486                       strcat(set_limit,num);
;;;1487                       TEXT_SetText(hItem,set_limit);
;;;1488                       if(dot_flag == 0)
;;;1489                       {
;;;1490                           SET_Current_Laod = 0;
;;;1491                       }else if(dot_flag == 2){
;;;1492                           set_init_c = set_init_c + atoi(num) * 10;
;;;1493                       }else{
;;;1494                           set_init_c = set_init_c + atoi(num);
;;;1495                       }                  
;;;1496                       bit = 5;
;;;1497                       break;
;;;1498                   }
;;;1499                   case 5:
;;;1500                   {
;;;1501                       strcat(set_limit,num);
;;;1502                       TEXT_SetText(hItem,set_limit);
;;;1503                       if(dot_flag == 0)
;;;1504                       {
;;;1505                           set_init_c = 0;
;;;1506                       }else if(dot_flag == 1){
;;;1507                           set_init_c = set_init_c;
;;;1508                       }else{
;;;1509                           set_init_c = set_init_c + atoi(num);
;;;1510                       }                 
;;;1511                       bit = 1;
;;;1512                       break;
;;;1513                   }
;;;1514               }
;;;1515               break;        
;;;1516           }
;;;1517           case set_23:
;;;1518           {
;;;1519               WM_HWIN hItem;
;;;1520   //            WM_InvalidateWindow(hWinR);
;;;1521               hItem = WM_GetDialogItem(hWinR, ID_TEXT_47);
;;;1522               switch(bit){
;;;1523                   case 1:
;;;1524                   {
;;;1525                       set_sbs_c = atoi(num) * 100;
;;;1526                       strcat(set_limit,num);            
;;;1527                       TEXT_SetText(hItem,set_limit);
;;;1528                       
;;;1529                       bit = 2;
;;;1530                       break;
;;;1531                   }
;;;1532                   case 2:
;;;1533                   {
;;;1534                       strcat(set_limit,num);            
;;;1535                       TEXT_SetText(hItem,set_limit);
;;;1536                       if(set_limit[1] == 0x2e)//判断输入是否为小数点
;;;1537                       {
;;;1538                           dot_flag = 1;
;;;1539                       }else{
;;;1540                           set_sbs_c = set_sbs_c * 10 + atoi(num) * 100;
;;;1541                       }
;;;1542                       bit = 3;
;;;1543                       break;
;;;1544                   }
;;;1545                   case 3:
;;;1546                   {
;;;1547                       strcat(set_limit,num);
;;;1548                       TEXT_SetText(hItem,set_limit);
;;;1549                       if(dot_flag == 0)
;;;1550                       {
;;;1551                           if(set_limit[2] == 0x2e)//判断输入是否为小数点
;;;1552                           {                            
;;;1553                               dot_flag = 2;
;;;1554                           }else{
;;;1555                               set_sbs_c = 0;
;;;1556                           }
;;;1557                       }else{
;;;1558                           set_sbs_c = set_sbs_c + atoi(num) * 10;
;;;1559                       }                  
;;;1560                       bit = 4;
;;;1561                       break;
;;;1562                   }
;;;1563                   case 4:
;;;1564                   {
;;;1565                       strcat(set_limit,num);
;;;1566                       TEXT_SetText(hItem,set_limit);
;;;1567                       if(dot_flag == 0)
;;;1568                       {
;;;1569                           set_sbs_c = 0;
;;;1570                       }else if(dot_flag == 2){
;;;1571                           set_sbs_c = set_sbs_c + atoi(num) * 10;
;;;1572                       }else{
;;;1573                           set_sbs_c = set_sbs_c + atoi(num);
;;;1574                       }                  
;;;1575                       bit = 5;
;;;1576                       break;
;;;1577                   }
;;;1578                   case 5:
;;;1579                   {
;;;1580                       strcat(set_limit,num);
;;;1581                       TEXT_SetText(hItem,set_limit);
;;;1582                       if(dot_flag == 0)
;;;1583                       {
;;;1584                           set_sbs_c = 0;
;;;1585                       }else if(dot_flag == 1){
;;;1586                           set_sbs_c = set_sbs_c;
;;;1587                       }else{
;;;1588                           set_sbs_c = set_sbs_c + atoi(num);
;;;1589                       }                 
;;;1590                       bit = 1;
;;;1591                       break;
;;;1592                   }
;;;1593               }
;;;1594               break;        
;;;1595           }
;;;1596           case set_65:
;;;1597           {
;;;1598               WM_HWIN hItem;
;;;1599   //            WM_InvalidateWindow(hWinR);
;;;1600               hItem = WM_GetDialogItem(hWinR, ID_TEXT_97);
;;;1601               switch(bit){
;;;1602                   case 1:
;;;1603                   {
;;;1604                       dis_gate_v = atoi(num) * 100;
;;;1605                       strcat(set_limit,num);            
;;;1606                       TEXT_SetText(hItem,set_limit);
;;;1607                       
;;;1608                       bit = 2;
;;;1609                       break;
;;;1610                   }
;;;1611                   case 2:
;;;1612                   {
;;;1613                       strcat(set_limit,num);            
;;;1614                       TEXT_SetText(hItem,set_limit);
;;;1615                       if(set_limit[1] == 0x2e)//判断输入是否为小数点
;;;1616                       {
;;;1617                           dot_flag = 1;
;;;1618                       }else{
;;;1619                           dis_gate_v = dis_gate_v * 10 + atoi(num) * 100;
;;;1620                       }
;;;1621                       bit = 3;
;;;1622                       break;
;;;1623                   }
;;;1624                   case 3:
;;;1625                   {
;;;1626                       strcat(set_limit,num);
;;;1627                       TEXT_SetText(hItem,set_limit);
;;;1628                       if(dot_flag == 0)
;;;1629                       {
;;;1630                           if(set_limit[2] == 0x2e)//判断输入是否为小数点
;;;1631                           {                            
;;;1632                               dot_flag = 2;
;;;1633                           }else{
;;;1634                               dis_gate_v = 0;
;;;1635                           }
;;;1636                       }else{
;;;1637                           dis_gate_v = dis_gate_v + atoi(num) * 10;
;;;1638                       }                  
;;;1639                       bit = 4;
;;;1640                       break;
;;;1641                   }
;;;1642                   case 4:
;;;1643                   {
;;;1644                       strcat(set_limit,num);
;;;1645                       TEXT_SetText(hItem,set_limit);
;;;1646                       if(dot_flag == 0)
;;;1647                       {
;;;1648                           dis_gate_v = 0;
;;;1649                       }else if(dot_flag == 2){
;;;1650                           dis_gate_v = dis_gate_v + atoi(num) * 10;
;;;1651                       }else{
;;;1652                           dis_gate_v = dis_gate_v + atoi(num);
;;;1653                       }                  
;;;1654                       bit = 5;
;;;1655                       break;
;;;1656                   }
;;;1657                   case 5:
;;;1658                   {
;;;1659                       strcat(set_limit,num);
;;;1660                       TEXT_SetText(hItem,set_limit);
;;;1661                       if(dot_flag == 0)
;;;1662                       {
;;;1663                           dis_gate_v = 0;
;;;1664                       }else if(dot_flag == 1){
;;;1665                           dis_gate_v = dis_gate_v;
;;;1666                       }else{
;;;1667                           dis_gate_v = dis_gate_v + atoi(num);
;;;1668                       }                 
;;;1669                       bit = 1;
;;;1670                       break;
;;;1671                   }
;;;1672               }
;;;1673               break;        
;;;1674           }
;;;1675           case set_68:
;;;1676           {
;;;1677               WM_HWIN hItem;
;;;1678   //            WM_InvalidateWindow(hWinset);
;;;1679               hItem = WM_GetDialogItem(hWinR, ID_TEXT_122);
000034  f6403111          MOV      r1,#0xb11
000038  f7fffffe          BL       WM_GetDialogItem
00003c  4604              MOV      r4,r0
;;;1680               switch(bit){
00003e  7830              LDRB     r0,[r6,#0]  ; bit
000040  2801              CMP      r0,#1
000042  d072              BEQ      |L2.298|
000044  2802              CMP      r0,#2
000046  d071              BEQ      |L2.300|
000048  2803              CMP      r0,#3
00004a  d070              BEQ      |L2.302|
00004c  2804              CMP      r0,#4
00004e  d113              BNE      |L2.120|
;;;1681                   case 1:
;;;1682                   {
;;;1683                       steptime = atoi(num);
;;;1684                       strcat(set_limit,num);            
;;;1685                       TEXT_SetText(hItem,set_limit);
;;;1686                       bit = 2;
;;;1687                       break; 
;;;1688                   }
;;;1689                   case 2:
;;;1690                   {
;;;1691                       steptime = steptime * 10 + atoi(num);
;;;1692                       strcat(set_limit,num);            
;;;1693                       TEXT_SetText(hItem,set_limit);
;;;1694                       bit = 3;
;;;1695                       break; 
;;;1696                   }
;;;1697                   case 3:
;;;1698                   {
;;;1699                       steptime = steptime * 10 + atoi(num);
;;;1700                       strcat(set_limit,num);            
;;;1701                       TEXT_SetText(hItem,set_limit);
;;;1702                       bit = 4;
;;;1703                       break; 
;;;1704                   }
;;;1705                   case 4:
;;;1706                   {
;;;1707                       steptime = steptime * 10 + atoi(num);
000050  9802              LDR      r0,[sp,#8]
000052  f7fffffe          BL       atoi
000056  4601              MOV      r1,r0
000058  8970              LDRH     r0,[r6,#0xa]  ; steptime
00005a  eb000080          ADD      r0,r0,r0,LSL #2
00005e  eb010040          ADD      r0,r1,r0,LSL #1
000062  8170              STRH     r0,[r6,#0xa]
;;;1708                       strcat(set_limit,num);            
000064  4648              MOV      r0,r9
000066  9902              LDR      r1,[sp,#8]
000068  f7fffffe          BL       strcat
;;;1709                       TEXT_SetText(hItem,set_limit);
00006c  4649              MOV      r1,r9
00006e  4620              MOV      r0,r4
000070  f7fffffe          BL       TEXT_SetText
;;;1710                       bit = 1;
000074  f8868000          STRB     r8,[r6,#0]
                  |L2.120|
;;;1711                       break; 
;;;1712                   }
;;;1713               }
;;;1714               break;           
;;;1715           }
;;;1716           
;;;1717       }
;;;1718   }
000078  e8bd8ffe          POP      {r1-r11,pc}
                  |L2.124|
00007c  f640016b          MOV      r1,#0x86b             ;1442
000080  f7fffffe          BL       WM_GetDialogItem
000084  9001              STR      r0,[sp,#4]            ;1442
000086  7830              LDRB     r0,[r6,#0]            ;1443  ; bit
000088  2806              CMP      r0,#6                 ;1443
00008a  d2f5              BCS      |L2.120|
00008c  e8dff000          TBB      [pc,r0]               ;1443
000090  03041635          DCB      0x03,0x04,0x16,0x35
000094  5b7f              DCB      0x5b,0x7f
000096  e7ef              B        |L2.120|
000098  9802              LDR      r0,[sp,#8]            ;1446
00009a  f7fffffe          BL       atoi
00009e  2164              MOVS     r1,#0x64              ;1446
0000a0  4348              MULS     r0,r1,r0              ;1446
0000a2  85a0              STRH     r0,[r4,#0x2c]         ;1446
0000a4  48d4              LDR      r0,|L2.1016|
0000a6  9902              LDR      r1,[sp,#8]            ;1447
0000a8  3024              ADDS     r0,r0,#0x24           ;1447
0000aa  f7fffffe          BL       strcat
0000ae  49d2              LDR      r1,|L2.1016|
0000b0  9801              LDR      r0,[sp,#4]            ;1448
0000b2  3124              ADDS     r1,r1,#0x24           ;1448
0000b4  f7fffffe          BL       TEXT_SetText
0000b8  7037              STRB     r7,[r6,#0]            ;1450
0000ba  e7dd              B        |L2.120|
0000bc  48ce              LDR      r0,|L2.1016|
0000be  9902              LDR      r1,[sp,#8]            ;1455
0000c0  3024              ADDS     r0,r0,#0x24           ;1455
0000c2  f7fffffe          BL       strcat
0000c6  49cc              LDR      r1,|L2.1016|
0000c8  9801              LDR      r0,[sp,#4]            ;1456
0000ca  3124              ADDS     r1,r1,#0x24           ;1456
0000cc  f7fffffe          BL       TEXT_SetText
0000d0  f8990001          LDRB     r0,[r9,#1]            ;1457  ; set_limit
0000d4  282e              CMP      r0,#0x2e              ;1457
0000d6  d00d              BEQ      |L2.244|
0000d8  9802              LDR      r0,[sp,#8]            ;1461
0000da  f7fffffe          BL       atoi
0000de  2164              MOVS     r1,#0x64              ;1461
0000e0  4348              MULS     r0,r1,r0              ;1461
0000e2  8da1              LDRH     r1,[r4,#0x2c]         ;1461  ; Run_Control
0000e4  eb010181          ADD      r1,r1,r1,LSL #2       ;1461
0000e8  eb000041          ADD      r0,r0,r1,LSL #1       ;1461
0000ec  85a0              STRH     r0,[r4,#0x2c]         ;1461
                  |L2.238|
0000ee  f886a000          STRB     r10,[r6,#0]           ;1463
                  |L2.242|
0000f2  e7c1              B        |L2.120|
                  |L2.244|
0000f4  f8868001          STRB     r8,[r6,#1]            ;1459
0000f8  e7f9              B        |L2.238|
0000fa  48bf              LDR      r0,|L2.1016|
0000fc  9902              LDR      r1,[sp,#8]            ;1468
0000fe  3024              ADDS     r0,r0,#0x24           ;1468
000100  f7fffffe          BL       strcat
000104  49bc              LDR      r1,|L2.1016|
000106  9801              LDR      r0,[sp,#4]            ;1469
000108  3124              ADDS     r1,r1,#0x24           ;1469
00010a  f7fffffe          BL       TEXT_SetText
00010e  7870              LDRB     r0,[r6,#1]            ;1470  ; dot_flag
000110  b188              CBZ      r0,|L2.310|
000112  9802              LDR      r0,[sp,#8]            ;1479
000114  f7fffffe          BL       atoi
000118  8da1              LDRH     r1,[r4,#0x2c]         ;1479  ; Run_Control
00011a  eb000080          ADD      r0,r0,r0,LSL #2       ;1479
00011e  eb010040          ADD      r0,r1,r0,LSL #1       ;1479
000122  85a0              STRH     r0,[r4,#0x2c]         ;1479
                  |L2.292|
000124  e004              B        |L2.304|
                  |L2.294|
000126  e04f              B        |L2.456|
                  |L2.296|
000128  e0ee              B        |L2.776|
                  |L2.298|
00012a  e190              B        |L2.1102|
                  |L2.300|
00012c  e19d              B        |L2.1130|
                  |L2.302|
00012e  e1b1              B        |L2.1172|
                  |L2.304|
000130  f886b000          STRB     r11,[r6,#0]           ;1481
000134  e7a0              B        |L2.120|
                  |L2.310|
000136  f8990002          LDRB     r0,[r9,#2]            ;1472  ; set_limit
00013a  282e              CMP      r0,#0x2e              ;1472
00013c  d001              BEQ      |L2.322|
00013e  85a5              STRH     r5,[r4,#0x2c]         ;1476
000140  e7f0              B        |L2.292|
                  |L2.322|
000142  7077              STRB     r7,[r6,#1]            ;1474
000144  e7ee              B        |L2.292|
000146  48ac              LDR      r0,|L2.1016|
000148  9902              LDR      r1,[sp,#8]            ;1486
00014a  3024              ADDS     r0,r0,#0x24           ;1486
00014c  f7fffffe          BL       strcat
000150  49a9              LDR      r1,|L2.1016|
000152  9801              LDR      r0,[sp,#4]            ;1487
000154  3124              ADDS     r1,r1,#0x24           ;1487
000156  f7fffffe          BL       TEXT_SetText
00015a  7870              LDRB     r0,[r6,#1]            ;1488  ; dot_flag
00015c  b158              CBZ      r0,|L2.374|
00015e  7870              LDRB     r0,[r6,#1]            ;1491  ; dot_flag
000160  2802              CMP      r0,#2                 ;1491
000162  d00a              BEQ      |L2.378|
000164  9802              LDR      r0,[sp,#8]            ;1494
000166  f7fffffe          BL       atoi
00016a  8da1              LDRH     r1,[r4,#0x2c]         ;1494  ; Run_Control
00016c  4408              ADD      r0,r0,r1              ;1494
00016e  85a0              STRH     r0,[r4,#0x2c]         ;1494
                  |L2.368|
000170  2005              MOVS     r0,#5                 ;1496
000172  7030              STRB     r0,[r6,#0]            ;1496
000174  e780              B        |L2.120|
                  |L2.374|
000176  8125              STRH     r5,[r4,#8]            ;1490
000178  e7fa              B        |L2.368|
                  |L2.378|
00017a  9802              LDR      r0,[sp,#8]            ;1492
00017c  f7fffffe          BL       atoi
000180  eb000180          ADD      r1,r0,r0,LSL #2       ;1492
000184  8da0              LDRH     r0,[r4,#0x2c]         ;1492  ; Run_Control
000186  eb000041          ADD      r0,r0,r1,LSL #1       ;1492
00018a  85a0              STRH     r0,[r4,#0x2c]         ;1492
00018c  e7f0              B        |L2.368|
00018e  489a              LDR      r0,|L2.1016|
000190  9902              LDR      r1,[sp,#8]            ;1501
000192  3024              ADDS     r0,r0,#0x24           ;1501
000194  f7fffffe          BL       strcat
000198  4997              LDR      r1,|L2.1016|
00019a  9801              LDR      r0,[sp,#4]            ;1502
00019c  3124              ADDS     r1,r1,#0x24           ;1502
00019e  f7fffffe          BL       TEXT_SetText
0001a2  7870              LDRB     r0,[r6,#1]            ;1503  ; dot_flag
0001a4  b158              CBZ      r0,|L2.446|
0001a6  7870              LDRB     r0,[r6,#1]            ;1506  ; dot_flag
0001a8  2801              CMP      r0,#1                 ;1506
0001aa  d00a              BEQ      |L2.450|
0001ac  9802              LDR      r0,[sp,#8]            ;1509
0001ae  f7fffffe          BL       atoi
0001b2  8da1              LDRH     r1,[r4,#0x2c]         ;1509  ; Run_Control
0001b4  4408              ADD      r0,r0,r1              ;1509
0001b6  85a0              STRH     r0,[r4,#0x2c]         ;1509
                  |L2.440|
0001b8  f8868000          STRB     r8,[r6,#0]            ;1511
0001bc  e75c              B        |L2.120|
                  |L2.446|
0001be  85a5              STRH     r5,[r4,#0x2c]         ;1505
0001c0  e7fa              B        |L2.440|
                  |L2.450|
0001c2  8da0              LDRH     r0,[r4,#0x2c]         ;1507  ; Run_Control
0001c4  85a0              STRH     r0,[r4,#0x2c]         ;1507
0001c6  e7f7              B        |L2.440|
                  |L2.456|
0001c8  f640016c          MOV      r1,#0x86c             ;1521
0001cc  f7fffffe          BL       WM_GetDialogItem
0001d0  9001              STR      r0,[sp,#4]            ;1521
0001d2  7830              LDRB     r0,[r6,#0]            ;1522  ; bit
0001d4  2806              CMP      r0,#6                 ;1522
0001d6  d28c              BCS      |L2.242|
0001d8  e8dff000          TBB      [pc,r0]               ;1522
0001dc  03041635          DCB      0x03,0x04,0x16,0x35
0001e0  5579              DCB      0x55,0x79
0001e2  e749              B        |L2.120|
0001e4  9802              LDR      r0,[sp,#8]            ;1525
0001e6  f7fffffe          BL       atoi
0001ea  2164              MOVS     r1,#0x64              ;1525
0001ec  4348              MULS     r0,r1,r0              ;1525
0001ee  85e0              STRH     r0,[r4,#0x2e]         ;1525
0001f0  4881              LDR      r0,|L2.1016|
0001f2  9902              LDR      r1,[sp,#8]            ;1526
0001f4  3024              ADDS     r0,r0,#0x24           ;1526
0001f6  f7fffffe          BL       strcat
0001fa  497f              LDR      r1,|L2.1016|
0001fc  9801              LDR      r0,[sp,#4]            ;1527
0001fe  3124              ADDS     r1,r1,#0x24           ;1527
000200  f7fffffe          BL       TEXT_SetText
000204  7037              STRB     r7,[r6,#0]            ;1529
000206  e737              B        |L2.120|
000208  487b              LDR      r0,|L2.1016|
00020a  9902              LDR      r1,[sp,#8]            ;1534
00020c  3024              ADDS     r0,r0,#0x24           ;1534
00020e  f7fffffe          BL       strcat
000212  4979              LDR      r1,|L2.1016|
000214  9801              LDR      r0,[sp,#4]            ;1535
000216  3124              ADDS     r1,r1,#0x24           ;1535
000218  f7fffffe          BL       TEXT_SetText
00021c  f8990001          LDRB     r0,[r9,#1]            ;1536  ; set_limit
000220  282e              CMP      r0,#0x2e              ;1536
000222  d00d              BEQ      |L2.576|
000224  9802              LDR      r0,[sp,#8]            ;1540
000226  f7fffffe          BL       atoi
00022a  2164              MOVS     r1,#0x64              ;1540
00022c  4348              MULS     r0,r1,r0              ;1540
00022e  8de1              LDRH     r1,[r4,#0x2e]         ;1540  ; Run_Control
000230  eb010181          ADD      r1,r1,r1,LSL #2       ;1540
000234  eb000041          ADD      r0,r0,r1,LSL #1       ;1540
000238  85e0              STRH     r0,[r4,#0x2e]         ;1540
                  |L2.570|
00023a  f886a000          STRB     r10,[r6,#0]           ;1542
                  |L2.574|
00023e  e71b              B        |L2.120|
                  |L2.576|
000240  f8868001          STRB     r8,[r6,#1]            ;1538
000244  e7f9              B        |L2.570|
000246  486c              LDR      r0,|L2.1016|
000248  9902              LDR      r1,[sp,#8]            ;1547
00024a  3024              ADDS     r0,r0,#0x24           ;1547
00024c  f7fffffe          BL       strcat
000250  4969              LDR      r1,|L2.1016|
000252  9801              LDR      r0,[sp,#4]            ;1548
000254  3124              ADDS     r1,r1,#0x24           ;1548
000256  f7fffffe          BL       TEXT_SetText
00025a  7870              LDRB     r0,[r6,#1]            ;1549  ; dot_flag
00025c  b158              CBZ      r0,|L2.630|
00025e  9802              LDR      r0,[sp,#8]            ;1558
000260  f7fffffe          BL       atoi
000264  8de1              LDRH     r1,[r4,#0x2e]         ;1558  ; Run_Control
000266  eb000080          ADD      r0,r0,r0,LSL #2       ;1558
00026a  eb010040          ADD      r0,r1,r0,LSL #1       ;1558
00026e  85e0              STRH     r0,[r4,#0x2e]         ;1558
                  |L2.624|
000270  f886b000          STRB     r11,[r6,#0]           ;1560
000274  e700              B        |L2.120|
                  |L2.630|
000276  f8990002          LDRB     r0,[r9,#2]            ;1551  ; set_limit
00027a  282e              CMP      r0,#0x2e              ;1551
00027c  d001              BEQ      |L2.642|
00027e  85e5              STRH     r5,[r4,#0x2e]         ;1555
000280  e7f6              B        |L2.624|
                  |L2.642|
000282  7077              STRB     r7,[r6,#1]            ;1553
000284  e7f4              B        |L2.624|
000286  485c              LDR      r0,|L2.1016|
000288  9902              LDR      r1,[sp,#8]            ;1565
00028a  3024              ADDS     r0,r0,#0x24           ;1565
00028c  f7fffffe          BL       strcat
000290  4959              LDR      r1,|L2.1016|
000292  9801              LDR      r0,[sp,#4]            ;1566
000294  3124              ADDS     r1,r1,#0x24           ;1566
000296  f7fffffe          BL       TEXT_SetText
00029a  7870              LDRB     r0,[r6,#1]            ;1567  ; dot_flag
00029c  b158              CBZ      r0,|L2.694|
00029e  7870              LDRB     r0,[r6,#1]            ;1570  ; dot_flag
0002a0  2802              CMP      r0,#2                 ;1570
0002a2  d00a              BEQ      |L2.698|
0002a4  9802              LDR      r0,[sp,#8]            ;1573
0002a6  f7fffffe          BL       atoi
0002aa  8de1              LDRH     r1,[r4,#0x2e]         ;1573  ; Run_Control
0002ac  4408              ADD      r0,r0,r1              ;1573
0002ae  85e0              STRH     r0,[r4,#0x2e]         ;1573
                  |L2.688|
0002b0  2005              MOVS     r0,#5                 ;1575
0002b2  7030              STRB     r0,[r6,#0]            ;1575
0002b4  e6e0              B        |L2.120|
                  |L2.694|
0002b6  85e5              STRH     r5,[r4,#0x2e]         ;1569
0002b8  e7fa              B        |L2.688|
                  |L2.698|
0002ba  9802              LDR      r0,[sp,#8]            ;1571
0002bc  f7fffffe          BL       atoi
0002c0  8de1              LDRH     r1,[r4,#0x2e]         ;1571  ; Run_Control
0002c2  eb000080          ADD      r0,r0,r0,LSL #2       ;1571
0002c6  eb010040          ADD      r0,r1,r0,LSL #1       ;1571
0002ca  85e0              STRH     r0,[r4,#0x2e]         ;1571
0002cc  e7f0              B        |L2.688|
0002ce  484a              LDR      r0,|L2.1016|
0002d0  9902              LDR      r1,[sp,#8]            ;1580
0002d2  3024              ADDS     r0,r0,#0x24           ;1580
0002d4  f7fffffe          BL       strcat
0002d8  4947              LDR      r1,|L2.1016|
0002da  9801              LDR      r0,[sp,#4]            ;1581
0002dc  3124              ADDS     r1,r1,#0x24           ;1581
0002de  f7fffffe          BL       TEXT_SetText
0002e2  7870              LDRB     r0,[r6,#1]            ;1582  ; dot_flag
0002e4  b158              CBZ      r0,|L2.766|
0002e6  7870              LDRB     r0,[r6,#1]            ;1585  ; dot_flag
0002e8  2801              CMP      r0,#1                 ;1585
0002ea  d00a              BEQ      |L2.770|
0002ec  9802              LDR      r0,[sp,#8]            ;1588
0002ee  f7fffffe          BL       atoi
0002f2  8de1              LDRH     r1,[r4,#0x2e]         ;1588  ; Run_Control
0002f4  4408              ADD      r0,r0,r1              ;1588
0002f6  85e0              STRH     r0,[r4,#0x2e]         ;1588
                  |L2.760|
0002f8  f8868000          STRB     r8,[r6,#0]            ;1590
0002fc  e6bc              B        |L2.120|
                  |L2.766|
0002fe  85e5              STRH     r5,[r4,#0x2e]         ;1584
000300  e7fa              B        |L2.760|
                  |L2.770|
000302  8de0              LDRH     r0,[r4,#0x2e]         ;1586  ; Run_Control
000304  85e0              STRH     r0,[r4,#0x2e]         ;1586
000306  e7f7              B        |L2.760|
                  |L2.776|
000308  f6401105          MOV      r1,#0x905             ;1600
00030c  f7fffffe          BL       WM_GetDialogItem
000310  4604              MOV      r4,r0                 ;1600
000312  7830              LDRB     r0,[r6,#0]            ;1601  ; bit
000314  2806              CMP      r0,#6                 ;1601
000316  d292              BCS      |L2.574|
000318  e8dff000          TBB      [pc,r0]               ;1601
00031c  03041635          DCB      0x03,0x04,0x16,0x35
000320  557e              DCB      0x55,0x7e
000322  e6a9              B        |L2.120|
000324  9802              LDR      r0,[sp,#8]            ;1604
000326  f7fffffe          BL       atoi
00032a  2164              MOVS     r1,#0x64              ;1604
00032c  4348              MULS     r0,r1,r0              ;1604
00032e  81b0              STRH     r0,[r6,#0xc]          ;1604
000330  4831              LDR      r0,|L2.1016|
000332  9902              LDR      r1,[sp,#8]            ;1605
000334  3024              ADDS     r0,r0,#0x24           ;1605
000336  f7fffffe          BL       strcat
00033a  492f              LDR      r1,|L2.1016|
00033c  4620              MOV      r0,r4                 ;1606
00033e  3124              ADDS     r1,r1,#0x24           ;1606
000340  f7fffffe          BL       TEXT_SetText
000344  7037              STRB     r7,[r6,#0]            ;1608
000346  e697              B        |L2.120|
000348  482b              LDR      r0,|L2.1016|
00034a  9902              LDR      r1,[sp,#8]            ;1613
00034c  3024              ADDS     r0,r0,#0x24           ;1613
00034e  f7fffffe          BL       strcat
000352  4929              LDR      r1,|L2.1016|
000354  4620              MOV      r0,r4                 ;1614
000356  3124              ADDS     r1,r1,#0x24           ;1614
000358  f7fffffe          BL       TEXT_SetText
00035c  f8990001          LDRB     r0,[r9,#1]            ;1615  ; set_limit
000360  282e              CMP      r0,#0x2e              ;1615
000362  d00d              BEQ      |L2.896|
000364  9802              LDR      r0,[sp,#8]            ;1619
000366  f7fffffe          BL       atoi
00036a  2164              MOVS     r1,#0x64              ;1619
00036c  4348              MULS     r0,r1,r0              ;1619
00036e  89b1              LDRH     r1,[r6,#0xc]          ;1619  ; dis_gate_v
000370  eb010181          ADD      r1,r1,r1,LSL #2       ;1619
000374  eb000041          ADD      r0,r0,r1,LSL #1       ;1619
000378  81b0              STRH     r0,[r6,#0xc]          ;1619
                  |L2.890|
00037a  f886a000          STRB     r10,[r6,#0]           ;1621
00037e  e67b              B        |L2.120|
                  |L2.896|
000380  f8868001          STRB     r8,[r6,#1]            ;1617
000384  e7f9              B        |L2.890|
000386  481c              LDR      r0,|L2.1016|
000388  9902              LDR      r1,[sp,#8]            ;1626
00038a  3024              ADDS     r0,r0,#0x24           ;1626
00038c  f7fffffe          BL       strcat
000390  4919              LDR      r1,|L2.1016|
000392  4620              MOV      r0,r4                 ;1627
000394  3124              ADDS     r1,r1,#0x24           ;1627
000396  f7fffffe          BL       TEXT_SetText
00039a  7870              LDRB     r0,[r6,#1]            ;1628  ; dot_flag
00039c  b158              CBZ      r0,|L2.950|
00039e  9802              LDR      r0,[sp,#8]            ;1637
0003a0  f7fffffe          BL       atoi
0003a4  89b1              LDRH     r1,[r6,#0xc]          ;1637  ; dis_gate_v
0003a6  eb000080          ADD      r0,r0,r0,LSL #2       ;1637
0003aa  eb010040          ADD      r0,r1,r0,LSL #1       ;1637
0003ae  81b0              STRH     r0,[r6,#0xc]          ;1637
                  |L2.944|
0003b0  f886b000          STRB     r11,[r6,#0]           ;1639
0003b4  e660              B        |L2.120|
                  |L2.950|
0003b6  f8990002          LDRB     r0,[r9,#2]            ;1630  ; set_limit
0003ba  282e              CMP      r0,#0x2e              ;1630
0003bc  d001              BEQ      |L2.962|
0003be  81b5              STRH     r5,[r6,#0xc]          ;1634
0003c0  e7f6              B        |L2.944|
                  |L2.962|
0003c2  7077              STRB     r7,[r6,#1]            ;1632
0003c4  e7f4              B        |L2.944|
0003c6  480c              LDR      r0,|L2.1016|
0003c8  9902              LDR      r1,[sp,#8]            ;1644
0003ca  3024              ADDS     r0,r0,#0x24           ;1644
0003cc  f7fffffe          BL       strcat
0003d0  4909              LDR      r1,|L2.1016|
0003d2  4620              MOV      r0,r4                 ;1645
0003d4  3124              ADDS     r1,r1,#0x24           ;1645
0003d6  f7fffffe          BL       TEXT_SetText
0003da  7870              LDRB     r0,[r6,#1]            ;1646  ; dot_flag
0003dc  b180              CBZ      r0,|L2.1024|
0003de  7870              LDRB     r0,[r6,#1]            ;1649  ; dot_flag
0003e0  2802              CMP      r0,#2                 ;1649
0003e2  d00f              BEQ      |L2.1028|
0003e4  9802              LDR      r0,[sp,#8]            ;1652
0003e6  f7fffffe          BL       atoi
0003ea  89b1              LDRH     r1,[r6,#0xc]          ;1652  ; dis_gate_v
0003ec  4408              ADD      r0,r0,r1              ;1652
0003ee  81b0              STRH     r0,[r6,#0xc]          ;1652
                  |L2.1008|
0003f0  2005              MOVS     r0,#5                 ;1654
0003f2  7030              STRB     r0,[r6,#0]            ;1654
0003f4  e640              B        |L2.120|
0003f6  0000              DCW      0x0000
                  |L2.1016|
                          DCD      ||.data||
                  |L2.1020|
                          DCD      Run_Control
                  |L2.1024|
000400  81b5              STRH     r5,[r6,#0xc]          ;1648
000402  e7f5              B        |L2.1008|
                  |L2.1028|
000404  9802              LDR      r0,[sp,#8]            ;1650
000406  f7fffffe          BL       atoi
00040a  89b1              LDRH     r1,[r6,#0xc]          ;1650  ; dis_gate_v
00040c  eb000080          ADD      r0,r0,r0,LSL #2       ;1650
000410  eb010040          ADD      r0,r1,r0,LSL #1       ;1650
000414  81b0              STRH     r0,[r6,#0xc]          ;1650
000416  e7eb              B        |L2.1008|
000418  4829              LDR      r0,|L2.1216|
00041a  9902              LDR      r1,[sp,#8]            ;1659
00041c  f7fffffe          BL       strcat
000420  4927              LDR      r1,|L2.1216|
000422  4620              MOV      r0,r4                 ;1660
000424  f7fffffe          BL       TEXT_SetText
000428  7870              LDRB     r0,[r6,#1]            ;1661  ; dot_flag
00042a  b158              CBZ      r0,|L2.1092|
00042c  7870              LDRB     r0,[r6,#1]            ;1664  ; dot_flag
00042e  2801              CMP      r0,#1                 ;1664
000430  d00a              BEQ      |L2.1096|
000432  9802              LDR      r0,[sp,#8]            ;1667
000434  f7fffffe          BL       atoi
000438  89b1              LDRH     r1,[r6,#0xc]          ;1667  ; dis_gate_v
00043a  4408              ADD      r0,r0,r1              ;1667
00043c  81b0              STRH     r0,[r6,#0xc]          ;1667
                  |L2.1086|
00043e  f8868000          STRB     r8,[r6,#0]            ;1669
000442  e619              B        |L2.120|
                  |L2.1092|
000444  81b5              STRH     r5,[r6,#0xc]          ;1663
000446  e7fa              B        |L2.1086|
                  |L2.1096|
000448  89b0              LDRH     r0,[r6,#0xc]          ;1665  ; dis_gate_v
00044a  81b0              STRH     r0,[r6,#0xc]          ;1665
00044c  e7f7              B        |L2.1086|
                  |L2.1102|
00044e  9802              LDR      r0,[sp,#8]            ;1683
000450  f7fffffe          BL       atoi
000454  8170              STRH     r0,[r6,#0xa]          ;1683
000456  481a              LDR      r0,|L2.1216|
000458  9902              LDR      r1,[sp,#8]            ;1684
00045a  f7fffffe          BL       strcat
00045e  4918              LDR      r1,|L2.1216|
000460  4620              MOV      r0,r4                 ;1685
000462  f7fffffe          BL       TEXT_SetText
000466  7037              STRB     r7,[r6,#0]            ;1686
000468  e606              B        |L2.120|
                  |L2.1130|
00046a  9802              LDR      r0,[sp,#8]            ;1691
00046c  f7fffffe          BL       atoi
000470  4601              MOV      r1,r0                 ;1691
000472  8970              LDRH     r0,[r6,#0xa]          ;1691  ; steptime
000474  eb000080          ADD      r0,r0,r0,LSL #2       ;1691
000478  eb010040          ADD      r0,r1,r0,LSL #1       ;1691
00047c  8170              STRH     r0,[r6,#0xa]          ;1691
00047e  4810              LDR      r0,|L2.1216|
000480  9902              LDR      r1,[sp,#8]            ;1692
000482  f7fffffe          BL       strcat
000486  490e              LDR      r1,|L2.1216|
000488  4620              MOV      r0,r4                 ;1693
00048a  f7fffffe          BL       TEXT_SetText
00048e  f886a000          STRB     r10,[r6,#0]           ;1694
000492  e5f1              B        |L2.120|
                  |L2.1172|
000494  9802              LDR      r0,[sp,#8]            ;1699
000496  f7fffffe          BL       atoi
00049a  4601              MOV      r1,r0                 ;1699
00049c  8970              LDRH     r0,[r6,#0xa]          ;1699  ; steptime
00049e  eb000080          ADD      r0,r0,r0,LSL #2       ;1699
0004a2  eb010040          ADD      r0,r1,r0,LSL #1       ;1699
0004a6  8170              STRH     r0,[r6,#0xa]          ;1699
0004a8  4805              LDR      r0,|L2.1216|
0004aa  9902              LDR      r1,[sp,#8]            ;1700
0004ac  f7fffffe          BL       strcat
0004b0  4903              LDR      r1,|L2.1216|
0004b2  4620              MOV      r0,r4                 ;1701
0004b4  f7fffffe          BL       TEXT_SetText
0004b8  f886b000          STRB     r11,[r6,#0]           ;1702
0004bc  e5dc              B        |L2.120|
;;;1719   
                          ENDP

0004be  0000              DCW      0x0000
                  |L2.1216|
                          DCD      ||.data||+0x24

                          AREA ||i.OC_ADD||, CODE, READONLY, ALIGN=2

                          REQUIRE _printf_percent
                          REQUIRE _printf_widthprec
                          REQUIRE _printf_f
                          REQUIRE _printf_fp_dec
                  OC_ADD PROC
;;;1720              
;;;1721   void OC_ADD(void){
000000  e92d4ff0          PUSH     {r4-r11,lr}
000004  ed2d8b06          VPUSH    {d8-d10}
000008  b083              SUB      sp,sp,#0xc
;;;1722       WM_HWIN hItem;
;;;1723       char sbs_c[5];
;;;1724       float change_sbs_c;
;;;1725   //     if(DISS_Voltage > 1){
;;;1726   //          
;;;1727   //     }
;;;1728       if(v - DISS_Voltage > v*0.3 && para_set2 == set_2_on)
;;;1729       {
;;;1730   //        stepcount=0;
;;;1731           oc_data = (float)SET_Current_Laod/100;       
00000a  eddf9a60          VLDR     s19,|L3.396|
;;;1732           SET_Current_Laod = set_init_c;
;;;1733           hItem = WM_GetDialogItem(hWinR, ID_TEXT_47);
;;;1734           change_sbs_c = (float)set_sbs_c/100;
;;;1735           sprintf(sbs_c,"%.2f",change_sbs_c);
;;;1736           TEXT_SetText(hItem,sbs_c);
;;;1737           GPIO_SetBits(GPIOC,GPIO_Pin_1);//关闭负载
00000e  f8dfb180          LDR      r11,|L3.400|
;;;1738           LOAD_t = 0;
000012  2500              MOVS     r5,#0
000014  4e5f              LDR      r6,|L3.404|
000016  f6400a6c          MOV      r10,#0x86c            ;1733
;;;1739           oct_sw = oct_off;
;;;1740           finish = 1;
00001a  2701              MOVS     r7,#1
00001c  ed9fab5e          VLDR     d10,|L3.408|
000020  4c5f              LDR      r4,|L3.416|
000022  f8df9180          LDR      r9,|L3.420|
000026  f8df8180          LDR      r8,|L3.424|
00002a  f8d80020          LDR      r0,[r8,#0x20]         ;1728  ; v
00002e  ee090a10          VMOV     s18,r0                ;1728
000032  f7fffffe          BL       __aeabi_f2d
000036  ec532b1a          VMOV     r2,r3,d10             ;1728
00003a  f7fffffe          BL       __aeabi_dmul
00003e  ed940a00          VLDR     s0,[r4,#0]            ;1728
000042  ec410b18          VMOV     d8,r0,r1              ;1728
000046  ee390a40          VSUB.F32 s0,s18,s0             ;1728
00004a  ee100a10          VMOV     r0,s0                 ;1728
00004e  f7fffffe          BL       __aeabi_f2d
000052  ec532b18          VMOV     r2,r3,d8              ;1728
000056  f7fffffe          BL       __aeabi_cdrcmple
00005a  d203              BCS      |L3.100|
00005c  f8980009          LDRB     r0,[r8,#9]            ;1728  ; para_set2
000060  28ff              CMP      r0,#0xff              ;1728
000062  d05d              BEQ      |L3.288|
                  |L3.100|
;;;1741       }else{
;;;1742           SET_Current_Laod = SET_Current_Laod + set_sbs_c;
000064  f8b90008          LDRH     r0,[r9,#8]  ; Run_Control
000068  f8b9102e          LDRH     r1,[r9,#0x2e]  ; Run_Control
00006c  4408              ADD      r0,r0,r1
00006e  f8a90008          STRH     r0,[r9,#8]
;;;1743           if(v - DISS_Voltage > v*0.3 && para_set2 == set_2_on)
000072  f8d80020          LDR      r0,[r8,#0x20]  ; v
000076  ee090a10          VMOV     s18,r0
00007a  f7fffffe          BL       __aeabi_f2d
00007e  ec532b1a          VMOV     r2,r3,d10
000082  f7fffffe          BL       __aeabi_dmul
000086  ed940a00          VLDR     s0,[r4,#0]
00008a  ec410b18          VMOV     d8,r0,r1
00008e  ee390a40          VSUB.F32 s0,s18,s0
000092  ee100a10          VMOV     r0,s0
000096  f7fffffe          BL       __aeabi_f2d
00009a  ec532b18          VMOV     r2,r3,d8
00009e  f7fffffe          BL       __aeabi_cdrcmple
0000a2  d238              BCS      |L3.278|
0000a4  f8980009          LDRB     r0,[r8,#9]  ; para_set2
0000a8  28ff              CMP      r0,#0xff
0000aa  d134              BNE      |L3.278|
;;;1744           {
;;;1745   
;;;1746               oc_data = (float)SET_Current_Laod/100;       
0000ac  f8b90008          LDRH     r0,[r9,#8]  ; Run_Control
0000b0  ee000a10          VMOV     s0,r0
0000b4  eeb80a40          VCVT.F32.U32 s0,s0
0000b8  eec00a29          VDIV.F32 s1,s0,s19
0000bc  edc80a07          VSTR     s1,[r8,#0x1c]
;;;1747               SET_Current_Laod = set_init_c;
0000c0  f8b9002c          LDRH     r0,[r9,#0x2c]  ; Run_Control
0000c4  f8a90008          STRH     r0,[r9,#8]
;;;1748               hItem = WM_GetDialogItem(hWinR, ID_TEXT_47);
0000c8  4651              MOV      r1,r10
0000ca  f8d80018          LDR      r0,[r8,#0x18]  ; hWinR
0000ce  f7fffffe          BL       WM_GetDialogItem
0000d2  4604              MOV      r4,r0
;;;1749               change_sbs_c = (float)set_sbs_c/100;
0000d4  f8b9002e          LDRH     r0,[r9,#0x2e]  ; Run_Control
0000d8  ee000a10          VMOV     s0,r0
0000dc  eef80a40          VCVT.F32.U32 s1,s0
0000e0  ee800aa9          VDIV.F32 s0,s1,s19
;;;1750               sprintf(sbs_c,"%.2f",change_sbs_c);
0000e4  ee100a10          VMOV     r0,s0
0000e8  f7fffffe          BL       __aeabi_f2d
0000ec  ec410b10          VMOV     d0,r0,r1
0000f0  a12e              ADR      r1,|L3.428|
0000f2  ec532b10          VMOV     r2,r3,d0
0000f6  a801              ADD      r0,sp,#4
0000f8  f7fffffe          BL       __2sprintf
;;;1751               TEXT_SetText(hItem,sbs_c);
0000fc  a901              ADD      r1,sp,#4
0000fe  4620              MOV      r0,r4
000100  f7fffffe          BL       TEXT_SetText
;;;1752               GPIO_SetBits(GPIOC,GPIO_Pin_1);//关闭负载
000104  2102              MOVS     r1,#2
000106  4658              MOV      r0,r11
000108  f7fffffe          BL       GPIO_SetBits
;;;1753               LOAD_t = 0;
00010c  7035              STRB     r5,[r6,#0]
;;;1754               oct_sw = oct_off;
00010e  f8885007          STRB     r5,[r8,#7]
;;;1755               finish = 1;
000112  f8887006          STRB     r7,[r8,#6]
                  |L3.278|
;;;1756           }
;;;1757       }        
;;;1758   }
000116  b003              ADD      sp,sp,#0xc
000118  ecbd8b06          VPOP     {d8-d10}
00011c  e8bd8ff0          POP      {r4-r11,pc}
                  |L3.288|
000120  f8b90008          LDRH     r0,[r9,#8]            ;1731  ; Run_Control
000124  ee000a10          VMOV     s0,r0                 ;1731
000128  eeb80a40          VCVT.F32.U32 s0,s0                 ;1731
00012c  eec00a29          VDIV.F32 s1,s0,s19             ;1731
000130  edc80a07          VSTR     s1,[r8,#0x1c]         ;1731
000134  f8b9002c          LDRH     r0,[r9,#0x2c]         ;1732  ; Run_Control
000138  f8a90008          STRH     r0,[r9,#8]            ;1732
00013c  4651              MOV      r1,r10                ;1733
00013e  f8d80018          LDR      r0,[r8,#0x18]         ;1733  ; hWinR
000142  f7fffffe          BL       WM_GetDialogItem
000146  4604              MOV      r4,r0                 ;1733
000148  f8b9002e          LDRH     r0,[r9,#0x2e]         ;1734  ; Run_Control
00014c  ee000a10          VMOV     s0,r0                 ;1734
000150  eef80a40          VCVT.F32.U32 s1,s0                 ;1734
000154  ee800aa9          VDIV.F32 s0,s1,s19             ;1734
000158  ee100a10          VMOV     r0,s0                 ;1735
00015c  f7fffffe          BL       __aeabi_f2d
000160  ec410b10          VMOV     d0,r0,r1              ;1735
000164  a111              ADR      r1,|L3.428|
000166  ec532b10          VMOV     r2,r3,d0              ;1735
00016a  a801              ADD      r0,sp,#4              ;1735
00016c  f7fffffe          BL       __2sprintf
000170  a901              ADD      r1,sp,#4              ;1736
000172  4620              MOV      r0,r4                 ;1736
000174  f7fffffe          BL       TEXT_SetText
000178  2102              MOVS     r1,#2                 ;1737
00017a  4658              MOV      r0,r11                ;1737
00017c  f7fffffe          BL       GPIO_SetBits
000180  7035              STRB     r5,[r6,#0]            ;1738
000182  f8885007          STRB     r5,[r8,#7]            ;1739
000186  f8887006          STRB     r7,[r8,#6]            ;1740
00018a  e7c4              B        |L3.278|
;;;1759   
                          ENDP

                  |L3.396|
00018c  42c80000          DCFS     0x42c80000 ; 100
                  |L3.400|
                          DCD      0x40020800
                  |L3.404|
                          DCD      LOAD_t
                  |L3.408|
000198  33333333          DCFD     0x3fd3333333333333 ; 0.29999999999999999
00019c  3fd33333
                  |L3.416|
                          DCD      DISS_Voltage
                  |L3.420|
                          DCD      Run_Control
                  |L3.424|
                          DCD      ||.data||
                  |L3.428|
0001ac  252e3266          DCB      "%.2f",0
0001b0  00      
0001b1  00                DCB      0
0001b2  00                DCB      0
0001b3  00                DCB      0

                          AREA ||i.OC_OP_DOWN||, CODE, READONLY, ALIGN=2

                  OC_OP_DOWN PROC
;;;1111   void OC_OP_DOWN(void);
;;;1112   void OC_OP_DOWN(void)
000000  e92d5ff0          PUSH     {r4-r12,lr}
;;;1113   {
;;;1114       switch(oc_sw)
000004  4e44              LDR      r6,|L4.280|
000006  7931              LDRB     r1,[r6,#4]  ; oc_sw
000008  4630              MOV      r0,r6
;;;1115       {
;;;1116           case set_20:
;;;1117           {
;;;1118               WM_HWIN hItem;
;;;1119   //            WM_InvalidateWindow(hWinR);
;;;1120               hItem = WM_GetDialogItem(hWinR, ID_TEXT_44);
;;;1121               TEXT_SetBkColor(hItem,GUI_INVALID_COLOR);
;;;1122               TEXT_SetTextColor(hItem, GUI_WHITE);
;;;1123               
;;;1124               hItem = WM_GetDialogItem(hWinR, ID_TEXT_45);
;;;1125               TEXT_SetBkColor(hItem,0x00BFFFFF);
00000a  4d44              LDR      r5,|L4.284|
00000c  6980              LDR      r0,[r0,#0x18]         ;1120
00000e  f6400969          MOV      r9,#0x869             ;1120
000012  f06f4770          MVN      r7,#0xf0000000        ;1121
000016  f06f487f          MVN      r8,#0xff000000        ;1122
00001a  f6400a6a          MOV      r10,#0x86a            ;1124
00001e  2913              CMP      r1,#0x13              ;1114
000020  d026              BEQ      |L4.112|
;;;1126               TEXT_SetTextColor(hItem, GUI_BLACK);
;;;1127               
;;;1128               oc_sw = set_21;
;;;1129               break;
;;;1130           }
;;;1131           case set_21:
;;;1132           {
;;;1133               WM_HWIN hItem;
;;;1134   //            WM_InvalidateWindow(hWinR);
;;;1135               hItem = WM_GetDialogItem(hWinR, ID_TEXT_45);
;;;1136               TEXT_SetBkColor(hItem,GUI_INVALID_COLOR);
;;;1137               TEXT_SetTextColor(hItem, GUI_WHITE);
;;;1138               
;;;1139               hItem = WM_GetDialogItem(hWinR, ID_TEXT_118);
000022  f6403b0d          MOV      r11,#0xb0d
000026  2914              CMP      r1,#0x14              ;1114
000028  d03e              BEQ      |L4.168|
;;;1140               TEXT_SetBkColor(hItem,0x00BFFFFF);
;;;1141               TEXT_SetTextColor(hItem, GUI_BLACK);
;;;1142               
;;;1143               oc_sw = set_64;
;;;1144               break;
;;;1145           }
;;;1146           case set_64:
;;;1147           {
;;;1148               WM_HWIN hItem;
;;;1149   //            WM_InvalidateWindow(hWinR);
;;;1150               hItem = WM_GetDialogItem(hWinR, ID_TEXT_118);
;;;1151               TEXT_SetBkColor(hItem,GUI_INVALID_COLOR);
;;;1152               TEXT_SetTextColor(hItem, GUI_WHITE);
;;;1153               
;;;1154               hItem = WM_GetDialogItem(hWinR, ID_TEXT_43);
00002a  f6400a68          MOV      r10,#0x868
00002e  293f              CMP      r1,#0x3f              ;1114
000030  d056              BEQ      |L4.224|
000032  2942              CMP      r1,#0x42              ;1114
000034  d11a              BNE      |L4.108|
;;;1155               TEXT_SetBkColor(hItem,0x00BFFFFF);
;;;1156               TEXT_SetTextColor(hItem, GUI_BLACK);
;;;1157               
;;;1158               oc_sw = set_67;
;;;1159               break;
;;;1160           }
;;;1161           case set_67:
;;;1162           {
;;;1163               WM_HWIN hItem;
;;;1164   //            WM_InvalidateWindow(hWinR);
;;;1165               hItem = WM_GetDialogItem(hWinR, ID_TEXT_43);
000036  4651              MOV      r1,r10
000038  f7fffffe          BL       WM_GetDialogItem
00003c  4604              MOV      r4,r0
;;;1166               TEXT_SetBkColor(hItem,GUI_INVALID_COLOR);
00003e  4639              MOV      r1,r7
000040  4620              MOV      r0,r4
000042  f7fffffe          BL       TEXT_SetBkColor
;;;1167               TEXT_SetTextColor(hItem, GUI_WHITE);
000046  4641              MOV      r1,r8
000048  4620              MOV      r0,r4
00004a  f7fffffe          BL       TEXT_SetTextColor
;;;1168               
;;;1169               hItem = WM_GetDialogItem(hWinR, ID_TEXT_44);
00004e  4649              MOV      r1,r9
000050  69b0              LDR      r0,[r6,#0x18]  ; hWinR
000052  f7fffffe          BL       WM_GetDialogItem
000056  4604              MOV      r4,r0
;;;1170               TEXT_SetBkColor(hItem,0x00BFFFFF);
000058  4629              MOV      r1,r5
00005a  4620              MOV      r0,r4
00005c  f7fffffe          BL       TEXT_SetBkColor
;;;1171               TEXT_SetTextColor(hItem, GUI_BLACK);
000060  2100              MOVS     r1,#0
000062  4620              MOV      r0,r4
000064  f7fffffe          BL       TEXT_SetTextColor
;;;1172               
;;;1173               oc_sw = set_20;
000068  2013              MOVS     r0,#0x13
00006a  7130              STRB     r0,[r6,#4]
                  |L4.108|
;;;1174               break;
;;;1175           }
;;;1176           
;;;1177       }
;;;1178       
;;;1179   }
00006c  e8bd9ff0          POP      {r4-r12,pc}
                  |L4.112|
000070  4649              MOV      r1,r9                 ;1120
000072  f7fffffe          BL       WM_GetDialogItem
000076  4604              MOV      r4,r0                 ;1120
000078  4639              MOV      r1,r7                 ;1121
00007a  4620              MOV      r0,r4                 ;1121
00007c  f7fffffe          BL       TEXT_SetBkColor
000080  4641              MOV      r1,r8                 ;1122
000082  4620              MOV      r0,r4                 ;1122
000084  f7fffffe          BL       TEXT_SetTextColor
000088  4651              MOV      r1,r10                ;1124
00008a  69b0              LDR      r0,[r6,#0x18]         ;1124  ; hWinR
00008c  f7fffffe          BL       WM_GetDialogItem
000090  4604              MOV      r4,r0                 ;1124
000092  4629              MOV      r1,r5                 ;1125
000094  4620              MOV      r0,r4                 ;1125
000096  f7fffffe          BL       TEXT_SetBkColor
00009a  2100              MOVS     r1,#0                 ;1126
00009c  4620              MOV      r0,r4                 ;1126
00009e  f7fffffe          BL       TEXT_SetTextColor
0000a2  2014              MOVS     r0,#0x14              ;1128
0000a4  7130              STRB     r0,[r6,#4]            ;1128
0000a6  e7e1              B        |L4.108|
                  |L4.168|
0000a8  4651              MOV      r1,r10                ;1135
0000aa  f7fffffe          BL       WM_GetDialogItem
0000ae  4604              MOV      r4,r0                 ;1135
0000b0  4639              MOV      r1,r7                 ;1136
0000b2  4620              MOV      r0,r4                 ;1136
0000b4  f7fffffe          BL       TEXT_SetBkColor
0000b8  4641              MOV      r1,r8                 ;1137
0000ba  4620              MOV      r0,r4                 ;1137
0000bc  f7fffffe          BL       TEXT_SetTextColor
0000c0  4659              MOV      r1,r11                ;1139
0000c2  69b0              LDR      r0,[r6,#0x18]         ;1139  ; hWinR
0000c4  f7fffffe          BL       WM_GetDialogItem
0000c8  4604              MOV      r4,r0                 ;1139
0000ca  4629              MOV      r1,r5                 ;1140
0000cc  4620              MOV      r0,r4                 ;1140
0000ce  f7fffffe          BL       TEXT_SetBkColor
0000d2  2100              MOVS     r1,#0                 ;1141
0000d4  4620              MOV      r0,r4                 ;1141
0000d6  f7fffffe          BL       TEXT_SetTextColor
0000da  203f              MOVS     r0,#0x3f              ;1143
0000dc  7130              STRB     r0,[r6,#4]            ;1143
0000de  e7c5              B        |L4.108|
                  |L4.224|
0000e0  4659              MOV      r1,r11                ;1150
0000e2  f7fffffe          BL       WM_GetDialogItem
0000e6  4604              MOV      r4,r0                 ;1150
0000e8  4639              MOV      r1,r7                 ;1151
0000ea  4620              MOV      r0,r4                 ;1151
0000ec  f7fffffe          BL       TEXT_SetBkColor
0000f0  4641              MOV      r1,r8                 ;1152
0000f2  4620              MOV      r0,r4                 ;1152
0000f4  f7fffffe          BL       TEXT_SetTextColor
0000f8  4651              MOV      r1,r10                ;1154
0000fa  69b0              LDR      r0,[r6,#0x18]         ;1154  ; hWinR
0000fc  f7fffffe          BL       WM_GetDialogItem
000100  4604              MOV      r4,r0                 ;1154
000102  4629              MOV      r1,r5                 ;1155
000104  4620              MOV      r0,r4                 ;1155
000106  f7fffffe          BL       TEXT_SetBkColor
00010a  2100              MOVS     r1,#0                 ;1156
00010c  4620              MOV      r0,r4                 ;1156
00010e  f7fffffe          BL       TEXT_SetTextColor
000112  2042              MOVS     r0,#0x42              ;1158
000114  7130              STRB     r0,[r6,#4]            ;1158
000116  e7a9              B        |L4.108|
;;;1180   
                          ENDP

                  |L4.280|
                          DCD      ||.data||
                  |L4.284|
                          DCD      0x00bfffff

                          AREA ||i.OC_OP_UP||, CODE, READONLY, ALIGN=2

                  OC_OP_UP PROC
;;;1181   void OC_OP_UP(void);
;;;1182   void OC_OP_UP(void)
000000  e92d5ff0          PUSH     {r4-r12,lr}
;;;1183   {
;;;1184       switch(oc_sw)
000004  4e44              LDR      r6,|L5.280|
000006  7931              LDRB     r1,[r6,#4]  ; oc_sw
000008  4630              MOV      r0,r6
;;;1185       {
;;;1186           case set_20:
;;;1187           {
;;;1188               WM_HWIN hItem;
;;;1189   //            WM_InvalidateWindow(hWinR);
;;;1190               hItem = WM_GetDialogItem(hWinR, ID_TEXT_44);
;;;1191               TEXT_SetBkColor(hItem,GUI_INVALID_COLOR);
;;;1192               TEXT_SetTextColor(hItem, GUI_WHITE);
;;;1193               
;;;1194               hItem = WM_GetDialogItem(hWinR, ID_TEXT_43);
;;;1195               TEXT_SetBkColor(hItem,0x00BFFFFF);
00000a  4d44              LDR      r5,|L5.284|
00000c  6980              LDR      r0,[r0,#0x18]         ;1190
00000e  f6400969          MOV      r9,#0x869             ;1190
000012  f06f4770          MVN      r7,#0xf0000000        ;1191
000016  f06f487f          MVN      r8,#0xff000000        ;1192
00001a  f6400b68          MOV      r11,#0x868            ;1194
00001e  2913              CMP      r1,#0x13              ;1184
000020  d026              BEQ      |L5.112|
;;;1196               TEXT_SetTextColor(hItem, GUI_BLACK);
;;;1197               
;;;1198               oc_sw = set_67;
;;;1199               break;
;;;1200           }
;;;1201           case set_21:
;;;1202           {
;;;1203               WM_HWIN hItem;
;;;1204   //            WM_InvalidateWindow(hWinR);
;;;1205               hItem = WM_GetDialogItem(hWinR, ID_TEXT_45);
000022  f6400a6a          MOV      r10,#0x86a
000026  2914              CMP      r1,#0x14              ;1184
000028  d03e              BEQ      |L5.168|
;;;1206               TEXT_SetBkColor(hItem,GUI_INVALID_COLOR);
;;;1207               TEXT_SetTextColor(hItem, GUI_WHITE);
;;;1208               
;;;1209               
;;;1210               hItem = WM_GetDialogItem(hWinR, ID_TEXT_44);
;;;1211               TEXT_SetBkColor(hItem,0x00BFFFFF);
;;;1212               TEXT_SetTextColor(hItem, GUI_BLACK);
;;;1213               
;;;1214               oc_sw = set_20;
;;;1215               break;
;;;1216           }
;;;1217           case set_64:
;;;1218           {
;;;1219               WM_HWIN hItem;
;;;1220   //            WM_InvalidateWindow(hWinR);
;;;1221               hItem = WM_GetDialogItem(hWinR, ID_TEXT_118);
00002a  f640390d          MOV      r9,#0xb0d
00002e  293f              CMP      r1,#0x3f              ;1184
000030  d056              BEQ      |L5.224|
000032  2942              CMP      r1,#0x42              ;1184
000034  d11a              BNE      |L5.108|
;;;1222               TEXT_SetBkColor(hItem,GUI_INVALID_COLOR);
;;;1223               TEXT_SetTextColor(hItem, GUI_WHITE);
;;;1224               
;;;1225               hItem = WM_GetDialogItem(hWinR, ID_TEXT_45);
;;;1226               TEXT_SetBkColor(hItem,0x00BFFFFF);
;;;1227               TEXT_SetTextColor(hItem, GUI_BLACK);
;;;1228               
;;;1229               oc_sw = set_21;
;;;1230               break;
;;;1231           }
;;;1232           case set_67:
;;;1233           {
;;;1234               WM_HWIN hItem;
;;;1235   //            WM_InvalidateWindow(hWinR);
;;;1236               hItem = WM_GetDialogItem(hWinR, ID_TEXT_43);
000036  4659              MOV      r1,r11
000038  f7fffffe          BL       WM_GetDialogItem
00003c  4604              MOV      r4,r0
;;;1237               TEXT_SetBkColor(hItem,GUI_INVALID_COLOR);
00003e  4639              MOV      r1,r7
000040  4620              MOV      r0,r4
000042  f7fffffe          BL       TEXT_SetBkColor
;;;1238               TEXT_SetTextColor(hItem, GUI_WHITE);
000046  4641              MOV      r1,r8
000048  4620              MOV      r0,r4
00004a  f7fffffe          BL       TEXT_SetTextColor
;;;1239               
;;;1240               hItem = WM_GetDialogItem(hWinR, ID_TEXT_118);
00004e  4649              MOV      r1,r9
000050  69b0              LDR      r0,[r6,#0x18]  ; hWinR
000052  f7fffffe          BL       WM_GetDialogItem
000056  4604              MOV      r4,r0
;;;1241               TEXT_SetBkColor(hItem,0x00BFFFFF);
000058  4629              MOV      r1,r5
00005a  4620              MOV      r0,r4
00005c  f7fffffe          BL       TEXT_SetBkColor
;;;1242               TEXT_SetTextColor(hItem, GUI_BLACK);
000060  2100              MOVS     r1,#0
000062  4620              MOV      r0,r4
000064  f7fffffe          BL       TEXT_SetTextColor
;;;1243               
;;;1244               oc_sw = set_64;
000068  203f              MOVS     r0,#0x3f
00006a  7130              STRB     r0,[r6,#4]
                  |L5.108|
;;;1245               break;
;;;1246           }
;;;1247           
;;;1248       }
;;;1249       
;;;1250   }
00006c  e8bd9ff0          POP      {r4-r12,pc}
                  |L5.112|
000070  4649              MOV      r1,r9                 ;1190
000072  f7fffffe          BL       WM_GetDialogItem
000076  4604              MOV      r4,r0                 ;1190
000078  4639              MOV      r1,r7                 ;1191
00007a  4620              MOV      r0,r4                 ;1191
00007c  f7fffffe          BL       TEXT_SetBkColor
000080  4641              MOV      r1,r8                 ;1192
000082  4620              MOV      r0,r4                 ;1192
000084  f7fffffe          BL       TEXT_SetTextColor
000088  4659              MOV      r1,r11                ;1194
00008a  69b0              LDR      r0,[r6,#0x18]         ;1194  ; hWinR
00008c  f7fffffe          BL       WM_GetDialogItem
000090  4604              MOV      r4,r0                 ;1194
000092  4629              MOV      r1,r5                 ;1195
000094  4620              MOV      r0,r4                 ;1195
000096  f7fffffe          BL       TEXT_SetBkColor
00009a  2100              MOVS     r1,#0                 ;1196
00009c  4620              MOV      r0,r4                 ;1196
00009e  f7fffffe          BL       TEXT_SetTextColor
0000a2  2042              MOVS     r0,#0x42              ;1198
0000a4  7130              STRB     r0,[r6,#4]            ;1198
0000a6  e7e1              B        |L5.108|
                  |L5.168|
0000a8  4651              MOV      r1,r10                ;1205
0000aa  f7fffffe          BL       WM_GetDialogItem
0000ae  4604              MOV      r4,r0                 ;1205
0000b0  4639              MOV      r1,r7                 ;1206
0000b2  4620              MOV      r0,r4                 ;1206
0000b4  f7fffffe          BL       TEXT_SetBkColor
0000b8  4641              MOV      r1,r8                 ;1207
0000ba  4620              MOV      r0,r4                 ;1207
0000bc  f7fffffe          BL       TEXT_SetTextColor
0000c0  4649              MOV      r1,r9                 ;1210
0000c2  69b0              LDR      r0,[r6,#0x18]         ;1210  ; hWinR
0000c4  f7fffffe          BL       WM_GetDialogItem
0000c8  4604              MOV      r4,r0                 ;1210
0000ca  4629              MOV      r1,r5                 ;1211
0000cc  4620              MOV      r0,r4                 ;1211
0000ce  f7fffffe          BL       TEXT_SetBkColor
0000d2  2100              MOVS     r1,#0                 ;1212
0000d4  4620              MOV      r0,r4                 ;1212
0000d6  f7fffffe          BL       TEXT_SetTextColor
0000da  2013              MOVS     r0,#0x13              ;1214
0000dc  7130              STRB     r0,[r6,#4]            ;1214
0000de  e7c5              B        |L5.108|
                  |L5.224|
0000e0  4649              MOV      r1,r9                 ;1221
0000e2  f7fffffe          BL       WM_GetDialogItem
0000e6  4604              MOV      r4,r0                 ;1221
0000e8  4639              MOV      r1,r7                 ;1222
0000ea  4620              MOV      r0,r4                 ;1222
0000ec  f7fffffe          BL       TEXT_SetBkColor
0000f0  4641              MOV      r1,r8                 ;1223
0000f2  4620              MOV      r0,r4                 ;1223
0000f4  f7fffffe          BL       TEXT_SetTextColor
0000f8  4651              MOV      r1,r10                ;1225
0000fa  69b0              LDR      r0,[r6,#0x18]         ;1225  ; hWinR
0000fc  f7fffffe          BL       WM_GetDialogItem
000100  4604              MOV      r4,r0                 ;1225
000102  4629              MOV      r1,r5                 ;1226
000104  4620              MOV      r0,r4                 ;1226
000106  f7fffffe          BL       TEXT_SetBkColor
00010a  2100              MOVS     r1,#0                 ;1227
00010c  4620              MOV      r0,r4                 ;1227
00010e  f7fffffe          BL       TEXT_SetTextColor
000112  2014              MOVS     r0,#0x14              ;1229
000114  7130              STRB     r0,[r6,#4]            ;1229
000116  e7a9              B        |L5.108|
;;;1251   
                          ENDP

                  |L5.280|
                          DCD      ||.data||
                  |L5.284|
                          DCD      0x00bfffff

                          AREA ||i.OC_SET||, CODE, READONLY, ALIGN=2

                          REQUIRE _printf_percent
                          REQUIRE _printf_widthprec
                          REQUIRE _printf_f
                          REQUIRE _printf_fp_dec
                          REQUIRE _printf_pre_padding
                          REQUIRE _printf_d
                          REQUIRE _printf_int_dec
                  OC_SET PROC
;;;1253   void OC_SET(void);
;;;1254   void OC_SET(void) {
000000  e92d4ff0          PUSH     {r4-r11,lr}
000004  ed2d8b02          VPUSH    {d8}
000008  b083              SUB      sp,sp,#0xc
;;;1255       vu8 i;
;;;1256       char  buf[5];
;;;1257   
;;;1258       float dis_init_c;
;;;1259       float dis_sbs_c;
;;;1260       vu16 dis_steptime = steptime;
00000a  4dda              LDR      r5,|L6.884|
00000c  896c              LDRH     r4,[r5,#0xa]  ; steptime
;;;1261       switch(oc_sw)
00000e  792a              LDRB     r2,[r5,#4]  ; oc_sw
;;;1262       {
;;;1263           case set_20:
;;;1264           {
;;;1265               WM_HWIN hItem;
;;;1266   //            WM_InvalidateWindow(hWinR);
;;;1267               hItem = WM_GetDialogItem(hWinR, ID_TEXT_44);
;;;1268               TEXT_SetBkColor(hItem,GUI_INVALID_COLOR);
;;;1269               TEXT_SetTextColor(hItem, GUI_WHITE);
;;;1270               
;;;1271               
;;;1272               hItem = WM_GetDialogItem(hWinR, ID_TEXT_46);
;;;1273               TEXT_SetBkColor(hItem,0x00BFFFFF);
;;;1274               TEXT_SetTextColor(hItem, GUI_BLACK);
;;;1275               for(i=0;i<5;i++)
;;;1276               {
;;;1277                   set_limit[i] = '\0';
;;;1278               }
;;;1279               oc_sw = set_22;
;;;1280               break;
;;;1281           }
;;;1282           case set_22:
;;;1283           {
;;;1284               WM_HWIN hItem;
;;;1285   //            WM_InvalidateWindow(hWinR);
;;;1286               hItem = WM_GetDialogItem(hWinR, ID_TEXT_46);
;;;1287               TEXT_SetBkColor(hItem,GUI_INVALID_COLOR);
;;;1288               TEXT_SetTextColor(hItem, GUI_WHITE);
;;;1289               SET_Current_Laod = set_init_c;
;;;1290               if(SET_Current_Laod > 1500){
;;;1291                   SET_Current_Laod = 0;
;;;1292               }
;;;1293               dis_init_c = (float)set_init_c/100;
000010  ed9f8ad9          VLDR     s16,|L6.888|
000014  4628              MOV      r0,r5                 ;1260
000016  2600              MOVS     r6,#0                 ;1274
000018  6980              LDR      r0,[r0,#0x18]         ;1267
;;;1294               sprintf(buf,"%.2f",dis_init_c);
;;;1295               TEXT_SetText(hItem,buf);
;;;1296               
;;;1297               hItem = WM_GetDialogItem(hWinR, ID_TEXT_44);
;;;1298               TEXT_SetBkColor(hItem,0x00BFFFFF);
;;;1299               TEXT_SetTextColor(hItem, GUI_BLACK);
;;;1300               Write_Limits();
;;;1301               
;;;1302               oc_sw = set_20;
;;;1303               bit =1;
00001a  f04f0801          MOV      r8,#1
;;;1304               dot_flag = 0;
;;;1305               break;
;;;1306           }
;;;1307           case set_21:
;;;1308           {
;;;1309               WM_HWIN hItem;
;;;1310   //            WM_InvalidateWindow(hWinR);
;;;1311               hItem = WM_GetDialogItem(hWinR, ID_TEXT_45);
;;;1312               TEXT_SetBkColor(hItem,GUI_INVALID_COLOR);
;;;1313               TEXT_SetTextColor(hItem, GUI_WHITE);
;;;1314               
;;;1315               
;;;1316               hItem = WM_GetDialogItem(hWinR, ID_TEXT_47);
;;;1317               TEXT_SetBkColor(hItem,0x00BFFFFF);
;;;1318               TEXT_SetTextColor(hItem, GUI_BLACK);
;;;1319               for(i=0;i<5;i++)
;;;1320               {
;;;1321                   set_limit[i] = '\0';
;;;1322               }
;;;1323               
;;;1324               oc_sw = set_23;
;;;1325               break;
;;;1326           }
;;;1327           case set_23:
;;;1328           {
;;;1329               WM_HWIN hItem;
;;;1330   //            WM_InvalidateWindow(hWinR);
;;;1331               hItem = WM_GetDialogItem(hWinR, ID_TEXT_47);
;;;1332               TEXT_SetBkColor(hItem,GUI_INVALID_COLOR);
;;;1333               TEXT_SetTextColor(hItem, GUI_WHITE);
;;;1334               dis_sbs_c = (float)set_sbs_c/100;
;;;1335               sprintf(buf,"%.2f",dis_sbs_c);
;;;1336               TEXT_SetText(hItem,buf);
;;;1337               
;;;1338               hItem = WM_GetDialogItem(hWinR, ID_TEXT_45);
;;;1339               TEXT_SetBkColor(hItem,0x00BFFFFF);
;;;1340               TEXT_SetTextColor(hItem, GUI_BLACK);
;;;1341               Write_Limits();
;;;1342               
;;;1343               oc_sw = set_21;
;;;1344               bit = 1;
;;;1345               dot_flag = 0;
;;;1346               break;
;;;1347           }
;;;1348           case set_64:
;;;1349           {
;;;1350               WM_HWIN hItem;
;;;1351   //            WM_InvalidateWindow(hWinR);
;;;1352               hItem = WM_GetDialogItem(hWinR, ID_TEXT_118);
00001e  f640390d          MOV      r9,#0xb0d
;;;1353               TEXT_SetBkColor(hItem,GUI_INVALID_COLOR);
;;;1354               TEXT_SetTextColor(hItem, GUI_WHITE);
;;;1355               
;;;1356               
;;;1357               hItem = WM_GetDialogItem(hWinR, ID_TEXT_97);
000022  f6401a05          MOV      r10,#0x905
000026  f1050724          ADD      r7,r5,#0x24           ;1277
00002a  2a3f              CMP      r2,#0x3f              ;1261
00002c  d07e              BEQ      |L6.300|
00002e  dc4e              BGT      |L6.206|
000030  f6400a69          MOV      r10,#0x869            ;1267
000034  f640096b          MOV      r9,#0x86b             ;1272
000038  2a13              CMP      r2,#0x13              ;1261
00003a  d078              BEQ      |L6.302|
00003c  f640046a          MOV      r4,#0x86a             ;1311
000040  f6400b6c          MOV      r11,#0x86c            ;1316
000044  2a14              CMP      r2,#0x14              ;1261
000046  d073              BEQ      |L6.304|
000048  4fcc              LDR      r7,|L6.892|
00004a  2a15              CMP      r2,#0x15              ;1261
00004c  d071              BEQ      |L6.306|
00004e  2a16              CMP      r2,#0x16              ;1261
000050  d138              BNE      |L6.196|
000052  4659              MOV      r1,r11                ;1331
000054  f7fffffe          BL       WM_GetDialogItem
000058  4681              MOV      r9,r0                 ;1331
00005a  f06f4170          MVN      r1,#0xf0000000        ;1332
00005e  4648              MOV      r0,r9                 ;1332
000060  f7fffffe          BL       TEXT_SetBkColor
000064  f06f417f          MVN      r1,#0xff000000        ;1333
000068  4648              MOV      r0,r9                 ;1333
00006a  f7fffffe          BL       TEXT_SetTextColor
00006e  8df8              LDRH     r0,[r7,#0x2e]         ;1334  ; Run_Control
000070  ee000a10          VMOV     s0,r0                 ;1334
000074  eef80a40          VCVT.F32.U32 s1,s0                 ;1334
000078  ee800a88          VDIV.F32 s0,s1,s16             ;1334
00007c  ee100a10          VMOV     r0,s0                 ;1335
000080  f7fffffe          BL       __aeabi_f2d
000084  ec410b10          VMOV     d0,r0,r1              ;1335
000088  a1bd              ADR      r1,|L6.896|
00008a  ec532b10          VMOV     r2,r3,d0              ;1335
00008e  a801              ADD      r0,sp,#4              ;1335
000090  f7fffffe          BL       __2sprintf
000094  a901              ADD      r1,sp,#4              ;1336
000096  4648              MOV      r0,r9                 ;1336
000098  f7fffffe          BL       TEXT_SetText
00009c  4621              MOV      r1,r4                 ;1338
00009e  69a8              LDR      r0,[r5,#0x18]         ;1338  ; hWinR
0000a0  f7fffffe          BL       WM_GetDialogItem
0000a4  4604              MOV      r4,r0                 ;1338
0000a6  49b8              LDR      r1,|L6.904|
0000a8  4620              MOV      r0,r4                 ;1339
0000aa  f7fffffe          BL       TEXT_SetBkColor
0000ae  2100              MOVS     r1,#0                 ;1340
0000b0  4620              MOV      r0,r4                 ;1340
0000b2  f7fffffe          BL       TEXT_SetTextColor
0000b6  f7fffffe          BL       Write_Limits
0000ba  2014              MOVS     r0,#0x14              ;1343
0000bc  7128              STRB     r0,[r5,#4]            ;1343
0000be  f8858000          STRB     r8,[r5,#0]            ;1344
0000c2  706e              STRB     r6,[r5,#1]            ;1345
                  |L6.196|
;;;1358               TEXT_SetBkColor(hItem,0x00BFFFFF);
;;;1359               TEXT_SetTextColor(hItem, GUI_BLACK);
;;;1360               for(i=0;i<5;i++)
;;;1361               {
;;;1362                   set_limit[i] = '\0';
;;;1363               }
;;;1364               
;;;1365               oc_sw = set_65;
;;;1366               break;
;;;1367           }
;;;1368           case set_65:
;;;1369           {
;;;1370               WM_HWIN hItem;
;;;1371   //            WM_InvalidateWindow(hWinR);
;;;1372               hItem = WM_GetDialogItem(hWinR, ID_TEXT_97);
;;;1373               TEXT_SetBkColor(hItem,GUI_INVALID_COLOR);
;;;1374               TEXT_SetTextColor(hItem, GUI_WHITE);
;;;1375               gate_v = (float)dis_gate_v/100;
;;;1376               sprintf(buf,"%.2f",gate_v);
;;;1377               TEXT_SetText(hItem,buf);
;;;1378               
;;;1379               hItem = WM_GetDialogItem(hWinR, ID_TEXT_118);
;;;1380               TEXT_SetBkColor(hItem,0x00BFFFFF);
;;;1381               TEXT_SetTextColor(hItem, GUI_BLACK);
;;;1382               Write_Limits();
;;;1383               
;;;1384               oc_sw = set_64;
;;;1385               bit = 1;
;;;1386               dot_flag = 0;
;;;1387               break;
;;;1388           }
;;;1389           case set_67:
;;;1390           {
;;;1391               WM_HWIN hItem;
;;;1392   //            WM_InvalidateWindow(hWinR);
;;;1393               hItem = WM_GetDialogItem(hWinR, ID_TEXT_43);
;;;1394               TEXT_SetBkColor(hItem,GUI_INVALID_COLOR);
;;;1395               TEXT_SetTextColor(hItem, GUI_WHITE);
;;;1396               
;;;1397               
;;;1398               hItem = WM_GetDialogItem(hWinR, ID_TEXT_122);
;;;1399               TEXT_SetBkColor(hItem,0x00BFFFFF);
;;;1400               TEXT_SetTextColor(hItem, GUI_BLACK);
;;;1401               for(i=0;i<5;i++)
;;;1402               {
;;;1403                   set_limit[i] = '\0';
;;;1404               }
;;;1405               
;;;1406               oc_sw = set_68;
;;;1407               break;
;;;1408           }
;;;1409           case set_68:
;;;1410           {
;;;1411               WM_HWIN hItem;
;;;1412   //            WM_InvalidateWindow(hWinR);
;;;1413               hItem = WM_GetDialogItem(hWinR, ID_TEXT_122);
;;;1414               TEXT_SetBkColor(hItem,GUI_INVALID_COLOR);
;;;1415               TEXT_SetTextColor(hItem, GUI_WHITE);
;;;1416               sprintf(buf,"%4d",dis_steptime);
;;;1417               TEXT_SetText(hItem,buf);
;;;1418               
;;;1419               hItem = WM_GetDialogItem(hWinR, ID_TEXT_43);
;;;1420               TEXT_SetBkColor(hItem,0x00BFFFFF);
;;;1421               TEXT_SetTextColor(hItem, GUI_BLACK);
;;;1422               Write_Limits();
;;;1423               
;;;1424               oc_sw = set_67;
;;;1425               bit = 1;
;;;1426               dot_flag = 0;
;;;1427               Wrtite_step();
;;;1428               break;
;;;1429           }
;;;1430       }
;;;1431   }
0000c4  b003              ADD      sp,sp,#0xc
0000c6  ecbd8b02          VPOP     {d8}
0000ca  e8bd8ff0          POP      {r4-r11,pc}
                  |L6.206|
0000ce  2a40              CMP      r2,#0x40              ;1261
0000d0  d07d              BEQ      |L6.462|
0000d2  f6400968          MOV      r9,#0x868             ;1393
0000d6  f6403a11          MOV      r10,#0xb11            ;1398
0000da  2a42              CMP      r2,#0x42              ;1261
0000dc  d078              BEQ      |L6.464|
0000de  2a43              CMP      r2,#0x43              ;1261
0000e0  d1f0              BNE      |L6.196|
0000e2  4651              MOV      r1,r10                ;1413
0000e4  f7fffffe          BL       WM_GetDialogItem
0000e8  4607              MOV      r7,r0                 ;1413
0000ea  f06f4170          MVN      r1,#0xf0000000        ;1414
0000ee  4638              MOV      r0,r7                 ;1414
0000f0  f7fffffe          BL       TEXT_SetBkColor
0000f4  f06f417f          MVN      r1,#0xff000000        ;1415
0000f8  4638              MOV      r0,r7                 ;1415
0000fa  f7fffffe          BL       TEXT_SetTextColor
0000fe  4622              MOV      r2,r4                 ;1416
000100  a1a2              ADR      r1,|L6.908|
000102  a801              ADD      r0,sp,#4              ;1416
000104  f7fffffe          BL       __2sprintf
000108  a901              ADD      r1,sp,#4              ;1417
00010a  4638              MOV      r0,r7                 ;1417
00010c  f7fffffe          BL       TEXT_SetText
000110  4649              MOV      r1,r9                 ;1419
000112  69a8              LDR      r0,[r5,#0x18]         ;1419  ; hWinR
000114  f7fffffe          BL       WM_GetDialogItem
000118  4604              MOV      r4,r0                 ;1419
00011a  499b              LDR      r1,|L6.904|
00011c  4620              MOV      r0,r4                 ;1420
00011e  f7fffffe          BL       TEXT_SetBkColor
000122  2100              MOVS     r1,#0                 ;1421
000124  4620              MOV      r0,r4                 ;1421
000126  f7fffffe          BL       TEXT_SetTextColor
00012a  e003              B        |L6.308|
                  |L6.300|
00012c  e09b              B        |L6.614|
                  |L6.302|
00012e  e00b              B        |L6.328|
                  |L6.304|
000130  e074              B        |L6.540|
                  |L6.306|
000132  e02e              B        |L6.402|
                  |L6.308|
000134  f7fffffe          BL       Write_Limits
000138  2042              MOVS     r0,#0x42              ;1424
00013a  7128              STRB     r0,[r5,#4]            ;1424
00013c  f8858000          STRB     r8,[r5,#0]            ;1425
000140  706e              STRB     r6,[r5,#1]            ;1426
000142  f7fffffe          BL       Wrtite_step
000146  e7bd              B        |L6.196|
                  |L6.328|
000148  4651              MOV      r1,r10                ;1267
00014a  f7fffffe          BL       WM_GetDialogItem
00014e  4604              MOV      r4,r0                 ;1267
000150  f06f4170          MVN      r1,#0xf0000000        ;1268
000154  4620              MOV      r0,r4                 ;1268
000156  f7fffffe          BL       TEXT_SetBkColor
00015a  f06f417f          MVN      r1,#0xff000000        ;1269
00015e  4620              MOV      r0,r4                 ;1269
000160  f7fffffe          BL       TEXT_SetTextColor
000164  4649              MOV      r1,r9                 ;1272
000166  69a8              LDR      r0,[r5,#0x18]         ;1272  ; hWinR
000168  f7fffffe          BL       WM_GetDialogItem
00016c  4604              MOV      r4,r0                 ;1272
00016e  4986              LDR      r1,|L6.904|
000170  4620              MOV      r0,r4                 ;1273
000172  f7fffffe          BL       TEXT_SetBkColor
000176  2100              MOVS     r1,#0                 ;1274
000178  4620              MOV      r0,r4                 ;1274
00017a  f7fffffe          BL       TEXT_SetTextColor
00017e  2000              MOVS     r0,#0                 ;1275
000180  e002              B        |L6.392|
                  |L6.386|
000182  543e              STRB     r6,[r7,r0]            ;1277
000184  1c40              ADDS     r0,r0,#1              ;1275
000186  b2c0              UXTB     r0,r0                 ;1275
                  |L6.392|
000188  2805              CMP      r0,#5                 ;1275
00018a  d3fa              BCC      |L6.386|
00018c  2015              MOVS     r0,#0x15              ;1279
00018e  7128              STRB     r0,[r5,#4]            ;1279
000190  e798              B        |L6.196|
                  |L6.402|
000192  4649              MOV      r1,r9                 ;1286
000194  f7fffffe          BL       WM_GetDialogItem
000198  4604              MOV      r4,r0                 ;1286
00019a  f06f4170          MVN      r1,#0xf0000000        ;1287
00019e  4620              MOV      r0,r4                 ;1287
0001a0  f7fffffe          BL       TEXT_SetBkColor
0001a4  f06f417f          MVN      r1,#0xff000000        ;1288
0001a8  4620              MOV      r0,r4                 ;1288
0001aa  f7fffffe          BL       TEXT_SetTextColor
0001ae  8db8              LDRH     r0,[r7,#0x2c]         ;1289  ; Run_Control
0001b0  8138              STRH     r0,[r7,#8]            ;1289
0001b2  8938              LDRH     r0,[r7,#8]            ;1290  ; Run_Control
0001b4  f24051dc          MOV      r1,#0x5dc             ;1290
0001b8  4288              CMP      r0,r1                 ;1290
0001ba  d900              BLS      |L6.446|
0001bc  813e              STRH     r6,[r7,#8]            ;1291
                  |L6.446|
0001be  8db8              LDRH     r0,[r7,#0x2c]         ;1293  ; Run_Control
0001c0  ee000a10          VMOV     s0,r0                 ;1293
0001c4  eef80a40          VCVT.F32.U32 s1,s0                 ;1293
0001c8  ee800a88          VDIV.F32 s0,s1,s16             ;1293
0001cc  e001              B        |L6.466|
                  |L6.462|
0001ce  e06f              B        |L6.688|
                  |L6.464|
0001d0  e0aa              B        |L6.808|
                  |L6.466|
0001d2  ee100a10          VMOV     r0,s0                 ;1294
0001d6  f7fffffe          BL       __aeabi_f2d
0001da  ec410b10          VMOV     d0,r0,r1              ;1294
0001de  a168              ADR      r1,|L6.896|
0001e0  ec532b10          VMOV     r2,r3,d0              ;1294
0001e4  a801              ADD      r0,sp,#4              ;1294
0001e6  f7fffffe          BL       __2sprintf
0001ea  a901              ADD      r1,sp,#4              ;1295
0001ec  4620              MOV      r0,r4                 ;1295
0001ee  f7fffffe          BL       TEXT_SetText
0001f2  4651              MOV      r1,r10                ;1297
0001f4  69a8              LDR      r0,[r5,#0x18]         ;1297  ; hWinR
0001f6  f7fffffe          BL       WM_GetDialogItem
0001fa  4604              MOV      r4,r0                 ;1297
0001fc  4962              LDR      r1,|L6.904|
0001fe  4620              MOV      r0,r4                 ;1298
000200  f7fffffe          BL       TEXT_SetBkColor
000204  2100              MOVS     r1,#0                 ;1299
000206  4620              MOV      r0,r4                 ;1299
000208  f7fffffe          BL       TEXT_SetTextColor
00020c  f7fffffe          BL       Write_Limits
000210  2013              MOVS     r0,#0x13              ;1302
000212  7128              STRB     r0,[r5,#4]            ;1302
000214  f8858000          STRB     r8,[r5,#0]            ;1303
000218  706e              STRB     r6,[r5,#1]            ;1304
00021a  e753              B        |L6.196|
                  |L6.540|
00021c  4621              MOV      r1,r4                 ;1311
00021e  f7fffffe          BL       WM_GetDialogItem
000222  4604              MOV      r4,r0                 ;1311
000224  f06f4170          MVN      r1,#0xf0000000        ;1312
000228  4620              MOV      r0,r4                 ;1312
00022a  f7fffffe          BL       TEXT_SetBkColor
00022e  f06f417f          MVN      r1,#0xff000000        ;1313
000232  4620              MOV      r0,r4                 ;1313
000234  f7fffffe          BL       TEXT_SetTextColor
000238  4659              MOV      r1,r11                ;1316
00023a  69a8              LDR      r0,[r5,#0x18]         ;1316  ; hWinR
00023c  f7fffffe          BL       WM_GetDialogItem
000240  4604              MOV      r4,r0                 ;1316
000242  4951              LDR      r1,|L6.904|
000244  4620              MOV      r0,r4                 ;1317
000246  f7fffffe          BL       TEXT_SetBkColor
00024a  2100              MOVS     r1,#0                 ;1318
00024c  4620              MOV      r0,r4                 ;1318
00024e  f7fffffe          BL       TEXT_SetTextColor
000252  2000              MOVS     r0,#0                 ;1319
000254  e002              B        |L6.604|
                  |L6.598|
000256  543e              STRB     r6,[r7,r0]            ;1321
000258  1c40              ADDS     r0,r0,#1              ;1319
00025a  b2c0              UXTB     r0,r0                 ;1319
                  |L6.604|
00025c  2805              CMP      r0,#5                 ;1319
00025e  d3fa              BCC      |L6.598|
000260  2016              MOVS     r0,#0x16              ;1324
000262  7128              STRB     r0,[r5,#4]            ;1324
000264  e72e              B        |L6.196|
                  |L6.614|
000266  4649              MOV      r1,r9                 ;1352
000268  f7fffffe          BL       WM_GetDialogItem
00026c  4604              MOV      r4,r0                 ;1352
00026e  f06f4170          MVN      r1,#0xf0000000        ;1353
000272  4620              MOV      r0,r4                 ;1353
000274  f7fffffe          BL       TEXT_SetBkColor
000278  f06f417f          MVN      r1,#0xff000000        ;1354
00027c  4620              MOV      r0,r4                 ;1354
00027e  f7fffffe          BL       TEXT_SetTextColor
000282  4651              MOV      r1,r10                ;1357
000284  69a8              LDR      r0,[r5,#0x18]         ;1357  ; hWinR
000286  f7fffffe          BL       WM_GetDialogItem
00028a  4604              MOV      r4,r0                 ;1357
00028c  493e              LDR      r1,|L6.904|
00028e  4620              MOV      r0,r4                 ;1358
000290  f7fffffe          BL       TEXT_SetBkColor
000294  2100              MOVS     r1,#0                 ;1359
000296  4620              MOV      r0,r4                 ;1359
000298  f7fffffe          BL       TEXT_SetTextColor
00029c  2000              MOVS     r0,#0                 ;1360
00029e  e002              B        |L6.678|
                  |L6.672|
0002a0  543e              STRB     r6,[r7,r0]            ;1362
0002a2  1c40              ADDS     r0,r0,#1              ;1360
0002a4  b2c0              UXTB     r0,r0                 ;1360
                  |L6.678|
0002a6  2805              CMP      r0,#5                 ;1360
0002a8  d3fa              BCC      |L6.672|
0002aa  2040              MOVS     r0,#0x40              ;1365
0002ac  7128              STRB     r0,[r5,#4]            ;1365
0002ae  e709              B        |L6.196|
                  |L6.688|
0002b0  4651              MOV      r1,r10                ;1372
0002b2  f7fffffe          BL       WM_GetDialogItem
0002b6  4604              MOV      r4,r0                 ;1372
0002b8  f06f4170          MVN      r1,#0xf0000000        ;1373
0002bc  4620              MOV      r0,r4                 ;1373
0002be  f7fffffe          BL       TEXT_SetBkColor
0002c2  f06f417f          MVN      r1,#0xff000000        ;1374
0002c6  4620              MOV      r0,r4                 ;1374
0002c8  f7fffffe          BL       TEXT_SetTextColor
0002cc  89a8              LDRH     r0,[r5,#0xc]          ;1375  ; dis_gate_v
0002ce  ee000a10          VMOV     s0,r0                 ;1375
0002d2  eef80a40          VCVT.F32.U32 s1,s0                 ;1375
0002d6  ee800a88          VDIV.F32 s0,s1,s16             ;1375
0002da  ed850a05          VSTR     s0,[r5,#0x14]         ;1375
0002de  ee100a10          VMOV     r0,s0                 ;1376
0002e2  f7fffffe          BL       __aeabi_f2d
0002e6  ec410b10          VMOV     d0,r0,r1              ;1376
0002ea  a125              ADR      r1,|L6.896|
0002ec  ec532b10          VMOV     r2,r3,d0              ;1376
0002f0  a801              ADD      r0,sp,#4              ;1376
0002f2  f7fffffe          BL       __2sprintf
0002f6  a901              ADD      r1,sp,#4              ;1377
0002f8  4620              MOV      r0,r4                 ;1377
0002fa  f7fffffe          BL       TEXT_SetText
0002fe  4649              MOV      r1,r9                 ;1379
000300  69a8              LDR      r0,[r5,#0x18]         ;1379  ; hWinR
000302  f7fffffe          BL       WM_GetDialogItem
000306  4604              MOV      r4,r0                 ;1379
000308  491f              LDR      r1,|L6.904|
00030a  4620              MOV      r0,r4                 ;1380
00030c  f7fffffe          BL       TEXT_SetBkColor
000310  2100              MOVS     r1,#0                 ;1381
000312  4620              MOV      r0,r4                 ;1381
000314  f7fffffe          BL       TEXT_SetTextColor
000318  f7fffffe          BL       Write_Limits
00031c  203f              MOVS     r0,#0x3f              ;1384
00031e  7128              STRB     r0,[r5,#4]            ;1384
000320  f8858000          STRB     r8,[r5,#0]            ;1385
000324  706e              STRB     r6,[r5,#1]            ;1386
000326  e6cd              B        |L6.196|
                  |L6.808|
000328  4649              MOV      r1,r9                 ;1393
00032a  f7fffffe          BL       WM_GetDialogItem
00032e  4604              MOV      r4,r0                 ;1393
000330  f06f4170          MVN      r1,#0xf0000000        ;1394
000334  4620              MOV      r0,r4                 ;1394
000336  f7fffffe          BL       TEXT_SetBkColor
00033a  f06f417f          MVN      r1,#0xff000000        ;1395
00033e  4620              MOV      r0,r4                 ;1395
000340  f7fffffe          BL       TEXT_SetTextColor
000344  4651              MOV      r1,r10                ;1398
000346  69a8              LDR      r0,[r5,#0x18]         ;1398  ; hWinR
000348  f7fffffe          BL       WM_GetDialogItem
00034c  4604              MOV      r4,r0                 ;1398
00034e  490e              LDR      r1,|L6.904|
000350  4620              MOV      r0,r4                 ;1399
000352  f7fffffe          BL       TEXT_SetBkColor
000356  2100              MOVS     r1,#0                 ;1400
000358  4620              MOV      r0,r4                 ;1400
00035a  f7fffffe          BL       TEXT_SetTextColor
00035e  2000              MOVS     r0,#0                 ;1401
000360  e002              B        |L6.872|
                  |L6.866|
000362  543e              STRB     r6,[r7,r0]            ;1403
000364  1c40              ADDS     r0,r0,#1              ;1401
000366  b2c0              UXTB     r0,r0                 ;1401
                  |L6.872|
000368  2805              CMP      r0,#5                 ;1401
00036a  d3fa              BCC      |L6.866|
00036c  2043              MOVS     r0,#0x43              ;1406
00036e  7128              STRB     r0,[r5,#4]            ;1406
000370  e6a8              B        |L6.196|
;;;1432   
                          ENDP

000372  0000              DCW      0x0000
                  |L6.884|
                          DCD      ||.data||
                  |L6.888|
000378  42c80000          DCFS     0x42c80000 ; 100
                  |L6.892|
                          DCD      Run_Control
                  |L6.896|
000380  252e3266          DCB      "%.2f",0
000384  00      
000385  00                DCB      0
000386  00                DCB      0
000387  00                DCB      0
                  |L6.904|
                          DCD      0x00bfffff
                  |L6.908|
00038c  25346400          DCB      "%4d",0

                          AREA ||i._cbDialog||, CODE, READONLY, ALIGN=2

                          REQUIRE _printf_percent
                          REQUIRE _printf_widthprec
                          REQUIRE _printf_f
                          REQUIRE _printf_fp_dec
                          REQUIRE _printf_pre_padding
                          REQUIRE _printf_flags
                          REQUIRE _printf_d
                          REQUIRE _printf_int_dec
                  _cbDialog PROC
;;;172    */
;;;173    static void _cbDialog(WM_MESSAGE * pMsg) {
000000  e92d4ff0          PUSH     {r4-r11,lr}
000004  ed2d8b02          VPUSH    {d8}
000008  b083              SUB      sp,sp,#0xc
00000a  4604              MOV      r4,r0
;;;174        WM_HWIN hItem;
;;;175    //    int     NCode;
;;;176    //    int     Id;
;;;177        char  buf[5];
;;;178        float dis_init_c = (float)set_init_c/100;
00000c  f8df8404          LDR      r8,|L7.1044|
000010  f8b8002c          LDRH     r0,[r8,#0x2c]  ; Run_Control
000014  ee000a10          VMOV     s0,r0
000018  eef80a40          VCVT.F32.U32 s1,s0
00001c  ed9f0afe          VLDR     s0,|L7.1048|
000020  ee808a80          VDIV.F32 s16,s1,s0
;;;179        float dis_sbs_c = (float)set_sbs_c/100;
000024  f8b8002e          LDRH     r0,[r8,#0x2e]  ; Run_Control
000028  ee000a90          VMOV     s1,r0
00002c  eef80a60          VCVT.F32.U32 s1,s1
000030  eec08a80          VDIV.F32 s17,s1,s0
;;;180    
;;;181    
;;;182      // USER START (Optionally insert additional variables)
;;;183      // USER END
;;;184    //    int i;
;;;185            
;;;186    
;;;187    
;;;188      switch (pMsg->MsgId) {
000034  6820              LDR      r0,[r4,#0]
;;;189    		
;;;190    	case WM_PAINT:
;;;191    	GUI_SetColor(GUI_WHITE);//设置画笔颜色
;;;192    	GUI_FillRect(0,25,480,26);//画一条实线
;;;193        GUI_SetColor(GUI_ORANGE);
;;;194    	GUI_SetFont(&GUI_Fontsymbol);
;;;195    	GUI_UC_SetEncodeUTF8();
;;;196    	GUI_SetTextMode(GUI_TM_TRANS);//设置文本模式为底色透明
;;;197    	GUI_DispStringAt("Jinko", 5, 1);//SET
;;;198        if(lang == 0)
;;;199        {
;;;200            GUI_SetColor(GUI_WHITE);
;;;201            GUI_SetFont(&GUI_FontHZ20S);
;;;202            GUI_UC_SetEncodeUTF8();
;;;203            GUI_SetTextMode(GUI_TM_TRANS);//设置文本模式为底色透明
;;;204            GUI_DispStringAt("测量显示", 130, 3);//SET
;;;205        }else{
;;;206            GUI_SetColor(GUI_WHITE);
;;;207            GUI_SetFont(&GUI_Font20_ASCII);
;;;208            GUI_DispStringAt("DISPLAY", 130, 3);
;;;209        }
;;;210        GUI_SetFont(&GUI_Font24_1);
;;;211    
;;;212    
;;;213        switch(para_set2){
;;;214                case set_2_on:
;;;215                {
;;;216    //                 GUI_SetFont(&GUI_FontD24x32);
;;;217    //                 GUI_GotoXY(95,184);//
;;;218    //                 GUI_DispFloatFix(DISS_Current,5,2);
;;;219                    GUI_SetFont(&GUI_FontEN40);
;;;220                    GUI_SetColor(GUI_LIGHTGRAY);
000036  f8df93e4          LDR      r9,|L7.1052|
00003a  4ef9              LDR      r6,|L7.1056|
00003c  f06f477f          MVN      r7,#0xff000000        ;191
000040  280f              CMP      r0,#0xf               ;188
000042  d00d              BEQ      |L7.96|
000044  281d              CMP      r0,#0x1d              ;188
000046  d07d              BEQ      |L7.324|
000048  f5a07080          SUB      r0,r0,#0x100          ;188
00004c  3813              SUBS     r0,r0,#0x13           ;188
00004e  d07a              BEQ      |L7.326|
;;;221                    GUI_DispStringAt("I:", 28, 190);
;;;222                    GUI_SetColor(GUI_LIGHTGRAY);
;;;223                    GUI_DispStringAt("A", 217, 187);
;;;224                    GUI_SetFont(&GUI_Font24_1);
;;;225                    GUI_SetColor(GUI_WHITE);
;;;226                    GUI_DispStringAt("A",460,60);
;;;227                    GUI_DispStringAt("A",460,90);
;;;228                    GUI_DispStringAt("V",460,120);
;;;229                    GUI_DispStringAt("ms",450,150);
;;;230                    GUI_DispStringAt("A",460,175);
;;;231                    GUI_DispStringAt("ms",450,200);                
;;;232                    if(lang == 0)
;;;233                    {
;;;234                        GUI_SetFont(&GUI_Fontset_font);
;;;235                        GUI_DispStringAt("电流", 300, 175);
;;;236                        GUI_DispStringAt("短路时间", 300, 200);//SET
;;;237                        GUI_DispStringAt("过流测试", 340, 30);//SET
;;;238                    }else{
;;;239                        GUI_SetFont(&GUI_Font20_ASCII);
;;;240                        GUI_DispStringAt("Current", 300, 170);
;;;241                        GUI_DispStringAt("Short Time", 300, 200);//SET
;;;242                        GUI_DispStringAt("Overflow test", 340, 30);//SET
;;;243                    }
;;;244    //                 if(oc_data == 0)
;;;245    //                 {
;;;246    //                     GUI_SetFont(&GUI_Font24_1);
;;;247    //                     GUI_DispStringAt("__", 410, 140);
;;;248    
;;;249    //                 }else{
;;;250    //                     GUI_SetFont(&GUI_Font24_1);
;;;251    //                     GUI_GotoXY(400,150);//
;;;252    //                     GUI_DispFloatFix(oc_data,5,2);
;;;253    //                 }
;;;254                    break;
;;;255                }
;;;256                case set_2_off:
;;;257                {
;;;258                    break;
;;;259                }
;;;260        }
;;;261    	break;
;;;262    	case WM_TIMER://定时模块消息
;;;263    	if(WM_GetTimerId(pMsg->Data.v) == ID_TimerTime)
;;;264    	{
;;;265    //         if(para_set2 == set_2_on)
;;;266    //         {
;;;267    //             if(short_finish == 1)
;;;268    //             {
;;;269    //                 if(gate_v == 0)
;;;270    //                 {
;;;271    //                     if(GUI_GetTime()/500 - test_ftime == 1)
;;;272    //                     {
;;;273    //                         GPIO_ResetBits(GPIOB,GPIO_Pin_13);
;;;274    //                         Mode_SW_CONT(0x01);
;;;275    //                     }
;;;276    //                     if(/*mode_sw == mode_pow && */DISS_Voltage < 0.3  && GUI_GetTime()/500 - test_ftime > 1 /*&& 
;;;277    //                         < 50*/)
;;;278    //                     {
;;;279    //                         GPIO_ResetBits(GPIOB,GPIO_Pin_13);
;;;280    //                         Mode_SW_CONT(0x01);
;;;281    //                         finish = 0;
;;;282    //                         con_flag = 0;
;;;283    //                         short_finish = 0;
;;;284    //                         test_finish = 0;
;;;285    //                         r_test = 0;
;;;286    //                     }
;;;287    //                 }else{
;;;288    //                     if(GUI_GetTime()/500 - test_ftime == 2)
;;;289    //                     {
;;;290    //                         GPIO_ResetBits(GPIOB,GPIO_Pin_13);
;;;291    //                         Mode_SW_CONT(0x01);
;;;292    //                     }
;;;293    //                     if(/* mode_sw == mode_pow && */(r_test == 0 || DISS_Voltage < gate_v) && GUI_GetTime()/500 - test_ftime > 1/*&& R_VLUE < 50*/)
;;;294    //                     { 
;;;295    //                         GPIO_ResetBits(GPIOB,GPIO_Pin_13);
;;;296    //                         Mode_SW_CONT(0x01);
;;;297    //                         finish = 0;
;;;298    //                         con_flag = 0;
;;;299    //                         short_finish = 0;
;;;300    //                         test_finish = 0;
;;;301    //                         r_test = 0;
;;;302    //                     }
;;;303    //                 }                    
;;;304    //             }else{
;;;305    //                 if(para_set2 == set_2_on)
;;;306    //                 {
;;;307    //                     if(gate_v == 0)
;;;308    //                     {
;;;309    //                         if(DISS_Voltage > 1 && R_VLUE > 50 && con_flag == 0 && finish == 0)
;;;310    //                         {
;;;311    //                             con_flag = 1;
;;;312    //                             time1 = (float)GUI_GetTime()/500.0;
;;;313    //                         }
;;;314    //                         
;;;315    //                         if(con_flag == 1 && oct_sw == oct_off && finish == 0)
;;;316    //                         {
;;;317    //                             if((float)(GUI_GetTime()/500.0 - time1) > 0.2)
;;;318    //                             {
;;;319    //                                 r = R_VLUE;
;;;320    //                                 v = DISS_Voltage;
;;;321    //                                 oct_sw = oct_on;
;;;322    //                                 clear_flag1 = 0;
;;;323    //                             }
;;;324    //                         }
;;;325    //                     }else{
;;;326    //                         if(DISS_Voltage > gate_v && R_VLUE > 50 && con_flag == 0 && finish == 0 && r_test == 1)
;;;327    //                         {
;;;328    //                             con_flag = 1;
;;;329    //                             time1 = (float)GUI_GetTime()/500.0;
;;;330    //                         }                       
;;;331    //                         if(con_flag == 1 && oct_sw == oct_off && finish == 0)
;;;332    //                         {
;;;333    //                             if((float)(GUI_GetTime()/500.0 - time1) > 0.2)
;;;334    //                             {
;;;335    //                                 r = R_VLUE;
;;;336    //                                 v = DISS_Voltage;
;;;337    //                                 oct_sw = oct_on;
;;;338    //                                 clear_flag1 = 0;
;;;339    //                             }
;;;340    //                         }
;;;341    //                     }
;;;342    //                 }
;;;343    //                 
;;;344    //             }
;;;345    //             
;;;346    //             
;;;347    //             
;;;348    //             if(oct_sw == oct_on && para_set2 == set_2_on)
;;;349    //             {
;;;350    //                 Mode_SW_CONT(0x02);
;;;351    //                 GPIO_ResetBits(GPIOC,GPIO_Pin_1);
;;;352    // //                OC_ADD();
;;;353    //                 hItem = WM_GetDialogItem(pMsg->hWin, ID_TEXT_81);
;;;354    //                 TEXT_SetFont(hItem,&GUI_FontD24x32);
;;;355    //                 sprintf(buf,"%4d",r);       
;;;356    //                 TEXT_SetText(hItem,buf);
;;;357    //                 
;;;358    //     //             if(status_flash == 0){
;;;359    
;;;360    //                 hItem = WM_GetDialogItem(pMsg->hWin, ID_TEXT_98);
;;;361    //                 TEXT_SetTextColor(hItem, GUI_RED);
;;;362    //                 if(lang == 0)
;;;363    //                 {
;;;364    //                     GUI_SetFont(&GUI_Fontset_font);
;;;365    //                     TEXT_SetText(hItem, "测试中");
;;;366    //                     status_flash = 1;
;;;367    //                 }else{
;;;368    //                     GUI_SetFont(&GUI_Font20_ASCII);
;;;369    //                     TEXT_SetText(hItem, "Testing");
;;;370    //                     status_flash = 1;
;;;371    //                 }
;;;372    //                     
;;;373    //     //             }else{
;;;374    //     //                 hItem = WM_GetDialogItem(pMsg->hWin, ID_TEXT_98);
;;;375    //     //                 TEXT_SetText(hItem,"");
;;;376    //     //                 status_flash = 0;
;;;377    //     //             }
;;;378    //                 
;;;379    //             }else
;;;380    //             {
;;;381    //                 hItem = WM_GetDialogItem(pMsg->hWin, ID_TEXT_98);
;;;382    //                 TEXT_SetTextColor(hItem, GUI_WHITE);
;;;383    //                 
;;;384    //                 
;;;385    //                 if(lang == 0)
;;;386    //                 {
;;;387    //                     GUI_SetFont(&GUI_Fontset_font);
;;;388    //                     TEXT_SetText(hItem, "未测试");
;;;389    //                 }else{
;;;390    //                     GUI_SetFont(&GUI_Font20_ASCII);
;;;391    //                     TEXT_SetText(hItem, "Untested");
;;;392    //                 }
;;;393    //             }
;;;394    //             
;;;395    //             if(oct_sw == oct_off && finish == 0)
;;;396    //             {
;;;397    //                 if(DISS_Voltage > 1 && r_stable == 0)
;;;398    //                 {
;;;399    //                     r_stable = 1;
;;;400    //                     stable_time = GUI_GetTime()/500;
;;;401    //                 }else if(DISS_Voltage < 1){
;;;402    //                     r_stable = 0;
;;;403    //                 }                    
;;;404    //                 if(clear_flag1 == 1 && DISS_Voltage <= clear_v)
;;;405    //                 {
;;;406    //                     hItem = WM_GetDialogItem(pMsg->hWin, ID_TEXT_80);
;;;407    //                     sprintf(buf,"%.2f",0);       
;;;408    //                     TEXT_SetText(hItem,buf);
;;;409    //                 }else{
;;;410    //                     hItem = WM_GetDialogItem(pMsg->hWin, ID_TEXT_80);
;;;411    //                     sprintf(buf,"%.2f",DISS_Voltage);       
;;;412    //                     TEXT_SetText(hItem,buf);
;;;413    //                 }
;;;414    //                 if(clear_flag1 == 1 && R_VLUE <= clear_r)
;;;415    //                 {
;;;416    //                     hItem = WM_GetDialogItem(pMsg->hWin, ID_TEXT_81);
;;;417    //                     sprintf(buf,"%4d",0);       
;;;418    //                     TEXT_SetText(hItem,buf);
;;;419    //                 }
;;;420    // //                 else if(R_VLUE >= 1000)
;;;421    // //                 {
;;;422    // //                     hItem = WM_GetDialogItem(pMsg->hWin, ID_TEXT_81);
;;;423    // //                     TEXT_SetFont(hItem,&GUI_FontEN40);//设定文本字体
;;;424    // //                     TEXT_SetText(hItem,"");
;;;425    // //                 }
;;;426    //                 else{
;;;427    //                         if(GUI_GetTime()/500 - stable_time == 1 && r_stable == 1)
;;;428    //                         {
;;;429    //                             r = R_VLUE;
;;;430    //                             hItem = WM_GetDialogItem(pMsg->hWin, ID_TEXT_81);
;;;431    //                             TEXT_SetFont(hItem,&GUI_FontD24x32);
;;;432    //                             sprintf(buf,"%4d",r);       
;;;433    //                             TEXT_SetText(hItem,buf);
;;;434    //                         }else if(r_stable == 0)
;;;435    //                         {
;;;436    //                             if(DISS_Voltage < 0.3)
;;;437    //                             {
;;;438    //                                 if(para_set1 == set_1_on)
;;;439    //                                 {
;;;440    //                                     TM1650_SET_LED(0x68,0x70);
;;;441    //                                     GPIO_ResetBits(GPIOD,GPIO_Pin_12);//灭灯
;;;442    //                                 }
;;;443    //                                 hItem = WM_GetDialogItem(pMsg->hWin, ID_TEXT_81);
;;;444    //                                 TEXT_SetFont(hItem,&GUI_FontD24x32);
;;;445    //                                 TEXT_SetTextColor(hItem, GUI_GREEN);
;;;446    //                                 sprintf(buf,"%4d",0);       
;;;447    //                                 TEXT_SetText(hItem,buf);
;;;448    //                             }else{
;;;449    //                                 
;;;450    // //                                 hItem = WM_GetDialogItem(pMsg->hWin, ID_TEXT_81);
;;;451    // //                                 TEXT_SetFont(hItem,&GUI_FontD24x32);
;;;452    // //                                 
;;;453    // //                                 sprintf(buf,"%4d",R_VLUE);       
;;;454    // //                                 TEXT_SetText(hItem,buf);
;;;455    //                             }
;;;456    // //                              hItem = WM_GetDialogItem(pMsg->hWin, ID_TEXT_81);
;;;457    // //                                 TEXT_SetFont(hItem,&GUI_FontD24x32);
;;;458    // //                                 
;;;459    // //                                 sprintf(buf,"%4d",R_VLUE);       
;;;460    // //                                 TEXT_SetText(hItem,buf);
;;;461    //                         }                        
;;;462    //                 }
;;;463    //                 short_time = 0;
;;;464    //                 hItem = WM_GetDialogItem(pMsg->hWin, ID_TEXT_117);
;;;465    //                 sprintf(buf,"%4d",short_time);
;;;466    //                 TEXT_SetFont(hItem,&GUI_Font24_1);//设定文本字体      
;;;467    //                 TEXT_SetText(hItem,buf);
;;;468    //                 
;;;469    //                 oc_data = 0;
;;;470    //                 hItem = WM_GetDialogItem(pMsg->hWin, ID_TEXT_82);
;;;471    //                 sprintf(buf,"%.2f",oc_data);
;;;472    //                 TEXT_SetText(hItem,buf);
;;;473    //             }else{
;;;474    //                 if(para_set2 == set_2_on)
;;;475    //                 {
;;;476    //                     hItem = WM_GetDialogItem(pMsg->hWin, ID_TEXT_80);
;;;477    //                     sprintf(buf,"%.2f",v);       
;;;478    //                     TEXT_SetText(hItem,buf);
;;;479    //                     
;;;480    //                     hItem = WM_GetDialogItem(pMsg->hWin, ID_TEXT_81);
;;;481    //                     TEXT_SetFont(hItem,&GUI_FontD24x32);
;;;482    //                     sprintf(buf,"%4d",r);       
;;;483    //                     TEXT_SetText(hItem,buf);
;;;484    //                     
;;;485    //                     hItem = WM_GetDialogItem(pMsg->hWin, ID_TEXT_117);
;;;486    //                     sprintf(buf,"%4d",short_time);
;;;487    //                     TEXT_SetFont(hItem,&GUI_Font24_1);//设定文本字体      
;;;488    //                     TEXT_SetText(hItem,buf);
;;;489    //                     
;;;490    //                     if(short_finish == 0 ){
;;;491    //                         if(DISS_Voltage < 1 && short_flag == 0 && oct_sw == oct_off)
;;;492    //                         {
;;;493    //                             SET_Voltage =1000;
;;;494    //                             SET_Current = 1000;
;;;495    //                             Mode_SW_CONT(0x03);
;;;496    //                             GPIO_SetBits(GPIOB,GPIO_Pin_13);
;;;497    //                             //GPIO_ResetBits(GPIOB,GPIO_Pin_13);
;;;498    //                         }else if(oct_sw == oct_off && short_flag == 0){
;;;499    //                             Mode_SW_CONT(0x02);
;;;500    //                             SET_Current_Laod = 1000;
;;;501    //                             short_flag =1;
;;;502    //                             short_start = GUI_GetTime()*2;
;;;503    //                         }
;;;504    //                         if(short_flag == 1)
;;;505    //                         {
;;;506    //                             GPIO_ResetBits(GPIOC,GPIO_Pin_1);
;;;507    //                             if(DISS_Voltage < 1){
;;;508    //                                 SET_Current_Laod = set_init_c;
;;;509    //                                 short_time = GUI_GetTime()*2 - short_start;
;;;510    //                                 short_flag = 0;
;;;511    //                                 short_finish = 1;
;;;512    //                                 hItem = WM_GetDialogItem(pMsg->hWin, ID_TEXT_117);
;;;513    //                                 sprintf(buf,"%4d",short_time);     
;;;514    //                                 TEXT_SetText(hItem,buf);
;;;515    //                             }
;;;516    //                         }
;;;517    //                     }
;;;518    //                     if(short_finish == 1 && test_finish == 0)
;;;519    //                     {
;;;520    //                         GPIO_SetBits(GPIOC,GPIO_Pin_1);
;;;521    //                         Mode_SW_CONT(0x03);
;;;522    //                         SET_Voltage = 1000;
;;;523    //                         SET_Current = 1000;
;;;524    //                         GPIO_SetBits(GPIOB,GPIO_Pin_13);
;;;525    //                         
;;;526    //                         
;;;527    // //                         GPIO_ResetBits(GPIOB,GPIO_Pin_13);                                                
;;;528    // //                         Mode_SW_CONT(0x01);
;;;529    //                         
;;;530    //                         test_ftime = GUI_GetTime()/500;
;;;531    //                         test_finish = 1;
;;;532    //                     } 
;;;533    //                 }
;;;534    //                 
;;;535    //                 
;;;536    //                 
;;;537    //     //             if(R_VLUE >= 1000)
;;;538    //     //             {
;;;539    //     //                 hItem = WM_GetDialogItem(pMsg->hWin, ID_TEXT_81);
;;;540    //     //                 TEXT_SetFont(hItem,&GUI_FontEN40);//设定文本字体
;;;541    //     //                 TEXT_SetText(hItem,"");
;;;542    //     //             }else{
;;;543    //                     
;;;544    //     //             }
;;;545    //             }
;;;546    //             
;;;547    //             
;;;548    //             
;;;549    //             
;;;550    //                     
;;;551    //             hItem = WM_GetDialogItem(pMsg->hWin, ID_TEXT_82);
;;;552    //             sprintf(buf,"%.2f",oc_data);
;;;553    //             TEXT_SetText(hItem,buf);
;;;554    //             
;;;555    //             hItem = WM_GetDialogItem(pMsg->hWin, ID_TEXT_83);
;;;556    //             sprintf(buf,"%.2f",DISS_Current);
;;;557    //             TEXT_SetText(hItem,buf); 
;;;558    //         }else{
;;;559    //             
;;;560    //             if(DISS_Voltage > 1 && r_stable == 0)
;;;561    //             {
;;;562    //                 r_stable = 1;
;;;563    //                 stable_time = GUI_GetTime()/500;
;;;564    //             }else if(DISS_Voltage < 1){
;;;565    //                 r_stable = 0;
;;;566    //             }
;;;567    //                 
;;;568    //             if(clear_flag1 == 1 && DISS_Voltage <= clear_v)
;;;569    //                 {
;;;570    //                     hItem = WM_GetDialogItem(pMsg->hWin, ID_TEXT_80);
;;;571    //                     sprintf(buf,"%.2f",0);       
;;;572    //                     TEXT_SetText(hItem,buf);
;;;573    //                 }else{
;;;574    //                     hItem = WM_GetDialogItem(pMsg->hWin, ID_TEXT_80);
;;;575    //                     sprintf(buf,"%.2f",DISS_Voltage);       
;;;576    //                     TEXT_SetText(hItem,buf);
;;;577    //                 }
;;;578    //                 if(clear_flag1 == 1 && R_VLUE <= clear_r)
;;;579    //                 {
;;;580    //                     hItem = WM_GetDialogItem(pMsg->hWin, ID_TEXT_81);
;;;581    //                     sprintf(buf,"%4d",0);       
;;;582    //                     TEXT_SetText(hItem,buf);
;;;583    //                 }
;;;584    //                 else if(R_VLUE >= 1000 && DISS_Voltage > 1)
;;;585    //                 {
;;;586    //                     hItem = WM_GetDialogItem(pMsg->hWin, ID_TEXT_81);
;;;587    //                     TEXT_SetFont(hItem,&GUI_FontEN40);//设定文本字体
;;;588    //                     TEXT_SetText(hItem,"");
;;;589    //                 }else{
;;;590    //                     if(GUI_GetTime()/500 - stable_time == 1 && r_stable == 1)
;;;591    //                     {
;;;592    //                         r = R_VLUE;
;;;593    //                         hItem = WM_GetDialogItem(pMsg->hWin, ID_TEXT_81);
;;;594    //                         TEXT_SetFont(hItem,&GUI_FontD24x32);
;;;595    //                         sprintf(buf,"%4d",r);       
;;;596    //                         TEXT_SetText(hItem,buf);
;;;597    //                     }else if(r_stable == 0)
;;;598    //                     {
;;;599    //                         if(DISS_Voltage < 0.3)
;;;600    //                             {
;;;601    //                                 if(para_set1 == set_1_on)
;;;602    //                                 {
;;;603    //                                     TM1650_SET_LED(0x68,0x70);
;;;604    //                                     GPIO_ResetBits(GPIOD,GPIO_Pin_12);//灭灯
;;;605    //                                 }
;;;606    //                                 hItem = WM_GetDialogItem(pMsg->hWin, ID_TEXT_81);
;;;607    //                                 TEXT_SetFont(hItem,&GUI_FontD24x32);
;;;608    //                                 TEXT_SetTextColor(hItem, GUI_GREEN);
;;;609    //                                 sprintf(buf,"%4d",0);       
;;;610    //                                 TEXT_SetText(hItem,buf);
;;;611    //                             }else{
;;;612    //                                 
;;;613    // //                                 hItem = WM_GetDialogItem(pMsg->hWin, ID_TEXT_81);
;;;614    // //                                 TEXT_SetFont(hItem,&GUI_FontD24x32);
;;;615    // //                                 
;;;616    // //                                 sprintf(buf,"%4d",R_VLUE);       
;;;617    // //                                 TEXT_SetText(hItem,buf);
;;;618    //                             }
;;;619    // //                              hItem = WM_GetDialogItem(pMsg->hWin, ID_TEXT_81);
;;;620    // //                                 TEXT_SetFont(hItem,&GUI_FontD24x32);
;;;621    // //                                 
;;;622    // //                                 sprintf(buf,"%4d",R_VLUE);       
;;;623    // //                                 TEXT_SetText(hItem,buf);
;;;624    //                     }                 
;;;625    //                 }
;;;626    //             
;;;627    //         }
;;;628    //                
;;;629    
;;;630    //         if(para_set2 == set_2_on)
;;;631    //         {
;;;632    //             if(para_set1 == set_1_on && oct_sw == oct_off && finish == 1)
;;;633    //             {
;;;634    //                  test_r();
;;;635    //             }else
;;;636    //             {
;;;637    //                 TM1650_SET_LED(0x68,0x70);
;;;638    //                 GPIO_ResetBits(GPIOD,GPIO_Pin_12);//灭灯
;;;639    //             }
;;;640    //         }else{
;;;641    //             if(para_set1 == set_1_on && DISS_Voltage > 1)
;;;642    //             {
;;;643    //                  test_r();
;;;644    //             }else
;;;645    //             {
;;;646    //                 TM1650_SET_LED(0x68,0x70);
;;;647    //                 GPIO_ResetBits(GPIOD,GPIO_Pin_12);//灭灯
;;;648    //             }
;;;649    //         }
;;;650    
;;;651    //         
;;;652    //         if(oct_sw == oct_off)
;;;653    //         {
;;;654    //             switch(b_type)
;;;655    //             {
;;;656    //                 case Lion:
;;;657    //                 {
;;;658    //                     if(R_VLUE != 0  && DISS_Voltage >= 3.4 && DISS_Voltage <= 4.2)
;;;659    //                     {
;;;660    //                         hItem = WM_GetDialogItem(pMsg->hWin, ID_TEXT_96);
;;;661    //                         TEXT_SetTextColor(hItem, GUI_WHITE);//设置字体颜色      
;;;662    //                         if(lang == 0)
;;;663    //                         {
;;;664    //                             TEXT_SetFont(hItem,&GUI_Fontset_font);
;;;665    //                             TEXT_SetText(hItem,"锂电池");
;;;666    //                         }else{
;;;667    //                             TEXT_SetFont(hItem,&GUI_Font20_ASCII);
;;;668    //                             TEXT_SetText(hItem,"Lion");
;;;669    //                         }
;;;670    //                     }else{
;;;671    //                         hItem = WM_GetDialogItem(pMsg->hWin, ID_TEXT_96);
;;;672    //                         TEXT_SetTextColor(hItem, GUI_RED);//设置字体颜色      
;;;673    //                         TEXT_SetText(hItem,"");
;;;674    //                     }
;;;675    //                     break;
;;;676    //                 }
;;;677    //                 case NiMH:
;;;678    //                 {
;;;679    //                     if(R_VLUE != 0  && DISS_Voltage >= 0.9 && DISS_Voltage <= 1.4)
;;;680    //                     {
;;;681    //                         hItem = WM_GetDialogItem(pMsg->hWin, ID_TEXT_96);
;;;682    //                         TEXT_SetTextColor(hItem, GUI_WHITE);//设置字体颜色      
;;;683    //                         if(lang == 0)
;;;684    //                         {
;;;685    //                             TEXT_SetFont(hItem,&GUI_Fontset_font);
;;;686    //                             TEXT_SetText(hItem,"镍氢电池");
;;;687    //                         }else{
;;;688    //                             TEXT_SetFont(hItem,&GUI_Font20_ASCII);
;;;689    //                             TEXT_SetText(hItem,"NiMH");
;;;690    //                         }
;;;691    //                     }else{
;;;692    //                         hItem = WM_GetDialogItem(pMsg->hWin, ID_TEXT_96);
;;;693    //                         TEXT_SetTextColor(hItem, GUI_RED);//设置字体颜色      
;;;694    //                         TEXT_SetText(hItem,"");
;;;695    //                     }
;;;696    //                     break;
;;;697    //                 }
;;;698    //                 case NiCd:
;;;699    //                 {
;;;700    //                     if(R_VLUE != 0 && DISS_Voltage >= 0.9 && DISS_Voltage <= 1.4)
;;;701    //                     {
;;;702    //                         hItem = WM_GetDialogItem(pMsg->hWin, ID_TEXT_96);
;;;703    //                         TEXT_SetTextColor(hItem, GUI_WHITE);//设置字体颜色      
;;;704    //                         if(lang == 0)
;;;705    //                         {
;;;706    //                             TEXT_SetFont(hItem,&GUI_Fontset_font);
;;;707    //                             TEXT_SetText(hItem,"镍镉电池");
;;;708    //                         }else{
;;;709    //                             TEXT_SetFont(hItem,&GUI_Font20_ASCII);
;;;710    //                             TEXT_SetText(hItem,"NiCd");
;;;711    //                         }
;;;712    //                     }else{
;;;713    //                         hItem = WM_GetDialogItem(pMsg->hWin, ID_TEXT_96);
;;;714    //                         TEXT_SetTextColor(hItem, GUI_RED);//设置字体颜色      
;;;715    //                         TEXT_SetText(hItem,"");
;;;716    //                     }
;;;717    //                     break;
;;;718    //                 }
;;;719    //                 case SLA:
;;;720    //                 {
;;;721    //                     if(R_VLUE != 0  && DISS_Voltage >= 1.8 && DISS_Voltage <= 2.4)
;;;722    //                     {
;;;723    //                         hItem = WM_GetDialogItem(pMsg->hWin, ID_TEXT_96);
;;;724    //                         TEXT_SetTextColor(hItem, GUI_WHITE);//设置字体颜色      
;;;725    //                         if(lang == 0)
;;;726    //                         {
;;;727    //                             TEXT_SetFont(hItem,&GUI_Fontset_font);
;;;728    //                             TEXT_SetText(hItem,"小型铅酸电池");
;;;729    //                         }else{
;;;730    //                             TEXT_SetFont(hItem,&GUI_Font20_ASCII);
;;;731    //                             TEXT_SetText(hItem,"SLA");
;;;732    //                         }
;;;733    //                     }else{
;;;734    //                         hItem = WM_GetDialogItem(pMsg->hWin, ID_TEXT_96);
;;;735    //                         TEXT_SetTextColor(hItem, GUI_RED);//设置字体颜色      
;;;736    //                         TEXT_SetText(hItem,"");
;;;737    //                     }
;;;738    //                     break;
;;;739    //                 }
;;;740    //                 case LiMH:
;;;741    //                 {
;;;742    //                     if(R_VLUE != 0  && DISS_Voltage >= 2.8 && DISS_Voltage <= 3.3)
;;;743    //                     {
;;;744    //                         hItem = WM_GetDialogItem(pMsg->hWin, ID_TEXT_96);
;;;745    //                         TEXT_SetTextColor(hItem, GUI_WHITE);//设置字体颜色      
;;;746    //                         if(lang == 0)
;;;747    //                         {
;;;748    //                             TEXT_SetFont(hItem,&GUI_Fontset_font);
;;;749    //                             TEXT_SetText(hItem,"锂锰电池");
;;;750    //                         }else{
;;;751    //                             TEXT_SetFont(hItem,&GUI_Font20_ASCII);
;;;752    //                             TEXT_SetText(hItem,"LiMH");
;;;753    //                         }
;;;754    //                     }else{
;;;755    //                         hItem = WM_GetDialogItem(pMsg->hWin, ID_TEXT_96);
;;;756    //                         TEXT_SetTextColor(hItem, GUI_RED);//设置字体颜色      
;;;757    //                         TEXT_SetText(hItem,"");
;;;758    //                     }
;;;759    //                     break;
;;;760    //                 }
;;;761    //             }
;;;762    //         }
;;;763    //             
;;;764    // 		WM_RestartTimer(pMsg->Data.v, 20);//复位定时器数值越大刷新时间越短
;;;765    	}
;;;766    	break;
;;;767        
;;;768    		
;;;769      case WM_INIT_DIALOG:
;;;770        //
;;;771        // Initialization of 'R'
;;;772    	
;;;773        //
;;;774            hItem = pMsg->hWin;
;;;775            WINDOW_SetBkColor(hItem, GUI_BLACK);
;;;776    		WM_CreateTimer(hItem,ID_TimerTime,500,0);//创建本窗口定时器  
;;;777    
;;;778    	
;;;779            if(lang == 0)
;;;780            {
;;;781                hItem = WM_GetDialogItem(pMsg->hWin, ID_BUTTON_13);
;;;782                BUTTON_SetTextColor(hItem,0,GUI_BLACK);//设置字体颜色为黑色
;;;783                BUTTON_SetPressed(hItem,1);
;;;784                BUTTON_SetFont      (hItem,    &GUI_FontHZ16);//设定按钮文本字体
;;;785                GUI_UC_SetEncodeUTF8();
;;;786                BUTTON_SetText(hItem,"内阻测试");
;;;787            
;;;788                hItem = WM_GetDialogItem(pMsg->hWin, ID_BUTTON_14);
;;;789                BUTTON_SetTextColor(hItem,0,GUI_BLACK);//设置字体颜色为黑色
;;;790                BUTTON_SetFont      (hItem,    &GUI_FontHZ16);//设定按钮文本字体
;;;791                GUI_UC_SetEncodeUTF8();
;;;792                BUTTON_SetText(hItem,"程控负载");
;;;793                
;;;794                hItem = WM_GetDialogItem(pMsg->hWin, ID_BUTTON_15);
;;;795                BUTTON_SetTextColor(hItem,0,GUI_BLACK);//设置字体颜色为黑色
;;;796                BUTTON_SetFont      (hItem,    &GUI_FontHZ16);//设定按钮文本字体
;;;797                GUI_UC_SetEncodeUTF8();
;;;798                BUTTON_SetText(hItem,"程控电源");
;;;799                
;;;800                hItem = WM_GetDialogItem(pMsg->hWin, ID_BUTTON_16);
;;;801                BUTTON_SetTextColor(hItem,0,GUI_BLACK);//设置字体颜色为黑色
;;;802                BUTTON_SetFont      (hItem,    &GUI_FontHZ16);//设定按钮文本字体
;;;803                GUI_UC_SetEncodeUTF8();
;;;804                BUTTON_SetText(hItem,"充放电");
;;;805                
;;;806                
;;;807                
;;;808                hItem = WM_GetDialogItem(pMsg->hWin, ID_BUTTON_17);
;;;809                BUTTON_SetTextColor(hItem,0,GUI_BLACK);//设置字体颜色为黑色
;;;810                BUTTON_SetFont      (hItem,&GUI_FontHZ16);//设定按钮文本字体
;;;811                GUI_UC_SetEncodeUTF8();
;;;812                BUTTON_SetText(hItem,"曲线");
;;;813            }else{
;;;814                hItem = WM_GetDialogItem(pMsg->hWin, ID_BUTTON_13);
;;;815                BUTTON_SetTextColor(hItem,0,GUI_BLACK);//设置字体颜色为黑色
;;;816                BUTTON_SetPressed(hItem,1);
;;;817                BUTTON_SetFont      (hItem,    &GUI_Font16B_ASCII);//设定按钮文本字体
;;;818                GUI_UC_SetEncodeUTF8();
;;;819                BUTTON_SetText(hItem,"I.R. TEST");
;;;820            
;;;821                hItem = WM_GetDialogItem(pMsg->hWin, ID_BUTTON_14);
;;;822                BUTTON_SetTextColor(hItem,0,GUI_BLACK);//设置字体颜色为黑色
;;;823                BUTTON_SetFont      (hItem,    &GUI_Font16B_ASCII);//设定按钮文本字体
;;;824                GUI_UC_SetEncodeUTF8();
;;;825                BUTTON_SetText(hItem,"LOAD");
;;;826                
;;;827                hItem = WM_GetDialogItem(pMsg->hWin, ID_BUTTON_15);
;;;828                BUTTON_SetTextColor(hItem,0,GUI_BLACK);//设置字体颜色为黑色
;;;829                BUTTON_SetFont      (hItem,    &GUI_Font16B_ASCII);//设定按钮文本字体
;;;830                GUI_UC_SetEncodeUTF8();
;;;831                BUTTON_SetText(hItem,"POWER");
;;;832                
;;;833                hItem = WM_GetDialogItem(pMsg->hWin, ID_BUTTON_16);
;;;834                BUTTON_SetTextColor(hItem,0,GUI_BLACK);//设置字体颜色为黑色
;;;835                BUTTON_SetFont      (hItem,    &GUI_Font16B_ASCII);//设定按钮文本字体
;;;836                GUI_UC_SetEncodeUTF8();
;;;837                BUTTON_SetText(hItem,"C&DC");
;;;838                
;;;839                
;;;840                
;;;841                hItem = WM_GetDialogItem(pMsg->hWin, ID_BUTTON_17);
;;;842                BUTTON_SetTextColor(hItem,0,GUI_BLACK);//设置字体颜色为黑色
;;;843                BUTTON_SetFont      (hItem,&GUI_Font16B_ASCII);//设定按钮文本字体
;;;844                GUI_UC_SetEncodeUTF8();
;;;845                BUTTON_SetText(hItem,"GRAPH");           
;;;846            }
;;;847    		
;;;848        // Initialization of 'Text'
;;;849        //
;;;850            hItem = WM_GetDialogItem(pMsg->hWin, ID_TEXT_0);
;;;851            TEXT_SetTextColor(hItem, GUI_LIGHTGRAY);
;;;852            TEXT_SetFont(hItem,&GUI_FontEN40);//设定文本字体
;;;853            GUI_UC_SetEncodeUTF8();
;;;854    		TEXT_SetText(hItem,"V:");
;;;855        //
;;;856        // Initialization of 'Text'
;;;857        //
;;;858            hItem = WM_GetDialogItem(pMsg->hWin, ID_TEXT_1);
;;;859            GUI_UC_SetEncodeUTF8();
;;;860            TEXT_SetText(hItem, "R:");
;;;861            TEXT_SetTextColor(hItem, GUI_LIGHTGRAY);
;;;862            TEXT_SetFont(hItem,&GUI_FontEN40);//设定文本字体
;;;863        //
;;;864        // Initialization of 'Text'
;;;865        //
;;;866    		hItem = WM_GetDialogItem(pMsg->hWin, ID_TEXT_3);
;;;867    		TEXT_SetText(hItem, "V");
;;;868            TEXT_SetTextColor(hItem, GUI_LIGHTGRAY);
;;;869            TEXT_SetFont(hItem, &GUI_FontEN40);
;;;870        //
;;;871        // Initialization of 'Text'
;;;872        //
;;;873            hItem = WM_GetDialogItem(pMsg->hWin, ID_TEXT_4);
;;;874    		GUI_UC_SetEncodeUTF8();
;;;875    		TEXT_SetText(hItem, "Ω");
;;;876            TEXT_SetTextColor(hItem, GUI_LIGHTGRAY);
;;;877    		TEXT_SetFont(hItem,&GUI_FontHZ32);//设定按钮文本字体
;;;878        //
;;;879        // Initialization of 'Text'
;;;880        //		
;;;881    		hItem = WM_GetDialogItem(pMsg->hWin, ID_TEXT_6);
;;;882            GUI_UC_SetEncodeUTF8();
;;;883    		TEXT_SetText(hItem, "m");
;;;884            TEXT_SetTextColor(hItem, GUI_LIGHTGRAY);
;;;885    		TEXT_SetFont(hItem, &GUI_FontEN40);
;;;886            
;;;887            hItem = WM_GetDialogItem(pMsg->hWin, ID_TEXT_80);
;;;888            sprintf(buf,"%.2f",0);
;;;889            TEXT_SetTextColor(hItem, GUI_GREEN);//设置字体颜色
;;;890            TEXT_SetFont(hItem,&GUI_FontD24x32);//设定文本字体
;;;891            GUI_UC_SetEncodeUTF8();        
;;;892            TEXT_SetText(hItem,buf);
;;;893                
;;;894            hItem = WM_GetDialogItem(pMsg->hWin, ID_TEXT_81);
;;;895            sprintf(buf,"%04d",0);
;;;896            TEXT_SetTextColor(hItem, GUI_GREEN);//设置字体颜色
;;;897            TEXT_SetFont(hItem,&GUI_FontD24x32);//设定文本字体
;;;898            GUI_UC_SetEncodeUTF8();        
;;;899            TEXT_SetText(hItem,buf);
;;;900            
;;;901            hItem = WM_GetDialogItem(pMsg->hWin, ID_TEXT_96);
;;;902            TEXT_SetTextColor(hItem, GUI_WHITE);//设置字体颜色
;;;903            TEXT_SetFont(hItem,&GUI_Fontset_font);//设定文本字体
;;;904            GUI_UC_SetEncodeUTF8();        
;;;905            TEXT_SetText(hItem,"");
;;;906            
;;;907            switch(para_set2){
;;;908                case set_2_on:
;;;909                {
;;;910                    if(lang == 0)
;;;911                    {
;;;912                        hItem = WM_GetDialogItem(pMsg->hWin, ID_TEXT_43);
;;;913                        GUI_UC_SetEncodeUTF8();
;;;914                        TEXT_SetText(hItem, "步进时间");
;;;915                        TEXT_SetTextColor(hItem, GUI_WHITE);
;;;916                        TEXT_SetFont(hItem, &GUI_Fontset_font);
;;;917                        
;;;918                        hItem = WM_GetDialogItem(pMsg->hWin, ID_TEXT_44);
;;;919                        GUI_UC_SetEncodeUTF8();
;;;920                        TEXT_SetText(hItem, "起始电流");
;;;921                        TEXT_SetBkColor(hItem,0x00BFFFFF);
;;;922                        TEXT_SetTextColor(hItem, GUI_BLACK);
;;;923                        TEXT_SetFont(hItem, &GUI_Fontset_font);
;;;924                        
;;;925                        hItem = WM_GetDialogItem(pMsg->hWin, ID_TEXT_45);
;;;926                        GUI_UC_SetEncodeUTF8();
;;;927                        TEXT_SetText(hItem, "步进电流");
;;;928                        TEXT_SetTextColor(hItem, GUI_WHITE);
;;;929                        TEXT_SetFont(hItem, &GUI_Fontset_font);
;;;930                        
;;;931                        hItem = WM_GetDialogItem(pMsg->hWin, ID_TEXT_118);
;;;932                        GUI_UC_SetEncodeUTF8();
;;;933                        TEXT_SetText(hItem, "门槛电压");
;;;934                        TEXT_SetTextColor(hItem, GUI_WHITE);
;;;935                        TEXT_SetFont(hItem, &GUI_Fontset_font);
;;;936                    }else{
;;;937                        hItem = WM_GetDialogItem(pMsg->hWin, ID_TEXT_43);
;;;938                        GUI_UC_SetEncodeUTF8();
;;;939                        TEXT_SetText(hItem, "Step time");
;;;940                        TEXT_SetTextColor(hItem, GUI_WHITE);
;;;941                        TEXT_SetFont(hItem, &GUI_Font20_ASCII);
;;;942    
;;;943                        hItem = WM_GetDialogItem(pMsg->hWin, ID_TEXT_44);
;;;944                        GUI_UC_SetEncodeUTF8();
;;;945                        TEXT_SetText(hItem, "Starting C");
;;;946                        TEXT_SetBkColor(hItem,0x00BFFFFF);
;;;947                        TEXT_SetTextColor(hItem, GUI_BLACK);
;;;948                        TEXT_SetFont(hItem, &GUI_Font20_ASCII);
;;;949                        
;;;950                        hItem = WM_GetDialogItem(pMsg->hWin, ID_TEXT_45);
;;;951                        GUI_UC_SetEncodeUTF8();
;;;952                        TEXT_SetText(hItem, "Stepping C");
;;;953                        TEXT_SetTextColor(hItem, GUI_WHITE);
;;;954                        TEXT_SetFont(hItem, &GUI_Font20_ASCII);
;;;955                        
;;;956                        hItem = WM_GetDialogItem(pMsg->hWin, ID_TEXT_118);
;;;957                        GUI_UC_SetEncodeUTF8();
;;;958                        TEXT_SetText(hItem, "Threshlod V");
;;;959                        TEXT_SetTextColor(hItem, GUI_WHITE);
;;;960                        TEXT_SetFont(hItem, &GUI_Font20_ASCII);
;;;961                    }
;;;962                    
;;;963                    hItem = WM_GetDialogItem(pMsg->hWin, ID_TEXT_97);
;;;964                    sprintf(buf,"%.2f",gate_v);
;;;965                    TEXT_SetFont(hItem,&GUI_Font24_1);//设定文本字体
;;;966                    TEXT_SetText(hItem,buf);
;;;967                    TEXT_SetTextColor(hItem, GUI_WHITE);
;;;968                    
;;;969                    if(lang == 0)
;;;970                    {
;;;971                        hItem = WM_GetDialogItem(pMsg->hWin, ID_TEXT_98);
;;;972                        GUI_UC_SetEncodeUTF8();
;;;973                        TEXT_SetText(hItem, "未测试");
;;;974                        TEXT_SetTextColor(hItem, GUI_WHITE);
;;;975                        TEXT_SetFont(hItem, &GUI_Fontset_font);
;;;976                    }else{
;;;977                        hItem = WM_GetDialogItem(pMsg->hWin, ID_TEXT_98);
;;;978                        GUI_UC_SetEncodeUTF8();
;;;979                        TEXT_SetText(hItem, "Untested");
;;;980                        TEXT_SetTextColor(hItem, GUI_WHITE);
;;;981                        TEXT_SetFont(hItem, &GUI_Font20_ASCII);
;;;982                    }
;;;983                    
;;;984                    hItem = WM_GetDialogItem(pMsg->hWin, ID_TEXT_46);
;;;985                    sprintf(buf,"%.2f",dis_init_c);
;;;986                    TEXT_SetTextColor(hItem, GUI_WHITE);//设置字体颜色
;;;987                    TEXT_SetFont(hItem,&GUI_Font24_1);//设定文本字体
;;;988                    GUI_UC_SetEncodeUTF8();        
;;;989                    TEXT_SetText(hItem,buf);
;;;990                    SET_Current_Laod = set_init_c;
;;;991    
;;;992                    hItem = WM_GetDialogItem(pMsg->hWin, ID_TEXT_47);
;;;993                    sprintf(buf,"%.2f",dis_sbs_c);
;;;994                    TEXT_SetTextColor(hItem, GUI_WHITE);//设置字体颜色
;;;995                    TEXT_SetFont(hItem,&GUI_Font24_1);//设定文本字体
;;;996                    GUI_UC_SetEncodeUTF8();        
;;;997                    TEXT_SetText(hItem,buf);
;;;998                    
;;;999                    hItem = WM_GetDialogItem(pMsg->hWin, ID_TEXT_82);
;;;1000                   sprintf(buf,"%.2f",0);
;;;1001                   TEXT_SetTextColor(hItem, GUI_GREEN);//设置字体颜色
;;;1002                   TEXT_SetFont(hItem,&GUI_FontD24x32);//设定文本字体
;;;1003                   GUI_UC_SetEncodeUTF8();        
;;;1004                   TEXT_SetText(hItem,buf);
;;;1005                   
;;;1006                   hItem = WM_GetDialogItem(pMsg->hWin, ID_TEXT_83);
;;;1007                   sprintf(buf,"%.2f",0);
;;;1008                   TEXT_SetTextColor(hItem, GUI_WHITE);//设置字体颜色
;;;1009                   TEXT_SetFont(hItem,&GUI_Font24_1);//设定文本字体
;;;1010                   GUI_UC_SetEncodeUTF8();        
;;;1011                   TEXT_SetText(hItem,buf);
;;;1012                   
;;;1013                   hItem = WM_GetDialogItem(pMsg->hWin, ID_TEXT_117);
;;;1014                   sprintf(buf,"%4d",short_time);
;;;1015                   TEXT_SetTextColor(hItem, GUI_WHITE);//设置字体颜色
;;;1016                   TEXT_SetFont(hItem,&GUI_Font24_1);//设定文本字体
;;;1017                   GUI_UC_SetEncodeUTF8();        
;;;1018                   TEXT_SetText(hItem,buf);
;;;1019                   
;;;1020                   hItem = WM_GetDialogItem(pMsg->hWin,ID_TEXT_122);
;;;1021                   sprintf(buf,"%4d",steptime);
;;;1022                   TEXT_SetTextColor(hItem, GUI_WHITE);//设置字体颜色
;;;1023                   TEXT_SetFont(hItem,&GUI_Font24_1);//设定文本字体
;;;1024                   GUI_UC_SetEncodeUTF8();        
;;;1025                   TEXT_SetText(hItem,buf);
;;;1026                   
;;;1027                   
;;;1028                   break;
;;;1029               }
;;;1030               case set_2_off:
;;;1031               {
;;;1032                   hItem = WM_GetDialogItem(pMsg->hWin, ID_TEXT_43);
;;;1033                   TEXT_SetText(hItem, "");
;;;1034                   TEXT_SetTextColor(hItem, GUI_INVALID_COLOR);
;;;1035                   
;;;1036                   hItem = WM_GetDialogItem(pMsg->hWin, ID_TEXT_44);
;;;1037                   TEXT_SetText(hItem, "");
;;;1038                   TEXT_SetTextColor(hItem, GUI_INVALID_COLOR);
;;;1039                  
;;;1040                   
;;;1041                   hItem = WM_GetDialogItem(pMsg->hWin, ID_TEXT_45);
;;;1042                   TEXT_SetText(hItem, "");
;;;1043                   TEXT_SetTextColor(hItem, GUI_INVALID_COLOR);
;;;1044                   
;;;1045                   hItem = WM_GetDialogItem(pMsg->hWin, ID_TEXT_46);
;;;1046                   TEXT_SetText(hItem, "");
;;;1047                   TEXT_SetTextColor(hItem, GUI_INVALID_COLOR);
;;;1048   
;;;1049                   hItem = WM_GetDialogItem(pMsg->hWin, ID_TEXT_47);
;;;1050                   TEXT_SetText(hItem, "");
;;;1051                   TEXT_SetTextColor(hItem, GUI_INVALID_COLOR);
;;;1052                   
;;;1053                   hItem = WM_GetDialogItem(pMsg->hWin, ID_TEXT_97);
;;;1054                   TEXT_SetText(hItem, "");
;;;1055                   TEXT_SetTextColor(hItem, GUI_INVALID_COLOR);
;;;1056                   
;;;1057                   hItem = WM_GetDialogItem(pMsg->hWin, ID_TEXT_118);
;;;1058                   TEXT_SetText(hItem, "");
;;;1059                   TEXT_SetTextColor(hItem, GUI_INVALID_COLOR);
;;;1060                   
;;;1061                   hItem = WM_GetDialogItem(pMsg->hWin, ID_TEXT_98);
;;;1062                   TEXT_SetText(hItem, "");
;;;1063                   TEXT_SetTextColor(hItem, GUI_INVALID_COLOR);
;;;1064                   
;;;1065                   hItem = WM_GetDialogItem(pMsg->hWin, ID_TEXT_117);
;;;1066                   TEXT_SetText(hItem, "");      
;;;1067                   TEXT_SetTextColor(hItem, GUI_INVALID_COLOR);
;;;1068                   
;;;1069                   hItem = WM_GetDialogItem(pMsg->hWin, ID_TEXT_122);
;;;1070                   TEXT_SetText(hItem, "");      
;;;1071                   TEXT_SetTextColor(hItem, GUI_INVALID_COLOR);
;;;1072                   break;
;;;1073               }
;;;1074           }
;;;1075           
;;;1076       // USER START (Optionally insert additional code for further widget initialization)
;;;1077       // USER END
;;;1078           break;
;;;1079           
;;;1080     // USER START (Optionally insert additional message handling)
;;;1081     // USER END
;;;1082       default:
;;;1083           WM_DefaultProc(pMsg);
000050  4620              MOV      r0,r4
000052  f7fffffe          BL       WM_DefaultProc
                  |L7.86|
;;;1084       break;
;;;1085     }
;;;1086   }
000056  b003              ADD      sp,sp,#0xc
000058  ecbd8b02          VPOP     {d8}
00005c  e8bd8ff0          POP      {r4-r11,pc}
                  |L7.96|
000060  4638              MOV      r0,r7                 ;191
000062  f7fffffe          BL       GUI_SetColor
000066  231a              MOVS     r3,#0x1a              ;192
000068  f44f72f0          MOV      r2,#0x1e0             ;192
00006c  2119              MOVS     r1,#0x19              ;192
00006e  2000              MOVS     r0,#0                 ;192
000070  f7fffffe          BL       GUI_FillRect
000074  f24a50ff          MOV      r0,#0xa5ff            ;193
000078  f7fffffe          BL       GUI_SetColor
00007c  48e9              LDR      r0,|L7.1060|
00007e  f7fffffe          BL       GUI_SetFont
000082  f7fffffe          BL       GUI_UC_SetEncodeUTF8
000086  2002              MOVS     r0,#2                 ;196
000088  f7fffffe          BL       GUI_SetTextMode
00008c  2201              MOVS     r2,#1                 ;197
00008e  2105              MOVS     r1,#5                 ;197
000090  a0e5              ADR      r0,|L7.1064|
000092  f7fffffe          BL       GUI_DispStringAt
000096  7a30              LDRB     r0,[r6,#8]            ;198  ; lang
000098  2800              CMP      r0,#0                 ;198
00009a  d069              BEQ      |L7.368|
00009c  4638              MOV      r0,r7                 ;206
00009e  f7fffffe          BL       GUI_SetColor
0000a2  48e3              LDR      r0,|L7.1072|
0000a4  f7fffffe          BL       GUI_SetFont
0000a8  2203              MOVS     r2,#3                 ;208
0000aa  2182              MOVS     r1,#0x82              ;208
0000ac  a0e1              ADR      r0,|L7.1076|
0000ae  f7fffffe          BL       GUI_DispStringAt
                  |L7.178|
0000b2  48e2              LDR      r0,|L7.1084|
0000b4  f7fffffe          BL       GUI_SetFont
0000b8  7a70              LDRB     r0,[r6,#9]            ;213  ; para_set2
0000ba  2800              CMP      r0,#0                 ;213
0000bc  d0cb              BEQ      |L7.86|
0000be  28ff              CMP      r0,#0xff              ;213
0000c0  d1c9              BNE      |L7.86|
0000c2  48df              LDR      r0,|L7.1088|
0000c4  f7fffffe          BL       GUI_SetFont
0000c8  4648              MOV      r0,r9                 ;220
0000ca  f7fffffe          BL       GUI_SetColor
0000ce  22be              MOVS     r2,#0xbe              ;221
0000d0  211c              MOVS     r1,#0x1c              ;221
0000d2  a0dc              ADR      r0,|L7.1092|
0000d4  f7fffffe          BL       GUI_DispStringAt
0000d8  4648              MOV      r0,r9                 ;222
0000da  f7fffffe          BL       GUI_SetColor
0000de  22bb              MOVS     r2,#0xbb              ;223
0000e0  21d9              MOVS     r1,#0xd9              ;223
0000e2  a0d9              ADR      r0,|L7.1096|
0000e4  f7fffffe          BL       GUI_DispStringAt
0000e8  48d4              LDR      r0,|L7.1084|
0000ea  f7fffffe          BL       GUI_SetFont
0000ee  4638              MOV      r0,r7                 ;225
0000f0  f7fffffe          BL       GUI_SetColor
0000f4  f44f74e6          MOV      r4,#0x1cc             ;226
0000f8  223c              MOVS     r2,#0x3c              ;226
0000fa  4621              MOV      r1,r4                 ;226
0000fc  a0d2              ADR      r0,|L7.1096|
0000fe  f7fffffe          BL       GUI_DispStringAt
000102  225a              MOVS     r2,#0x5a              ;227
000104  4621              MOV      r1,r4                 ;227
000106  a0d0              ADR      r0,|L7.1096|
000108  f7fffffe          BL       GUI_DispStringAt
00010c  2278              MOVS     r2,#0x78              ;228
00010e  4621              MOV      r1,r4                 ;228
000110  a0ce              ADR      r0,|L7.1100|
000112  f7fffffe          BL       GUI_DispStringAt
000116  f44f75e1          MOV      r5,#0x1c2             ;229
00011a  2296              MOVS     r2,#0x96              ;229
00011c  4629              MOV      r1,r5                 ;229
00011e  a0cc              ADR      r0,|L7.1104|
000120  f7fffffe          BL       GUI_DispStringAt
000124  22af              MOVS     r2,#0xaf              ;230
000126  4621              MOV      r1,r4                 ;230
000128  a0c7              ADR      r0,|L7.1096|
00012a  f7fffffe          BL       GUI_DispStringAt
00012e  22c8              MOVS     r2,#0xc8              ;231
000130  4629              MOV      r1,r5                 ;231
000132  a0c7              ADR      r0,|L7.1104|
000134  f7fffffe          BL       GUI_DispStringAt
000138  7a30              LDRB     r0,[r6,#8]            ;232  ; lang
00013a  f44f7496          MOV      r4,#0x12c             ;235
00013e  f44f75aa          MOV      r5,#0x154             ;237
000142  e001              B        |L7.328|
                  |L7.324|
000144  e03c              B        |L7.448|
                  |L7.326|
000146  e037              B        |L7.440|
                  |L7.328|
000148  b318              CBZ      r0,|L7.402|
00014a  48b9              LDR      r0,|L7.1072|
00014c  f7fffffe          BL       GUI_SetFont
000150  22aa              MOVS     r2,#0xaa              ;240
000152  4621              MOV      r1,r4                 ;240
000154  a0bf              ADR      r0,|L7.1108|
000156  f7fffffe          BL       GUI_DispStringAt
00015a  22c8              MOVS     r2,#0xc8              ;241
00015c  4621              MOV      r1,r4                 ;241
00015e  a0bf              ADR      r0,|L7.1116|
000160  f7fffffe          BL       GUI_DispStringAt
000164  221e              MOVS     r2,#0x1e              ;242
000166  4629              MOV      r1,r5                 ;242
000168  a0bf              ADR      r0,|L7.1128|
00016a  f7fffffe          BL       GUI_DispStringAt
                  |L7.366|
00016e  e772              B        |L7.86|
                  |L7.368|
000170  4638              MOV      r0,r7                 ;200
000172  f7fffffe          BL       GUI_SetColor
000176  48c0              LDR      r0,|L7.1144|
000178  f7fffffe          BL       GUI_SetFont
00017c  f7fffffe          BL       GUI_UC_SetEncodeUTF8
000180  2002              MOVS     r0,#2                 ;203
000182  f7fffffe          BL       GUI_SetTextMode
000186  2203              MOVS     r2,#3                 ;204
000188  2182              MOVS     r1,#0x82              ;204
00018a  a0bc              ADR      r0,|L7.1148|
00018c  f7fffffe          BL       GUI_DispStringAt
000190  e78f              B        |L7.178|
                  |L7.402|
000192  48be              LDR      r0,|L7.1164|
000194  f7fffffe          BL       GUI_SetFont
000198  22af              MOVS     r2,#0xaf              ;235
00019a  4621              MOV      r1,r4                 ;235
00019c  a0bc              ADR      r0,|L7.1168|
00019e  f7fffffe          BL       GUI_DispStringAt
0001a2  22c8              MOVS     r2,#0xc8              ;236
0001a4  4621              MOV      r1,r4                 ;236
0001a6  a0bc              ADR      r0,|L7.1176|
0001a8  f7fffffe          BL       GUI_DispStringAt
0001ac  221e              MOVS     r2,#0x1e              ;237
0001ae  4629              MOV      r1,r5                 ;237
0001b0  a0bd              ADR      r0,|L7.1192|
0001b2  f7fffffe          BL       GUI_DispStringAt
0001b6  e74e              B        |L7.86|
                  |L7.440|
0001b8  68e0              LDR      r0,[r4,#0xc]          ;263
0001ba  f7fffffe          BL       WM_GetTimerId
0001be  e74a              B        |L7.86|
                  |L7.448|
0001c0  6865              LDR      r5,[r4,#4]            ;774
0001c2  2100              MOVS     r1,#0                 ;775
0001c4  4628              MOV      r0,r5                 ;775
0001c6  f7fffffe          BL       WINDOW_SetBkColor
0001ca  2300              MOVS     r3,#0                 ;776
0001cc  f44f72fa          MOV      r2,#0x1f4             ;776
0001d0  2101              MOVS     r1,#1                 ;776
0001d2  4628              MOV      r0,r5                 ;776
0001d4  f7fffffe          BL       WM_CreateTimer
0001d8  7a30              LDRB     r0,[r6,#8]            ;779  ; lang
0001da  f6400119          MOV      r1,#0x819             ;781
0001de  1c4d              ADDS     r5,r1,#1              ;788
0001e0  f6400a1b          MOV      r10,#0x81b            ;794
0001e4  f6400b1c          MOV      r11,#0x81c            ;800
0001e8  2800              CMP      r0,#0                 ;779
0001ea  d07c              BEQ      |L7.742|
0001ec  6860              LDR      r0,[r4,#4]            ;814
0001ee  f7fffffe          BL       WM_GetDialogItem
0001f2  9002              STR      r0,[sp,#8]            ;814
0001f4  2200              MOVS     r2,#0                 ;815
0001f6  4611              MOV      r1,r2                 ;815
0001f8  9802              LDR      r0,[sp,#8]            ;815
0001fa  f7fffffe          BL       BUTTON_SetTextColor
0001fe  2101              MOVS     r1,#1                 ;816
000200  9802              LDR      r0,[sp,#8]            ;816
000202  f7fffffe          BL       BUTTON_SetPressed
000206  49ac              LDR      r1,|L7.1208|
000208  9802              LDR      r0,[sp,#8]            ;817
00020a  f7fffffe          BL       BUTTON_SetFont
00020e  f7fffffe          BL       GUI_UC_SetEncodeUTF8
000212  a1aa              ADR      r1,|L7.1212|
000214  9802              LDR      r0,[sp,#8]            ;819
000216  f7fffffe          BL       BUTTON_SetText
00021a  4629              MOV      r1,r5                 ;821
00021c  6860              LDR      r0,[r4,#4]            ;821
00021e  f7fffffe          BL       WM_GetDialogItem
000222  4605              MOV      r5,r0                 ;821
000224  2200              MOVS     r2,#0                 ;822
000226  4611              MOV      r1,r2                 ;822
000228  4628              MOV      r0,r5                 ;822
00022a  f7fffffe          BL       BUTTON_SetTextColor
00022e  49a2              LDR      r1,|L7.1208|
000230  4628              MOV      r0,r5                 ;823
000232  f7fffffe          BL       BUTTON_SetFont
000236  f7fffffe          BL       GUI_UC_SetEncodeUTF8
00023a  a1a3              ADR      r1,|L7.1224|
00023c  4628              MOV      r0,r5                 ;825
00023e  f7fffffe          BL       BUTTON_SetText
000242  4651              MOV      r1,r10                ;827
000244  6860              LDR      r0,[r4,#4]            ;827
000246  f7fffffe          BL       WM_GetDialogItem
00024a  4605              MOV      r5,r0                 ;827
00024c  2200              MOVS     r2,#0                 ;828
00024e  4611              MOV      r1,r2                 ;828
000250  4628              MOV      r0,r5                 ;828
000252  f7fffffe          BL       BUTTON_SetTextColor
000256  4998              LDR      r1,|L7.1208|
000258  4628              MOV      r0,r5                 ;829
00025a  f7fffffe          BL       BUTTON_SetFont
00025e  f7fffffe          BL       GUI_UC_SetEncodeUTF8
000262  a19b              ADR      r1,|L7.1232|
000264  4628              MOV      r0,r5                 ;831
000266  f7fffffe          BL       BUTTON_SetText
00026a  4659              MOV      r1,r11                ;833
00026c  6860              LDR      r0,[r4,#4]            ;833
00026e  f7fffffe          BL       WM_GetDialogItem
000272  4605              MOV      r5,r0                 ;833
000274  2200              MOVS     r2,#0                 ;834
000276  4611              MOV      r1,r2                 ;834
000278  4628              MOV      r0,r5                 ;834
00027a  f7fffffe          BL       BUTTON_SetTextColor
00027e  498e              LDR      r1,|L7.1208|
000280  4628              MOV      r0,r5                 ;835
000282  f7fffffe          BL       BUTTON_SetFont
000286  f7fffffe          BL       GUI_UC_SetEncodeUTF8
00028a  a193              ADR      r1,|L7.1240|
00028c  4628              MOV      r0,r5                 ;837
00028e  f7fffffe          BL       BUTTON_SetText
000292  f640011d          MOV      r1,#0x81d             ;841
000296  6860              LDR      r0,[r4,#4]            ;841
000298  f7fffffe          BL       WM_GetDialogItem
00029c  4605              MOV      r5,r0                 ;841
00029e  2200              MOVS     r2,#0                 ;842
0002a0  4611              MOV      r1,r2                 ;842
0002a2  4628              MOV      r0,r5                 ;842
0002a4  f7fffffe          BL       BUTTON_SetTextColor
0002a8  4983              LDR      r1,|L7.1208|
0002aa  4628              MOV      r0,r5                 ;843
0002ac  f7fffffe          BL       BUTTON_SetFont
0002b0  f7fffffe          BL       GUI_UC_SetEncodeUTF8
0002b4  a18a              ADR      r1,|L7.1248|
0002b6  4628              MOV      r0,r5                 ;845
0002b8  f7fffffe          BL       BUTTON_SetText
                  |L7.700|
0002bc  f6400113          MOV      r1,#0x813             ;850
0002c0  6860              LDR      r0,[r4,#4]            ;850
0002c2  f7fffffe          BL       WM_GetDialogItem
0002c6  4605              MOV      r5,r0                 ;850
0002c8  4649              MOV      r1,r9                 ;851
0002ca  4628              MOV      r0,r5                 ;851
0002cc  f7fffffe          BL       TEXT_SetTextColor
0002d0  495b              LDR      r1,|L7.1088|
0002d2  4628              MOV      r0,r5                 ;852
0002d4  f7fffffe          BL       TEXT_SetFont
0002d8  f7fffffe          BL       GUI_UC_SetEncodeUTF8
0002dc  a182              ADR      r1,|L7.1256|
0002de  4628              MOV      r0,r5                 ;854
0002e0  f7fffffe          BL       TEXT_SetText
0002e4  e000              B        |L7.744|
                  |L7.742|
0002e6  e25f              B        |L7.1960|
                  |L7.744|
0002e8  f6400114          MOV      r1,#0x814             ;858
0002ec  6860              LDR      r0,[r4,#4]            ;858
0002ee  f7fffffe          BL       WM_GetDialogItem
0002f2  4605              MOV      r5,r0                 ;858
0002f4  f7fffffe          BL       GUI_UC_SetEncodeUTF8
0002f8  a17c              ADR      r1,|L7.1260|
0002fa  4628              MOV      r0,r5                 ;860
0002fc  f7fffffe          BL       TEXT_SetText
000300  4649              MOV      r1,r9                 ;861
000302  4628              MOV      r0,r5                 ;861
000304  f7fffffe          BL       TEXT_SetTextColor
000308  494d              LDR      r1,|L7.1088|
00030a  4628              MOV      r0,r5                 ;862
00030c  f7fffffe          BL       TEXT_SetFont
000310  f6400115          MOV      r1,#0x815             ;866
000314  6860              LDR      r0,[r4,#4]            ;866
000316  f7fffffe          BL       WM_GetDialogItem
00031a  4605              MOV      r5,r0                 ;866
00031c  a14b              ADR      r1,|L7.1100|
00031e  4628              MOV      r0,r5                 ;867
000320  f7fffffe          BL       TEXT_SetText
000324  4649              MOV      r1,r9                 ;868
000326  4628              MOV      r0,r5                 ;868
000328  f7fffffe          BL       TEXT_SetTextColor
00032c  4944              LDR      r1,|L7.1088|
00032e  4628              MOV      r0,r5                 ;869
000330  f7fffffe          BL       TEXT_SetFont
000334  f6400116          MOV      r1,#0x816             ;873
000338  6860              LDR      r0,[r4,#4]            ;873
00033a  f7fffffe          BL       WM_GetDialogItem
00033e  4605              MOV      r5,r0                 ;873
000340  f7fffffe          BL       GUI_UC_SetEncodeUTF8
000344  a16a              ADR      r1,|L7.1264|
000346  4628              MOV      r0,r5                 ;875
000348  f7fffffe          BL       TEXT_SetText
00034c  4649              MOV      r1,r9                 ;876
00034e  4628              MOV      r0,r5                 ;876
000350  f7fffffe          BL       TEXT_SetTextColor
000354  4967              LDR      r1,|L7.1268|
000356  4628              MOV      r0,r5                 ;877
000358  f7fffffe          BL       TEXT_SetFont
00035c  f6400117          MOV      r1,#0x817             ;881
000360  6860              LDR      r0,[r4,#4]            ;881
000362  f7fffffe          BL       WM_GetDialogItem
000366  4605              MOV      r5,r0                 ;881
000368  f7fffffe          BL       GUI_UC_SetEncodeUTF8
00036c  a162              ADR      r1,|L7.1272|
00036e  4628              MOV      r0,r5                 ;883
000370  f7fffffe          BL       TEXT_SetText
000374  4649              MOV      r1,r9                 ;884
000376  4628              MOV      r0,r5                 ;884
000378  f7fffffe          BL       TEXT_SetTextColor
00037c  4930              LDR      r1,|L7.1088|
00037e  4628              MOV      r0,r5                 ;885
000380  f7fffffe          BL       TEXT_SetFont
000384  f640018d          MOV      r1,#0x88d             ;887
000388  6860              LDR      r0,[r4,#4]            ;887
00038a  f7fffffe          BL       WM_GetDialogItem
00038e  4681              MOV      r9,r0                 ;887
000390  2200              MOVS     r2,#0                 ;888
000392  a15a              ADR      r1,|L7.1276|
000394  4668              MOV      r0,sp                 ;888
000396  f7fffffe          BL       __2sprintf
00039a  f44f457f          MOV      r5,#0xff00            ;889
00039e  4629              MOV      r1,r5                 ;889
0003a0  4648              MOV      r0,r9                 ;889
0003a2  f7fffffe          BL       TEXT_SetTextColor
0003a6  4957              LDR      r1,|L7.1284|
0003a8  4648              MOV      r0,r9                 ;890
0003aa  f7fffffe          BL       TEXT_SetFont
0003ae  f7fffffe          BL       GUI_UC_SetEncodeUTF8
0003b2  4669              MOV      r1,sp                 ;892
0003b4  4648              MOV      r0,r9                 ;892
0003b6  f7fffffe          BL       TEXT_SetText
0003ba  f640018e          MOV      r1,#0x88e             ;894
0003be  6860              LDR      r0,[r4,#4]            ;894
0003c0  f7fffffe          BL       WM_GetDialogItem
0003c4  4681              MOV      r9,r0                 ;894
0003c6  2200              MOVS     r2,#0                 ;895
0003c8  a14f              ADR      r1,|L7.1288|
0003ca  4668              MOV      r0,sp                 ;895
0003cc  f7fffffe          BL       __2sprintf
0003d0  4629              MOV      r1,r5                 ;896
0003d2  4648              MOV      r0,r9                 ;896
0003d4  f7fffffe          BL       TEXT_SetTextColor
0003d8  494a              LDR      r1,|L7.1284|
0003da  4648              MOV      r0,r9                 ;897
0003dc  f7fffffe          BL       TEXT_SetFont
0003e0  f7fffffe          BL       GUI_UC_SetEncodeUTF8
0003e4  4669              MOV      r1,sp                 ;899
0003e6  4648              MOV      r0,r9                 ;899
0003e8  f7fffffe          BL       TEXT_SetText
0003ec  f6401104          MOV      r1,#0x904             ;901
0003f0  6860              LDR      r0,[r4,#4]            ;901
0003f2  f7fffffe          BL       WM_GetDialogItem
0003f6  4681              MOV      r9,r0                 ;901
0003f8  4639              MOV      r1,r7                 ;902
0003fa  4648              MOV      r0,r9                 ;902
0003fc  f7fffffe          BL       TEXT_SetTextColor
000400  4922              LDR      r1,|L7.1164|
000402  4648              MOV      r0,r9                 ;903
000404  f7fffffe          BL       TEXT_SetFont
000408  f7fffffe          BL       GUI_UC_SetEncodeUTF8
00040c  a11e              ADR      r1,|L7.1160|
00040e  4648              MOV      r0,r9                 ;905
000410  e07e              B        |L7.1296|
000412  0000              DCW      0x0000
                  |L7.1044|
                          DCD      Run_Control
                  |L7.1048|
000418  42c80000          DCFS     0x42c80000 ; 100
                  |L7.1052|
                          DCD      0x00d3d3d3
                  |L7.1056|
                          DCD      ||.data||
                  |L7.1060|
                          DCD      GUI_Fontsymbol
                  |L7.1064|
000428  4a696e6b          DCB      "Jinko",0
00042c  6f00    
00042e  00                DCB      0
00042f  00                DCB      0
                  |L7.1072|
                          DCD      GUI_Font20_ASCII
                  |L7.1076|
000434  44495350          DCB      "DISPLAY",0
000438  4c415900
                  |L7.1084|
                          DCD      GUI_Font24_1
                  |L7.1088|
                          DCD      GUI_FontEN40
                  |L7.1092|
000444  493a00            DCB      "I:",0
000447  00                DCB      0
                  |L7.1096|
000448  4100              DCB      "A",0
00044a  00                DCB      0
00044b  00                DCB      0
                  |L7.1100|
00044c  5600              DCB      "V",0
00044e  00                DCB      0
00044f  00                DCB      0
                  |L7.1104|
000450  6d7300            DCB      "ms",0
000453  00                DCB      0
                  |L7.1108|
000454  43757272          DCB      "Current",0
000458  656e7400
                  |L7.1116|
00045c  53686f72          DCB      "Short Time",0
000460  74205469
000464  6d6500  
000467  00                DCB      0
                  |L7.1128|
000468  4f766572          DCB      "Overflow test",0
00046c  666c6f77
000470  20746573
000474  7400    
000476  00                DCB      0
000477  00                DCB      0
                  |L7.1144|
                          DCD      GUI_FontHZ20S
                  |L7.1148|
00047c  e6b58be9          DCB      230,181,139,233,135,143,230,152,190,231,164,186
000480  878fe698
000484  bee7a4ba
                  |L7.1160|
000488  00                DCB      0
000489  00                DCB      0
00048a  00                DCB      0
00048b  00                DCB      0
                  |L7.1164|
                          DCD      GUI_Fontset_font
                  |L7.1168|
000490  e794b5e6          DCB      231,148,181,230,181,129,0
000494  b58100  
000497  00                DCB      0
                  |L7.1176|
000498  e79fade8          DCB      231,159,173,232,183,175,230,151,182,233,151,180,0
00049c  b7afe697
0004a0  b6e997b4
0004a4  00      
0004a5  00                DCB      0
0004a6  00                DCB      0
0004a7  00                DCB      0
                  |L7.1192|
0004a8  e8bf87e6          DCB      232,191,135,230,181,129,230,181,139,232,175,149,0
0004ac  b581e6b5
0004b0  8be8af95
0004b4  00      
0004b5  00                DCB      0
0004b6  00                DCB      0
0004b7  00                DCB      0
                  |L7.1208|
                          DCD      GUI_Font16B_ASCII
                  |L7.1212|
0004bc  492e522e          DCB      "I.R. TEST",0
0004c0  20544553
0004c4  5400    
0004c6  00                DCB      0
0004c7  00                DCB      0
                  |L7.1224|
0004c8  4c4f4144          DCB      "LOAD",0
0004cc  00      
0004cd  00                DCB      0
0004ce  00                DCB      0
0004cf  00                DCB      0
                  |L7.1232|
0004d0  504f5745          DCB      "POWER",0
0004d4  5200    
0004d6  00                DCB      0
0004d7  00                DCB      0
                  |L7.1240|
0004d8  43264443          DCB      "C&DC",0
0004dc  00      
0004dd  00                DCB      0
0004de  00                DCB      0
0004df  00                DCB      0
                  |L7.1248|
0004e0  47524150          DCB      "GRAPH",0
0004e4  4800    
0004e6  00                DCB      0
0004e7  00                DCB      0
                  |L7.1256|
0004e8  563a00            DCB      "V:",0
0004eb  00                DCB      0
                  |L7.1260|
0004ec  523a00            DCB      "R:",0
0004ef  00                DCB      0
                  |L7.1264|
0004f0  cea900            DCB      206,169,0
0004f3  00                DCB      0
                  |L7.1268|
                          DCD      GUI_FontHZ32
                  |L7.1272|
0004f8  6d00              DCB      "m",0
0004fa  00                DCB      0
0004fb  00                DCB      0
                  |L7.1276|
0004fc  252e3266          DCB      "%.2f",0
000500  00      
000501  00                DCB      0
000502  00                DCB      0
000503  00                DCB      0
                  |L7.1284|
                          DCD      GUI_FontD24x32
                  |L7.1288|
000508  25303464          DCB      "%04d",0
00050c  00      
00050d  00                DCB      0
00050e  00                DCB      0
00050f  00                DCB      0
                  |L7.1296|
000510  f7fffffe          BL       TEXT_SetText
000514  7a70              LDRB     r0,[r6,#9]            ;907  ; para_set2
000516  f6400168          MOV      r1,#0x868             ;912
00051a  f6400a69          MOV      r10,#0x869            ;918
00051e  f6400b6a          MOV      r11,#0x86a            ;925
000522  2800              CMP      r0,#0                 ;907
000524  d07d              BEQ      |L7.1570|
000526  28ff              CMP      r0,#0xff              ;907
000528  f47fae21          BNE      |L7.366|
00052c  7a30              LDRB     r0,[r6,#8]            ;910  ; lang
00052e  f8df93ec          LDR      r9,|L7.2332|
000532  2800              CMP      r0,#0                 ;910
000534  d076              BEQ      |L7.1572|
000536  6860              LDR      r0,[r4,#4]            ;937
000538  f7fffffe          BL       WM_GetDialogItem
00053c  9002              STR      r0,[sp,#8]            ;937
00053e  f7fffffe          BL       GUI_UC_SetEncodeUTF8
000542  a1f7              ADR      r1,|L7.2336|
000544  9802              LDR      r0,[sp,#8]            ;939
000546  f7fffffe          BL       TEXT_SetText
00054a  4639              MOV      r1,r7                 ;940
00054c  9802              LDR      r0,[sp,#8]            ;940
00054e  f7fffffe          BL       TEXT_SetTextColor
000552  49f6              LDR      r1,|L7.2348|
000554  9802              LDR      r0,[sp,#8]            ;941
000556  f7fffffe          BL       TEXT_SetFont
00055a  4651              MOV      r1,r10                ;943
00055c  6860              LDR      r0,[r4,#4]            ;943
00055e  f7fffffe          BL       WM_GetDialogItem
000562  4682              MOV      r10,r0                ;943
000564  f7fffffe          BL       GUI_UC_SetEncodeUTF8
000568  a1f1              ADR      r1,|L7.2352|
00056a  4650              MOV      r0,r10                ;945
00056c  f7fffffe          BL       TEXT_SetText
000570  4649              MOV      r1,r9                 ;946
000572  4650              MOV      r0,r10                ;946
000574  f7fffffe          BL       TEXT_SetBkColor
000578  2100              MOVS     r1,#0                 ;947
00057a  4650              MOV      r0,r10                ;947
00057c  f7fffffe          BL       TEXT_SetTextColor
000580  49ea              LDR      r1,|L7.2348|
000582  4650              MOV      r0,r10                ;948
000584  f7fffffe          BL       TEXT_SetFont
000588  4659              MOV      r1,r11                ;950
00058a  6860              LDR      r0,[r4,#4]            ;950
00058c  f7fffffe          BL       WM_GetDialogItem
000590  4681              MOV      r9,r0                 ;950
000592  f7fffffe          BL       GUI_UC_SetEncodeUTF8
000596  a1e9              ADR      r1,|L7.2364|
000598  4648              MOV      r0,r9                 ;952
00059a  f7fffffe          BL       TEXT_SetText
00059e  4639              MOV      r1,r7                 ;953
0005a0  4648              MOV      r0,r9                 ;953
0005a2  f7fffffe          BL       TEXT_SetTextColor
0005a6  49e1              LDR      r1,|L7.2348|
0005a8  4648              MOV      r0,r9                 ;954
0005aa  f7fffffe          BL       TEXT_SetFont
0005ae  f640310d          MOV      r1,#0xb0d             ;956
0005b2  6860              LDR      r0,[r4,#4]            ;956
0005b4  f7fffffe          BL       WM_GetDialogItem
0005b8  4681              MOV      r9,r0                 ;956
0005ba  f7fffffe          BL       GUI_UC_SetEncodeUTF8
0005be  a1e2              ADR      r1,|L7.2376|
0005c0  4648              MOV      r0,r9                 ;958
0005c2  f7fffffe          BL       TEXT_SetText
0005c6  4639              MOV      r1,r7                 ;959
0005c8  4648              MOV      r0,r9                 ;959
0005ca  f7fffffe          BL       TEXT_SetTextColor
0005ce  49d7              LDR      r1,|L7.2348|
0005d0  4648              MOV      r0,r9                 ;960
0005d2  f7fffffe          BL       TEXT_SetFont
                  |L7.1494|
0005d6  f6401105          MOV      r1,#0x905             ;963
0005da  6860              LDR      r0,[r4,#4]            ;963
0005dc  f7fffffe          BL       WM_GetDialogItem
0005e0  4682              MOV      r10,r0                ;963
0005e2  6970              LDR      r0,[r6,#0x14]         ;964  ; gate_v
0005e4  f7fffffe          BL       __aeabi_f2d
0005e8  ec410b10          VMOV     d0,r0,r1              ;964
0005ec  ec532b10          VMOV     r2,r3,d0              ;964
0005f0  f2af01f8          ADR      r1,|L7.1276|
0005f4  4668              MOV      r0,sp                 ;964
0005f6  f7fffffe          BL       __2sprintf
0005fa  49d6              LDR      r1,|L7.2388|
0005fc  4650              MOV      r0,r10                ;965
0005fe  f7fffffe          BL       TEXT_SetFont
000602  4669              MOV      r1,sp                 ;966
000604  4650              MOV      r0,r10                ;966
000606  f7fffffe          BL       TEXT_SetText
00060a  46b9              MOV      r9,r7                 ;967
00060c  4649              MOV      r1,r9                 ;967
00060e  4650              MOV      r0,r10                ;967
000610  f7fffffe          BL       TEXT_SetTextColor
000614  7a30              LDRB     r0,[r6,#8]            ;969  ; lang
000616  2800              CMP      r0,#0                 ;969
000618  d07e              BEQ      |L7.1816|
00061a  f6401106          MOV      r1,#0x906             ;977
00061e  6860              LDR      r0,[r4,#4]            ;977
000620  e001              B        |L7.1574|
                  |L7.1570|
000622  e1fe              B        |L7.2594|
                  |L7.1572|
000624  e129              B        |L7.2170|
                  |L7.1574|
000626  f7fffffe          BL       WM_GetDialogItem
00062a  4607              MOV      r7,r0                 ;977
00062c  f7fffffe          BL       GUI_UC_SetEncodeUTF8
000630  a1c9              ADR      r1,|L7.2392|
000632  4638              MOV      r0,r7                 ;979
000634  f7fffffe          BL       TEXT_SetText
000638  4649              MOV      r1,r9                 ;980
00063a  4638              MOV      r0,r7                 ;980
00063c  f7fffffe          BL       TEXT_SetTextColor
000640  49ba              LDR      r1,|L7.2348|
000642  4638              MOV      r0,r7                 ;981
000644  f7fffffe          BL       TEXT_SetFont
                  |L7.1608|
000648  f640016b          MOV      r1,#0x86b             ;984
00064c  6860              LDR      r0,[r4,#4]            ;984
00064e  f7fffffe          BL       WM_GetDialogItem
000652  4682              MOV      r10,r0                ;984
000654  ee180a10          VMOV     r0,s16                ;985
000658  f7fffffe          BL       __aeabi_f2d
00065c  ec410b10          VMOV     d0,r0,r1              ;985
000660  ec532b10          VMOV     r2,r3,d0              ;985
000664  f2af116c          ADR      r1,|L7.1276|
000668  4668              MOV      r0,sp                 ;985
00066a  f7fffffe          BL       __2sprintf
00066e  464f              MOV      r7,r9                 ;986
000670  4639              MOV      r1,r7                 ;986
000672  4650              MOV      r0,r10                ;986
000674  f7fffffe          BL       TEXT_SetTextColor
000678  49b6              LDR      r1,|L7.2388|
00067a  4650              MOV      r0,r10                ;987
00067c  f7fffffe          BL       TEXT_SetFont
000680  f7fffffe          BL       GUI_UC_SetEncodeUTF8
000684  4669              MOV      r1,sp                 ;989
000686  4650              MOV      r0,r10                ;989
000688  f7fffffe          BL       TEXT_SetText
00068c  f8b8002c          LDRH     r0,[r8,#0x2c]         ;990  ; Run_Control
000690  f8a80008          STRH     r0,[r8,#8]            ;990
000694  f640016c          MOV      r1,#0x86c             ;992
000698  6860              LDR      r0,[r4,#4]            ;992
00069a  f7fffffe          BL       WM_GetDialogItem
00069e  4680              MOV      r8,r0                 ;992
0006a0  ee180a90          VMOV     r0,s17                ;993
0006a4  f7fffffe          BL       __aeabi_f2d
0006a8  ec410b10          VMOV     d0,r0,r1              ;993
0006ac  ec532b10          VMOV     r2,r3,d0              ;993
0006b0  f2af11b8          ADR      r1,|L7.1276|
0006b4  4668              MOV      r0,sp                 ;993
0006b6  f7fffffe          BL       __2sprintf
0006ba  4639              MOV      r1,r7                 ;994
0006bc  4640              MOV      r0,r8                 ;994
0006be  f7fffffe          BL       TEXT_SetTextColor
0006c2  49a4              LDR      r1,|L7.2388|
0006c4  4640              MOV      r0,r8                 ;995
0006c6  f7fffffe          BL       TEXT_SetFont
0006ca  f7fffffe          BL       GUI_UC_SetEncodeUTF8
0006ce  4669              MOV      r1,sp                 ;997
0006d0  4640              MOV      r0,r8                 ;997
0006d2  f7fffffe          BL       TEXT_SetText
0006d6  f640018f          MOV      r1,#0x88f             ;999
0006da  6860              LDR      r0,[r4,#4]            ;999
0006dc  f7fffffe          BL       WM_GetDialogItem
0006e0  4680              MOV      r8,r0                 ;999
0006e2  2200              MOVS     r2,#0                 ;1000
0006e4  f2af11ec          ADR      r1,|L7.1276|
0006e8  4668              MOV      r0,sp                 ;1000
0006ea  f7fffffe          BL       __2sprintf
0006ee  4629              MOV      r1,r5                 ;1001
0006f0  4640              MOV      r0,r8                 ;1001
0006f2  f7fffffe          BL       TEXT_SetTextColor
0006f6  499b              LDR      r1,|L7.2404|
0006f8  4640              MOV      r0,r8                 ;1002
0006fa  f7fffffe          BL       TEXT_SetFont
0006fe  f7fffffe          BL       GUI_UC_SetEncodeUTF8
000702  4669              MOV      r1,sp                 ;1004
000704  4640              MOV      r0,r8                 ;1004
000706  f7fffffe          BL       TEXT_SetText
00070a  f44f6109          MOV      r1,#0x890             ;1006
00070e  6860              LDR      r0,[r4,#4]            ;1006
000710  f7fffffe          BL       WM_GetDialogItem
000714  4605              MOV      r5,r0                 ;1006
000716  e000              B        |L7.1818|
                  |L7.1816|
000718  e16e              B        |L7.2552|
                  |L7.1818|
00071a  2200              MOVS     r2,#0                 ;1007
00071c  f2af2124          ADR      r1,|L7.1276|
000720  4668              MOV      r0,sp                 ;1007
000722  f7fffffe          BL       __2sprintf
000726  4639              MOV      r1,r7                 ;1008
000728  4628              MOV      r0,r5                 ;1008
00072a  f7fffffe          BL       TEXT_SetTextColor
00072e  4989              LDR      r1,|L7.2388|
000730  4628              MOV      r0,r5                 ;1009
000732  f7fffffe          BL       TEXT_SetFont
000736  f7fffffe          BL       GUI_UC_SetEncodeUTF8
00073a  4669              MOV      r1,sp                 ;1011
00073c  4628              MOV      r0,r5                 ;1011
00073e  f7fffffe          BL       TEXT_SetText
000742  f640310c          MOV      r1,#0xb0c             ;1013
000746  6860              LDR      r0,[r4,#4]            ;1013
000748  f7fffffe          BL       WM_GetDialogItem
00074c  4605              MOV      r5,r0                 ;1013
00074e  8a32              LDRH     r2,[r6,#0x10]         ;1014  ; short_time
000750  a185              ADR      r1,|L7.2408|
000752  4668              MOV      r0,sp                 ;1014
000754  f7fffffe          BL       __2sprintf
000758  4639              MOV      r1,r7                 ;1015
00075a  4628              MOV      r0,r5                 ;1015
00075c  f7fffffe          BL       TEXT_SetTextColor
000760  497c              LDR      r1,|L7.2388|
000762  4628              MOV      r0,r5                 ;1016
000764  f7fffffe          BL       TEXT_SetFont
000768  f7fffffe          BL       GUI_UC_SetEncodeUTF8
00076c  4669              MOV      r1,sp                 ;1018
00076e  4628              MOV      r0,r5                 ;1018
000770  f7fffffe          BL       TEXT_SetText
000774  f6403111          MOV      r1,#0xb11             ;1020
000778  6860              LDR      r0,[r4,#4]            ;1020
00077a  f7fffffe          BL       WM_GetDialogItem
00077e  4604              MOV      r4,r0                 ;1020
000780  8972              LDRH     r2,[r6,#0xa]          ;1021  ; steptime
000782  a179              ADR      r1,|L7.2408|
000784  4668              MOV      r0,sp                 ;1021
000786  f7fffffe          BL       __2sprintf
00078a  4639              MOV      r1,r7                 ;1022
00078c  4620              MOV      r0,r4                 ;1022
00078e  f7fffffe          BL       TEXT_SetTextColor
000792  4970              LDR      r1,|L7.2388|
000794  4620              MOV      r0,r4                 ;1023
000796  f7fffffe          BL       TEXT_SetFont
00079a  f7fffffe          BL       GUI_UC_SetEncodeUTF8
00079e  4669              MOV      r1,sp                 ;1025
0007a0  4620              MOV      r0,r4                 ;1025
0007a2  f7fffffe          BL       TEXT_SetText
                  |L7.1958|
0007a6  e456              B        |L7.86|
                  |L7.1960|
0007a8  6860              LDR      r0,[r4,#4]            ;781
0007aa  f7fffffe          BL       WM_GetDialogItem
0007ae  9002              STR      r0,[sp,#8]            ;781
0007b0  2200              MOVS     r2,#0                 ;782
0007b2  4611              MOV      r1,r2                 ;782
0007b4  9802              LDR      r0,[sp,#8]            ;782
0007b6  f7fffffe          BL       BUTTON_SetTextColor
0007ba  2101              MOVS     r1,#1                 ;783
0007bc  9802              LDR      r0,[sp,#8]            ;783
0007be  f7fffffe          BL       BUTTON_SetPressed
0007c2  496a              LDR      r1,|L7.2412|
0007c4  9802              LDR      r0,[sp,#8]            ;784
0007c6  f7fffffe          BL       BUTTON_SetFont
0007ca  f7fffffe          BL       GUI_UC_SetEncodeUTF8
0007ce  a168              ADR      r1,|L7.2416|
0007d0  9802              LDR      r0,[sp,#8]            ;786
0007d2  f7fffffe          BL       BUTTON_SetText
0007d6  4629              MOV      r1,r5                 ;788
0007d8  6860              LDR      r0,[r4,#4]            ;788
0007da  f7fffffe          BL       WM_GetDialogItem
0007de  4605              MOV      r5,r0                 ;788
0007e0  2200              MOVS     r2,#0                 ;789
0007e2  4611              MOV      r1,r2                 ;789
0007e4  4628              MOV      r0,r5                 ;789
0007e6  f7fffffe          BL       BUTTON_SetTextColor
0007ea  4960              LDR      r1,|L7.2412|
0007ec  4628              MOV      r0,r5                 ;790
0007ee  f7fffffe          BL       BUTTON_SetFont
0007f2  f7fffffe          BL       GUI_UC_SetEncodeUTF8
0007f6  a162              ADR      r1,|L7.2432|
0007f8  4628              MOV      r0,r5                 ;792
0007fa  f7fffffe          BL       BUTTON_SetText
0007fe  4651              MOV      r1,r10                ;794
000800  6860              LDR      r0,[r4,#4]            ;794
000802  f7fffffe          BL       WM_GetDialogItem
000806  4605              MOV      r5,r0                 ;794
000808  2200              MOVS     r2,#0                 ;795
00080a  4611              MOV      r1,r2                 ;795
00080c  4628              MOV      r0,r5                 ;795
00080e  f7fffffe          BL       BUTTON_SetTextColor
000812  4956              LDR      r1,|L7.2412|
000814  4628              MOV      r0,r5                 ;796
000816  f7fffffe          BL       BUTTON_SetFont
00081a  f7fffffe          BL       GUI_UC_SetEncodeUTF8
00081e  a15c              ADR      r1,|L7.2448|
000820  4628              MOV      r0,r5                 ;798
000822  f7fffffe          BL       BUTTON_SetText
000826  4659              MOV      r1,r11                ;800
000828  6860              LDR      r0,[r4,#4]            ;800
00082a  f7fffffe          BL       WM_GetDialogItem
00082e  4605              MOV      r5,r0                 ;800
000830  2200              MOVS     r2,#0                 ;801
000832  4611              MOV      r1,r2                 ;801
000834  4628              MOV      r0,r5                 ;801
000836  f7fffffe          BL       BUTTON_SetTextColor
00083a  494c              LDR      r1,|L7.2412|
00083c  4628              MOV      r0,r5                 ;802
00083e  f7fffffe          BL       BUTTON_SetFont
000842  f7fffffe          BL       GUI_UC_SetEncodeUTF8
000846  a156              ADR      r1,|L7.2464|
000848  4628              MOV      r0,r5                 ;804
00084a  f7fffffe          BL       BUTTON_SetText
00084e  f640011d          MOV      r1,#0x81d             ;808
000852  6860              LDR      r0,[r4,#4]            ;808
000854  f7fffffe          BL       WM_GetDialogItem
000858  4605              MOV      r5,r0                 ;808
00085a  2200              MOVS     r2,#0                 ;809
00085c  4611              MOV      r1,r2                 ;809
00085e  4628              MOV      r0,r5                 ;809
000860  f7fffffe          BL       BUTTON_SetTextColor
000864  4941              LDR      r1,|L7.2412|
000866  4628              MOV      r0,r5                 ;810
000868  f7fffffe          BL       BUTTON_SetFont
00086c  f7fffffe          BL       GUI_UC_SetEncodeUTF8
000870  a14e              ADR      r1,|L7.2476|
000872  4628              MOV      r0,r5                 ;812
000874  f7fffffe          BL       BUTTON_SetText
000878  e520              B        |L7.700|
                  |L7.2170|
00087a  6860              LDR      r0,[r4,#4]            ;912
00087c  f7fffffe          BL       WM_GetDialogItem
000880  9002              STR      r0,[sp,#8]            ;912
000882  f7fffffe          BL       GUI_UC_SetEncodeUTF8
000886  a14b              ADR      r1,|L7.2484|
000888  9802              LDR      r0,[sp,#8]            ;914
00088a  f7fffffe          BL       TEXT_SetText
00088e  4639              MOV      r1,r7                 ;915
000890  9802              LDR      r0,[sp,#8]            ;915
000892  f7fffffe          BL       TEXT_SetTextColor
000896  494b              LDR      r1,|L7.2500|
000898  9802              LDR      r0,[sp,#8]            ;916
00089a  f7fffffe          BL       TEXT_SetFont
00089e  4651              MOV      r1,r10                ;918
0008a0  6860              LDR      r0,[r4,#4]            ;918
0008a2  f7fffffe          BL       WM_GetDialogItem
0008a6  4682              MOV      r10,r0                ;918
0008a8  f7fffffe          BL       GUI_UC_SetEncodeUTF8
0008ac  a146              ADR      r1,|L7.2504|
0008ae  4650              MOV      r0,r10                ;920
0008b0  f7fffffe          BL       TEXT_SetText
0008b4  4649              MOV      r1,r9                 ;921
0008b6  4650              MOV      r0,r10                ;921
0008b8  f7fffffe          BL       TEXT_SetBkColor
0008bc  2100              MOVS     r1,#0                 ;922
0008be  4650              MOV      r0,r10                ;922
0008c0  f7fffffe          BL       TEXT_SetTextColor
0008c4  493f              LDR      r1,|L7.2500|
0008c6  4650              MOV      r0,r10                ;923
0008c8  f7fffffe          BL       TEXT_SetFont
0008cc  4659              MOV      r1,r11                ;925
0008ce  6860              LDR      r0,[r4,#4]            ;925
0008d0  f7fffffe          BL       WM_GetDialogItem
0008d4  4681              MOV      r9,r0                 ;925
0008d6  f7fffffe          BL       GUI_UC_SetEncodeUTF8
0008da  a13f              ADR      r1,|L7.2520|
0008dc  4648              MOV      r0,r9                 ;927
0008de  f7fffffe          BL       TEXT_SetText
0008e2  4639              MOV      r1,r7                 ;928
0008e4  4648              MOV      r0,r9                 ;928
0008e6  f7fffffe          BL       TEXT_SetTextColor
0008ea  4936              LDR      r1,|L7.2500|
0008ec  4648              MOV      r0,r9                 ;929
0008ee  f7fffffe          BL       TEXT_SetFont
0008f2  f640310d          MOV      r1,#0xb0d             ;931
0008f6  6860              LDR      r0,[r4,#4]            ;931
0008f8  f7fffffe          BL       WM_GetDialogItem
0008fc  4681              MOV      r9,r0                 ;931
0008fe  f7fffffe          BL       GUI_UC_SetEncodeUTF8
000902  a139              ADR      r1,|L7.2536|
000904  4648              MOV      r0,r9                 ;933
000906  f7fffffe          BL       TEXT_SetText
00090a  4639              MOV      r1,r7                 ;934
00090c  4648              MOV      r0,r9                 ;934
00090e  f7fffffe          BL       TEXT_SetTextColor
000912  492c              LDR      r1,|L7.2500|
000914  4648              MOV      r0,r9                 ;935
000916  f7fffffe          BL       TEXT_SetFont
00091a  e65c              B        |L7.1494|
                  |L7.2332|
                          DCD      0x00bfffff
                  |L7.2336|
000920  53746570          DCB      "Step time",0
000924  2074696d
000928  6500    
00092a  00                DCB      0
00092b  00                DCB      0
                  |L7.2348|
                          DCD      GUI_Font20_ASCII
                  |L7.2352|
000930  53746172          DCB      "Starting C",0
000934  74696e67
000938  204300  
00093b  00                DCB      0
                  |L7.2364|
00093c  53746570          DCB      "Stepping C",0
000940  70696e67
000944  204300  
000947  00                DCB      0
                  |L7.2376|
000948  54687265          DCB      "Threshlod V",0
00094c  73686c6f
000950  64205600
                  |L7.2388|
                          DCD      GUI_Font24_1
                  |L7.2392|
000958  556e7465          DCB      "Untested"
00095c  73746564
                  |L7.2400|
000960  00                DCB      0
000961  00                DCB      0
000962  00                DCB      0
000963  00                DCB      0
                  |L7.2404|
                          DCD      GUI_FontD24x32
                  |L7.2408|
000968  25346400          DCB      "%4d",0
                  |L7.2412|
                          DCD      GUI_FontHZ16
                  |L7.2416|
000970  e58685e9          DCB      229,134,133,233,152,187,230,181,139,232,175,149,0
000974  98bbe6b5
000978  8be8af95
00097c  00      
00097d  00                DCB      0
00097e  00                DCB      0
00097f  00                DCB      0
                  |L7.2432|
000980  e7a88be6          DCB      231,168,139,230,142,167,232,180,159,232,189,189,0
000984  8ea7e8b4
000988  9fe8bdbd
00098c  00      
00098d  00                DCB      0
00098e  00                DCB      0
00098f  00                DCB      0
                  |L7.2448|
000990  e7a88be6          DCB      231,168,139,230,142,167,231,148,181,230,186,144,0
000994  8ea7e794
000998  b5e6ba90
00099c  00      
00099d  00                DCB      0
00099e  00                DCB      0
00099f  00                DCB      0
                  |L7.2464|
0009a0  e58585e6          DCB      229,133,133,230,148,190,231,148,181,0
0009a4  94bee794
0009a8  b500    
0009aa  00                DCB      0
0009ab  00                DCB      0
                  |L7.2476|
0009ac  e69bb2e7          DCB      230,155,178,231,186,191,0
0009b0  babf00  
0009b3  00                DCB      0
                  |L7.2484|
0009b4  e6ada5e8          DCB      230,173,165,232,191,155,230,151,182,233,151,180,0
0009b8  bf9be697
0009bc  b6e997b4
0009c0  00      
0009c1  00                DCB      0
0009c2  00                DCB      0
0009c3  00                DCB      0
                  |L7.2500|
                          DCD      GUI_Fontset_font
                  |L7.2504|
0009c8  e8b5b7e5          DCB      232,181,183,229,167,139,231,148,181,230,181,129,0
0009cc  a78be794
0009d0  b5e6b581
0009d4  00      
0009d5  00                DCB      0
0009d6  00                DCB      0
0009d7  00                DCB      0
                  |L7.2520|
0009d8  e6ada5e8          DCB      230,173,165,232,191,155,231,148,181,230,181,129,0
0009dc  bf9be794
0009e0  b5e6b581
0009e4  00      
0009e5  00                DCB      0
0009e6  00                DCB      0
0009e7  00                DCB      0
                  |L7.2536|
0009e8  e997a8e6          DCB      233,151,168,230,167,155,231,148,181,229,142,139,0
0009ec  a79be794
0009f0  b5e58e8b
0009f4  00      
0009f5  00                DCB      0
0009f6  00                DCB      0
0009f7  00                DCB      0
                  |L7.2552|
0009f8  f6401106          MOV      r1,#0x906             ;971
0009fc  6860              LDR      r0,[r4,#4]            ;971
0009fe  f7fffffe          BL       WM_GetDialogItem
000a02  4607              MOV      r7,r0                 ;971
000a04  f7fffffe          BL       GUI_UC_SetEncodeUTF8
000a08  a150              ADR      r1,|L7.2892|
000a0a  4638              MOV      r0,r7                 ;973
000a0c  f7fffffe          BL       TEXT_SetText
000a10  4649              MOV      r1,r9                 ;974
000a12  4638              MOV      r0,r7                 ;974
000a14  f7fffffe          BL       TEXT_SetTextColor
000a18  494f              LDR      r1,|L7.2904|
000a1a  4638              MOV      r0,r7                 ;975
000a1c  f7fffffe          BL       TEXT_SetFont
000a20  e612              B        |L7.1608|
                  |L7.2594|
000a22  6860              LDR      r0,[r4,#4]            ;1032
000a24  f7fffffe          BL       WM_GetDialogItem
000a28  4605              MOV      r5,r0                 ;1032
000a2a  f2af01cc          ADR      r1,|L7.2400|
000a2e  4628              MOV      r0,r5                 ;1033
000a30  f7fffffe          BL       TEXT_SetText
000a34  f06f4670          MVN      r6,#0xf0000000        ;1034
000a38  4631              MOV      r1,r6                 ;1034
000a3a  4628              MOV      r0,r5                 ;1034
000a3c  f7fffffe          BL       TEXT_SetTextColor
000a40  4651              MOV      r1,r10                ;1036
000a42  6860              LDR      r0,[r4,#4]            ;1036
000a44  f7fffffe          BL       WM_GetDialogItem
000a48  4605              MOV      r5,r0                 ;1036
000a4a  f2af01ec          ADR      r1,|L7.2400|
000a4e  4628              MOV      r0,r5                 ;1037
000a50  f7fffffe          BL       TEXT_SetText
000a54  4631              MOV      r1,r6                 ;1038
000a56  4628              MOV      r0,r5                 ;1038
000a58  f7fffffe          BL       TEXT_SetTextColor
000a5c  4659              MOV      r1,r11                ;1041
000a5e  6860              LDR      r0,[r4,#4]            ;1041
000a60  f7fffffe          BL       WM_GetDialogItem
000a64  4605              MOV      r5,r0                 ;1041
000a66  f2af1108          ADR      r1,|L7.2400|
000a6a  4628              MOV      r0,r5                 ;1042
000a6c  f7fffffe          BL       TEXT_SetText
000a70  4631              MOV      r1,r6                 ;1043
000a72  4628              MOV      r0,r5                 ;1043
000a74  f7fffffe          BL       TEXT_SetTextColor
000a78  f640016b          MOV      r1,#0x86b             ;1045
000a7c  6860              LDR      r0,[r4,#4]            ;1045
000a7e  f7fffffe          BL       WM_GetDialogItem
000a82  4605              MOV      r5,r0                 ;1045
000a84  f2af1128          ADR      r1,|L7.2400|
000a88  4628              MOV      r0,r5                 ;1046
000a8a  f7fffffe          BL       TEXT_SetText
000a8e  4631              MOV      r1,r6                 ;1047
000a90  4628              MOV      r0,r5                 ;1047
000a92  f7fffffe          BL       TEXT_SetTextColor
000a96  f640016c          MOV      r1,#0x86c             ;1049
000a9a  6860              LDR      r0,[r4,#4]            ;1049
000a9c  f7fffffe          BL       WM_GetDialogItem
000aa0  4605              MOV      r5,r0                 ;1049
000aa2  f2af1144          ADR      r1,|L7.2400|
000aa6  4628              MOV      r0,r5                 ;1050
000aa8  f7fffffe          BL       TEXT_SetText
000aac  4631              MOV      r1,r6                 ;1051
000aae  4628              MOV      r0,r5                 ;1051
000ab0  f7fffffe          BL       TEXT_SetTextColor
000ab4  f6401105          MOV      r1,#0x905             ;1053
000ab8  6860              LDR      r0,[r4,#4]            ;1053
000aba  f7fffffe          BL       WM_GetDialogItem
000abe  4605              MOV      r5,r0                 ;1053
000ac0  f2af1164          ADR      r1,|L7.2400|
000ac4  4628              MOV      r0,r5                 ;1054
000ac6  f7fffffe          BL       TEXT_SetText
000aca  4631              MOV      r1,r6                 ;1055
000acc  4628              MOV      r0,r5                 ;1055
000ace  f7fffffe          BL       TEXT_SetTextColor
000ad2  f640310d          MOV      r1,#0xb0d             ;1057
000ad6  6860              LDR      r0,[r4,#4]            ;1057
000ad8  f7fffffe          BL       WM_GetDialogItem
000adc  4605              MOV      r5,r0                 ;1057
000ade  f2af1180          ADR      r1,|L7.2400|
000ae2  4628              MOV      r0,r5                 ;1058
000ae4  f7fffffe          BL       TEXT_SetText
000ae8  4631              MOV      r1,r6                 ;1059
000aea  4628              MOV      r0,r5                 ;1059
000aec  f7fffffe          BL       TEXT_SetTextColor
000af0  f6401106          MOV      r1,#0x906             ;1061
000af4  6860              LDR      r0,[r4,#4]            ;1061
000af6  f7fffffe          BL       WM_GetDialogItem
000afa  4605              MOV      r5,r0                 ;1061
000afc  f2af11a0          ADR      r1,|L7.2400|
000b00  4628              MOV      r0,r5                 ;1062
000b02  f7fffffe          BL       TEXT_SetText
000b06  4631              MOV      r1,r6                 ;1063
000b08  4628              MOV      r0,r5                 ;1063
000b0a  f7fffffe          BL       TEXT_SetTextColor
000b0e  f640310c          MOV      r1,#0xb0c             ;1065
000b12  6860              LDR      r0,[r4,#4]            ;1065
000b14  f7fffffe          BL       WM_GetDialogItem
000b18  4605              MOV      r5,r0                 ;1065
000b1a  f2af11bc          ADR      r1,|L7.2400|
000b1e  4628              MOV      r0,r5                 ;1066
000b20  f7fffffe          BL       TEXT_SetText
000b24  4631              MOV      r1,r6                 ;1067
000b26  4628              MOV      r0,r5                 ;1067
000b28  f7fffffe          BL       TEXT_SetTextColor
000b2c  f6403111          MOV      r1,#0xb11             ;1069
000b30  6860              LDR      r0,[r4,#4]            ;1069
000b32  f7fffffe          BL       WM_GetDialogItem
000b36  4604              MOV      r4,r0                 ;1069
000b38  f2af11dc          ADR      r1,|L7.2400|
000b3c  4620              MOV      r0,r4                 ;1070
000b3e  f7fffffe          BL       TEXT_SetText
000b42  4631              MOV      r1,r6                 ;1071
000b44  4620              MOV      r0,r4                 ;1071
000b46  f7fffffe          BL       TEXT_SetTextColor
000b4a  e62c              B        |L7.1958|
;;;1087   
                          ENDP

                  |L7.2892|
000b4c  e69caae6          DCB      230,156,170,230,181,139,232,175,149,0
000b50  b58be8af
000b54  9500    
000b56  00                DCB      0
000b57  00                DCB      0
                  |L7.2904|
                          DCD      GUI_Fontset_font

                          AREA ||i.test_r||, CODE, READONLY, ALIGN=2

                  test_r PROC
;;;1759   
;;;1760   void test_r(void)
000000  e92d5ff0          PUSH     {r4-r12,lr}
;;;1761   {
000004  ed2d8b02          VPUSH    {d8}
;;;1762       WM_HWIN hItem;
;;;1763       if(para_set2 == set_2_off)
000008  4cfe              LDR      r4,|L8.1028|
00000a  7a61              LDRB     r1,[r4,#9]  ; para_set2
;;;1764       {
;;;1765           if(R_VLUE > set_max_r || R_VLUE < set_min_r || DISS_Voltage*100 > set_max_v || DISS_Voltage*100 < set_min_v)
00000c  4eff              LDR      r6,|L8.1036|
00000e  4620              MOV      r0,r4                 ;1763
;;;1766           {
;;;1767               if(para_set4 == set_4_on){
;;;1768                   BEEP_Tiggr();
;;;1769               }
;;;1770               TM1650_SET_LED(0x68,0x70);//FAIL灯
;;;1771               GPIO_SetBits(GPIOD,GPIO_Pin_12);//
000010  f8df93f4          LDR      r9,|L8.1032|
;;;1772               if(R_VLUE > set_max_r || R_VLUE < set_min_r)
;;;1773               {
;;;1774                   hItem = WM_GetDialogItem(hWinR, ID_TEXT_81);
000014  6980              LDR      r0,[r0,#0x18]
000016  ed960a00          VLDR     s0,[r6,#0]            ;1765
00001a  f44f5880          MOV      r8,#0x1000            ;1771
00001e  f6400a8e          MOV      r10,#0x88e
;;;1775                   TEXT_SetTextColor(hItem, GUI_RED);
;;;1776               }else{
;;;1777                   hItem = WM_GetDialogItem(hWinR, ID_TEXT_81);
;;;1778                   TEXT_SetTextColor(hItem, GUI_GREEN);
;;;1779               }
;;;1780               if(DISS_Voltage*100 > set_max_v || DISS_Voltage*100 < set_min_v){
;;;1781                   hItem = WM_GetDialogItem(hWinR, ID_TEXT_80);
000022  f6400b8d          MOV      r11,#0x88d
000026  ed9f8afa          VLDR     s16,|L8.1040|
00002a  4dfa              LDR      r5,|L8.1044|
00002c  f44f477f          MOV      r7,#0xff00            ;1778
000030  ee200a08          VMUL.F32 s0,s0,s16             ;1765
000034  b3f1              CBZ      r1,|L8.180|
;;;1782                   TEXT_SetTextColor(hItem, GUI_RED);
;;;1783               }else{
;;;1784                   hItem = WM_GetDialogItem(hWinR, ID_TEXT_80);
;;;1785                   TEXT_SetTextColor(hItem, GUI_GREEN);
;;;1786               }
;;;1787           }else{
;;;1788               hItem = WM_GetDialogItem(hWinR, ID_TEXT_80);
;;;1789               TEXT_SetTextColor(hItem, GUI_GREEN);
;;;1790               hItem = WM_GetDialogItem(hWinR, ID_TEXT_81);
;;;1791               TEXT_SetTextColor(hItem, GUI_GREEN);
;;;1792               
;;;1793               GPIO_ResetBits(GPIOD,GPIO_Pin_12);
;;;1794               TM1650_SET_LED(0x48,0x71);
;;;1795               TM1650_SET_LED(0x68,0xF2);//PASS灯
;;;1796           }
;;;1797       }else{
;;;1798           if(finish == 0)
000036  79a1              LDRB     r1,[r4,#6]  ; finish
000038  2900              CMP      r1,#0
00003a  d078              BEQ      |L8.302|
;;;1799           {
;;;1800               if(R_VLUE > set_max_r || R_VLUE < set_min_r || DISS_Voltage*100 > set_max_v || DISS_Voltage*100 < set_min_v)
;;;1801               {
;;;1802                   if(para_set4 == set_4_on){
;;;1803                       BEEP_Tiggr();
;;;1804                   }
;;;1805                   TM1650_SET_LED(0x68,0x70);//FAIL灯
;;;1806                   GPIO_SetBits(GPIOD,GPIO_Pin_12);//
;;;1807                   if(R_VLUE > set_max_r || R_VLUE < set_min_r)
;;;1808                   {
;;;1809                       hItem = WM_GetDialogItem(hWinR, ID_TEXT_81);
;;;1810                       TEXT_SetTextColor(hItem, GUI_RED);
;;;1811                   }else{
;;;1812                       hItem = WM_GetDialogItem(hWinR, ID_TEXT_81);
;;;1813                       TEXT_SetTextColor(hItem, GUI_GREEN);
;;;1814                   }
;;;1815                   if(DISS_Voltage*100 > set_max_v || DISS_Voltage*100 < set_min_v){
;;;1816                       hItem = WM_GetDialogItem(hWinR, ID_TEXT_80);
;;;1817                       TEXT_SetTextColor(hItem, GUI_RED);
;;;1818                   }else{
;;;1819                       hItem = WM_GetDialogItem(hWinR, ID_TEXT_80);
;;;1820                       TEXT_SetTextColor(hItem, GUI_GREEN);
;;;1821                   }
;;;1822               }else{
;;;1823                   hItem = WM_GetDialogItem(hWinR, ID_TEXT_80);
;;;1824                   TEXT_SetTextColor(hItem, GUI_GREEN);
;;;1825                   hItem = WM_GetDialogItem(hWinR, ID_TEXT_81);
;;;1826                   TEXT_SetTextColor(hItem, GUI_GREEN);
;;;1827                   
;;;1828                   GPIO_ResetBits(GPIOD,GPIO_Pin_12);
;;;1829                   TM1650_SET_LED(0x48,0x71);
;;;1830                   TM1650_SET_LED(0x68,0xF2);//PASS灯
;;;1831               }
;;;1832           }else{
;;;1833               if(r > set_max_r || r < set_min_r || v*100 > set_max_v || v*100 < set_min_v || oc_data*100 > set_max_c || oc_data*100 < set_min_c)
00003c  8c29              LDRH     r1,[r5,#0x20]  ; Run_Control
00003e  89e2              LDRH     r2,[r4,#0xe]  ; r
;;;1834               {
;;;1835                   if(para_set4 == set_4_on){
;;;1836                       BEEP_Tiggr();
;;;1837                   }
;;;1838                   TM1650_SET_LED(0x68,0x70);//FAIL灯
;;;1839                   GPIO_SetBits(GPIOD,GPIO_Pin_12);//
;;;1840                   if(r > set_max_r || r < set_min_r)
;;;1841                   {
;;;1842                       hItem = WM_GetDialogItem(hWinR, ID_TEXT_81);
;;;1843                       TEXT_SetTextColor(hItem, GUI_RED);
;;;1844                   }else{
;;;1845                       hItem = WM_GetDialogItem(hWinR, ID_TEXT_81);
;;;1846                       TEXT_SetTextColor(hItem, GUI_GREEN);
;;;1847                   }
;;;1848                   if(v*100 > set_max_v || v*100 < set_min_v){
;;;1849                       hItem = WM_GetDialogItem(hWinR, ID_TEXT_80);
;;;1850                       TEXT_SetTextColor(hItem, GUI_RED);
;;;1851                   }else{
;;;1852                       hItem = WM_GetDialogItem(hWinR, ID_TEXT_80);
;;;1853                       TEXT_SetTextColor(hItem, GUI_GREEN);
;;;1854                   }
;;;1855                   if(oc_data*100 > set_max_c || oc_data*100 < set_min_c){
;;;1856                       hItem = WM_GetDialogItem(hWinR, ID_TEXT_82);
000040  f640068f          MOV      r6,#0x88f
000044  4291              CMP      r1,r2                 ;1833
000046  d333              BCC      |L8.176|
000048  8c69              LDRH     r1,[r5,#0x22]         ;1833  ; Run_Control
00004a  89e2              LDRH     r2,[r4,#0xe]          ;1833  ; r
00004c  4291              CMP      r1,r2                 ;1833
00004e  d82f              BHI      |L8.176|
000050  ed940a08          VLDR     s0,[r4,#0x20]         ;1833
000054  8ba9              LDRH     r1,[r5,#0x1c]         ;1833  ; Run_Control
000056  ee200a08          VMUL.F32 s0,s0,s16             ;1833
00005a  ee001a90          VMOV     s1,r1                 ;1833
00005e  eef80a60          VCVT.F32.U32 s1,s1                 ;1833
000062  eeb40ae0          VCMPE.F32 s0,s1                 ;1833
000066  eef1fa10          VMRS     APSR_nzcv,FPSCR       ;1833
00006a  dc21              BGT      |L8.176|
00006c  8be9              LDRH     r1,[r5,#0x1e]         ;1833  ; Run_Control
00006e  ee001a90          VMOV     s1,r1                 ;1833
000072  eef80a60          VCVT.F32.U32 s1,s1                 ;1833
000076  eeb40ae0          VCMPE.F32 s0,s1                 ;1833
00007a  eef1fa10          VMRS     APSR_nzcv,FPSCR       ;1833
00007e  d317              BCC      |L8.176|
000080  ed940a07          VLDR     s0,[r4,#0x1c]         ;1833
000084  8ca9              LDRH     r1,[r5,#0x24]         ;1833  ; Run_Control
000086  ee200a08          VMUL.F32 s0,s0,s16             ;1833
00008a  ee001a90          VMOV     s1,r1                 ;1833
00008e  eef80a60          VCVT.F32.U32 s1,s1                 ;1833
000092  eeb40ae0          VCMPE.F32 s0,s1                 ;1833
000096  eef1fa10          VMRS     APSR_nzcv,FPSCR       ;1833
00009a  dc09              BGT      |L8.176|
00009c  8ce9              LDRH     r1,[r5,#0x26]         ;1833  ; Run_Control
00009e  ee001a90          VMOV     s1,r1                 ;1833
0000a2  eef80a60          VCVT.F32.U32 s1,s1                 ;1833
0000a6  eeb40ae0          VCMPE.F32 s0,s1                 ;1833
0000aa  eef1fa10          VMRS     APSR_nzcv,FPSCR       ;1833
0000ae  d27d              BCS      |L8.428|
                  |L8.176|
0000b0  78e0              LDRB     r0,[r4,#3]            ;1835  ; para_set4
0000b2  e000              B        |L8.182|
                  |L8.180|
0000b4  e002              B        |L8.188|
                  |L8.182|
0000b6  28ff              CMP      r0,#0xff              ;1835
0000b8  d079              BEQ      |L8.430|
0000ba  e11b              B        |L8.756|
                  |L8.188|
0000bc  8b69              LDRH     r1,[r5,#0x1a]         ;1765  ; Run_Control
0000be  8c2a              LDRH     r2,[r5,#0x20]         ;1765  ; Run_Control
0000c0  4291              CMP      r1,r2                 ;1765
0000c2  d817              BHI      |L8.244|
0000c4  8b69              LDRH     r1,[r5,#0x1a]         ;1765  ; Run_Control
0000c6  8c6a              LDRH     r2,[r5,#0x22]         ;1765  ; Run_Control
0000c8  4291              CMP      r1,r2                 ;1765
0000ca  d313              BCC      |L8.244|
0000cc  8ba9              LDRH     r1,[r5,#0x1c]         ;1765  ; Run_Control
0000ce  ee001a90          VMOV     s1,r1                 ;1765
0000d2  eef80a60          VCVT.F32.U32 s1,s1                 ;1765
0000d6  eeb40ae0          VCMPE.F32 s0,s1                 ;1765
0000da  eef1fa10          VMRS     APSR_nzcv,FPSCR       ;1765
0000de  dc09              BGT      |L8.244|
0000e0  8be9              LDRH     r1,[r5,#0x1e]         ;1765  ; Run_Control
0000e2  ee001a90          VMOV     s1,r1                 ;1765
0000e6  eef80a60          VCVT.F32.U32 s1,s1                 ;1765
0000ea  eeb40ae0          VCMPE.F32 s0,s1                 ;1765
0000ee  eef1fa10          VMRS     APSR_nzcv,FPSCR       ;1765
0000f2  d252              BCS      |L8.410|
                  |L8.244|
0000f4  78e0              LDRB     r0,[r4,#3]            ;1767  ; para_set4
0000f6  28ff              CMP      r0,#0xff              ;1767
0000f8  d101              BNE      |L8.254|
0000fa  f7fffffe          BL       BEEP_Tiggr
                  |L8.254|
0000fe  2170              MOVS     r1,#0x70              ;1770
000100  2068              MOVS     r0,#0x68              ;1770
000102  f7fffffe          BL       TM1650_SET_LED
000106  4641              MOV      r1,r8                 ;1771
000108  4648              MOV      r0,r9                 ;1771
00010a  f7fffffe          BL       GPIO_SetBits
00010e  8b68              LDRH     r0,[r5,#0x1a]         ;1772  ; Run_Control
000110  8c29              LDRH     r1,[r5,#0x20]         ;1772  ; Run_Control
000112  4288              CMP      r0,r1                 ;1772
000114  d803              BHI      |L8.286|
000116  8b68              LDRH     r0,[r5,#0x1a]         ;1772  ; Run_Control
000118  8c69              LDRH     r1,[r5,#0x22]         ;1772  ; Run_Control
00011a  4288              CMP      r0,r1                 ;1772
00011c  d208              BCS      |L8.304|
                  |L8.286|
00011e  4651              MOV      r1,r10                ;1774
000120  69a0              LDR      r0,[r4,#0x18]         ;1774  ; hWinR
000122  f7fffffe          BL       WM_GetDialogItem
000126  21ff              MOVS     r1,#0xff              ;1775
000128  f7fffffe          BL       TEXT_SetTextColor
00012c  e007              B        |L8.318|
                  |L8.302|
00012e  e054              B        |L8.474|
                  |L8.304|
000130  4651              MOV      r1,r10                ;1777
000132  69a0              LDR      r0,[r4,#0x18]         ;1777  ; hWinR
000134  f7fffffe          BL       WM_GetDialogItem
000138  4639              MOV      r1,r7                 ;1778
00013a  f7fffffe          BL       TEXT_SetTextColor
                  |L8.318|
00013e  ed960a00          VLDR     s0,[r6,#0]            ;1780
000142  8ba8              LDRH     r0,[r5,#0x1c]         ;1780  ; Run_Control
000144  ee200a08          VMUL.F32 s0,s0,s16             ;1780
000148  ee000a90          VMOV     s1,r0                 ;1780
00014c  eef80a60          VCVT.F32.U32 s1,s1                 ;1780
000150  eeb40ae0          VCMPE.F32 s0,s1                 ;1780
000154  eef1fa10          VMRS     APSR_nzcv,FPSCR       ;1780
000158  dc09              BGT      |L8.366|
00015a  8be8              LDRH     r0,[r5,#0x1e]         ;1780  ; Run_Control
00015c  ee000a90          VMOV     s1,r0                 ;1780
000160  eef80a60          VCVT.F32.U32 s1,s1                 ;1780
000164  eeb40ae0          VCMPE.F32 s0,s1                 ;1780
000168  eef1fa10          VMRS     APSR_nzcv,FPSCR       ;1780
00016c  d20a              BCS      |L8.388|
                  |L8.366|
00016e  4659              MOV      r1,r11                ;1781
000170  69a0              LDR      r0,[r4,#0x18]         ;1781  ; hWinR
000172  f7fffffe          BL       WM_GetDialogItem
000176  ecbd8b02          VPOP     {d8}                  ;1782
00017a  21ff              MOVS     r1,#0xff              ;1782
00017c  e8bd5ff0          POP      {r4-r12,lr}           ;1782
000180  f7ffbffe          B.W      TEXT_SetTextColor
                  |L8.388|
000184  4659              MOV      r1,r11                ;1784
000186  69a0              LDR      r0,[r4,#0x18]         ;1784  ; hWinR
000188  f7fffffe          BL       WM_GetDialogItem
00018c  ecbd8b02          VPOP     {d8}                  ;1785
000190  4639              MOV      r1,r7                 ;1785
000192  e8bd5ff0          POP      {r4-r12,lr}           ;1785
000196  f7ffbffe          B.W      TEXT_SetTextColor
                  |L8.410|
00019a  4659              MOV      r1,r11                ;1788
00019c  f7fffffe          BL       WM_GetDialogItem
0001a0  4639              MOV      r1,r7                 ;1789
0001a2  f7fffffe          BL       TEXT_SetTextColor
0001a6  4651              MOV      r1,r10                ;1790
0001a8  69a0              LDR      r0,[r4,#0x18]         ;1790  ; hWinR
0001aa  e001              B        |L8.432|
                  |L8.428|
0001ac  e116              B        |L8.988|
                  |L8.430|
0001ae  e09f              B        |L8.752|
                  |L8.432|
0001b0  f7fffffe          BL       WM_GetDialogItem
0001b4  4639              MOV      r1,r7                 ;1791
0001b6  f7fffffe          BL       TEXT_SetTextColor
0001ba  4641              MOV      r1,r8                 ;1793
0001bc  4648              MOV      r0,r9                 ;1793
0001be  f7fffffe          BL       GPIO_ResetBits
0001c2  2171              MOVS     r1,#0x71              ;1794
0001c4  2048              MOVS     r0,#0x48              ;1794
0001c6  f7fffffe          BL       TM1650_SET_LED
0001ca  ecbd8b02          VPOP     {d8}                  ;1795
0001ce  21f2              MOVS     r1,#0xf2              ;1795
0001d0  e8bd5ff0          POP      {r4-r12,lr}           ;1795
0001d4  2068              MOVS     r0,#0x68              ;1795
0001d6  f7ffbffe          B.W      TM1650_SET_LED
                  |L8.474|
0001da  8b69              LDRH     r1,[r5,#0x1a]         ;1800  ; Run_Control
0001dc  8c2a              LDRH     r2,[r5,#0x20]         ;1800  ; Run_Control
0001de  4291              CMP      r1,r2                 ;1800
0001e0  d817              BHI      |L8.530|
0001e2  8b69              LDRH     r1,[r5,#0x1a]         ;1800  ; Run_Control
0001e4  8c6a              LDRH     r2,[r5,#0x22]         ;1800  ; Run_Control
0001e6  4291              CMP      r1,r2                 ;1800
0001e8  d313              BCC      |L8.530|
0001ea  8ba9              LDRH     r1,[r5,#0x1c]         ;1800  ; Run_Control
0001ec  ee001a90          VMOV     s1,r1                 ;1800
0001f0  eef80a60          VCVT.F32.U32 s1,s1                 ;1800
0001f4  eeb40ae0          VCMPE.F32 s0,s1                 ;1800
0001f8  eef1fa10          VMRS     APSR_nzcv,FPSCR       ;1800
0001fc  dc09              BGT      |L8.530|
0001fe  8be9              LDRH     r1,[r5,#0x1e]         ;1800  ; Run_Control
000200  ee001a90          VMOV     s1,r1                 ;1800
000204  eef80a60          VCVT.F32.U32 s1,s1                 ;1800
000208  eeb40ae0          VCMPE.F32 s0,s1                 ;1800
00020c  eef1fa10          VMRS     APSR_nzcv,FPSCR       ;1800
000210  d251              BCS      |L8.694|
                  |L8.530|
000212  78e0              LDRB     r0,[r4,#3]            ;1802  ; para_set4
000214  28ff              CMP      r0,#0xff              ;1802
000216  d101              BNE      |L8.540|
000218  f7fffffe          BL       BEEP_Tiggr
                  |L8.540|
00021c  2170              MOVS     r1,#0x70              ;1805
00021e  2068              MOVS     r0,#0x68              ;1805
000220  f7fffffe          BL       TM1650_SET_LED
000224  4641              MOV      r1,r8                 ;1806
000226  4648              MOV      r0,r9                 ;1806
000228  f7fffffe          BL       GPIO_SetBits
00022c  8b68              LDRH     r0,[r5,#0x1a]         ;1807  ; Run_Control
00022e  8c29              LDRH     r1,[r5,#0x20]         ;1807  ; Run_Control
000230  4288              CMP      r0,r1                 ;1807
000232  d803              BHI      |L8.572|
000234  8b68              LDRH     r0,[r5,#0x1a]         ;1807  ; Run_Control
000236  8c69              LDRH     r1,[r5,#0x22]         ;1807  ; Run_Control
000238  4288              CMP      r0,r1                 ;1807
00023a  d207              BCS      |L8.588|
                  |L8.572|
00023c  4651              MOV      r1,r10                ;1809
00023e  69a0              LDR      r0,[r4,#0x18]         ;1809  ; hWinR
000240  f7fffffe          BL       WM_GetDialogItem
000244  21ff              MOVS     r1,#0xff              ;1810
000246  f7fffffe          BL       TEXT_SetTextColor
00024a  e006              B        |L8.602|
                  |L8.588|
00024c  4651              MOV      r1,r10                ;1812
00024e  69a0              LDR      r0,[r4,#0x18]         ;1812  ; hWinR
000250  f7fffffe          BL       WM_GetDialogItem
000254  4639              MOV      r1,r7                 ;1813
000256  f7fffffe          BL       TEXT_SetTextColor
                  |L8.602|
00025a  ed960a00          VLDR     s0,[r6,#0]            ;1815
00025e  8ba8              LDRH     r0,[r5,#0x1c]         ;1815  ; Run_Control
000260  ee200a08          VMUL.F32 s0,s0,s16             ;1815
000264  ee000a90          VMOV     s1,r0                 ;1815
000268  eef80a60          VCVT.F32.U32 s1,s1                 ;1815
00026c  eeb40ae0          VCMPE.F32 s0,s1                 ;1815
000270  eef1fa10          VMRS     APSR_nzcv,FPSCR       ;1815
000274  dc09              BGT      |L8.650|
000276  8be8              LDRH     r0,[r5,#0x1e]         ;1815  ; Run_Control
000278  ee000a90          VMOV     s1,r0                 ;1815
00027c  eef80a60          VCVT.F32.U32 s1,s1                 ;1815
000280  eeb40ae0          VCMPE.F32 s0,s1                 ;1815
000284  eef1fa10          VMRS     APSR_nzcv,FPSCR       ;1815
000288  d20a              BCS      |L8.672|
                  |L8.650|
00028a  4659              MOV      r1,r11                ;1816
00028c  69a0              LDR      r0,[r4,#0x18]         ;1816  ; hWinR
00028e  f7fffffe          BL       WM_GetDialogItem
000292  ecbd8b02          VPOP     {d8}                  ;1817
000296  21ff              MOVS     r1,#0xff              ;1817
000298  e8bd5ff0          POP      {r4-r12,lr}           ;1817
00029c  f7ffbffe          B.W      TEXT_SetTextColor
                  |L8.672|
0002a0  4659              MOV      r1,r11                ;1819
0002a2  69a0              LDR      r0,[r4,#0x18]         ;1819  ; hWinR
0002a4  f7fffffe          BL       WM_GetDialogItem
0002a8  ecbd8b02          VPOP     {d8}                  ;1820
0002ac  4639              MOV      r1,r7                 ;1820
0002ae  e8bd5ff0          POP      {r4-r12,lr}           ;1820
0002b2  f7ffbffe          B.W      TEXT_SetTextColor
                  |L8.694|
0002b6  4659              MOV      r1,r11                ;1823
0002b8  f7fffffe          BL       WM_GetDialogItem
0002bc  4639              MOV      r1,r7                 ;1824
0002be  f7fffffe          BL       TEXT_SetTextColor
0002c2  4651              MOV      r1,r10                ;1825
0002c4  69a0              LDR      r0,[r4,#0x18]         ;1825  ; hWinR
0002c6  f7fffffe          BL       WM_GetDialogItem
0002ca  4639              MOV      r1,r7                 ;1826
0002cc  f7fffffe          BL       TEXT_SetTextColor
0002d0  4641              MOV      r1,r8                 ;1828
0002d2  4648              MOV      r0,r9                 ;1828
0002d4  f7fffffe          BL       GPIO_ResetBits
0002d8  2171              MOVS     r1,#0x71              ;1829
0002da  2048              MOVS     r0,#0x48              ;1829
0002dc  f7fffffe          BL       TM1650_SET_LED
0002e0  ecbd8b02          VPOP     {d8}                  ;1830
0002e4  21f2              MOVS     r1,#0xf2              ;1830
0002e6  e8bd5ff0          POP      {r4-r12,lr}           ;1830
0002ea  2068              MOVS     r0,#0x68              ;1830
0002ec  f7ffbffe          B.W      TM1650_SET_LED
                  |L8.752|
0002f0  f7fffffe          BL       BEEP_Tiggr
                  |L8.756|
0002f4  2170              MOVS     r1,#0x70              ;1838
0002f6  2068              MOVS     r0,#0x68              ;1838
0002f8  f7fffffe          BL       TM1650_SET_LED
0002fc  4641              MOV      r1,r8                 ;1839
0002fe  4648              MOV      r0,r9                 ;1839
000300  f7fffffe          BL       GPIO_SetBits
000304  8c28              LDRH     r0,[r5,#0x20]         ;1840  ; Run_Control
000306  89e1              LDRH     r1,[r4,#0xe]          ;1840  ; r
000308  4288              CMP      r0,r1                 ;1840
00030a  d303              BCC      |L8.788|
00030c  8c68              LDRH     r0,[r5,#0x22]         ;1840  ; Run_Control
00030e  89e1              LDRH     r1,[r4,#0xe]          ;1840  ; r
000310  4288              CMP      r0,r1                 ;1840
000312  d907              BLS      |L8.804|
                  |L8.788|
000314  4651              MOV      r1,r10                ;1842
000316  69a0              LDR      r0,[r4,#0x18]         ;1842  ; hWinR
000318  f7fffffe          BL       WM_GetDialogItem
00031c  21ff              MOVS     r1,#0xff              ;1843
00031e  f7fffffe          BL       TEXT_SetTextColor
000322  e006              B        |L8.818|
                  |L8.804|
000324  4651              MOV      r1,r10                ;1845
000326  69a0              LDR      r0,[r4,#0x18]         ;1845  ; hWinR
000328  f7fffffe          BL       WM_GetDialogItem
00032c  4639              MOV      r1,r7                 ;1846
00032e  f7fffffe          BL       TEXT_SetTextColor
                  |L8.818|
000332  ed940a08          VLDR     s0,[r4,#0x20]         ;1848
000336  8ba8              LDRH     r0,[r5,#0x1c]         ;1848  ; Run_Control
000338  ee200a08          VMUL.F32 s0,s0,s16             ;1848
00033c  ee000a90          VMOV     s1,r0                 ;1848
000340  eef80a60          VCVT.F32.U32 s1,s1                 ;1848
000344  eeb40ae0          VCMPE.F32 s0,s1                 ;1848
000348  eef1fa10          VMRS     APSR_nzcv,FPSCR       ;1848
00034c  dc09              BGT      |L8.866|
00034e  8be8              LDRH     r0,[r5,#0x1e]         ;1848  ; Run_Control
000350  ee000a90          VMOV     s1,r0                 ;1848
000354  eef80a60          VCVT.F32.U32 s1,s1                 ;1848
000358  eeb40ae0          VCMPE.F32 s0,s1                 ;1848
00035c  eef1fa10          VMRS     APSR_nzcv,FPSCR       ;1848
000360  d207              BCS      |L8.882|
                  |L8.866|
000362  4659              MOV      r1,r11                ;1849
000364  69a0              LDR      r0,[r4,#0x18]         ;1849  ; hWinR
000366  f7fffffe          BL       WM_GetDialogItem
00036a  21ff              MOVS     r1,#0xff              ;1850
00036c  f7fffffe          BL       TEXT_SetTextColor
000370  e006              B        |L8.896|
                  |L8.882|
000372  4659              MOV      r1,r11                ;1852
000374  69a0              LDR      r0,[r4,#0x18]         ;1852  ; hWinR
000376  f7fffffe          BL       WM_GetDialogItem
00037a  4639              MOV      r1,r7                 ;1853
00037c  f7fffffe          BL       TEXT_SetTextColor
                  |L8.896|
000380  ed940a07          VLDR     s0,[r4,#0x1c]         ;1855
000384  8ca8              LDRH     r0,[r5,#0x24]         ;1855  ; Run_Control
000386  ee200a08          VMUL.F32 s0,s0,s16             ;1855
00038a  ee000a90          VMOV     s1,r0                 ;1855
00038e  eef80a60          VCVT.F32.U32 s1,s1                 ;1855
000392  eeb40ae0          VCMPE.F32 s0,s1                 ;1855
000396  eef1fa10          VMRS     APSR_nzcv,FPSCR       ;1855
00039a  dc09              BGT      |L8.944|
00039c  8ce8              LDRH     r0,[r5,#0x26]         ;1855  ; Run_Control
00039e  ee000a90          VMOV     s1,r0                 ;1855
0003a2  eef80a60          VCVT.F32.U32 s1,s1                 ;1855
0003a6  eeb40ae0          VCMPE.F32 s0,s1                 ;1855
0003aa  eef1fa10          VMRS     APSR_nzcv,FPSCR       ;1855
0003ae  d20a              BCS      |L8.966|
                  |L8.944|
0003b0  4631              MOV      r1,r6
0003b2  69a0              LDR      r0,[r4,#0x18]  ; hWinR
0003b4  f7fffffe          BL       WM_GetDialogItem
;;;1857                       TEXT_SetTextColor(hItem, GUI_RED);
0003b8  ecbd8b02          VPOP     {d8}
0003bc  21ff              MOVS     r1,#0xff
0003be  e8bd5ff0          POP      {r4-r12,lr}
0003c2  f7ffbffe          B.W      TEXT_SetTextColor
                  |L8.966|
;;;1858                   }else{
;;;1859                       hItem = WM_GetDialogItem(hWinR, ID_TEXT_82);
0003c6  4631              MOV      r1,r6
0003c8  69a0              LDR      r0,[r4,#0x18]  ; hWinR
0003ca  f7fffffe          BL       WM_GetDialogItem
;;;1860                       TEXT_SetTextColor(hItem, GUI_GREEN);
0003ce  ecbd8b02          VPOP     {d8}
0003d2  4639              MOV      r1,r7
0003d4  e8bd5ff0          POP      {r4-r12,lr}
0003d8  f7ffbffe          B.W      TEXT_SetTextColor
                  |L8.988|
;;;1861                   }
;;;1862               }else{
;;;1863                   hItem = WM_GetDialogItem(hWinR, ID_TEXT_80);
0003dc  4659              MOV      r1,r11
0003de  f7fffffe          BL       WM_GetDialogItem
;;;1864                   TEXT_SetTextColor(hItem, GUI_GREEN);
0003e2  4639              MOV      r1,r7
0003e4  f7fffffe          BL       TEXT_SetTextColor
;;;1865                   hItem = WM_GetDialogItem(hWinR, ID_TEXT_81);
0003e8  4651              MOV      r1,r10
0003ea  69a0              LDR      r0,[r4,#0x18]  ; hWinR
0003ec  f7fffffe          BL       WM_GetDialogItem
;;;1866                   TEXT_SetTextColor(hItem, GUI_GREEN);
0003f0  4639              MOV      r1,r7
0003f2  f7fffffe          BL       TEXT_SetTextColor
;;;1867                   hItem = WM_GetDialogItem(hWinR, ID_TEXT_82);
0003f6  4631              MOV      r1,r6
0003f8  69a0              LDR      r0,[r4,#0x18]  ; hWinR
0003fa  f7fffffe          BL       WM_GetDialogItem
;;;1868                   TEXT_SetTextColor(hItem, GUI_GREEN);
0003fe  4639              MOV      r1,r7
000400  e00a              B        |L8.1048|
000402  0000              DCW      0x0000
                  |L8.1028|
                          DCD      ||.data||
                  |L8.1032|
                          DCD      0x40020c00
                  |L8.1036|
                          DCD      DISS_Voltage
                  |L8.1040|
000410  42c80000          DCFS     0x42c80000 ; 100
                  |L8.1044|
                          DCD      Run_Control
                  |L8.1048|
000418  f7fffffe          BL       TEXT_SetTextColor
;;;1869                   
;;;1870                   GPIO_ResetBits(GPIOD,GPIO_Pin_12);
00041c  4641              MOV      r1,r8
00041e  4648              MOV      r0,r9
000420  f7fffffe          BL       GPIO_ResetBits
;;;1871                   TM1650_SET_LED(0x48,0x71);
000424  2171              MOVS     r1,#0x71
000426  2048              MOVS     r0,#0x48
000428  f7fffffe          BL       TM1650_SET_LED
;;;1872                   TM1650_SET_LED(0x68,0xF2);//PASS灯
00042c  ecbd8b02          VPOP     {d8}
000430  21f2              MOVS     r1,#0xf2
000432  e8bd5ff0          POP      {r4-r12,lr}
000436  2068              MOVS     r0,#0x68
000438  f7ffbffe          B.W      TM1650_SET_LED
;;;1873               }
;;;1874           }
;;;1875                  
;;;1876       }
;;;1877   //     else
;;;1878   //     {
;;;1879   //         TM1650_SET_LED(0x68,0x70);
;;;1880   //         GPIO_ResetBits(GPIOD,GPIO_Pin_12);//灭灯
;;;1881   //     }
;;;1882   }
;;;1883   
                          ENDP


                          AREA ||.constdata||, DATA, READONLY, ALIGN=2

                  _aDialogCreate
                          DCD      WINDOW_CreateIndirect
                          DCD      ||.conststring||
000008  08120000          DCW      0x0812,0x0000
00000c  000001e0          DCW      0x0000,0x01e0
000010  01100000          DCW      0x0110,0x0000
                          DCD      0x00000000
                          DCD      0x00000000
                          DCD      TEXT_CreateIndirect
                          DCD      ||.conststring||+0x2
000024  0813001c          DCW      0x0813,0x001c
000028  00320040          DCW      0x0032,0x0040
00002c  00200000          DCW      0x0020,0x0000
                          DCD      0x00000064
                          DCD      0x00000000
                          DCD      TEXT_CreateIndirect
                          DCD      ||.conststring||+0x2
000040  0814001c          DCW      0x0814,0x001c
000044  00780040          DCW      0x0078,0x0040
000048  00200000          DCW      0x0020,0x0000
                          DCD      0x00000064
                          DCD      0x00000000
                          DCD      TEXT_CreateIndirect
                          DCD      ||.conststring||+0x2
00005c  081500d9          DCW      0x0815,0x00d9
000060  00320020          DCW      0x0032,0x0020
000064  001e0000          DCW      0x001e,0x0000
                          DCD      0x00000000
                          DCD      0x00000000
                          DCD      TEXT_CreateIndirect
                          DCD      ||.conststring||+0x2
000078  081600ef          DCW      0x0816,0x00ef
00007c  00790020          DCW      0x0079,0x0020
000080  00200000          DCW      0x0020,0x0000
                          DCD      0x00000000
                          DCD      0x00000000
                          DCD      TEXT_CreateIndirect
                          DCD      ||.conststring||+0x2
000094  081700d9          DCW      0x0817,0x00d9
000098  00800020          DCW      0x0080,0x0020
00009c  00140000          DCW      0x0014,0x0000
                          DCD      0x00000000
                          DCD      0x00000000
                          DCD      TEXT_CreateIndirect
                          DCD      ||.conststring||+0x2
0000b0  0868012c          DCW      0x0868,0x012c
0000b4  00960064          DCW      0x0096,0x0064
0000b8  00140000          DCW      0x0014,0x0000
                          DCD      0x00000000
                          DCD      0x00000000
                          DCD      TEXT_CreateIndirect
                          DCD      ||.conststring||+0x2
0000cc  0869012c          DCW      0x0869,0x012c
0000d0  003c0064          DCW      0x003c,0x0064
0000d4  00140000          DCW      0x0014,0x0000
                          DCD      0x00000000
                          DCD      0x00000000
                          DCD      TEXT_CreateIndirect
                          DCD      ||.conststring||+0x2
0000e8  086a012c          DCW      0x086a,0x012c
0000ec  005a0064          DCW      0x005a,0x0064
0000f0  00140000          DCW      0x0014,0x0000
                          DCD      0x00000000
                          DCD      0x00000000
                          DCD      TEXT_CreateIndirect
                          DCD      ||.conststring||+0x2
000104  086b0190          DCW      0x086b,0x0190
000108  003c0039          DCW      0x003c,0x0039
00010c  00140000          DCW      0x0014,0x0000
                          DCD      0x00000000
                          DCD      0x00000000
                          DCD      TEXT_CreateIndirect
                          DCD      ||.conststring||+0x2
000120  086c0190          DCW      0x086c,0x0190
000124  005a0039          DCW      0x005a,0x0039
000128  00140000          DCW      0x0014,0x0000
                          DCD      0x00000000
                          DCD      0x00000000
                          DCD      TEXT_CreateIndirect
                          DCD      ||.conststring||+0x2
00013c  088d005f          DCW      0x088d,0x005f
000140  00300096          DCW      0x0030,0x0096
000144  00280000          DCW      0x0028,0x0000
                          DCD      0x00000000
                          DCD      0x00000000
                          DCD      TEXT_CreateIndirect
                          DCD      ||.conststring||+0x2
000158  088e005f          DCW      0x088e,0x005f
00015c  00740096          DCW      0x0074,0x0096
000160  00280000          DCW      0x0028,0x0000
                          DCD      0x00000000
                          DCD      0x00000000
                          DCD      TEXT_CreateIndirect
                          DCD      ||.conststring||+0x2
000174  088f005f          DCW      0x088f,0x005f
000178  00b80096          DCW      0x00b8,0x0096
00017c  00280000          DCW      0x0028,0x0000
                          DCD      0x00000000
                          DCD      0x00000000
                          DCD      TEXT_CreateIndirect
                          DCD      ||.conststring||+0x2
000190  08900190          DCW      0x0890,0x0190
000194  00af0039          DCW      0x00af,0x0039
000198  00140000          DCW      0x0014,0x0000
                          DCD      0x00000000
                          DCD      0x00000000
                          DCD      TEXT_CreateIndirect
                          DCD      ||.conststring||+0x2
0001ac  0904012c          DCW      0x0904,0x012c
0001b0  00050078          DCW      0x0005,0x0078
0001b4  00140000          DCW      0x0014,0x0000
                          DCD      0x00000000
                          DCD      0x00000000
                          DCD      TEXT_CreateIndirect
                          DCD      ||.conststring||+0x2
0001c8  09050190          DCW      0x0905,0x0190
0001cc  0078003c          DCW      0x0078,0x003c
0001d0  00140000          DCW      0x0014,0x0000
                          DCD      0x00000000
                          DCD      0x00000000
                          DCD      TEXT_CreateIndirect
                          DCD      ||.conststring||+0x2
0001e4  09060195          DCW      0x0906,0x0195
0001e8  00050050          DCW      0x0005,0x0050
0001ec  00140000          DCW      0x0014,0x0000
                          DCD      0x00000000
                          DCD      0x00000000
                          DCD      TEXT_CreateIndirect
                          DCD      ||.conststring||+0x2
000200  0b0c0190          DCW      0x0b0c,0x0190
000204  00c8003c          DCW      0x00c8,0x003c
000208  00140000          DCW      0x0014,0x0000
                          DCD      0x00000000
                          DCD      0x00000000
                          DCD      TEXT_CreateIndirect
                          DCD      ||.conststring||+0x2
00021c  0b0d012c          DCW      0x0b0d,0x012c
000220  00780064          DCW      0x0078,0x0064
000224  00140000          DCW      0x0014,0x0000
                          DCD      0x00000000
                          DCD      0x00000000
                          DCD      TEXT_CreateIndirect
                          DCD      ||.conststring||+0x2
000238  0b110190          DCW      0x0b11,0x0190
00023c  0096003c          DCW      0x0096,0x003c
000240  00140000          DCW      0x0014,0x0000
                          DCD      0x00000000
                          DCD      0x00000000
                          DCD      BUTTON_CreateIndirect
                          DCD      ||.conststring||+0x7
000254  08190053          DCW      0x0819,0x0053
000258  00e2004d          DCW      0x00e2,0x004d
00025c  002d0000          DCW      0x002d,0x0000
                          DCD      0x00000000
                          DCD      0x00000000
                          DCD      BUTTON_CreateIndirect
                          DCD      ||.conststring||+0x7
000270  081a00a3          DCW      0x081a,0x00a3
000274  00e2004d          DCW      0x00e2,0x004d
000278  002d0000          DCW      0x002d,0x0000
                          DCD      0x00000000
                          DCD      0x00000000
                          DCD      BUTTON_CreateIndirect
                          DCD      ||.conststring||+0x7
00028c  081b00f3          DCW      0x081b,0x00f3
000290  00e2004d          DCW      0x00e2,0x004d
000294  002d0000          DCW      0x002d,0x0000
                          DCD      0x00000000
                          DCD      0x00000000
                          DCD      BUTTON_CreateIndirect
                          DCD      ||.conststring||+0x7
0002a8  081c0143          DCW      0x081c,0x0143
0002ac  00e2004d          DCW      0x00e2,0x004d
0002b0  002d0000          DCW      0x002d,0x0000
                          DCD      0x00000000
                          DCD      0x00000000
                          DCD      BUTTON_CreateIndirect
                          DCD      ||.conststring||+0x7
0002c4  081d0193          DCW      0x081d,0x0193
0002c8  00e2004d          DCW      0x00e2,0x004d
0002cc  002d0000          DCW      0x002d,0x0000
                          DCD      0x00000000
                          DCD      0x00000000

                          AREA ||.conststring||, DATA, READONLY, MERGE=1, STRINGS, ALIGN=0

000000  5200              DCB      "R",0
000002  54657874          DCB      "Text",0
000006  00      
000007  42757474          DCB      "Button",0
00000b  6f6e00  

                          AREA ||.data||, DATA, ALIGN=2

                  bit
000000  01                DCB      0x01
                  dot_flag
000001  00                DCB      0x00
                  page_sw
000002  03                DCB      0x03
                  para_set4
000003  00                DCB      0x00
                  oc_sw
000004  13                DCB      0x13
                  con_flag
000005  00                DCB      0x00
                  finish
000006  00                DCB      0x00
                  oct_sw
000007  00                DCB      0x00
                  lang
000008  01                DCB      0x01
                  para_set2
000009  00                DCB      0x00
                  steptime
00000a  0001              DCW      0x0001
                  dis_gate_v
00000c  0000              DCB      0x00,0x00
                  r
00000e  0000              DCB      0x00,0x00
                  short_time
000010  00000000          DCB      0x00,0x00,0x00,0x00
                  gate_v
000014  00000000          DCFS     0x00000000 ; 0
                  hWinR
                          DCD      0x00000000
                  oc_data
                          DCD      0x00000000
                  v
                          DCD      0x00000000
                  set_limit
                          DCD      0x00000000
000028  00                DCB      0x00

                          AREA ||area_number.14||, DATA, ALIGN=0

                          EXPORTAS ||area_number.14||, ||.data||
                  test_num
000000  00                DCB      0x00

                          AREA ||area_number.15||, DATA, ALIGN=0

                          EXPORTAS ||area_number.15||, ||.data||
                  short_flag
000000  00                DCB      0x00

                          AREA ||area_number.16||, DATA, ALIGN=0

                          EXPORTAS ||area_number.16||, ||.data||
                  short_finish
000000  00                DCB      0x00

                          AREA ||area_number.17||, DATA, ALIGN=0

                          EXPORTAS ||area_number.17||, ||.data||
                  r_stable
000000  00                DCB      0x00

                          AREA ||area_number.18||, DATA, ALIGN=0

                          EXPORTAS ||area_number.18||, ||.data||
                  test_finish
000000  00                DCB      0x00

                          AREA ||area_number.19||, DATA, ALIGN=0

                          EXPORTAS ||area_number.19||, ||.data||
                  para_set1
000000  00                DCB      0x00

                          AREA ||area_number.20||, DATA, ALIGN=0

                          EXPORTAS ||area_number.20||, ||.data||
                  para_set3
000000  00                DCB      0x00

                          AREA ||area_number.21||, DATA, ALIGN=2

                          EXPORTAS ||area_number.21||, ||.data||
                  DISS_R
                          DCD      0x00000000

                          AREA ||area_number.22||, DATA, ALIGN=1

                          EXPORTAS ||area_number.22||, ||.data||
                  s_time
000000  0000              DCB      0x00,0x00

                          AREA ||area_number.23||, DATA, ALIGN=0

                          EXPORTAS ||area_number.23||, ||.data||
                  wait_flag
000000  00                DCB      0x00

                          AREA ||area_number.24||, DATA, ALIGN=1

                          EXPORTAS ||area_number.24||, ||.data||
                  short_start
000000  0000              DCB      0x00,0x00

                          AREA ||area_number.25||, DATA, ALIGN=1

                          EXPORTAS ||area_number.25||, ||.data||
                  stable_time
000000  0000              DCB      0x00,0x00

                          AREA ||area_number.26||, DATA, ALIGN=2

                          EXPORTAS ||area_number.26||, ||.data||
                  time1
                          DCD      0x00000000

                          AREA ||area_number.27||, DATA, ALIGN=2

                          EXPORTAS ||area_number.27||, ||.data||
                  test_ftime
                          DCD      0x00000000

;*** Start embedded assembler ***

#line 1 "..\\APP\\R_Face.c"
	AREA ||.rev16_text||, CODE, READONLY
	THUMB
	EXPORT |__asm___8_R_Face_c_bit____REV16|
#line 114 "D:\\Keil\\ARM\\CMSIS\\Include\\core_cmInstr.h"
|__asm___8_R_Face_c_bit____REV16| PROC
#line 115

 rev16 r0, r0
 bx lr
	ENDP
	AREA ||.revsh_text||, CODE, READONLY
	THUMB
	EXPORT |__asm___8_R_Face_c_bit____REVSH|
#line 128
|__asm___8_R_Face_c_bit____REVSH| PROC
#line 129

 revsh r0, r0
 bx lr
	ENDP

;*** End   embedded assembler ***
