; generated by Component: ARM Compiler 5.06 update 6 (build 750) Tool: ArmCC [4d3637]
; commandline ArmCC [--list --split_sections --debug -c --asm --interleave -o..\output\sysinfo.o --asm_dir=..\Listing\ --list_dir=..\Listing\ --depend=..\output\sysinfo.d --cpu=Cortex-M4.fp --apcs=interwork -O1 --diag_suppress=9931,870 -I..\APP -I..\drive -I..\Include -I..\Libraries\CMSIS\inc -I..\Libraries\CMSIS\src -I..\Libraries\FWlib\inc -I..\Libraries\FWlib\src -I..\Listing -I..\Output -I..\Project -I..\STemWinLibrary522\Config -I..\STemWinLibrary522\emWinTask -I..\STemWinLibrary522\GUILib -I..\STemWinLibrary522\inc -I..\User -I..\USB\STM32_USB_HOST_Library\Class\HID\inc -I..\USB\STM32_USB_HOST_Library\Class\MSC\src -I..\USB\STM32_USB_HOST_Library\Core\src -I..\USB\USB_APP -I..\USB\STM32_USB_HOST_Library\Class\HID\src -I..\USB\STM32_USB_HOST_Library\Class\MSC\inc -I..\USB\STM32_USB_HOST_Library\Core\inc -I..\USB\STM32_USB_OTG_Driver\inc -I..\FATFS\exfuns -I..\FATFS\src\option -I..\FATFS\src -I..\MALLOC -ID:\Keil_v5\ARM\RV31\INC -ID:\Keil_v5\ARM\CMSIS\Include -ID:\Keil_v5\ARM\INC\ST\STM32F4xx -D__UVISION_VERSION=525 -DUSE_STDPERIPH_DRIVER -DSTM32F40XX -DUSE_USB_OTG_FS -DUSE_EMBEDDED_PHY -DUSE_USB_OTG_HS -DSTM32F40XX --omf_browse=..\output\sysinfo.crf --no_multibyte_chars ..\APP\sysinfo.c]
                          THUMB

                          AREA ||i.CFM_PASS||, CODE, READONLY, ALIGN=2

                  CFM_PASS PROC
;;;1422   WM_HWIN CFM_PASS(void);            
;;;1423   WM_HWIN CFM_PASS(void){
000000  b570              PUSH     {r4-r6,lr}
;;;1424       if(admin == 1)
000002  4c12              LDR      r4,|L1.76|
000004  7962              LDRB     r2,[r4,#5]  ; admin
000006  4620              MOV      r0,r4
;;;1425       {
;;;1426           WM_HWIN hItem;
;;;1427           hItem = WM_GetDialogItem(hWinsysinfo, ID_TEXT_99);
;;;1428           TEXT_SetBkColor(hItem,0x00BFFFFF);
000008  4d11              LDR      r5,|L1.80|
00000a  6980              LDR      r0,[r0,#0x18]         ;1427
00000c  f6400199          MOV      r1,#0x899             ;1427
000010  2a01              CMP      r2,#1                 ;1424
000012  d00e              BEQ      |L1.50|
;;;1429           TEXT_SetTextColor(hItem, GUI_BLACK);
;;;1430       }else{
;;;1431           WM_HWIN hItem;
;;;1432           hItem = WM_GetDialogItem(hWinsysinfo, ID_TEXT_99);
000014  f7fffffe          BL       WM_GetDialogItem
000018  4606              MOV      r6,r0
;;;1433           TEXT_SetBkColor(hItem,GUI_INVALID_COLOR);
00001a  f06f4170          MVN      r1,#0xf0000000
00001e  4630              MOV      r0,r6
000020  f7fffffe          BL       TEXT_SetBkColor
;;;1434           TEXT_SetTextColor(hItem, 0x00BFFFFF);
000024  4629              MOV      r1,r5
000026  4630              MOV      r0,r6
000028  f7fffffe          BL       TEXT_SetTextColor
;;;1435           info_set = set_48;
00002c  202f              MOVS     r0,#0x2f
00002e  7020              STRB     r0,[r4,#0]
;;;1436       }
;;;1437   }
000030  bd70              POP      {r4-r6,pc}
                  |L1.50|
000032  f7fffffe          BL       WM_GetDialogItem
000036  4604              MOV      r4,r0                 ;1427
000038  4629              MOV      r1,r5                 ;1428
00003a  4620              MOV      r0,r4                 ;1428
00003c  f7fffffe          BL       TEXT_SetBkColor
000040  2100              MOVS     r1,#0                 ;1429
000042  4620              MOV      r0,r4                 ;1429
000044  f7fffffe          BL       TEXT_SetTextColor
000048  bd70              POP      {r4-r6,pc}
;;;1438   
                          ENDP

00004a  0000              DCW      0x0000
                  |L1.76|
                          DCD      ||.data||
                  |L1.80|
                          DCD      0x00bfffff

                          AREA ||i.Createsysinfo||, CODE, READONLY, ALIGN=2

                  Createsysinfo PROC
;;;379    WM_HWIN Createsysinfo(void);
;;;380    WM_HWIN Createsysinfo(void) {
000000  b57c              PUSH     {r2-r6,lr}
;;;381      hWinsysinfo  = GUI_CreateDialogBox(_aDialogCreate7, GUI_COUNTOF(_aDialogCreate7), _cbDialog, WM_HBKWIN, 0, 0);
000002  f7fffffe          BL       WM_GetDesktopWindow
000006  2400              MOVS     r4,#0
000008  4603              MOV      r3,r0
00000a  9400              STR      r4,[sp,#0]
00000c  4a0c              LDR      r2,|L2.64|
00000e  2112              MOVS     r1,#0x12
000010  480c              LDR      r0,|L2.68|
000012  9401              STR      r4,[sp,#4]
000014  f7fffffe          BL       GUI_CreateDialogBox
000018  4d0b              LDR      r5,|L2.72|
00001a  61a8              STR      r0,[r5,#0x18]  ; hWinsysinfo
;;;382      pass = 0;
00001c  480b              LDR      r0,|L2.76|
00001e  7004              STRB     r4,[r0,#0]
;;;383      page_sw = face_sys_info;
000020  490b              LDR      r1,|L2.80|
000022  2007              MOVS     r0,#7
000024  7008              STRB     r0,[r1,#0]
;;;384      load_sw = load_off;
000026  480b              LDR      r0,|L2.84|
000028  7004              STRB     r4,[r0,#0]
;;;385      pow_sw == pow_off;
00002a  480b              LDR      r0,|L2.88|
00002c  7800              LDRB     r0,[r0,#0]  ; pow_sw
;;;386      GPIO_ResetBits(GPIOB,GPIO_Pin_13);
00002e  f44f5100          MOV      r1,#0x2000
000032  480a              LDR      r0,|L2.92|
000034  f7fffffe          BL       GPIO_ResetBits
;;;387      info_set = set_48;
000038  202f              MOVS     r0,#0x2f
00003a  7028              STRB     r0,[r5,#0]
;;;388      return hWinsysinfo;
00003c  69a8              LDR      r0,[r5,#0x18]  ; hWinsysinfo
;;;389    }
00003e  bd7c              POP      {r2-r6,pc}
;;;390    
                          ENDP

                  |L2.64|
                          DCD      _cbDialog
                  |L2.68|
                          DCD      ||.constdata||
                  |L2.72|
                          DCD      ||.data||
                  |L2.76|
                          DCD      pass
                  |L2.80|
                          DCD      page_sw
                  |L2.84|
                          DCD      load_sw
                  |L2.88|
                          DCD      pow_sw
                  |L2.92|
                          DCD      0x40020400

                          AREA ||i.INPUT_INFO||, CODE, READONLY, ALIGN=2

                          REQUIRE _printf_percent
                          REQUIRE _printf_d
                          REQUIRE _printf_int_dec
                  INPUT_INFO PROC
;;;1268             
;;;1269   void INPUT_INFO(vu8 num){
000000  b531              PUSH     {r0,r4,r5,lr}
;;;1270       static char buf[5];
;;;1271       WM_HWIN hItem;
;;;1272       switch(info_set)
000002  4ccd              LDR      r4,|L3.824|
000004  7821              LDRB     r1,[r4,#0]  ; info_set
000006  4620              MOV      r0,r4
000008  392f              SUBS     r1,r1,#0x2f
;;;1273       {
;;;1274           case set_48:
;;;1275           {
;;;1276               hItem = WM_GetDialogItem(hWinsysinfo, ID_TEXT_99);
00000a  6980              LDR      r0,[r0,#0x18]
00000c  2910              CMP      r1,#0x10              ;1272
00000e  d27d              BCS      |L3.268|
000010  e8dff001          TBB      [pc,r1]               ;1272
000014  08203850          DCB      0x08,0x20,0x38,0x50
000018  68829ab2          DCB      0x68,0x82,0x9a,0xb2
00001c  cae2fcfb          DCB      0xca,0xe2,0xfc,0xfb
000020  faf9f8f7          DCB      0xfa,0xf9,0xf8,0xf7
000024  f6400199          MOV      r1,#0x899
000028  f7fffffe          BL       WM_GetDialogItem
00002c  4605              MOV      r5,r0
;;;1277               sprintf(buf,"%d",num);
00002e  f89d2000          LDRB     r2,[sp,#0]
000032  48c1              LDR      r0,|L3.824|
000034  a1c1              ADR      r1,|L3.828|
000036  3021              ADDS     r0,r0,#0x21
000038  f7fffffe          BL       __2sprintf
;;;1278               TEXT_SetText(hItem,buf);
00003c  49be              LDR      r1,|L3.824|
00003e  4628              MOV      r0,r5
000040  3121              ADDS     r1,r1,#0x21
000042  f7fffffe          BL       TEXT_SetText
;;;1279               year1 = num;
000046  f89d0000          LDRB     r0,[sp,#0]
00004a  8220              STRH     r0,[r4,#0x10]
;;;1280               Write_info();
00004c  e8bd4038          POP      {r3-r5,lr}
000050  f7ffbffe          B.W      Write_info
;;;1281               break;
;;;1282           }
;;;1283           case set_49:
;;;1284           {
;;;1285               hItem = WM_GetDialogItem(hWinsysinfo, ID_TEXT_100);
000054  f640019a          MOV      r1,#0x89a
000058  f7fffffe          BL       WM_GetDialogItem
00005c  4605              MOV      r5,r0
;;;1286               sprintf(buf,"%d",num);
00005e  f89d2000          LDRB     r2,[sp,#0]
000062  48b5              LDR      r0,|L3.824|
000064  a1b5              ADR      r1,|L3.828|
000066  3021              ADDS     r0,r0,#0x21
000068  f7fffffe          BL       __2sprintf
;;;1287               TEXT_SetText(hItem,buf);
00006c  49b2              LDR      r1,|L3.824|
00006e  4628              MOV      r0,r5
000070  3121              ADDS     r1,r1,#0x21
000072  f7fffffe          BL       TEXT_SetText
;;;1288               year2= num;
000076  f89d0000          LDRB     r0,[sp,#0]
00007a  8260              STRH     r0,[r4,#0x12]
;;;1289               Write_info();
00007c  e8bd4038          POP      {r3-r5,lr}
000080  f7ffbffe          B.W      Write_info
;;;1290               break;
;;;1291           }
;;;1292           case set_50:
;;;1293           {
;;;1294               hItem = WM_GetDialogItem(hWinsysinfo, ID_TEXT_101);
000084  f640019b          MOV      r1,#0x89b
000088  f7fffffe          BL       WM_GetDialogItem
00008c  4605              MOV      r5,r0
;;;1295               sprintf(buf,"%d",num);
00008e  f89d2000          LDRB     r2,[sp,#0]
000092  48a9              LDR      r0,|L3.824|
000094  a1a9              ADR      r1,|L3.828|
000096  3021              ADDS     r0,r0,#0x21
000098  f7fffffe          BL       __2sprintf
;;;1296               TEXT_SetText(hItem,buf);
00009c  49a6              LDR      r1,|L3.824|
00009e  4628              MOV      r0,r5
0000a0  3121              ADDS     r1,r1,#0x21
0000a2  f7fffffe          BL       TEXT_SetText
;;;1297               year3= num;
0000a6  f89d0000          LDRB     r0,[sp,#0]
0000aa  82a0              STRH     r0,[r4,#0x14]
;;;1298               Write_info();
0000ac  e8bd4038          POP      {r3-r5,lr}
0000b0  f7ffbffe          B.W      Write_info
;;;1299               break;
;;;1300           }
;;;1301           case set_51:
;;;1302           {
;;;1303               hItem = WM_GetDialogItem(hWinsysinfo, ID_TEXT_102);
0000b4  f640019c          MOV      r1,#0x89c
0000b8  f7fffffe          BL       WM_GetDialogItem
0000bc  4605              MOV      r5,r0
;;;1304               sprintf(buf,"%d",num);
0000be  f89d2000          LDRB     r2,[sp,#0]
0000c2  489d              LDR      r0,|L3.824|
0000c4  a19d              ADR      r1,|L3.828|
0000c6  3021              ADDS     r0,r0,#0x21
0000c8  f7fffffe          BL       __2sprintf
;;;1305               TEXT_SetText(hItem,buf);
0000cc  499a              LDR      r1,|L3.824|
0000ce  4628              MOV      r0,r5
0000d0  3121              ADDS     r1,r1,#0x21
0000d2  f7fffffe          BL       TEXT_SetText
;;;1306               year4= num;
0000d6  f89d0000          LDRB     r0,[sp,#0]
0000da  82e0              STRH     r0,[r4,#0x16]
;;;1307               Write_info();
0000dc  e8bd4038          POP      {r3-r5,lr}
0000e0  f7ffbffe          B.W      Write_info
;;;1308               break;
;;;1309           }
;;;1310           case set_52:
;;;1311           {
;;;1312               hItem = WM_GetDialogItem(hWinsysinfo, ID_TEXT_103);
0000e4  f640019d          MOV      r1,#0x89d
0000e8  f7fffffe          BL       WM_GetDialogItem
0000ec  4605              MOV      r5,r0
;;;1313               sprintf(buf,"%d",num);
0000ee  f89d2000          LDRB     r2,[sp,#0]
0000f2  4891              LDR      r0,|L3.824|
0000f4  a191              ADR      r1,|L3.828|
0000f6  3021              ADDS     r0,r0,#0x21
0000f8  f7fffffe          BL       __2sprintf
;;;1314               TEXT_SetText(hItem,buf);
0000fc  498e              LDR      r1,|L3.824|
0000fe  4628              MOV      r0,r5
000100  3121              ADDS     r1,r1,#0x21
000102  f7fffffe          BL       TEXT_SetText
;;;1315               month1 = num;
000106  f89d0000          LDRB     r0,[sp,#0]
00010a  e000              B        |L3.270|
                  |L3.268|
00010c  e113              B        |L3.822|
                  |L3.270|
00010e  7060              STRB     r0,[r4,#1]
;;;1316               Write_info();
000110  e8bd4038          POP      {r3-r5,lr}
000114  f7ffbffe          B.W      Write_info
;;;1317               break;
;;;1318           }
;;;1319           case set_53:
;;;1320           {
;;;1321               hItem = WM_GetDialogItem(hWinsysinfo, ID_TEXT_104);
000118  f640019e          MOV      r1,#0x89e
00011c  f7fffffe          BL       WM_GetDialogItem
000120  4605              MOV      r5,r0
;;;1322               sprintf(buf,"%d",num);
000122  f89d2000          LDRB     r2,[sp,#0]
000126  4884              LDR      r0,|L3.824|
000128  a184              ADR      r1,|L3.828|
00012a  3021              ADDS     r0,r0,#0x21
00012c  f7fffffe          BL       __2sprintf
;;;1323               TEXT_SetText(hItem,buf);
000130  4981              LDR      r1,|L3.824|
000132  4628              MOV      r0,r5
000134  3121              ADDS     r1,r1,#0x21
000136  f7fffffe          BL       TEXT_SetText
;;;1324               month2 = num;
00013a  f89d0000          LDRB     r0,[sp,#0]
00013e  70a0              STRB     r0,[r4,#2]
;;;1325               Write_info();
000140  e8bd4038          POP      {r3-r5,lr}
000144  f7ffbffe          B.W      Write_info
;;;1326               break;
;;;1327           }
;;;1328           case set_54:
;;;1329           {
;;;1330               hItem = WM_GetDialogItem(hWinsysinfo, ID_TEXT_105);
000148  f44f6130          MOV      r1,#0xb00
00014c  f7fffffe          BL       WM_GetDialogItem
000150  4605              MOV      r5,r0
;;;1331               sprintf(buf,"%d",num);
000152  f89d2000          LDRB     r2,[sp,#0]
000156  4878              LDR      r0,|L3.824|
000158  a178              ADR      r1,|L3.828|
00015a  3021              ADDS     r0,r0,#0x21
00015c  f7fffffe          BL       __2sprintf
;;;1332               TEXT_SetText(hItem,buf);
000160  4975              LDR      r1,|L3.824|
000162  4628              MOV      r0,r5
000164  3121              ADDS     r1,r1,#0x21
000166  f7fffffe          BL       TEXT_SetText
;;;1333               day1 = num;
00016a  f89d0000          LDRB     r0,[sp,#0]
00016e  70e0              STRB     r0,[r4,#3]
;;;1334               Write_info();
000170  e8bd4038          POP      {r3-r5,lr}
000174  f7ffbffe          B.W      Write_info
;;;1335               break;
;;;1336           }
;;;1337           case set_55:
;;;1338           {
;;;1339               hItem = WM_GetDialogItem(hWinsysinfo, ID_TEXT_106);
000178  f6403101          MOV      r1,#0xb01
00017c  f7fffffe          BL       WM_GetDialogItem
000180  4605              MOV      r5,r0
;;;1340               sprintf(buf,"%d",num);
000182  f89d2000          LDRB     r2,[sp,#0]
000186  486c              LDR      r0,|L3.824|
000188  a16c              ADR      r1,|L3.828|
00018a  3021              ADDS     r0,r0,#0x21
00018c  f7fffffe          BL       __2sprintf
;;;1341               TEXT_SetText(hItem,buf);
000190  4969              LDR      r1,|L3.824|
000192  4628              MOV      r0,r5
000194  3121              ADDS     r1,r1,#0x21
000196  f7fffffe          BL       TEXT_SetText
;;;1342               day2 = num;
00019a  f89d0000          LDRB     r0,[sp,#0]
00019e  7120              STRB     r0,[r4,#4]
;;;1343               Write_info();
0001a0  e8bd4038          POP      {r3-r5,lr}
0001a4  f7ffbffe          B.W      Write_info
;;;1344               break;
;;;1345           }
;;;1346           case set_56:
;;;1347           {
;;;1348               hItem = WM_GetDialogItem(hWinsysinfo, ID_TEXT_107);
0001a8  f6403102          MOV      r1,#0xb02
0001ac  f7fffffe          BL       WM_GetDialogItem
0001b0  4605              MOV      r5,r0
;;;1349               sprintf(buf,"%d",num);
0001b2  f89d2000          LDRB     r2,[sp,#0]
0001b6  4860              LDR      r0,|L3.824|
0001b8  a160              ADR      r1,|L3.828|
0001ba  3021              ADDS     r0,r0,#0x21
0001bc  f7fffffe          BL       __2sprintf
;;;1350               TEXT_SetText(hItem,buf);
0001c0  495d              LDR      r1,|L3.824|
0001c2  4628              MOV      r0,r5
0001c4  3121              ADDS     r1,r1,#0x21
0001c6  f7fffffe          BL       TEXT_SetText
;;;1351               code3 = num;
0001ca  f89d0000          LDRB     r0,[sp,#0]
0001ce  7220              STRB     r0,[r4,#8]
;;;1352               Write_info();
0001d0  e8bd4038          POP      {r3-r5,lr}
0001d4  f7ffbffe          B.W      Write_info
;;;1353               break;
;;;1354           }
;;;1355           case set_57:
;;;1356           {
;;;1357               hItem = WM_GetDialogItem(hWinsysinfo, ID_TEXT_108);
0001d8  f6403103          MOV      r1,#0xb03
0001dc  f7fffffe          BL       WM_GetDialogItem
0001e0  4605              MOV      r5,r0
;;;1358               sprintf(buf,"%d",num);
0001e2  f89d2000          LDRB     r2,[sp,#0]
0001e6  4854              LDR      r0,|L3.824|
0001e8  a154              ADR      r1,|L3.828|
0001ea  3021              ADDS     r0,r0,#0x21
0001ec  f7fffffe          BL       __2sprintf
;;;1359               TEXT_SetText(hItem,buf);
0001f0  4951              LDR      r1,|L3.824|
0001f2  4628              MOV      r0,r5
0001f4  3121              ADDS     r1,r1,#0x21
0001f6  f7fffffe          BL       TEXT_SetText
;;;1360               code4 = num;
0001fa  f89d0000          LDRB     r0,[sp,#0]
0001fe  7260              STRB     r0,[r4,#9]
;;;1361               Write_info();
000200  e005              B        |L3.526|
000202  e080              B        |L3.774|
000204  e067              B        |L3.726|
000206  e04e              B        |L3.678|
000208  e035              B        |L3.630|
00020a  e01c              B        |L3.582|
00020c  e003              B        |L3.534|
                  |L3.526|
00020e  e8bd4038          POP      {r3-r5,lr}
000212  f7ffbffe          B.W      Write_info
                  |L3.534|
;;;1362               break;
;;;1363           }
;;;1364           case set_58:
;;;1365           {
;;;1366               hItem = WM_GetDialogItem(hWinsysinfo, ID_TEXT_109);
000216  f6403104          MOV      r1,#0xb04
00021a  f7fffffe          BL       WM_GetDialogItem
00021e  4605              MOV      r5,r0
;;;1367               sprintf(buf,"%d",num);
000220  f89d2000          LDRB     r2,[sp,#0]
000224  4844              LDR      r0,|L3.824|
000226  a145              ADR      r1,|L3.828|
000228  3021              ADDS     r0,r0,#0x21
00022a  f7fffffe          BL       __2sprintf
;;;1368               TEXT_SetText(hItem,buf);
00022e  4942              LDR      r1,|L3.824|
000230  4628              MOV      r0,r5
000232  3121              ADDS     r1,r1,#0x21
000234  f7fffffe          BL       TEXT_SetText
;;;1369               code5 = num;
000238  f89d0000          LDRB     r0,[sp,#0]
00023c  72a0              STRB     r0,[r4,#0xa]
;;;1370               Write_info();
00023e  e8bd4038          POP      {r3-r5,lr}
000242  f7ffbffe          B.W      Write_info
                  |L3.582|
;;;1371               break;
;;;1372           }
;;;1373           case set_59:
;;;1374           {
;;;1375               hItem = WM_GetDialogItem(hWinsysinfo, ID_TEXT_110);
000246  f6403105          MOV      r1,#0xb05
00024a  f7fffffe          BL       WM_GetDialogItem
00024e  4605              MOV      r5,r0
;;;1376               sprintf(buf,"%d",num);
000250  f89d2000          LDRB     r2,[sp,#0]
000254  4838              LDR      r0,|L3.824|
000256  a139              ADR      r1,|L3.828|
000258  3021              ADDS     r0,r0,#0x21
00025a  f7fffffe          BL       __2sprintf
;;;1377               TEXT_SetText(hItem,buf);
00025e  4936              LDR      r1,|L3.824|
000260  4628              MOV      r0,r5
000262  3121              ADDS     r1,r1,#0x21
000264  f7fffffe          BL       TEXT_SetText
;;;1378               code6 = num;
000268  f89d0000          LDRB     r0,[sp,#0]
00026c  72e0              STRB     r0,[r4,#0xb]
;;;1379               Write_info();
00026e  e8bd4038          POP      {r3-r5,lr}
000272  f7ffbffe          B.W      Write_info
                  |L3.630|
;;;1380               break;
;;;1381           }
;;;1382           case set_60:
;;;1383           {
;;;1384               hItem = WM_GetDialogItem(hWinsysinfo, ID_TEXT_111);
000276  f6403106          MOV      r1,#0xb06
00027a  f7fffffe          BL       WM_GetDialogItem
00027e  4605              MOV      r5,r0
;;;1385               sprintf(buf,"%d",num);
000280  f89d2000          LDRB     r2,[sp,#0]
000284  482c              LDR      r0,|L3.824|
000286  a12d              ADR      r1,|L3.828|
000288  3021              ADDS     r0,r0,#0x21
00028a  f7fffffe          BL       __2sprintf
;;;1386               TEXT_SetText(hItem,buf);
00028e  492a              LDR      r1,|L3.824|
000290  4628              MOV      r0,r5
000292  3121              ADDS     r1,r1,#0x21
000294  f7fffffe          BL       TEXT_SetText
;;;1387               code7 = num;
000298  f89d0000          LDRB     r0,[sp,#0]
00029c  7320              STRB     r0,[r4,#0xc]
;;;1388               Write_info();
00029e  e8bd4038          POP      {r3-r5,lr}
0002a2  f7ffbffe          B.W      Write_info
                  |L3.678|
;;;1389               break;
;;;1390           }
;;;1391           case set_61:
;;;1392           {
;;;1393               hItem = WM_GetDialogItem(hWinsysinfo, ID_TEXT_112);
0002a6  f6403107          MOV      r1,#0xb07
0002aa  f7fffffe          BL       WM_GetDialogItem
0002ae  4605              MOV      r5,r0
;;;1394               sprintf(buf,"%d",num);
0002b0  f89d2000          LDRB     r2,[sp,#0]
0002b4  4820              LDR      r0,|L3.824|
0002b6  a121              ADR      r1,|L3.828|
0002b8  3021              ADDS     r0,r0,#0x21
0002ba  f7fffffe          BL       __2sprintf
;;;1395               TEXT_SetText(hItem,buf);
0002be  491e              LDR      r1,|L3.824|
0002c0  4628              MOV      r0,r5
0002c2  3121              ADDS     r1,r1,#0x21
0002c4  f7fffffe          BL       TEXT_SetText
;;;1396               code8 = num;
0002c8  f89d0000          LDRB     r0,[sp,#0]
0002cc  7360              STRB     r0,[r4,#0xd]
;;;1397               Write_info();
0002ce  e8bd4038          POP      {r3-r5,lr}
0002d2  f7ffbffe          B.W      Write_info
                  |L3.726|
;;;1398               break;
;;;1399           }
;;;1400           case set_62:
;;;1401           {
;;;1402               hItem = WM_GetDialogItem(hWinsysinfo, ID_TEXT_113);
0002d6  f6403108          MOV      r1,#0xb08
0002da  f7fffffe          BL       WM_GetDialogItem
0002de  4605              MOV      r5,r0
;;;1403               sprintf(buf,"%d",num);
0002e0  f89d2000          LDRB     r2,[sp,#0]
0002e4  4814              LDR      r0,|L3.824|
0002e6  a115              ADR      r1,|L3.828|
0002e8  3021              ADDS     r0,r0,#0x21
0002ea  f7fffffe          BL       __2sprintf
;;;1404               TEXT_SetText(hItem,buf);
0002ee  4912              LDR      r1,|L3.824|
0002f0  4628              MOV      r0,r5
0002f2  3121              ADDS     r1,r1,#0x21
0002f4  f7fffffe          BL       TEXT_SetText
;;;1405               code1 = num;
0002f8  f89d0000          LDRB     r0,[sp,#0]
0002fc  71a0              STRB     r0,[r4,#6]
;;;1406               Write_info();
0002fe  e8bd4038          POP      {r3-r5,lr}
000302  f7ffbffe          B.W      Write_info
                  |L3.774|
;;;1407               break;
;;;1408           }
;;;1409           case set_63:
;;;1410           {
;;;1411               hItem = WM_GetDialogItem(hWinsysinfo, ID_TEXT_114);
000306  f6403109          MOV      r1,#0xb09
00030a  f7fffffe          BL       WM_GetDialogItem
00030e  4605              MOV      r5,r0
;;;1412               sprintf(buf,"%d",num);
000310  f89d2000          LDRB     r2,[sp,#0]
000314  4808              LDR      r0,|L3.824|
000316  a109              ADR      r1,|L3.828|
000318  3021              ADDS     r0,r0,#0x21
00031a  f7fffffe          BL       __2sprintf
;;;1413               TEXT_SetText(hItem,buf);
00031e  4906              LDR      r1,|L3.824|
000320  4628              MOV      r0,r5
000322  3121              ADDS     r1,r1,#0x21
000324  f7fffffe          BL       TEXT_SetText
;;;1414               code2 = num;
000328  f89d0000          LDRB     r0,[sp,#0]
00032c  71e0              STRB     r0,[r4,#7]
;;;1415               Write_info();
00032e  e8bd4038          POP      {r3-r5,lr}
000332  f7ffbffe          B.W      Write_info
                  |L3.822|
;;;1416               break;
;;;1417           }
;;;1418           
;;;1419       }
;;;1420   }
000336  bd38              POP      {r3-r5,pc}
;;;1421   
                          ENDP

                  |L3.824|
                          DCD      ||.data||
                  |L3.828|
00033c  256400            DCB      "%d",0
00033f  00                DCB      0

                          AREA ||i.Rhigh_cal||, CODE, READONLY, ALIGN=2

                  Rhigh_cal PROC
;;;1489   
;;;1490   void Rhigh_cal(u8 step)
000000  b5fe              PUSH     {r1-r7,lr}
;;;1491   {
;;;1492       if(step == 3)
;;;1493       {
;;;1494           Modify_A_READ = Rmon_value;//测量电压值
000002  4932              LDR      r1,|L4.204|
000004  4b32              LDR      r3,|L4.208|
;;;1495   		Modify_A_ACT = 0x64;//读取低段
000006  4d33              LDR      r5,|L4.212|
000008  2803              CMP      r0,#3                 ;1492
00000a  d03f              BEQ      |L4.140|
;;;1496       }else if(step == 4){
00000c  2804              CMP      r0,#4
00000e  d141              BNE      |L4.148|
;;;1497           vu16 var16;
;;;1498           vu32 var32a;
;;;1499           vu32 var32b;
;;;1500           
;;;1501           vu16 var16a;
;;;1502           vu32 var32c;
;;;1503           vu32 var32d;
;;;1504           Modify_B_READ =Rmon_value;//测量电压值
000010  8808              LDRH     r0,[r1,#0]  ; Rmon_value
000012  4a31              LDR      r2,|L4.216|
000014  8010              STRH     r0,[r2,#0]
;;;1505           flag_OverV=1;
000016  4c31              LDR      r4,|L4.220|
000018  6820              LDR      r0,[r4,#0]  ; flagG
00001a  f0400002          ORR      r0,r0,#2
00001e  6020              STR      r0,[r4,#0]  ; flagG
;;;1506           Modify_B_ACT = 0xC8;//读取高段
000020  492f              LDR      r1,|L4.224|
000022  26c8              MOVS     r6,#0xc8
000024  800e              STRH     r6,[r1,#0]
;;;1507           if(flag_OverV==1)//只有当有数据写入时才能将校准数据写入FLASH
000026  0780              LSLS     r0,r0,#30
000028  d54a              BPL      |L4.192|
;;;1508           {
;;;1509               var32a = Modify_B_ACT;
00002a  8808              LDRH     r0,[r1,#0]  ; Modify_B_ACT
00002c  9001              STR      r0,[sp,#4]
;;;1510               var32a = var32a - Modify_A_ACT;
00002e  882d              LDRH     r5,[r5,#0]  ; Modify_A_ACT
000030  9801              LDR      r0,[sp,#4]
000032  1b40              SUBS     r0,r0,r5
000034  9001              STR      r0,[sp,#4]
;;;1511               var32a = var32a << 12;
000036  9801              LDR      r0,[sp,#4]
000038  0300              LSLS     r0,r0,#12
00003a  9001              STR      r0,[sp,#4]
;;;1512               var16 = Modify_B_READ - Modify_A_READ;
00003c  8810              LDRH     r0,[r2,#0]  ; Modify_B_READ
00003e  881b              LDRH     r3,[r3,#0]  ; Modify_A_READ
000040  1ac0              SUBS     r0,r0,r3
000042  9002              STR      r0,[sp,#8]
;;;1513               var32a = var32a / var16;
000044  f8bd3008          LDRH     r3,[sp,#8]
000048  9801              LDR      r0,[sp,#4]
00004a  fbb0f0f3          UDIV     r0,r0,r3
00004e  9001              STR      r0,[sp,#4]
;;;1514               REG_CorrectionRH = var32a;
000050  4824              LDR      r0,|L4.228|
000052  9b01              LDR      r3,[sp,#4]
000054  8343              STRH     r3,[r0,#0x1a]
;;;1515               var32a=0;
;;;1516               var32a = Modify_B_ACT;
000056  8809              LDRH     r1,[r1,#0]  ; Modify_B_ACT
000058  9101              STR      r1,[sp,#4]
;;;1517               var32a = var32a << 12;
00005a  9901              LDR      r1,[sp,#4]
00005c  0309              LSLS     r1,r1,#12
00005e  9101              STR      r1,[sp,#4]
;;;1518               var32b = Modify_B_READ;
000060  8811              LDRH     r1,[r2,#0]  ; Modify_B_READ
000062  9100              STR      r1,[sp,#0]
;;;1519               var32b = var32b * REG_CorrectionRH;
000064  8b41              LDRH     r1,[r0,#0x1a]  ; Correct_Parametet
000066  9a00              LDR      r2,[sp,#0]
000068  4351              MULS     r1,r2,r1
00006a  9100              STR      r1,[sp,#0]
;;;1520               if (var32a < var32b)
00006c  e9dd3200          LDRD     r3,r2,[sp,#0]
;;;1521               {
;;;1522                   var32b = var32b - var32a;
;;;1523                   REG_ReadRH_Offset = var32b;
000070  491d              LDR      r1,|L4.232|
000072  429a              CMP      r2,r3                 ;1520
000074  d20f              BCS      |L4.150|
000076  e9dd2300          LDRD     r2,r3,[sp,#0]         ;1522
00007a  1ad2              SUBS     r2,r2,r3              ;1522
00007c  9200              STR      r2,[sp,#0]            ;1522
00007e  9a00              LDR      r2,[sp,#0]
000080  624a              STR      r2,[r1,#0x24]  ; Correct_Strong
;;;1524                   Polar3 |= 0x01;
000082  8ac1              LDRH     r1,[r0,#0x16]  ; Correct_Parametet
000084  f0410101          ORR      r1,r1,#1
000088  82c1              STRH     r1,[r0,#0x16]
00008a  e00e              B        |L4.170|
                  |L4.140|
00008c  8808              LDRH     r0,[r1,#0]            ;1494  ; Rmon_value
00008e  8018              STRH     r0,[r3,#0]            ;1494
000090  2064              MOVS     r0,#0x64              ;1495
000092  8028              STRH     r0,[r5,#0]            ;1495
                  |L4.148|
;;;1525               }
;;;1526               else 
;;;1527               {
;;;1528                   var32a = var32a - var32b;
;;;1529                   REG_ReadRH_Offset = var32a;
;;;1530                   Polar3 &= ~0x01;
;;;1531               }
;;;1532   //---------------------------------------------------------------------------------------//
;;;1533               Flash_Write_all();	//参数写进FLASH
;;;1534               flag_OverV=0;
;;;1535               Flag_DAC_OFF=0;
;;;1536           }
;;;1537           flag_ADJ_VH=0;//清掉标志位防止一直进入
;;;1538       }
;;;1539   }
000094  bdfe              POP      {r1-r7,pc}
                  |L4.150|
000096  e9dd3200          LDRD     r3,r2,[sp,#0]         ;1528
00009a  1ad2              SUBS     r2,r2,r3              ;1528
00009c  9201              STR      r2,[sp,#4]            ;1528
00009e  9a01              LDR      r2,[sp,#4]            ;1529
0000a0  624a              STR      r2,[r1,#0x24]         ;1529  ; Correct_Strong
0000a2  8ac1              LDRH     r1,[r0,#0x16]         ;1530  ; Correct_Parametet
0000a4  f0210101          BIC      r1,r1,#1              ;1530
0000a8  82c1              STRH     r1,[r0,#0x16]         ;1530
                  |L4.170|
0000aa  f7fffffe          BL       Flash_Write_all
0000ae  6820              LDR      r0,[r4,#0]            ;1534  ; flagG
0000b0  f0200002          BIC      r0,r0,#2              ;1534
0000b4  6020              STR      r0,[r4,#0]            ;1534  ; flagG
0000b6  480d              LDR      r0,|L4.236|
0000b8  6801              LDR      r1,[r0,#0]            ;1535  ; flagB
0000ba  f0210108          BIC      r1,r1,#8              ;1535
0000be  6001              STR      r1,[r0,#0]            ;1535  ; flagB
                  |L4.192|
0000c0  480b              LDR      r0,|L4.240|
0000c2  6801              LDR      r1,[r0,#0]            ;1537  ; flagF
0000c4  f0210108          BIC      r1,r1,#8              ;1537
0000c8  6001              STR      r1,[r0,#0]            ;1537  ; flagF
0000ca  bdfe              POP      {r1-r7,pc}
                          ENDP

                  |L4.204|
                          DCD      Rmon_value
                  |L4.208|
                          DCD      Modify_A_READ
                  |L4.212|
                          DCD      Modify_A_ACT
                  |L4.216|
                          DCD      Modify_B_READ
                  |L4.220|
                          DCD      flagG
                  |L4.224|
                          DCD      Modify_B_ACT
                  |L4.228|
                          DCD      Correct_Parametet
                  |L4.232|
                          DCD      Correct_Strong
                  |L4.236|
                          DCD      flagB
                  |L4.240|
                          DCD      flagF

                          AREA ||i.Rlow_cal||, CODE, READONLY, ALIGN=2

                  Rlow_cal PROC
;;;1438   
;;;1439   void Rlow_cal(u8 step)
000000  b5fe              PUSH     {r1-r7,lr}
;;;1440   {
;;;1441       if(step == 1)
;;;1442       {
;;;1443           Modify_A_READ = Rmon_value;//测量电压值
000002  4932              LDR      r1,|L5.204|
000004  4b32              LDR      r3,|L5.208|
;;;1444   		Modify_A_ACT = 0x0A;//读取低段
000006  4d33              LDR      r5,|L5.212|
000008  2801              CMP      r0,#1                 ;1441
00000a  d03f              BEQ      |L5.140|
;;;1445       }else if(step == 2){
00000c  2802              CMP      r0,#2
00000e  d141              BNE      |L5.148|
;;;1446           vu16 var16;
;;;1447           vu32 var32a;
;;;1448           vu32 var32b;
;;;1449           
;;;1450           vu16 var16a;
;;;1451           vu32 var32c;
;;;1452           vu32 var32d;
;;;1453           Modify_B_READ =Rmon_value;//测量电压值
000010  8808              LDRH     r0,[r1,#0]  ; Rmon_value
000012  4a31              LDR      r2,|L5.216|
000014  8010              STRH     r0,[r2,#0]
;;;1454           flag_OverV=1;
000016  4c31              LDR      r4,|L5.220|
000018  6820              LDR      r0,[r4,#0]  ; flagG
00001a  f0400002          ORR      r0,r0,#2
00001e  6020              STR      r0,[r4,#0]  ; flagG
;;;1455           Modify_B_ACT = 0x64;//读取高段
000020  492f              LDR      r1,|L5.224|
000022  2664              MOVS     r6,#0x64
000024  800e              STRH     r6,[r1,#0]
;;;1456           if(flag_OverV==1)//只有当有数据写入时才能将校准数据写入FLASH
000026  0780              LSLS     r0,r0,#30
000028  d54a              BPL      |L5.192|
;;;1457           {
;;;1458               var32a = Modify_B_ACT;
00002a  8808              LDRH     r0,[r1,#0]  ; Modify_B_ACT
00002c  9001              STR      r0,[sp,#4]
;;;1459               var32a = var32a - Modify_A_ACT;
00002e  882d              LDRH     r5,[r5,#0]  ; Modify_A_ACT
000030  9801              LDR      r0,[sp,#4]
000032  1b40              SUBS     r0,r0,r5
000034  9001              STR      r0,[sp,#4]
;;;1460               var32a = var32a << 12;
000036  9801              LDR      r0,[sp,#4]
000038  0300              LSLS     r0,r0,#12
00003a  9001              STR      r0,[sp,#4]
;;;1461               var16 = Modify_B_READ - Modify_A_READ;
00003c  8810              LDRH     r0,[r2,#0]  ; Modify_B_READ
00003e  881b              LDRH     r3,[r3,#0]  ; Modify_A_READ
000040  1ac0              SUBS     r0,r0,r3
000042  9002              STR      r0,[sp,#8]
;;;1462               var32a = var32a / var16;
000044  f8bd3008          LDRH     r3,[sp,#8]
000048  9801              LDR      r0,[sp,#4]
00004a  fbb0f0f3          UDIV     r0,r0,r3
00004e  9001              STR      r0,[sp,#4]
;;;1463               REG_CorrectionR = var32a;
000050  4824              LDR      r0,|L5.228|
000052  9b01              LDR      r3,[sp,#4]
000054  80c3              STRH     r3,[r0,#6]
;;;1464               var32a=0;
;;;1465               var32a = Modify_B_ACT;
000056  8809              LDRH     r1,[r1,#0]  ; Modify_B_ACT
000058  9101              STR      r1,[sp,#4]
;;;1466               var32a = var32a << 12;
00005a  9901              LDR      r1,[sp,#4]
00005c  0309              LSLS     r1,r1,#12
00005e  9101              STR      r1,[sp,#4]
;;;1467               var32b = Modify_B_READ;
000060  8811              LDRH     r1,[r2,#0]  ; Modify_B_READ
000062  9100              STR      r1,[sp,#0]
;;;1468               var32b = var32b * REG_CorrectionR;
000064  88c1              LDRH     r1,[r0,#6]  ; Correct_Parametet
000066  9a00              LDR      r2,[sp,#0]
000068  4351              MULS     r1,r2,r1
00006a  9100              STR      r1,[sp,#0]
;;;1469               if (var32a < var32b)
00006c  e9dd3200          LDRD     r3,r2,[sp,#0]
;;;1470               {
;;;1471                   var32b = var32b - var32a;
;;;1472                   REG_ReadR_Offset = var32b;
000070  491d              LDR      r1,|L5.232|
000072  429a              CMP      r2,r3                 ;1469
000074  d20f              BCS      |L5.150|
000076  e9dd2300          LDRD     r2,r3,[sp,#0]         ;1471
00007a  1ad2              SUBS     r2,r2,r3              ;1471
00007c  9200              STR      r2,[sp,#0]            ;1471
00007e  9a00              LDR      r2,[sp,#0]
000080  60ca              STR      r2,[r1,#0xc]  ; Correct_Strong
;;;1473                   Polar3 |= 0x01;
000082  8ac1              LDRH     r1,[r0,#0x16]  ; Correct_Parametet
000084  f0410101          ORR      r1,r1,#1
000088  82c1              STRH     r1,[r0,#0x16]
00008a  e00e              B        |L5.170|
                  |L5.140|
00008c  8808              LDRH     r0,[r1,#0]            ;1443  ; Rmon_value
00008e  8018              STRH     r0,[r3,#0]            ;1443
000090  200a              MOVS     r0,#0xa               ;1444
000092  8028              STRH     r0,[r5,#0]            ;1444
                  |L5.148|
;;;1474               }
;;;1475               else 
;;;1476               {
;;;1477                   var32a = var32a - var32b;
;;;1478                   REG_ReadR_Offset = var32a;
;;;1479                   Polar3 &= ~0x01;
;;;1480               }
;;;1481   //---------------------------------------------------------------------------------------//
;;;1482               Flash_Write_all();	//参数写进FLASH
;;;1483               flag_OverV=0;
;;;1484               Flag_DAC_OFF=0;
;;;1485           }
;;;1486           flag_ADJ_VH=0;//清掉标志位防止一直进入
;;;1487       }
;;;1488   }
000094  bdfe              POP      {r1-r7,pc}
                  |L5.150|
000096  e9dd3200          LDRD     r3,r2,[sp,#0]         ;1477
00009a  1ad2              SUBS     r2,r2,r3              ;1477
00009c  9201              STR      r2,[sp,#4]            ;1477
00009e  9a01              LDR      r2,[sp,#4]            ;1478
0000a0  60ca              STR      r2,[r1,#0xc]          ;1478  ; Correct_Strong
0000a2  8ac1              LDRH     r1,[r0,#0x16]         ;1479  ; Correct_Parametet
0000a4  f0210101          BIC      r1,r1,#1              ;1479
0000a8  82c1              STRH     r1,[r0,#0x16]         ;1479
                  |L5.170|
0000aa  f7fffffe          BL       Flash_Write_all
0000ae  6820              LDR      r0,[r4,#0]            ;1483  ; flagG
0000b0  f0200002          BIC      r0,r0,#2              ;1483
0000b4  6020              STR      r0,[r4,#0]            ;1483  ; flagG
0000b6  480d              LDR      r0,|L5.236|
0000b8  6801              LDR      r1,[r0,#0]            ;1484  ; flagB
0000ba  f0210108          BIC      r1,r1,#8              ;1484
0000be  6001              STR      r1,[r0,#0]            ;1484  ; flagB
                  |L5.192|
0000c0  480b              LDR      r0,|L5.240|
0000c2  6801              LDR      r1,[r0,#0]            ;1486  ; flagF
0000c4  f0210108          BIC      r1,r1,#8              ;1486
0000c8  6001              STR      r1,[r0,#0]            ;1486  ; flagF
0000ca  bdfe              POP      {r1-r7,pc}
;;;1489   
                          ENDP

                  |L5.204|
                          DCD      Rmon_value
                  |L5.208|
                          DCD      Modify_A_READ
                  |L5.212|
                          DCD      Modify_A_ACT
                  |L5.216|
                          DCD      Modify_B_READ
                  |L5.220|
                          DCD      flagG
                  |L5.224|
                          DCD      Modify_B_ACT
                  |L5.228|
                          DCD      Correct_Parametet
                  |L5.232|
                          DCD      Correct_Strong
                  |L5.236|
                          DCD      flagB
                  |L5.240|
                          DCD      flagF

                          AREA ||i.SYS_INFO_DOWN||, CODE, READONLY, ALIGN=2

                  SYS_INFO_DOWN PROC
;;;1049   void SYS_INFO_DOWN(void);
;;;1050   void SYS_INFO_DOWN(void)
000000  e92d47f0          PUSH     {r4-r10,lr}
;;;1051   {
;;;1052       WM_HWIN hItem;
;;;1053       switch(info_set)
000004  4cf0              LDR      r4,|L6.968|
000006  7821              LDRB     r1,[r4,#0]  ; info_set
000008  4620              MOV      r0,r4
00000a  392f              SUBS     r1,r1,#0x2f
;;;1054       {
;;;1055           case set_48:
;;;1056           {
;;;1057               hItem = WM_GetDialogItem(hWinsysinfo, ID_TEXT_99);
;;;1058               TEXT_SetBkColor(hItem,GUI_INVALID_COLOR);
;;;1059               TEXT_SetTextColor(hItem, 0x00BFFFFF);
00000c  4def              LDR      r5,|L6.972|
;;;1060               
;;;1061               hItem = WM_GetDialogItem(hWinsysinfo, ID_TEXT_113);
;;;1062               TEXT_SetBkColor(hItem,0x00BFFFFF);
;;;1063               TEXT_SetTextColor(hItem, GUI_BLACK);
;;;1064               
;;;1065               info_set = set_62;
00000e  263d              MOVS     r6,#0x3d
;;;1066               break;
;;;1067           }
;;;1068           case set_49:
;;;1069           {
;;;1070               hItem = WM_GetDialogItem(hWinsysinfo, ID_TEXT_100);
;;;1071               TEXT_SetBkColor(hItem,GUI_INVALID_COLOR);
;;;1072               TEXT_SetTextColor(hItem, 0x00BFFFFF);
;;;1073               
;;;1074               hItem = WM_GetDialogItem(hWinsysinfo, ID_TEXT_113);
;;;1075               TEXT_SetBkColor(hItem,0x00BFFFFF);
;;;1076               TEXT_SetTextColor(hItem, GUI_BLACK);
;;;1077               
;;;1078               info_set = set_62;
;;;1079               break;
;;;1080           }
;;;1081           case set_50:
;;;1082           {
;;;1083               hItem = WM_GetDialogItem(hWinsysinfo, ID_TEXT_101);
;;;1084               TEXT_SetBkColor(hItem,GUI_INVALID_COLOR);
;;;1085               TEXT_SetTextColor(hItem, 0x00BFFFFF);
;;;1086               
;;;1087               hItem = WM_GetDialogItem(hWinsysinfo, ID_TEXT_113);
;;;1088               TEXT_SetBkColor(hItem,0x00BFFFFF);
;;;1089               TEXT_SetTextColor(hItem, GUI_BLACK);
;;;1090               
;;;1091               info_set = set_62;
;;;1092               break;
;;;1093           }
;;;1094           case set_51:
;;;1095           {
;;;1096               hItem = WM_GetDialogItem(hWinsysinfo, ID_TEXT_102);
;;;1097               TEXT_SetBkColor(hItem,GUI_INVALID_COLOR);
;;;1098               TEXT_SetTextColor(hItem, 0x00BFFFFF);
;;;1099               
;;;1100               hItem = WM_GetDialogItem(hWinsysinfo, ID_TEXT_113);
;;;1101               TEXT_SetBkColor(hItem,0x00BFFFFF);
;;;1102               TEXT_SetTextColor(hItem, GUI_BLACK);
;;;1103               
;;;1104               info_set = set_62;
;;;1105               break;
;;;1106           }
;;;1107           case set_52:
;;;1108           {
;;;1109               hItem = WM_GetDialogItem(hWinsysinfo, ID_TEXT_103);
;;;1110               TEXT_SetBkColor(hItem,GUI_INVALID_COLOR);
;;;1111               TEXT_SetTextColor(hItem, 0x00BFFFFF);
;;;1112               
;;;1113               hItem = WM_GetDialogItem(hWinsysinfo, ID_TEXT_113);
;;;1114               TEXT_SetBkColor(hItem,0x00BFFFFF);
;;;1115               TEXT_SetTextColor(hItem, GUI_BLACK);
;;;1116               
;;;1117               info_set = set_62;
;;;1118               break;
;;;1119           }
;;;1120           case set_53:
;;;1121           {
;;;1122               hItem = WM_GetDialogItem(hWinsysinfo, ID_TEXT_104);
;;;1123               TEXT_SetBkColor(hItem,GUI_INVALID_COLOR);
;;;1124               TEXT_SetTextColor(hItem, 0x00BFFFFF);
;;;1125               
;;;1126               hItem = WM_GetDialogItem(hWinsysinfo, ID_TEXT_113);
;;;1127               TEXT_SetBkColor(hItem,0x00BFFFFF);
;;;1128               TEXT_SetTextColor(hItem, GUI_BLACK);
;;;1129               
;;;1130               info_set = set_62;
;;;1131               break;
;;;1132           }
;;;1133           case set_54:
;;;1134           {
;;;1135               hItem = WM_GetDialogItem(hWinsysinfo, ID_TEXT_105);
;;;1136               TEXT_SetBkColor(hItem,GUI_INVALID_COLOR);
;;;1137               TEXT_SetTextColor(hItem, 0x00BFFFFF);
;;;1138               
;;;1139               hItem = WM_GetDialogItem(hWinsysinfo, ID_TEXT_113);
;;;1140               TEXT_SetBkColor(hItem,0x00BFFFFF);
;;;1141               TEXT_SetTextColor(hItem, GUI_BLACK);
;;;1142               
;;;1143               info_set = set_62;
;;;1144               break;
;;;1145           }
;;;1146           case set_55:
;;;1147           {
;;;1148               hItem = WM_GetDialogItem(hWinsysinfo, ID_TEXT_106);
;;;1149               TEXT_SetBkColor(hItem,GUI_INVALID_COLOR);
;;;1150               TEXT_SetTextColor(hItem, 0x00BFFFFF);
;;;1151               
;;;1152               hItem = WM_GetDialogItem(hWinsysinfo, ID_TEXT_113);
;;;1153               TEXT_SetBkColor(hItem,0x00BFFFFF);
;;;1154               TEXT_SetTextColor(hItem, GUI_BLACK);
;;;1155               
;;;1156               info_set = set_62;
;;;1157               break;
;;;1158           }
;;;1159           case set_62:
;;;1160           {
;;;1161               hItem = WM_GetDialogItem(hWinsysinfo, ID_TEXT_113);
;;;1162               TEXT_SetBkColor(hItem,GUI_INVALID_COLOR);
;;;1163               TEXT_SetTextColor(hItem, 0x00BFFFFF);
;;;1164               
;;;1165               hItem = WM_GetDialogItem(hWinsysinfo, ID_TEXT_99);
;;;1166               TEXT_SetBkColor(hItem,0x00BFFFFF);
;;;1167               TEXT_SetTextColor(hItem, GUI_BLACK);
;;;1168               
;;;1169               info_set = set_48;
000010  272f              MOVS     r7,#0x2f
000012  6980              LDR      r0,[r0,#0x18]         ;1057
000014  f6400a99          MOV      r10,#0x899            ;1057
000018  f06f4870          MVN      r8,#0xf0000000        ;1058
00001c  f6403908          MOV      r9,#0xb08             ;1061
000020  2910              CMP      r1,#0x10              ;1053
000022  d223              BCS      |L6.108|
000024  e8dff001          TBB      [pc,r1]               ;1053
000028  0824405c          DCB      0x08,0x24,0x40,0x5c
00002c  7894b0cc          DCB      0x78,0x94,0xb0,0xcc
000030  efeeedec          DCB      0xef,0xee,0xed,0xec
000034  ebeaf0e8          DCB      0xeb,0xea,0xf0,0xe8
000038  4651              MOV      r1,r10                ;1057
00003a  f7fffffe          BL       WM_GetDialogItem
00003e  4607              MOV      r7,r0                 ;1057
000040  4641              MOV      r1,r8                 ;1058
000042  4638              MOV      r0,r7                 ;1058
000044  f7fffffe          BL       TEXT_SetBkColor
000048  4629              MOV      r1,r5                 ;1059
00004a  4638              MOV      r0,r7                 ;1059
00004c  f7fffffe          BL       TEXT_SetTextColor
000050  4649              MOV      r1,r9                 ;1061
000052  69a0              LDR      r0,[r4,#0x18]         ;1061  ; hWinsysinfo
000054  f7fffffe          BL       WM_GetDialogItem
000058  4607              MOV      r7,r0                 ;1061
00005a  4629              MOV      r1,r5                 ;1062
00005c  4638              MOV      r0,r7                 ;1062
00005e  f7fffffe          BL       TEXT_SetBkColor
000062  2100              MOVS     r1,#0                 ;1063
000064  4638              MOV      r0,r7                 ;1063
000066  f7fffffe          BL       TEXT_SetTextColor
00006a  7026              STRB     r6,[r4,#0]            ;1065
                  |L6.108|
;;;1170               break;
;;;1171           }
;;;1172           case set_63:
;;;1173           {
;;;1174               hItem = WM_GetDialogItem(hWinsysinfo, ID_TEXT_114);
;;;1175               TEXT_SetBkColor(hItem,GUI_INVALID_COLOR);
;;;1176               TEXT_SetTextColor(hItem, 0x00BFFFFF);
;;;1177               
;;;1178               hItem = WM_GetDialogItem(hWinsysinfo, ID_TEXT_99);
;;;1179               TEXT_SetBkColor(hItem,0x00BFFFFF);
;;;1180               TEXT_SetTextColor(hItem, GUI_BLACK);
;;;1181               
;;;1182               info_set = set_48;
;;;1183               break;
;;;1184           }
;;;1185           case set_56:
;;;1186           {
;;;1187               hItem = WM_GetDialogItem(hWinsysinfo, ID_TEXT_107);
;;;1188               TEXT_SetBkColor(hItem,GUI_INVALID_COLOR);
;;;1189               TEXT_SetTextColor(hItem, 0x00BFFFFF);
;;;1190               
;;;1191               hItem = WM_GetDialogItem(hWinsysinfo, ID_TEXT_99);
;;;1192               TEXT_SetBkColor(hItem,0x00BFFFFF);
;;;1193               TEXT_SetTextColor(hItem, GUI_BLACK);
;;;1194               
;;;1195               info_set = set_48;
;;;1196               break;
;;;1197           }
;;;1198           case set_57:
;;;1199           {
;;;1200               hItem = WM_GetDialogItem(hWinsysinfo, ID_TEXT_108);
;;;1201               TEXT_SetBkColor(hItem,GUI_INVALID_COLOR);
;;;1202               TEXT_SetTextColor(hItem, 0x00BFFFFF);
;;;1203               
;;;1204               hItem = WM_GetDialogItem(hWinsysinfo, ID_TEXT_99);
;;;1205               TEXT_SetBkColor(hItem,0x00BFFFFF);
;;;1206               TEXT_SetTextColor(hItem, GUI_BLACK);
;;;1207               
;;;1208               info_set = set_48;
;;;1209               break;
;;;1210           }
;;;1211           case set_58:
;;;1212           {
;;;1213               hItem = WM_GetDialogItem(hWinsysinfo, ID_TEXT_109);
;;;1214               TEXT_SetBkColor(hItem,GUI_INVALID_COLOR);
;;;1215               TEXT_SetTextColor(hItem, 0x00BFFFFF);
;;;1216               
;;;1217               hItem = WM_GetDialogItem(hWinsysinfo, ID_TEXT_99);
;;;1218               TEXT_SetBkColor(hItem,0x00BFFFFF);
;;;1219               TEXT_SetTextColor(hItem, GUI_BLACK);
;;;1220               
;;;1221               info_set = set_48;
;;;1222               break;
;;;1223           }
;;;1224           case set_59:
;;;1225           {
;;;1226               hItem = WM_GetDialogItem(hWinsysinfo, ID_TEXT_110);
;;;1227               TEXT_SetBkColor(hItem,GUI_INVALID_COLOR);
;;;1228               TEXT_SetTextColor(hItem, 0x00BFFFFF);
;;;1229               
;;;1230               hItem = WM_GetDialogItem(hWinsysinfo, ID_TEXT_99);
;;;1231               TEXT_SetBkColor(hItem,0x00BFFFFF);
;;;1232               TEXT_SetTextColor(hItem, GUI_BLACK);
;;;1233               
;;;1234               info_set = set_48;
;;;1235               break;
;;;1236           }
;;;1237           case set_60:
;;;1238           {
;;;1239               hItem = WM_GetDialogItem(hWinsysinfo, ID_TEXT_111);
;;;1240               TEXT_SetBkColor(hItem,GUI_INVALID_COLOR);
;;;1241               TEXT_SetTextColor(hItem, 0x00BFFFFF);
;;;1242               
;;;1243               hItem = WM_GetDialogItem(hWinsysinfo, ID_TEXT_99);
;;;1244               TEXT_SetBkColor(hItem,0x00BFFFFF);
;;;1245               TEXT_SetTextColor(hItem, GUI_BLACK);
;;;1246               
;;;1247               info_set = set_48;
;;;1248               break;
;;;1249           }
;;;1250           case set_61:
;;;1251           {
;;;1252               hItem = WM_GetDialogItem(hWinsysinfo, ID_TEXT_112);
;;;1253               TEXT_SetBkColor(hItem,GUI_INVALID_COLOR);
;;;1254               TEXT_SetTextColor(hItem, 0x00BFFFFF);
;;;1255               
;;;1256               hItem = WM_GetDialogItem(hWinsysinfo, ID_TEXT_99);
;;;1257               TEXT_SetBkColor(hItem,0x00BFFFFF);
;;;1258               TEXT_SetTextColor(hItem, GUI_BLACK);
;;;1259               
;;;1260               info_set = set_48;
;;;1261               break;
;;;1262           }
;;;1263       }
;;;1264       
;;;1265   }
00006c  e8bd87f0          POP      {r4-r10,pc}
000070  f640019a          MOV      r1,#0x89a             ;1070
000074  f7fffffe          BL       WM_GetDialogItem
000078  4607              MOV      r7,r0                 ;1070
00007a  4641              MOV      r1,r8                 ;1071
00007c  4638              MOV      r0,r7                 ;1071
00007e  f7fffffe          BL       TEXT_SetBkColor
000082  4629              MOV      r1,r5                 ;1072
000084  4638              MOV      r0,r7                 ;1072
000086  f7fffffe          BL       TEXT_SetTextColor
00008a  4649              MOV      r1,r9                 ;1074
00008c  69a0              LDR      r0,[r4,#0x18]         ;1074  ; hWinsysinfo
00008e  f7fffffe          BL       WM_GetDialogItem
000092  4607              MOV      r7,r0                 ;1074
000094  4629              MOV      r1,r5                 ;1075
000096  4638              MOV      r0,r7                 ;1075
000098  f7fffffe          BL       TEXT_SetBkColor
00009c  2100              MOVS     r1,#0                 ;1076
00009e  4638              MOV      r0,r7                 ;1076
0000a0  f7fffffe          BL       TEXT_SetTextColor
0000a4  7026              STRB     r6,[r4,#0]            ;1078
0000a6  e7e1              B        |L6.108|
0000a8  f640019b          MOV      r1,#0x89b             ;1083
0000ac  f7fffffe          BL       WM_GetDialogItem
0000b0  4607              MOV      r7,r0                 ;1083
0000b2  4641              MOV      r1,r8                 ;1084
0000b4  4638              MOV      r0,r7                 ;1084
0000b6  f7fffffe          BL       TEXT_SetBkColor
0000ba  4629              MOV      r1,r5                 ;1085
0000bc  4638              MOV      r0,r7                 ;1085
0000be  f7fffffe          BL       TEXT_SetTextColor
0000c2  4649              MOV      r1,r9                 ;1087
0000c4  69a0              LDR      r0,[r4,#0x18]         ;1087  ; hWinsysinfo
0000c6  f7fffffe          BL       WM_GetDialogItem
0000ca  4607              MOV      r7,r0                 ;1087
0000cc  4629              MOV      r1,r5                 ;1088
0000ce  4638              MOV      r0,r7                 ;1088
0000d0  f7fffffe          BL       TEXT_SetBkColor
0000d4  2100              MOVS     r1,#0                 ;1089
0000d6  4638              MOV      r0,r7                 ;1089
0000d8  f7fffffe          BL       TEXT_SetTextColor
0000dc  7026              STRB     r6,[r4,#0]            ;1091
0000de  e7c5              B        |L6.108|
0000e0  f640019c          MOV      r1,#0x89c             ;1096
0000e4  f7fffffe          BL       WM_GetDialogItem
0000e8  4607              MOV      r7,r0                 ;1096
0000ea  4641              MOV      r1,r8                 ;1097
0000ec  4638              MOV      r0,r7                 ;1097
0000ee  f7fffffe          BL       TEXT_SetBkColor
0000f2  4629              MOV      r1,r5                 ;1098
0000f4  4638              MOV      r0,r7                 ;1098
0000f6  f7fffffe          BL       TEXT_SetTextColor
0000fa  4649              MOV      r1,r9                 ;1100
0000fc  69a0              LDR      r0,[r4,#0x18]         ;1100  ; hWinsysinfo
0000fe  f7fffffe          BL       WM_GetDialogItem
000102  4607              MOV      r7,r0                 ;1100
000104  4629              MOV      r1,r5                 ;1101
000106  4638              MOV      r0,r7                 ;1101
000108  f7fffffe          BL       TEXT_SetBkColor
00010c  2100              MOVS     r1,#0                 ;1102
00010e  4638              MOV      r0,r7                 ;1102
000110  f7fffffe          BL       TEXT_SetTextColor
000114  7026              STRB     r6,[r4,#0]            ;1104
000116  e7a9              B        |L6.108|
000118  f640019d          MOV      r1,#0x89d             ;1109
00011c  f7fffffe          BL       WM_GetDialogItem
000120  4607              MOV      r7,r0                 ;1109
000122  4641              MOV      r1,r8                 ;1110
000124  4638              MOV      r0,r7                 ;1110
000126  f7fffffe          BL       TEXT_SetBkColor
00012a  4629              MOV      r1,r5                 ;1111
00012c  4638              MOV      r0,r7                 ;1111
00012e  f7fffffe          BL       TEXT_SetTextColor
000132  4649              MOV      r1,r9                 ;1113
000134  69a0              LDR      r0,[r4,#0x18]         ;1113  ; hWinsysinfo
000136  f7fffffe          BL       WM_GetDialogItem
00013a  4607              MOV      r7,r0                 ;1113
00013c  4629              MOV      r1,r5                 ;1114
00013e  4638              MOV      r0,r7                 ;1114
000140  f7fffffe          BL       TEXT_SetBkColor
000144  2100              MOVS     r1,#0                 ;1115
000146  4638              MOV      r0,r7                 ;1115
000148  f7fffffe          BL       TEXT_SetTextColor
00014c  7026              STRB     r6,[r4,#0]            ;1117
00014e  e78d              B        |L6.108|
000150  f640019e          MOV      r1,#0x89e             ;1122
000154  f7fffffe          BL       WM_GetDialogItem
000158  4607              MOV      r7,r0                 ;1122
00015a  4641              MOV      r1,r8                 ;1123
00015c  4638              MOV      r0,r7                 ;1123
00015e  f7fffffe          BL       TEXT_SetBkColor
000162  4629              MOV      r1,r5                 ;1124
000164  4638              MOV      r0,r7                 ;1124
000166  f7fffffe          BL       TEXT_SetTextColor
00016a  4649              MOV      r1,r9                 ;1126
00016c  69a0              LDR      r0,[r4,#0x18]         ;1126  ; hWinsysinfo
00016e  f7fffffe          BL       WM_GetDialogItem
000172  4607              MOV      r7,r0                 ;1126
000174  4629              MOV      r1,r5                 ;1127
000176  4638              MOV      r0,r7                 ;1127
000178  f7fffffe          BL       TEXT_SetBkColor
00017c  2100              MOVS     r1,#0                 ;1128
00017e  4638              MOV      r0,r7                 ;1128
000180  f7fffffe          BL       TEXT_SetTextColor
000184  7026              STRB     r6,[r4,#0]            ;1130
000186  e771              B        |L6.108|
000188  f44f6130          MOV      r1,#0xb00             ;1135
00018c  f7fffffe          BL       WM_GetDialogItem
000190  4607              MOV      r7,r0                 ;1135
000192  4641              MOV      r1,r8                 ;1136
000194  4638              MOV      r0,r7                 ;1136
000196  f7fffffe          BL       TEXT_SetBkColor
00019a  4629              MOV      r1,r5                 ;1137
00019c  4638              MOV      r0,r7                 ;1137
00019e  f7fffffe          BL       TEXT_SetTextColor
0001a2  4649              MOV      r1,r9                 ;1139
0001a4  69a0              LDR      r0,[r4,#0x18]         ;1139  ; hWinsysinfo
0001a6  f7fffffe          BL       WM_GetDialogItem
0001aa  4607              MOV      r7,r0                 ;1139
0001ac  4629              MOV      r1,r5                 ;1140
0001ae  4638              MOV      r0,r7                 ;1140
0001b0  f7fffffe          BL       TEXT_SetBkColor
0001b4  2100              MOVS     r1,#0                 ;1141
0001b6  4638              MOV      r0,r7                 ;1141
0001b8  f7fffffe          BL       TEXT_SetTextColor
0001bc  7026              STRB     r6,[r4,#0]            ;1143
0001be  e755              B        |L6.108|
0001c0  f6403101          MOV      r1,#0xb01             ;1148
0001c4  f7fffffe          BL       WM_GetDialogItem
0001c8  4607              MOV      r7,r0                 ;1148
0001ca  4641              MOV      r1,r8                 ;1149
0001cc  4638              MOV      r0,r7                 ;1149
0001ce  f7fffffe          BL       TEXT_SetBkColor
0001d2  4629              MOV      r1,r5                 ;1150
0001d4  4638              MOV      r0,r7                 ;1150
0001d6  f7fffffe          BL       TEXT_SetTextColor
0001da  4649              MOV      r1,r9                 ;1152
0001dc  69a0              LDR      r0,[r4,#0x18]         ;1152  ; hWinsysinfo
0001de  f7fffffe          BL       WM_GetDialogItem
0001e2  4607              MOV      r7,r0                 ;1152
0001e4  4629              MOV      r1,r5                 ;1153
0001e6  4638              MOV      r0,r7                 ;1153
0001e8  f7fffffe          BL       TEXT_SetBkColor
0001ec  2100              MOVS     r1,#0                 ;1154
0001ee  4638              MOV      r0,r7                 ;1154
0001f0  f7fffffe          BL       TEXT_SetTextColor
0001f4  7026              STRB     r6,[r4,#0]            ;1156
0001f6  e739              B        |L6.108|
0001f8  e021              B        |L6.574|
0001fa  e005              B        |L6.520|
0001fc  e0c7              B        |L6.910|
0001fe  e0aa              B        |L6.854|
000200  e08d              B        |L6.798|
000202  e070              B        |L6.742|
000204  e053              B        |L6.686|
000206  e036              B        |L6.630|
                  |L6.520|
000208  4649              MOV      r1,r9                 ;1161
00020a  f7fffffe          BL       WM_GetDialogItem
00020e  4606              MOV      r6,r0                 ;1161
000210  4641              MOV      r1,r8                 ;1162
000212  4630              MOV      r0,r6                 ;1162
000214  f7fffffe          BL       TEXT_SetBkColor
000218  4629              MOV      r1,r5                 ;1163
00021a  4630              MOV      r0,r6                 ;1163
00021c  f7fffffe          BL       TEXT_SetTextColor
000220  4651              MOV      r1,r10                ;1165
000222  69a0              LDR      r0,[r4,#0x18]         ;1165  ; hWinsysinfo
000224  f7fffffe          BL       WM_GetDialogItem
000228  4606              MOV      r6,r0                 ;1165
00022a  4629              MOV      r1,r5                 ;1166
00022c  4630              MOV      r0,r6                 ;1166
00022e  f7fffffe          BL       TEXT_SetBkColor
000232  2100              MOVS     r1,#0                 ;1167
000234  4630              MOV      r0,r6                 ;1167
000236  f7fffffe          BL       TEXT_SetTextColor
00023a  7027              STRB     r7,[r4,#0]            ;1169
00023c  e716              B        |L6.108|
                  |L6.574|
00023e  f6403109          MOV      r1,#0xb09             ;1174
000242  f7fffffe          BL       WM_GetDialogItem
000246  4606              MOV      r6,r0                 ;1174
000248  4641              MOV      r1,r8                 ;1175
00024a  4630              MOV      r0,r6                 ;1175
00024c  f7fffffe          BL       TEXT_SetBkColor
000250  4629              MOV      r1,r5                 ;1176
000252  4630              MOV      r0,r6                 ;1176
000254  f7fffffe          BL       TEXT_SetTextColor
000258  4651              MOV      r1,r10                ;1178
00025a  69a0              LDR      r0,[r4,#0x18]         ;1178  ; hWinsysinfo
00025c  f7fffffe          BL       WM_GetDialogItem
000260  4606              MOV      r6,r0                 ;1178
000262  4629              MOV      r1,r5                 ;1179
000264  4630              MOV      r0,r6                 ;1179
000266  f7fffffe          BL       TEXT_SetBkColor
00026a  2100              MOVS     r1,#0                 ;1180
00026c  4630              MOV      r0,r6                 ;1180
00026e  f7fffffe          BL       TEXT_SetTextColor
000272  7027              STRB     r7,[r4,#0]            ;1182
000274  e6fa              B        |L6.108|
                  |L6.630|
000276  f6403102          MOV      r1,#0xb02             ;1187
00027a  f7fffffe          BL       WM_GetDialogItem
00027e  4606              MOV      r6,r0                 ;1187
000280  4641              MOV      r1,r8                 ;1188
000282  4630              MOV      r0,r6                 ;1188
000284  f7fffffe          BL       TEXT_SetBkColor
000288  4629              MOV      r1,r5                 ;1189
00028a  4630              MOV      r0,r6                 ;1189
00028c  f7fffffe          BL       TEXT_SetTextColor
000290  4651              MOV      r1,r10                ;1191
000292  69a0              LDR      r0,[r4,#0x18]         ;1191  ; hWinsysinfo
000294  f7fffffe          BL       WM_GetDialogItem
000298  4606              MOV      r6,r0                 ;1191
00029a  4629              MOV      r1,r5                 ;1192
00029c  4630              MOV      r0,r6                 ;1192
00029e  f7fffffe          BL       TEXT_SetBkColor
0002a2  2100              MOVS     r1,#0                 ;1193
0002a4  4630              MOV      r0,r6                 ;1193
0002a6  f7fffffe          BL       TEXT_SetTextColor
0002aa  7027              STRB     r7,[r4,#0]            ;1195
0002ac  e6de              B        |L6.108|
                  |L6.686|
0002ae  f6403103          MOV      r1,#0xb03             ;1200
0002b2  f7fffffe          BL       WM_GetDialogItem
0002b6  4606              MOV      r6,r0                 ;1200
0002b8  4641              MOV      r1,r8                 ;1201
0002ba  4630              MOV      r0,r6                 ;1201
0002bc  f7fffffe          BL       TEXT_SetBkColor
0002c0  4629              MOV      r1,r5                 ;1202
0002c2  4630              MOV      r0,r6                 ;1202
0002c4  f7fffffe          BL       TEXT_SetTextColor
0002c8  4651              MOV      r1,r10                ;1204
0002ca  69a0              LDR      r0,[r4,#0x18]         ;1204  ; hWinsysinfo
0002cc  f7fffffe          BL       WM_GetDialogItem
0002d0  4606              MOV      r6,r0                 ;1204
0002d2  4629              MOV      r1,r5                 ;1205
0002d4  4630              MOV      r0,r6                 ;1205
0002d6  f7fffffe          BL       TEXT_SetBkColor
0002da  2100              MOVS     r1,#0                 ;1206
0002dc  4630              MOV      r0,r6                 ;1206
0002de  f7fffffe          BL       TEXT_SetTextColor
0002e2  7027              STRB     r7,[r4,#0]            ;1208
0002e4  e6c2              B        |L6.108|
                  |L6.742|
0002e6  f6403104          MOV      r1,#0xb04             ;1213
0002ea  f7fffffe          BL       WM_GetDialogItem
0002ee  4606              MOV      r6,r0                 ;1213
0002f0  4641              MOV      r1,r8                 ;1214
0002f2  4630              MOV      r0,r6                 ;1214
0002f4  f7fffffe          BL       TEXT_SetBkColor
0002f8  4629              MOV      r1,r5                 ;1215
0002fa  4630              MOV      r0,r6                 ;1215
0002fc  f7fffffe          BL       TEXT_SetTextColor
000300  4651              MOV      r1,r10                ;1217
000302  69a0              LDR      r0,[r4,#0x18]         ;1217  ; hWinsysinfo
000304  f7fffffe          BL       WM_GetDialogItem
000308  4606              MOV      r6,r0                 ;1217
00030a  4629              MOV      r1,r5                 ;1218
00030c  4630              MOV      r0,r6                 ;1218
00030e  f7fffffe          BL       TEXT_SetBkColor
000312  2100              MOVS     r1,#0                 ;1219
000314  4630              MOV      r0,r6                 ;1219
000316  f7fffffe          BL       TEXT_SetTextColor
00031a  7027              STRB     r7,[r4,#0]            ;1221
00031c  e6a6              B        |L6.108|
                  |L6.798|
00031e  f6403105          MOV      r1,#0xb05             ;1226
000322  f7fffffe          BL       WM_GetDialogItem
000326  4606              MOV      r6,r0                 ;1226
000328  4641              MOV      r1,r8                 ;1227
00032a  4630              MOV      r0,r6                 ;1227
00032c  f7fffffe          BL       TEXT_SetBkColor
000330  4629              MOV      r1,r5                 ;1228
000332  4630              MOV      r0,r6                 ;1228
000334  f7fffffe          BL       TEXT_SetTextColor
000338  4651              MOV      r1,r10                ;1230
00033a  69a0              LDR      r0,[r4,#0x18]         ;1230  ; hWinsysinfo
00033c  f7fffffe          BL       WM_GetDialogItem
000340  4606              MOV      r6,r0                 ;1230
000342  4629              MOV      r1,r5                 ;1231
000344  4630              MOV      r0,r6                 ;1231
000346  f7fffffe          BL       TEXT_SetBkColor
00034a  2100              MOVS     r1,#0                 ;1232
00034c  4630              MOV      r0,r6                 ;1232
00034e  f7fffffe          BL       TEXT_SetTextColor
000352  7027              STRB     r7,[r4,#0]            ;1234
000354  e68a              B        |L6.108|
                  |L6.854|
000356  f6403106          MOV      r1,#0xb06             ;1239
00035a  f7fffffe          BL       WM_GetDialogItem
00035e  4606              MOV      r6,r0                 ;1239
000360  4641              MOV      r1,r8                 ;1240
000362  4630              MOV      r0,r6                 ;1240
000364  f7fffffe          BL       TEXT_SetBkColor
000368  4629              MOV      r1,r5                 ;1241
00036a  4630              MOV      r0,r6                 ;1241
00036c  f7fffffe          BL       TEXT_SetTextColor
000370  4651              MOV      r1,r10                ;1243
000372  69a0              LDR      r0,[r4,#0x18]         ;1243  ; hWinsysinfo
000374  f7fffffe          BL       WM_GetDialogItem
000378  4606              MOV      r6,r0                 ;1243
00037a  4629              MOV      r1,r5                 ;1244
00037c  4630              MOV      r0,r6                 ;1244
00037e  f7fffffe          BL       TEXT_SetBkColor
000382  2100              MOVS     r1,#0                 ;1245
000384  4630              MOV      r0,r6                 ;1245
000386  f7fffffe          BL       TEXT_SetTextColor
00038a  7027              STRB     r7,[r4,#0]            ;1247
00038c  e66e              B        |L6.108|
                  |L6.910|
00038e  f6403107          MOV      r1,#0xb07             ;1252
000392  f7fffffe          BL       WM_GetDialogItem
000396  4606              MOV      r6,r0                 ;1252
000398  4641              MOV      r1,r8                 ;1253
00039a  4630              MOV      r0,r6                 ;1253
00039c  f7fffffe          BL       TEXT_SetBkColor
0003a0  4629              MOV      r1,r5                 ;1254
0003a2  4630              MOV      r0,r6                 ;1254
0003a4  f7fffffe          BL       TEXT_SetTextColor
0003a8  4651              MOV      r1,r10                ;1256
0003aa  69a0              LDR      r0,[r4,#0x18]         ;1256  ; hWinsysinfo
0003ac  f7fffffe          BL       WM_GetDialogItem
0003b0  4606              MOV      r6,r0                 ;1256
0003b2  4629              MOV      r1,r5                 ;1257
0003b4  4630              MOV      r0,r6                 ;1257
0003b6  f7fffffe          BL       TEXT_SetBkColor
0003ba  2100              MOVS     r1,#0                 ;1258
0003bc  4630              MOV      r0,r6                 ;1258
0003be  f7fffffe          BL       TEXT_SetTextColor
0003c2  7027              STRB     r7,[r4,#0]            ;1260
0003c4  e652              B        |L6.108|
;;;1266   
                          ENDP

0003c6  0000              DCW      0x0000
                  |L6.968|
                          DCD      ||.data||
                  |L6.972|
                          DCD      0x00bfffff

                          AREA ||i.SYS_INFO_LEFT||, CODE, READONLY, ALIGN=2

                  SYS_INFO_LEFT PROC
;;;611    void SYS_INFO_LEFT(void);
;;;612    void SYS_INFO_LEFT(void)
000000  e92d5ff0          PUSH     {r4-r12,lr}
;;;613    {
;;;614        WM_HWIN hItem;
;;;615        switch(info_set)
000004  48fc              LDR      r0,|L7.1016|
000006  7801              LDRB     r1,[r0,#0]  ; info_set
;;;616        {
;;;617            case set_48:
;;;618            {
;;;619                hItem = WM_GetDialogItem(hWinsysinfo, ID_TEXT_99);
000008  f6400599          MOV      r5,#0x899
00000c  392f              SUBS     r1,r1,#0x2f           ;615
;;;620                TEXT_SetBkColor(hItem,GUI_INVALID_COLOR);
;;;621                TEXT_SetTextColor(hItem, 0x00BFFFFF);
00000e  4cfb              LDR      r4,|L7.1020|
;;;622                
;;;623                hItem = WM_GetDialogItem(hWinsysinfo, ID_TEXT_106);
;;;624                TEXT_SetBkColor(hItem,0x00BFFFFF);
;;;625                TEXT_SetTextColor(hItem, GUI_BLACK);
;;;626                
;;;627                info_set = set_55;
;;;628                break;
;;;629            }
;;;630            case set_49:
;;;631            {
;;;632                hItem = WM_GetDialogItem(hWinsysinfo, ID_TEXT_100);
000010  1c6e              ADDS     r6,r5,#1
;;;633                TEXT_SetBkColor(hItem,GUI_INVALID_COLOR);
;;;634                TEXT_SetTextColor(hItem, 0x00BFFFFF);
;;;635                
;;;636                hItem = WM_GetDialogItem(hWinsysinfo, ID_TEXT_99);
;;;637                TEXT_SetBkColor(hItem,0x00BFFFFF);
;;;638                TEXT_SetTextColor(hItem, GUI_BLACK);
;;;639                
;;;640                info_set = set_48;
;;;641                break;
;;;642            }
;;;643            case set_50:
;;;644            {
;;;645                hItem = WM_GetDialogItem(hWinsysinfo, ID_TEXT_101);
000012  1caf              ADDS     r7,r5,#2
000014  6980              LDR      r0,[r0,#0x18]         ;619
;;;646                TEXT_SetBkColor(hItem,GUI_INVALID_COLOR);
;;;647                TEXT_SetTextColor(hItem, 0x00BFFFFF);
;;;648                
;;;649                hItem = WM_GetDialogItem(hWinsysinfo, ID_TEXT_100);
;;;650                TEXT_SetBkColor(hItem,0x00BFFFFF);
;;;651                TEXT_SetTextColor(hItem, GUI_BLACK);
;;;652                
;;;653                info_set = set_49;
;;;654                break;
;;;655            }
;;;656            case set_51:
;;;657            {
;;;658                hItem = WM_GetDialogItem(hWinsysinfo, ID_TEXT_102);
000016  f640089c          MOV      r8,#0x89c
;;;659                TEXT_SetBkColor(hItem,GUI_INVALID_COLOR);
;;;660                TEXT_SetTextColor(hItem, 0x00BFFFFF);
;;;661                
;;;662                hItem = WM_GetDialogItem(hWinsysinfo, ID_TEXT_101);
;;;663                TEXT_SetBkColor(hItem,0x00BFFFFF);
;;;664                TEXT_SetTextColor(hItem, GUI_BLACK);
;;;665                
;;;666                info_set = set_50;
;;;667                break;
;;;668            }
;;;669            case set_52:
;;;670            {
;;;671                hItem = WM_GetDialogItem(hWinsysinfo, ID_TEXT_103);
00001a  f640099d          MOV      r9,#0x89d
;;;672                TEXT_SetBkColor(hItem,GUI_INVALID_COLOR);
;;;673                TEXT_SetTextColor(hItem, 0x00BFFFFF);
;;;674                
;;;675                hItem = WM_GetDialogItem(hWinsysinfo, ID_TEXT_102);
;;;676                TEXT_SetBkColor(hItem,0x00BFFFFF);
;;;677                TEXT_SetTextColor(hItem, GUI_BLACK);
;;;678                
;;;679                info_set = set_51;
;;;680                break;
;;;681            }
;;;682            case set_53:
;;;683            {
;;;684                hItem = WM_GetDialogItem(hWinsysinfo, ID_TEXT_104);
00001e  f6400a9e          MOV      r10,#0x89e
;;;685                TEXT_SetBkColor(hItem,GUI_INVALID_COLOR);
;;;686                TEXT_SetTextColor(hItem, 0x00BFFFFF);
;;;687                
;;;688                hItem = WM_GetDialogItem(hWinsysinfo, ID_TEXT_103);
;;;689                TEXT_SetBkColor(hItem,0x00BFFFFF);
;;;690                TEXT_SetTextColor(hItem, GUI_BLACK);
;;;691                
;;;692                info_set = set_52;
;;;693                break;
;;;694            }
;;;695            case set_54:
;;;696            {
;;;697                hItem = WM_GetDialogItem(hWinsysinfo, ID_TEXT_105);
000022  f44f6b30          MOV      r11,#0xb00
000026  2910              CMP      r1,#0x10              ;615
000028  d227              BCS      |L7.122|
00002a  e8dff001          TBB      [pc,r1]               ;615
00002e  0828              DCB      0x08,0x28
000030  466482a0          DCB      0x46,0x64,0x82,0xa0
000034  bedcfefd          DCB      0xbe,0xdc,0xfe,0xfd
000038  fcfbfaf9          DCB      0xfc,0xfb,0xfa,0xf9
00003c  f8f7              DCB      0xf8,0xf7
00003e  4629              MOV      r1,r5                 ;619
000040  4ded              LDR      r5,|L7.1016|
000042  f7fffffe          BL       WM_GetDialogItem
000046  4606              MOV      r6,r0                 ;619
000048  f06f4170          MVN      r1,#0xf0000000        ;620
00004c  4630              MOV      r0,r6                 ;620
00004e  f7fffffe          BL       TEXT_SetBkColor
000052  4621              MOV      r1,r4                 ;621
000054  4630              MOV      r0,r6                 ;621
000056  f7fffffe          BL       TEXT_SetTextColor
00005a  f6403101          MOV      r1,#0xb01             ;623
00005e  69a8              LDR      r0,[r5,#0x18]         ;623  ; hWinsysinfo
000060  f7fffffe          BL       WM_GetDialogItem
000064  4606              MOV      r6,r0                 ;623
000066  4621              MOV      r1,r4                 ;624
000068  4630              MOV      r0,r6                 ;624
00006a  f7fffffe          BL       TEXT_SetBkColor
00006e  2100              MOVS     r1,#0                 ;625
000070  4630              MOV      r0,r6                 ;625
000072  f7fffffe          BL       TEXT_SetTextColor
000076  2036              MOVS     r0,#0x36              ;627
000078  7028              STRB     r0,[r5,#0]            ;627
                  |L7.122|
;;;698                TEXT_SetBkColor(hItem,GUI_INVALID_COLOR);
;;;699                TEXT_SetTextColor(hItem, 0x00BFFFFF);
;;;700                
;;;701                hItem = WM_GetDialogItem(hWinsysinfo, ID_TEXT_104);
;;;702                TEXT_SetBkColor(hItem,0x00BFFFFF);
;;;703                TEXT_SetTextColor(hItem, GUI_BLACK);
;;;704                
;;;705                info_set = set_53;
;;;706                break;
;;;707            }
;;;708            case set_55:
;;;709            {
;;;710                hItem = WM_GetDialogItem(hWinsysinfo, ID_TEXT_106);
;;;711                TEXT_SetBkColor(hItem,GUI_INVALID_COLOR);
;;;712                TEXT_SetTextColor(hItem, 0x00BFFFFF);
;;;713                
;;;714                hItem = WM_GetDialogItem(hWinsysinfo, ID_TEXT_105);
;;;715                TEXT_SetBkColor(hItem,0x00BFFFFF);
;;;716                TEXT_SetTextColor(hItem, GUI_BLACK);
;;;717                
;;;718                info_set = set_54;
;;;719                break;
;;;720            }
;;;721            case set_62:
;;;722            {
;;;723                hItem = WM_GetDialogItem(hWinsysinfo, ID_TEXT_113);
;;;724                TEXT_SetBkColor(hItem,GUI_INVALID_COLOR);
;;;725                TEXT_SetTextColor(hItem, 0x00BFFFFF);
;;;726                
;;;727                hItem = WM_GetDialogItem(hWinsysinfo, ID_TEXT_112);
;;;728                TEXT_SetBkColor(hItem,0x00BFFFFF);
;;;729                TEXT_SetTextColor(hItem, GUI_BLACK);
;;;730                
;;;731                info_set = set_61;
;;;732                break;
;;;733            }
;;;734            case set_63:
;;;735            {
;;;736                hItem = WM_GetDialogItem(hWinsysinfo, ID_TEXT_114);
;;;737                TEXT_SetBkColor(hItem,GUI_INVALID_COLOR);
;;;738                TEXT_SetTextColor(hItem, 0x00BFFFFF);
;;;739                
;;;740                hItem = WM_GetDialogItem(hWinsysinfo, ID_TEXT_113);
;;;741                TEXT_SetBkColor(hItem,0x00BFFFFF);
;;;742                TEXT_SetTextColor(hItem, GUI_BLACK);
;;;743                
;;;744                info_set = set_62;
;;;745                break;
;;;746            }
;;;747            case set_56:
;;;748            {
;;;749                hItem = WM_GetDialogItem(hWinsysinfo, ID_TEXT_107);
;;;750                TEXT_SetBkColor(hItem,GUI_INVALID_COLOR);
;;;751                TEXT_SetTextColor(hItem, 0x00BFFFFF);
;;;752                
;;;753                hItem = WM_GetDialogItem(hWinsysinfo, ID_TEXT_114);
;;;754                TEXT_SetBkColor(hItem,0x00BFFFFF);
;;;755                TEXT_SetTextColor(hItem, GUI_BLACK);
;;;756                
;;;757                info_set = set_63;
;;;758                break;
;;;759            }
;;;760            case set_57:
;;;761            {
;;;762                hItem = WM_GetDialogItem(hWinsysinfo, ID_TEXT_108);
;;;763                TEXT_SetBkColor(hItem,GUI_INVALID_COLOR);
;;;764                TEXT_SetTextColor(hItem, 0x00BFFFFF);
;;;765                
;;;766                hItem = WM_GetDialogItem(hWinsysinfo, ID_TEXT_107);
;;;767                TEXT_SetBkColor(hItem,0x00BFFFFF);
;;;768                TEXT_SetTextColor(hItem, GUI_BLACK);
;;;769                
;;;770                info_set = set_56;
;;;771                break;
;;;772            }
;;;773            case set_58:
;;;774            {
;;;775                hItem = WM_GetDialogItem(hWinsysinfo, ID_TEXT_109);
;;;776                TEXT_SetBkColor(hItem,GUI_INVALID_COLOR);
;;;777                TEXT_SetTextColor(hItem, 0x00BFFFFF);
;;;778                
;;;779                hItem = WM_GetDialogItem(hWinsysinfo, ID_TEXT_108);
;;;780                TEXT_SetBkColor(hItem,0x00BFFFFF);
;;;781                TEXT_SetTextColor(hItem, GUI_BLACK);
;;;782                
;;;783                info_set = set_57;
;;;784                break;
;;;785            }
;;;786            case set_59:
;;;787            {
;;;788                hItem = WM_GetDialogItem(hWinsysinfo, ID_TEXT_110);
;;;789                TEXT_SetBkColor(hItem,GUI_INVALID_COLOR);
;;;790                TEXT_SetTextColor(hItem, 0x00BFFFFF);
;;;791                
;;;792                hItem = WM_GetDialogItem(hWinsysinfo, ID_TEXT_109);
;;;793                TEXT_SetBkColor(hItem,0x00BFFFFF);
;;;794                TEXT_SetTextColor(hItem, GUI_BLACK);
;;;795                
;;;796                info_set = set_58;
;;;797                break;
;;;798            }
;;;799            case set_60:
;;;800            {
;;;801                hItem = WM_GetDialogItem(hWinsysinfo, ID_TEXT_111);
;;;802                TEXT_SetBkColor(hItem,GUI_INVALID_COLOR);
;;;803                TEXT_SetTextColor(hItem, 0x00BFFFFF);
;;;804                
;;;805                hItem = WM_GetDialogItem(hWinsysinfo, ID_TEXT_110);
;;;806                TEXT_SetBkColor(hItem,0x00BFFFFF);
;;;807                TEXT_SetTextColor(hItem, GUI_BLACK);
;;;808                
;;;809                info_set = set_59;
;;;810                break;
;;;811            }
;;;812            case set_61:
;;;813            {
;;;814                hItem = WM_GetDialogItem(hWinsysinfo, ID_TEXT_112);
;;;815                TEXT_SetBkColor(hItem,GUI_INVALID_COLOR);
;;;816                TEXT_SetTextColor(hItem, 0x00BFFFFF);
;;;817                
;;;818                hItem = WM_GetDialogItem(hWinsysinfo, ID_TEXT_111);
;;;819                TEXT_SetBkColor(hItem,0x00BFFFFF);
;;;820                TEXT_SetTextColor(hItem, GUI_BLACK);
;;;821                
;;;822                info_set = set_60;
;;;823                break;
;;;824            }
;;;825        }
;;;826        
;;;827    }
00007a  e8bd9ff0          POP      {r4-r12,pc}
00007e  4631              MOV      r1,r6                 ;632
000080  4edd              LDR      r6,|L7.1016|
000082  f7fffffe          BL       WM_GetDialogItem
000086  4607              MOV      r7,r0                 ;632
000088  f06f4170          MVN      r1,#0xf0000000        ;633
00008c  4638              MOV      r0,r7                 ;633
00008e  f7fffffe          BL       TEXT_SetBkColor
000092  4621              MOV      r1,r4                 ;634
000094  4638              MOV      r0,r7                 ;634
000096  f7fffffe          BL       TEXT_SetTextColor
00009a  4629              MOV      r1,r5                 ;636
00009c  69b0              LDR      r0,[r6,#0x18]         ;636  ; hWinsysinfo
00009e  f7fffffe          BL       WM_GetDialogItem
0000a2  4605              MOV      r5,r0                 ;636
0000a4  4621              MOV      r1,r4                 ;637
0000a6  4628              MOV      r0,r5                 ;637
0000a8  f7fffffe          BL       TEXT_SetBkColor
0000ac  2100              MOVS     r1,#0                 ;638
0000ae  4628              MOV      r0,r5                 ;638
0000b0  f7fffffe          BL       TEXT_SetTextColor
0000b4  202f              MOVS     r0,#0x2f              ;640
0000b6  7030              STRB     r0,[r6,#0]            ;640
0000b8  e7df              B        |L7.122|
0000ba  4639              MOV      r1,r7                 ;645
0000bc  4dce              LDR      r5,|L7.1016|
0000be  f7fffffe          BL       WM_GetDialogItem
0000c2  4607              MOV      r7,r0                 ;645
0000c4  f06f4170          MVN      r1,#0xf0000000        ;646
0000c8  4638              MOV      r0,r7                 ;646
0000ca  f7fffffe          BL       TEXT_SetBkColor
0000ce  4621              MOV      r1,r4                 ;647
0000d0  4638              MOV      r0,r7                 ;647
0000d2  f7fffffe          BL       TEXT_SetTextColor
0000d6  4631              MOV      r1,r6                 ;649
0000d8  69a8              LDR      r0,[r5,#0x18]         ;649  ; hWinsysinfo
0000da  f7fffffe          BL       WM_GetDialogItem
0000de  4606              MOV      r6,r0                 ;649
0000e0  4621              MOV      r1,r4                 ;650
0000e2  4630              MOV      r0,r6                 ;650
0000e4  f7fffffe          BL       TEXT_SetBkColor
0000e8  2100              MOVS     r1,#0                 ;651
0000ea  4630              MOV      r0,r6                 ;651
0000ec  f7fffffe          BL       TEXT_SetTextColor
0000f0  2030              MOVS     r0,#0x30              ;653
0000f2  7028              STRB     r0,[r5,#0]            ;653
0000f4  e7c1              B        |L7.122|
0000f6  4641              MOV      r1,r8                 ;658
0000f8  4dbf              LDR      r5,|L7.1016|
0000fa  f7fffffe          BL       WM_GetDialogItem
0000fe  4606              MOV      r6,r0                 ;658
000100  f06f4170          MVN      r1,#0xf0000000        ;659
000104  4630              MOV      r0,r6                 ;659
000106  f7fffffe          BL       TEXT_SetBkColor
00010a  4621              MOV      r1,r4                 ;660
00010c  4630              MOV      r0,r6                 ;660
00010e  f7fffffe          BL       TEXT_SetTextColor
000112  4639              MOV      r1,r7                 ;662
000114  69a8              LDR      r0,[r5,#0x18]         ;662  ; hWinsysinfo
000116  f7fffffe          BL       WM_GetDialogItem
00011a  4606              MOV      r6,r0                 ;662
00011c  4621              MOV      r1,r4                 ;663
00011e  4630              MOV      r0,r6                 ;663
000120  f7fffffe          BL       TEXT_SetBkColor
000124  2100              MOVS     r1,#0                 ;664
000126  4630              MOV      r0,r6                 ;664
000128  f7fffffe          BL       TEXT_SetTextColor
00012c  2031              MOVS     r0,#0x31              ;666
00012e  7028              STRB     r0,[r5,#0]            ;666
000130  e7a3              B        |L7.122|
000132  4649              MOV      r1,r9                 ;671
000134  4db0              LDR      r5,|L7.1016|
000136  f7fffffe          BL       WM_GetDialogItem
00013a  4606              MOV      r6,r0                 ;671
00013c  f06f4170          MVN      r1,#0xf0000000        ;672
000140  4630              MOV      r0,r6                 ;672
000142  f7fffffe          BL       TEXT_SetBkColor
000146  4621              MOV      r1,r4                 ;673
000148  4630              MOV      r0,r6                 ;673
00014a  f7fffffe          BL       TEXT_SetTextColor
00014e  4641              MOV      r1,r8                 ;675
000150  69a8              LDR      r0,[r5,#0x18]         ;675  ; hWinsysinfo
000152  f7fffffe          BL       WM_GetDialogItem
000156  4606              MOV      r6,r0                 ;675
000158  4621              MOV      r1,r4                 ;676
00015a  4630              MOV      r0,r6                 ;676
00015c  f7fffffe          BL       TEXT_SetBkColor
000160  2100              MOVS     r1,#0                 ;677
000162  4630              MOV      r0,r6                 ;677
000164  f7fffffe          BL       TEXT_SetTextColor
000168  2032              MOVS     r0,#0x32              ;679
00016a  7028              STRB     r0,[r5,#0]            ;679
00016c  e785              B        |L7.122|
00016e  4651              MOV      r1,r10                ;684
000170  4da1              LDR      r5,|L7.1016|
000172  f7fffffe          BL       WM_GetDialogItem
000176  4606              MOV      r6,r0                 ;684
000178  f06f4170          MVN      r1,#0xf0000000        ;685
00017c  4630              MOV      r0,r6                 ;685
00017e  f7fffffe          BL       TEXT_SetBkColor
000182  4621              MOV      r1,r4                 ;686
000184  4630              MOV      r0,r6                 ;686
000186  f7fffffe          BL       TEXT_SetTextColor
00018a  4649              MOV      r1,r9                 ;688
00018c  69a8              LDR      r0,[r5,#0x18]         ;688  ; hWinsysinfo
00018e  f7fffffe          BL       WM_GetDialogItem
000192  4606              MOV      r6,r0                 ;688
000194  4621              MOV      r1,r4                 ;689
000196  4630              MOV      r0,r6                 ;689
000198  f7fffffe          BL       TEXT_SetBkColor
00019c  2100              MOVS     r1,#0                 ;690
00019e  4630              MOV      r0,r6                 ;690
0001a0  f7fffffe          BL       TEXT_SetTextColor
0001a4  2033              MOVS     r0,#0x33              ;692
0001a6  7028              STRB     r0,[r5,#0]            ;692
0001a8  e767              B        |L7.122|
0001aa  4659              MOV      r1,r11                ;697
0001ac  4d92              LDR      r5,|L7.1016|
0001ae  f7fffffe          BL       WM_GetDialogItem
0001b2  4606              MOV      r6,r0                 ;697
0001b4  f06f4170          MVN      r1,#0xf0000000        ;698
0001b8  4630              MOV      r0,r6                 ;698
0001ba  f7fffffe          BL       TEXT_SetBkColor
0001be  4621              MOV      r1,r4                 ;699
0001c0  4630              MOV      r0,r6                 ;699
0001c2  f7fffffe          BL       TEXT_SetTextColor
0001c6  4651              MOV      r1,r10                ;701
0001c8  69a8              LDR      r0,[r5,#0x18]         ;701  ; hWinsysinfo
0001ca  f7fffffe          BL       WM_GetDialogItem
0001ce  4606              MOV      r6,r0                 ;701
0001d0  4621              MOV      r1,r4                 ;702
0001d2  4630              MOV      r0,r6                 ;702
0001d4  f7fffffe          BL       TEXT_SetBkColor
0001d8  2100              MOVS     r1,#0                 ;703
0001da  4630              MOV      r0,r6                 ;703
0001dc  f7fffffe          BL       TEXT_SetTextColor
0001e0  2034              MOVS     r0,#0x34              ;705
0001e2  7028              STRB     r0,[r5,#0]            ;705
0001e4  e749              B        |L7.122|
0001e6  f6403101          MOV      r1,#0xb01             ;710
0001ea  4d83              LDR      r5,|L7.1016|
0001ec  f7fffffe          BL       WM_GetDialogItem
0001f0  4606              MOV      r6,r0                 ;710
0001f2  f06f4170          MVN      r1,#0xf0000000        ;711
0001f6  4630              MOV      r0,r6                 ;711
0001f8  f7fffffe          BL       TEXT_SetBkColor
0001fc  4621              MOV      r1,r4                 ;712
0001fe  4630              MOV      r0,r6                 ;712
000200  f7fffffe          BL       TEXT_SetTextColor
000204  4659              MOV      r1,r11                ;714
000206  69a8              LDR      r0,[r5,#0x18]         ;714  ; hWinsysinfo
000208  f7fffffe          BL       WM_GetDialogItem
00020c  4606              MOV      r6,r0                 ;714
00020e  4621              MOV      r1,r4                 ;715
000210  4630              MOV      r0,r6                 ;715
000212  f7fffffe          BL       TEXT_SetBkColor
000216  2100              MOVS     r1,#0                 ;716
000218  4630              MOV      r0,r6                 ;716
00021a  e007              B        |L7.556|
00021c  e02b              B        |L7.630|
00021e  e00a              B        |L7.566|
000220  e0ee              B        |L7.1024|
000222  e0c8              B        |L7.950|
000224  e0a7              B        |L7.886|
000226  e086              B        |L7.822|
000228  e065              B        |L7.758|
00022a  e044              B        |L7.694|
                  |L7.556|
00022c  f7fffffe          BL       TEXT_SetTextColor
000230  2035              MOVS     r0,#0x35              ;718
000232  7028              STRB     r0,[r5,#0]            ;718
000234  e721              B        |L7.122|
                  |L7.566|
000236  f6403108          MOV      r1,#0xb08             ;723
00023a  4d6f              LDR      r5,|L7.1016|
00023c  f7fffffe          BL       WM_GetDialogItem
000240  4606              MOV      r6,r0                 ;723
000242  f06f4170          MVN      r1,#0xf0000000        ;724
000246  4630              MOV      r0,r6                 ;724
000248  f7fffffe          BL       TEXT_SetBkColor
00024c  4621              MOV      r1,r4                 ;725
00024e  4630              MOV      r0,r6                 ;725
000250  f7fffffe          BL       TEXT_SetTextColor
000254  f6403107          MOV      r1,#0xb07             ;727
000258  69a8              LDR      r0,[r5,#0x18]         ;727  ; hWinsysinfo
00025a  f7fffffe          BL       WM_GetDialogItem
00025e  4606              MOV      r6,r0                 ;727
000260  4621              MOV      r1,r4                 ;728
000262  4630              MOV      r0,r6                 ;728
000264  f7fffffe          BL       TEXT_SetBkColor
000268  2100              MOVS     r1,#0                 ;729
00026a  4630              MOV      r0,r6                 ;729
00026c  f7fffffe          BL       TEXT_SetTextColor
000270  203c              MOVS     r0,#0x3c              ;731
000272  7028              STRB     r0,[r5,#0]            ;731
000274  e701              B        |L7.122|
                  |L7.630|
000276  f6403109          MOV      r1,#0xb09             ;736
00027a  4d5f              LDR      r5,|L7.1016|
00027c  f7fffffe          BL       WM_GetDialogItem
000280  4606              MOV      r6,r0                 ;736
000282  f06f4170          MVN      r1,#0xf0000000        ;737
000286  4630              MOV      r0,r6                 ;737
000288  f7fffffe          BL       TEXT_SetBkColor
00028c  4621              MOV      r1,r4                 ;738
00028e  4630              MOV      r0,r6                 ;738
000290  f7fffffe          BL       TEXT_SetTextColor
000294  f6403108          MOV      r1,#0xb08             ;740
000298  69a8              LDR      r0,[r5,#0x18]         ;740  ; hWinsysinfo
00029a  f7fffffe          BL       WM_GetDialogItem
00029e  4606              MOV      r6,r0                 ;740
0002a0  4621              MOV      r1,r4                 ;741
0002a2  4630              MOV      r0,r6                 ;741
0002a4  f7fffffe          BL       TEXT_SetBkColor
0002a8  2100              MOVS     r1,#0                 ;742
0002aa  4630              MOV      r0,r6                 ;742
0002ac  f7fffffe          BL       TEXT_SetTextColor
0002b0  203d              MOVS     r0,#0x3d              ;744
0002b2  7028              STRB     r0,[r5,#0]            ;744
0002b4  e6e1              B        |L7.122|
                  |L7.694|
0002b6  f6403102          MOV      r1,#0xb02             ;749
0002ba  4d4f              LDR      r5,|L7.1016|
0002bc  f7fffffe          BL       WM_GetDialogItem
0002c0  4606              MOV      r6,r0                 ;749
0002c2  f06f4170          MVN      r1,#0xf0000000        ;750
0002c6  4630              MOV      r0,r6                 ;750
0002c8  f7fffffe          BL       TEXT_SetBkColor
0002cc  4621              MOV      r1,r4                 ;751
0002ce  4630              MOV      r0,r6                 ;751
0002d0  f7fffffe          BL       TEXT_SetTextColor
0002d4  f6403109          MOV      r1,#0xb09             ;753
0002d8  69a8              LDR      r0,[r5,#0x18]         ;753  ; hWinsysinfo
0002da  f7fffffe          BL       WM_GetDialogItem
0002de  4606              MOV      r6,r0                 ;753
0002e0  4621              MOV      r1,r4                 ;754
0002e2  4630              MOV      r0,r6                 ;754
0002e4  f7fffffe          BL       TEXT_SetBkColor
0002e8  2100              MOVS     r1,#0                 ;755
0002ea  4630              MOV      r0,r6                 ;755
0002ec  f7fffffe          BL       TEXT_SetTextColor
0002f0  203e              MOVS     r0,#0x3e              ;757
0002f2  7028              STRB     r0,[r5,#0]            ;757
0002f4  e6c1              B        |L7.122|
                  |L7.758|
0002f6  f6403103          MOV      r1,#0xb03             ;762
0002fa  4d3f              LDR      r5,|L7.1016|
0002fc  f7fffffe          BL       WM_GetDialogItem
000300  4606              MOV      r6,r0                 ;762
000302  f06f4170          MVN      r1,#0xf0000000        ;763
000306  4630              MOV      r0,r6                 ;763
000308  f7fffffe          BL       TEXT_SetBkColor
00030c  4621              MOV      r1,r4                 ;764
00030e  4630              MOV      r0,r6                 ;764
000310  f7fffffe          BL       TEXT_SetTextColor
000314  f6403102          MOV      r1,#0xb02             ;766
000318  69a8              LDR      r0,[r5,#0x18]         ;766  ; hWinsysinfo
00031a  f7fffffe          BL       WM_GetDialogItem
00031e  4606              MOV      r6,r0                 ;766
000320  4621              MOV      r1,r4                 ;767
000322  4630              MOV      r0,r6                 ;767
000324  f7fffffe          BL       TEXT_SetBkColor
000328  2100              MOVS     r1,#0                 ;768
00032a  4630              MOV      r0,r6                 ;768
00032c  f7fffffe          BL       TEXT_SetTextColor
000330  2037              MOVS     r0,#0x37              ;770
000332  7028              STRB     r0,[r5,#0]            ;770
000334  e6a1              B        |L7.122|
                  |L7.822|
000336  f6403104          MOV      r1,#0xb04             ;775
00033a  4d2f              LDR      r5,|L7.1016|
00033c  f7fffffe          BL       WM_GetDialogItem
000340  4606              MOV      r6,r0                 ;775
000342  f06f4170          MVN      r1,#0xf0000000        ;776
000346  4630              MOV      r0,r6                 ;776
000348  f7fffffe          BL       TEXT_SetBkColor
00034c  4621              MOV      r1,r4                 ;777
00034e  4630              MOV      r0,r6                 ;777
000350  f7fffffe          BL       TEXT_SetTextColor
000354  f6403103          MOV      r1,#0xb03             ;779
000358  69a8              LDR      r0,[r5,#0x18]         ;779  ; hWinsysinfo
00035a  f7fffffe          BL       WM_GetDialogItem
00035e  4606              MOV      r6,r0                 ;779
000360  4621              MOV      r1,r4                 ;780
000362  4630              MOV      r0,r6                 ;780
000364  f7fffffe          BL       TEXT_SetBkColor
000368  2100              MOVS     r1,#0                 ;781
00036a  4630              MOV      r0,r6                 ;781
00036c  f7fffffe          BL       TEXT_SetTextColor
000370  2038              MOVS     r0,#0x38              ;783
000372  7028              STRB     r0,[r5,#0]            ;783
000374  e681              B        |L7.122|
                  |L7.886|
000376  f6403105          MOV      r1,#0xb05             ;788
00037a  4d1f              LDR      r5,|L7.1016|
00037c  f7fffffe          BL       WM_GetDialogItem
000380  4606              MOV      r6,r0                 ;788
000382  f06f4170          MVN      r1,#0xf0000000        ;789
000386  4630              MOV      r0,r6                 ;789
000388  f7fffffe          BL       TEXT_SetBkColor
00038c  4621              MOV      r1,r4                 ;790
00038e  4630              MOV      r0,r6                 ;790
000390  f7fffffe          BL       TEXT_SetTextColor
000394  f6403104          MOV      r1,#0xb04             ;792
000398  69a8              LDR      r0,[r5,#0x18]         ;792  ; hWinsysinfo
00039a  f7fffffe          BL       WM_GetDialogItem
00039e  4606              MOV      r6,r0                 ;792
0003a0  4621              MOV      r1,r4                 ;793
0003a2  4630              MOV      r0,r6                 ;793
0003a4  f7fffffe          BL       TEXT_SetBkColor
0003a8  2100              MOVS     r1,#0                 ;794
0003aa  4630              MOV      r0,r6                 ;794
0003ac  f7fffffe          BL       TEXT_SetTextColor
0003b0  2039              MOVS     r0,#0x39              ;796
0003b2  7028              STRB     r0,[r5,#0]            ;796
0003b4  e661              B        |L7.122|
                  |L7.950|
0003b6  f6403106          MOV      r1,#0xb06             ;801
0003ba  4d0f              LDR      r5,|L7.1016|
0003bc  f7fffffe          BL       WM_GetDialogItem
0003c0  4606              MOV      r6,r0                 ;801
0003c2  f06f4170          MVN      r1,#0xf0000000        ;802
0003c6  4630              MOV      r0,r6                 ;802
0003c8  f7fffffe          BL       TEXT_SetBkColor
0003cc  4621              MOV      r1,r4                 ;803
0003ce  4630              MOV      r0,r6                 ;803
0003d0  f7fffffe          BL       TEXT_SetTextColor
0003d4  f6403105          MOV      r1,#0xb05             ;805
0003d8  69a8              LDR      r0,[r5,#0x18]         ;805  ; hWinsysinfo
0003da  f7fffffe          BL       WM_GetDialogItem
0003de  4606              MOV      r6,r0                 ;805
0003e0  4621              MOV      r1,r4                 ;806
0003e2  4630              MOV      r0,r6                 ;806
0003e4  f7fffffe          BL       TEXT_SetBkColor
0003e8  2100              MOVS     r1,#0                 ;807
0003ea  4630              MOV      r0,r6                 ;807
0003ec  f7fffffe          BL       TEXT_SetTextColor
0003f0  203a              MOVS     r0,#0x3a              ;809
0003f2  7028              STRB     r0,[r5,#0]            ;809
0003f4  e641              B        |L7.122|
0003f6  0000              DCW      0x0000
                  |L7.1016|
                          DCD      ||.data||
                  |L7.1020|
                          DCD      0x00bfffff
                  |L7.1024|
000400  f6403107          MOV      r1,#0xb07             ;814
000404  4d0e              LDR      r5,|L7.1088|
000406  f7fffffe          BL       WM_GetDialogItem
00040a  4606              MOV      r6,r0                 ;814
00040c  f06f4170          MVN      r1,#0xf0000000        ;815
000410  4630              MOV      r0,r6                 ;815
000412  f7fffffe          BL       TEXT_SetBkColor
000416  4621              MOV      r1,r4                 ;816
000418  4630              MOV      r0,r6                 ;816
00041a  f7fffffe          BL       TEXT_SetTextColor
00041e  f6403106          MOV      r1,#0xb06             ;818
000422  69a8              LDR      r0,[r5,#0x18]         ;818  ; hWinsysinfo
000424  f7fffffe          BL       WM_GetDialogItem
000428  4606              MOV      r6,r0                 ;818
00042a  4621              MOV      r1,r4                 ;819
00042c  4630              MOV      r0,r6                 ;819
00042e  f7fffffe          BL       TEXT_SetBkColor
000432  2100              MOVS     r1,#0                 ;820
000434  4630              MOV      r0,r6                 ;820
000436  f7fffffe          BL       TEXT_SetTextColor
00043a  203b              MOVS     r0,#0x3b              ;822
00043c  7028              STRB     r0,[r5,#0]            ;822
00043e  e61c              B        |L7.122|
;;;828    
                          ENDP

                  |L7.1088|
                          DCD      ||.data||

                          AREA ||i.SYS_INFO_RIGHT||, CODE, READONLY, ALIGN=2

                  SYS_INFO_RIGHT PROC
;;;392    void SYS_INFO_RIGHT(void);
;;;393    void SYS_INFO_RIGHT(void)
000000  e92d5ff0          PUSH     {r4-r12,lr}
;;;394    {
;;;395        WM_HWIN hItem;
;;;396        switch(info_set)
000004  48fd              LDR      r0,|L8.1020|
000006  7801              LDRB     r1,[r0,#0]  ; info_set
;;;397        {
;;;398            case set_48:
;;;399            {
;;;400                hItem = WM_GetDialogItem(hWinsysinfo, ID_TEXT_99);
000008  f6400599          MOV      r5,#0x899
00000c  392f              SUBS     r1,r1,#0x2f           ;396
;;;401                TEXT_SetBkColor(hItem,GUI_INVALID_COLOR);
;;;402                TEXT_SetTextColor(hItem, 0x00BFFFFF);
00000e  4cfc              LDR      r4,|L8.1024|
;;;403                
;;;404                hItem = WM_GetDialogItem(hWinsysinfo, ID_TEXT_100);
000010  1c6f              ADDS     r7,r5,#1
000012  6980              LDR      r0,[r0,#0x18]         ;400
;;;405                TEXT_SetBkColor(hItem,0x00BFFFFF);
;;;406                TEXT_SetTextColor(hItem, GUI_BLACK);
;;;407                
;;;408                info_set = set_49;
;;;409                break;
;;;410            }
;;;411            case set_49:
;;;412            {
;;;413                hItem = WM_GetDialogItem(hWinsysinfo, ID_TEXT_100);
;;;414                TEXT_SetBkColor(hItem,GUI_INVALID_COLOR);
;;;415                TEXT_SetTextColor(hItem, 0x00BFFFFF);
;;;416                
;;;417                hItem = WM_GetDialogItem(hWinsysinfo, ID_TEXT_101);
000014  f640089b          MOV      r8,#0x89b
;;;418                TEXT_SetBkColor(hItem,0x00BFFFFF);
;;;419                TEXT_SetTextColor(hItem, GUI_BLACK);
;;;420                
;;;421                info_set = set_50;
;;;422                break;
;;;423            }
;;;424            case set_50:
;;;425            {
;;;426                hItem = WM_GetDialogItem(hWinsysinfo, ID_TEXT_101);
;;;427                TEXT_SetBkColor(hItem,GUI_INVALID_COLOR);
;;;428                TEXT_SetTextColor(hItem, 0x00BFFFFF);
;;;429                
;;;430                hItem = WM_GetDialogItem(hWinsysinfo, ID_TEXT_102);
000018  f640099c          MOV      r9,#0x89c
;;;431                TEXT_SetBkColor(hItem,0x00BFFFFF);
;;;432                TEXT_SetTextColor(hItem, GUI_BLACK);
;;;433                
;;;434                info_set = set_51;
;;;435                break;
;;;436            }
;;;437            case set_51:
;;;438            {
;;;439                hItem = WM_GetDialogItem(hWinsysinfo, ID_TEXT_102);
;;;440                TEXT_SetBkColor(hItem,GUI_INVALID_COLOR);
;;;441                TEXT_SetTextColor(hItem, 0x00BFFFFF);
;;;442                
;;;443                hItem = WM_GetDialogItem(hWinsysinfo, ID_TEXT_103);
00001c  f6400a9d          MOV      r10,#0x89d
;;;444                TEXT_SetBkColor(hItem,0x00BFFFFF);
;;;445                TEXT_SetTextColor(hItem, GUI_BLACK);
;;;446                
;;;447                info_set = set_52;
;;;448                break;
;;;449            }
;;;450            case set_52:
;;;451            {
;;;452                hItem = WM_GetDialogItem(hWinsysinfo, ID_TEXT_103);
;;;453                TEXT_SetBkColor(hItem,GUI_INVALID_COLOR);
;;;454                TEXT_SetTextColor(hItem, 0x00BFFFFF);
;;;455                
;;;456                hItem = WM_GetDialogItem(hWinsysinfo, ID_TEXT_104);
000020  f6400b9e          MOV      r11,#0x89e
;;;457                TEXT_SetBkColor(hItem,0x00BFFFFF);
;;;458                TEXT_SetTextColor(hItem, GUI_BLACK);
;;;459                
;;;460                info_set = set_53;
;;;461                break;
;;;462            }
;;;463            case set_53:
;;;464            {
;;;465                hItem = WM_GetDialogItem(hWinsysinfo, ID_TEXT_104);
;;;466                TEXT_SetBkColor(hItem,GUI_INVALID_COLOR);
;;;467                TEXT_SetTextColor(hItem, 0x00BFFFFF);
;;;468                
;;;469                hItem = WM_GetDialogItem(hWinsysinfo, ID_TEXT_105);
;;;470                TEXT_SetBkColor(hItem,0x00BFFFFF);
;;;471                TEXT_SetTextColor(hItem, GUI_BLACK);
;;;472                
;;;473                info_set = set_54;
;;;474                break;
;;;475            }
;;;476            case set_54:
;;;477            {
;;;478                hItem = WM_GetDialogItem(hWinsysinfo, ID_TEXT_105);
;;;479                TEXT_SetBkColor(hItem,GUI_INVALID_COLOR);
;;;480                TEXT_SetTextColor(hItem, 0x00BFFFFF);
;;;481                
;;;482                hItem = WM_GetDialogItem(hWinsysinfo, ID_TEXT_106);
;;;483                TEXT_SetBkColor(hItem,0x00BFFFFF);
;;;484                TEXT_SetTextColor(hItem, GUI_BLACK);
;;;485                
;;;486                info_set = set_55;
;;;487                break;
;;;488            }
;;;489            case set_55:
;;;490            {
;;;491                hItem = WM_GetDialogItem(hWinsysinfo, ID_TEXT_106);
;;;492                TEXT_SetBkColor(hItem,GUI_INVALID_COLOR);
;;;493                TEXT_SetTextColor(hItem, 0x00BFFFFF);
;;;494                
;;;495                hItem = WM_GetDialogItem(hWinsysinfo, ID_TEXT_99);
;;;496                TEXT_SetBkColor(hItem,0x00BFFFFF);
;;;497                TEXT_SetTextColor(hItem, GUI_BLACK);
;;;498                
;;;499                info_set = set_48;
;;;500                break;
;;;501            }
;;;502            case set_62:
;;;503            {
;;;504                hItem = WM_GetDialogItem(hWinsysinfo, ID_TEXT_113);
000024  f6403608          MOV      r6,#0xb08
000028  2910              CMP      r1,#0x10              ;396
00002a  d226              BCS      |L8.122|
00002c  e8dff001          TBB      [pc,r1]               ;396
000030  08274563          DCB      0x08,0x27,0x45,0x63
000034  819fbede          DCB      0x81,0x9f,0xbe,0xde
000038  fcfbfaf9          DCB      0xfc,0xfb,0xfa,0xf9
00003c  f8f7f6f5          DCB      0xf8,0xf7,0xf6,0xf5
000040  4629              MOV      r1,r5                 ;400
000042  4dee              LDR      r5,|L8.1020|
000044  f7fffffe          BL       WM_GetDialogItem
000048  4606              MOV      r6,r0                 ;400
00004a  f06f4170          MVN      r1,#0xf0000000        ;401
00004e  4630              MOV      r0,r6                 ;401
000050  f7fffffe          BL       TEXT_SetBkColor
000054  4621              MOV      r1,r4                 ;402
000056  4630              MOV      r0,r6                 ;402
000058  f7fffffe          BL       TEXT_SetTextColor
00005c  4639              MOV      r1,r7                 ;404
00005e  69a8              LDR      r0,[r5,#0x18]         ;404  ; hWinsysinfo
000060  f7fffffe          BL       WM_GetDialogItem
000064  4606              MOV      r6,r0                 ;404
000066  4621              MOV      r1,r4                 ;405
000068  4630              MOV      r0,r6                 ;405
00006a  f7fffffe          BL       TEXT_SetBkColor
00006e  2100              MOVS     r1,#0                 ;406
000070  4630              MOV      r0,r6                 ;406
000072  f7fffffe          BL       TEXT_SetTextColor
000076  2030              MOVS     r0,#0x30              ;408
000078  7028              STRB     r0,[r5,#0]            ;408
                  |L8.122|
;;;505                TEXT_SetBkColor(hItem,GUI_INVALID_COLOR);
;;;506                TEXT_SetTextColor(hItem, 0x00BFFFFF);
;;;507                
;;;508                hItem = WM_GetDialogItem(hWinsysinfo, ID_TEXT_114);
;;;509                TEXT_SetBkColor(hItem,0x00BFFFFF);
;;;510                TEXT_SetTextColor(hItem, GUI_BLACK);
;;;511                
;;;512                info_set = set_63;
;;;513                break;
;;;514            }
;;;515            case set_63:
;;;516            {
;;;517                hItem = WM_GetDialogItem(hWinsysinfo, ID_TEXT_114);
;;;518                TEXT_SetBkColor(hItem,GUI_INVALID_COLOR);
;;;519                TEXT_SetTextColor(hItem, 0x00BFFFFF);
;;;520                
;;;521                hItem = WM_GetDialogItem(hWinsysinfo, ID_TEXT_107);
;;;522                TEXT_SetBkColor(hItem,0x00BFFFFF);
;;;523                TEXT_SetTextColor(hItem, GUI_BLACK);
;;;524                
;;;525                info_set = set_56;
;;;526                break;
;;;527            }
;;;528            case set_56:
;;;529            {
;;;530                hItem = WM_GetDialogItem(hWinsysinfo, ID_TEXT_107);
;;;531                TEXT_SetBkColor(hItem,GUI_INVALID_COLOR);
;;;532                TEXT_SetTextColor(hItem, 0x00BFFFFF);
;;;533                
;;;534                hItem = WM_GetDialogItem(hWinsysinfo, ID_TEXT_108);
;;;535                TEXT_SetBkColor(hItem,0x00BFFFFF);
;;;536                TEXT_SetTextColor(hItem, GUI_BLACK);
;;;537                
;;;538                info_set = set_57;
;;;539                break;
;;;540            }
;;;541            case set_57:
;;;542            {
;;;543                hItem = WM_GetDialogItem(hWinsysinfo, ID_TEXT_108);
;;;544                TEXT_SetBkColor(hItem,GUI_INVALID_COLOR);
;;;545                TEXT_SetTextColor(hItem, 0x00BFFFFF);
;;;546                
;;;547                hItem = WM_GetDialogItem(hWinsysinfo, ID_TEXT_109);
;;;548                TEXT_SetBkColor(hItem,0x00BFFFFF);
;;;549                TEXT_SetTextColor(hItem, GUI_BLACK);
;;;550                
;;;551                info_set = set_58;
;;;552                break;
;;;553            }
;;;554            case set_58:
;;;555            {
;;;556                hItem = WM_GetDialogItem(hWinsysinfo, ID_TEXT_109);
;;;557                TEXT_SetBkColor(hItem,GUI_INVALID_COLOR);
;;;558                TEXT_SetTextColor(hItem, 0x00BFFFFF);
;;;559                
;;;560                hItem = WM_GetDialogItem(hWinsysinfo, ID_TEXT_110);
;;;561                TEXT_SetBkColor(hItem,0x00BFFFFF);
;;;562                TEXT_SetTextColor(hItem, GUI_BLACK);
;;;563                
;;;564                info_set = set_59;
;;;565                break;
;;;566            }
;;;567            case set_59:
;;;568            {
;;;569                hItem = WM_GetDialogItem(hWinsysinfo, ID_TEXT_110);
;;;570                TEXT_SetBkColor(hItem,GUI_INVALID_COLOR);
;;;571                TEXT_SetTextColor(hItem, 0x00BFFFFF);
;;;572                
;;;573                hItem = WM_GetDialogItem(hWinsysinfo, ID_TEXT_111);
;;;574                TEXT_SetBkColor(hItem,0x00BFFFFF);
;;;575                TEXT_SetTextColor(hItem, GUI_BLACK);
;;;576                
;;;577                info_set = set_60;
;;;578                break;
;;;579            }
;;;580            case set_60:
;;;581            {
;;;582                hItem = WM_GetDialogItem(hWinsysinfo, ID_TEXT_111);
;;;583                TEXT_SetBkColor(hItem,GUI_INVALID_COLOR);
;;;584                TEXT_SetTextColor(hItem, 0x00BFFFFF);
;;;585                
;;;586                hItem = WM_GetDialogItem(hWinsysinfo, ID_TEXT_112);
;;;587                TEXT_SetBkColor(hItem,0x00BFFFFF);
;;;588                TEXT_SetTextColor(hItem, GUI_BLACK);
;;;589                
;;;590                info_set = set_61;
;;;591                break;
;;;592            }
;;;593            case set_61:
;;;594            {
;;;595                hItem = WM_GetDialogItem(hWinsysinfo, ID_TEXT_112);
;;;596                TEXT_SetBkColor(hItem,GUI_INVALID_COLOR);
;;;597                TEXT_SetTextColor(hItem, 0x00BFFFFF);
;;;598                
;;;599                hItem = WM_GetDialogItem(hWinsysinfo, ID_TEXT_113);
;;;600                TEXT_SetBkColor(hItem,0x00BFFFFF);
;;;601                TEXT_SetTextColor(hItem, GUI_BLACK);
;;;602                
;;;603                info_set = set_62;
;;;604                break;
;;;605            }
;;;606        }
;;;607        
;;;608    }
00007a  e8bd9ff0          POP      {r4-r12,pc}
00007e  4639              MOV      r1,r7                 ;413
000080  4dde              LDR      r5,|L8.1020|
000082  f7fffffe          BL       WM_GetDialogItem
000086  4606              MOV      r6,r0                 ;413
000088  f06f4170          MVN      r1,#0xf0000000        ;414
00008c  4630              MOV      r0,r6                 ;414
00008e  f7fffffe          BL       TEXT_SetBkColor
000092  4621              MOV      r1,r4                 ;415
000094  4630              MOV      r0,r6                 ;415
000096  f7fffffe          BL       TEXT_SetTextColor
00009a  4641              MOV      r1,r8                 ;417
00009c  69a8              LDR      r0,[r5,#0x18]         ;417  ; hWinsysinfo
00009e  f7fffffe          BL       WM_GetDialogItem
0000a2  4606              MOV      r6,r0                 ;417
0000a4  4621              MOV      r1,r4                 ;418
0000a6  4630              MOV      r0,r6                 ;418
0000a8  f7fffffe          BL       TEXT_SetBkColor
0000ac  2100              MOVS     r1,#0                 ;419
0000ae  4630              MOV      r0,r6                 ;419
0000b0  f7fffffe          BL       TEXT_SetTextColor
0000b4  2031              MOVS     r0,#0x31              ;421
0000b6  7028              STRB     r0,[r5,#0]            ;421
0000b8  e7df              B        |L8.122|
0000ba  4641              MOV      r1,r8                 ;426
0000bc  4dcf              LDR      r5,|L8.1020|
0000be  f7fffffe          BL       WM_GetDialogItem
0000c2  4606              MOV      r6,r0                 ;426
0000c4  f06f4170          MVN      r1,#0xf0000000        ;427
0000c8  4630              MOV      r0,r6                 ;427
0000ca  f7fffffe          BL       TEXT_SetBkColor
0000ce  4621              MOV      r1,r4                 ;428
0000d0  4630              MOV      r0,r6                 ;428
0000d2  f7fffffe          BL       TEXT_SetTextColor
0000d6  4649              MOV      r1,r9                 ;430
0000d8  69a8              LDR      r0,[r5,#0x18]         ;430  ; hWinsysinfo
0000da  f7fffffe          BL       WM_GetDialogItem
0000de  4606              MOV      r6,r0                 ;430
0000e0  4621              MOV      r1,r4                 ;431
0000e2  4630              MOV      r0,r6                 ;431
0000e4  f7fffffe          BL       TEXT_SetBkColor
0000e8  2100              MOVS     r1,#0                 ;432
0000ea  4630              MOV      r0,r6                 ;432
0000ec  f7fffffe          BL       TEXT_SetTextColor
0000f0  2032              MOVS     r0,#0x32              ;434
0000f2  7028              STRB     r0,[r5,#0]            ;434
0000f4  e7c1              B        |L8.122|
0000f6  4649              MOV      r1,r9                 ;439
0000f8  4dc0              LDR      r5,|L8.1020|
0000fa  f7fffffe          BL       WM_GetDialogItem
0000fe  4606              MOV      r6,r0                 ;439
000100  f06f4170          MVN      r1,#0xf0000000        ;440
000104  4630              MOV      r0,r6                 ;440
000106  f7fffffe          BL       TEXT_SetBkColor
00010a  4621              MOV      r1,r4                 ;441
00010c  4630              MOV      r0,r6                 ;441
00010e  f7fffffe          BL       TEXT_SetTextColor
000112  4651              MOV      r1,r10                ;443
000114  69a8              LDR      r0,[r5,#0x18]         ;443  ; hWinsysinfo
000116  f7fffffe          BL       WM_GetDialogItem
00011a  4606              MOV      r6,r0                 ;443
00011c  4621              MOV      r1,r4                 ;444
00011e  4630              MOV      r0,r6                 ;444
000120  f7fffffe          BL       TEXT_SetBkColor
000124  2100              MOVS     r1,#0                 ;445
000126  4630              MOV      r0,r6                 ;445
000128  f7fffffe          BL       TEXT_SetTextColor
00012c  2033              MOVS     r0,#0x33              ;447
00012e  7028              STRB     r0,[r5,#0]            ;447
000130  e7a3              B        |L8.122|
000132  4651              MOV      r1,r10                ;452
000134  4db1              LDR      r5,|L8.1020|
000136  f7fffffe          BL       WM_GetDialogItem
00013a  4606              MOV      r6,r0                 ;452
00013c  f06f4170          MVN      r1,#0xf0000000        ;453
000140  4630              MOV      r0,r6                 ;453
000142  f7fffffe          BL       TEXT_SetBkColor
000146  4621              MOV      r1,r4                 ;454
000148  4630              MOV      r0,r6                 ;454
00014a  f7fffffe          BL       TEXT_SetTextColor
00014e  4659              MOV      r1,r11                ;456
000150  69a8              LDR      r0,[r5,#0x18]         ;456  ; hWinsysinfo
000152  f7fffffe          BL       WM_GetDialogItem
000156  4606              MOV      r6,r0                 ;456
000158  4621              MOV      r1,r4                 ;457
00015a  4630              MOV      r0,r6                 ;457
00015c  f7fffffe          BL       TEXT_SetBkColor
000160  2100              MOVS     r1,#0                 ;458
000162  4630              MOV      r0,r6                 ;458
000164  f7fffffe          BL       TEXT_SetTextColor
000168  2034              MOVS     r0,#0x34              ;460
00016a  7028              STRB     r0,[r5,#0]            ;460
00016c  e785              B        |L8.122|
00016e  4659              MOV      r1,r11                ;465
000170  4da2              LDR      r5,|L8.1020|
000172  f7fffffe          BL       WM_GetDialogItem
000176  4606              MOV      r6,r0                 ;465
000178  f06f4170          MVN      r1,#0xf0000000        ;466
00017c  4630              MOV      r0,r6                 ;466
00017e  f7fffffe          BL       TEXT_SetBkColor
000182  4621              MOV      r1,r4                 ;467
000184  4630              MOV      r0,r6                 ;467
000186  f7fffffe          BL       TEXT_SetTextColor
00018a  f44f6130          MOV      r1,#0xb00             ;469
00018e  69a8              LDR      r0,[r5,#0x18]         ;469  ; hWinsysinfo
000190  f7fffffe          BL       WM_GetDialogItem
000194  4606              MOV      r6,r0                 ;469
000196  4621              MOV      r1,r4                 ;470
000198  4630              MOV      r0,r6                 ;470
00019a  f7fffffe          BL       TEXT_SetBkColor
00019e  2100              MOVS     r1,#0                 ;471
0001a0  4630              MOV      r0,r6                 ;471
0001a2  f7fffffe          BL       TEXT_SetTextColor
0001a6  2035              MOVS     r0,#0x35              ;473
0001a8  7028              STRB     r0,[r5,#0]            ;473
0001aa  e766              B        |L8.122|
0001ac  f44f6130          MOV      r1,#0xb00             ;478
0001b0  4d92              LDR      r5,|L8.1020|
0001b2  f7fffffe          BL       WM_GetDialogItem
0001b6  4606              MOV      r6,r0                 ;478
0001b8  f06f4170          MVN      r1,#0xf0000000        ;479
0001bc  4630              MOV      r0,r6                 ;479
0001be  f7fffffe          BL       TEXT_SetBkColor
0001c2  4621              MOV      r1,r4                 ;480
0001c4  4630              MOV      r0,r6                 ;480
0001c6  f7fffffe          BL       TEXT_SetTextColor
0001ca  f6403101          MOV      r1,#0xb01             ;482
0001ce  69a8              LDR      r0,[r5,#0x18]         ;482  ; hWinsysinfo
0001d0  f7fffffe          BL       WM_GetDialogItem
0001d4  4606              MOV      r6,r0                 ;482
0001d6  4621              MOV      r1,r4                 ;483
0001d8  4630              MOV      r0,r6                 ;483
0001da  f7fffffe          BL       TEXT_SetBkColor
0001de  2100              MOVS     r1,#0                 ;484
0001e0  4630              MOV      r0,r6                 ;484
0001e2  f7fffffe          BL       TEXT_SetTextColor
0001e6  2036              MOVS     r0,#0x36              ;486
0001e8  7028              STRB     r0,[r5,#0]            ;486
0001ea  e746              B        |L8.122|
0001ec  f6403101          MOV      r1,#0xb01             ;491
0001f0  4e82              LDR      r6,|L8.1020|
0001f2  f7fffffe          BL       WM_GetDialogItem
0001f6  4607              MOV      r7,r0                 ;491
0001f8  f06f4170          MVN      r1,#0xf0000000        ;492
0001fc  4638              MOV      r0,r7                 ;492
0001fe  f7fffffe          BL       TEXT_SetBkColor
000202  4621              MOV      r1,r4                 ;493
000204  4638              MOV      r0,r7                 ;493
000206  f7fffffe          BL       TEXT_SetTextColor
00020a  4629              MOV      r1,r5                 ;495
00020c  69b0              LDR      r0,[r6,#0x18]         ;495  ; hWinsysinfo
00020e  f7fffffe          BL       WM_GetDialogItem
000212  4605              MOV      r5,r0                 ;495
000214  4621              MOV      r1,r4                 ;496
000216  4628              MOV      r0,r5                 ;496
000218  e007              B        |L8.554|
00021a  e02e              B        |L8.634|
00021c  e00e              B        |L8.572|
00021e  e0f1              B        |L8.1028|
000220  e0cb              B        |L8.954|
000222  e0aa              B        |L8.890|
000224  e089              B        |L8.826|
000226  e068              B        |L8.762|
000228  e047              B        |L8.698|
                  |L8.554|
00022a  f7fffffe          BL       TEXT_SetBkColor
00022e  2100              MOVS     r1,#0                 ;497
000230  4628              MOV      r0,r5                 ;497
000232  f7fffffe          BL       TEXT_SetTextColor
000236  202f              MOVS     r0,#0x2f              ;499
000238  7030              STRB     r0,[r6,#0]            ;499
00023a  e71e              B        |L8.122|
                  |L8.572|
00023c  4631              MOV      r1,r6                 ;504
00023e  4d6f              LDR      r5,|L8.1020|
000240  f7fffffe          BL       WM_GetDialogItem
000244  4606              MOV      r6,r0                 ;504
000246  f06f4170          MVN      r1,#0xf0000000        ;505
00024a  4630              MOV      r0,r6                 ;505
00024c  f7fffffe          BL       TEXT_SetBkColor
000250  4621              MOV      r1,r4                 ;506
000252  4630              MOV      r0,r6                 ;506
000254  f7fffffe          BL       TEXT_SetTextColor
000258  f6403109          MOV      r1,#0xb09             ;508
00025c  69a8              LDR      r0,[r5,#0x18]         ;508  ; hWinsysinfo
00025e  f7fffffe          BL       WM_GetDialogItem
000262  4606              MOV      r6,r0                 ;508
000264  4621              MOV      r1,r4                 ;509
000266  4630              MOV      r0,r6                 ;509
000268  f7fffffe          BL       TEXT_SetBkColor
00026c  2100              MOVS     r1,#0                 ;510
00026e  4630              MOV      r0,r6                 ;510
000270  f7fffffe          BL       TEXT_SetTextColor
000274  203e              MOVS     r0,#0x3e              ;512
000276  7028              STRB     r0,[r5,#0]            ;512
000278  e6ff              B        |L8.122|
                  |L8.634|
00027a  f6403109          MOV      r1,#0xb09             ;517
00027e  4d5f              LDR      r5,|L8.1020|
000280  f7fffffe          BL       WM_GetDialogItem
000284  4606              MOV      r6,r0                 ;517
000286  f06f4170          MVN      r1,#0xf0000000        ;518
00028a  4630              MOV      r0,r6                 ;518
00028c  f7fffffe          BL       TEXT_SetBkColor
000290  4621              MOV      r1,r4                 ;519
000292  4630              MOV      r0,r6                 ;519
000294  f7fffffe          BL       TEXT_SetTextColor
000298  f6403102          MOV      r1,#0xb02             ;521
00029c  69a8              LDR      r0,[r5,#0x18]         ;521  ; hWinsysinfo
00029e  f7fffffe          BL       WM_GetDialogItem
0002a2  4606              MOV      r6,r0                 ;521
0002a4  4621              MOV      r1,r4                 ;522
0002a6  4630              MOV      r0,r6                 ;522
0002a8  f7fffffe          BL       TEXT_SetBkColor
0002ac  2100              MOVS     r1,#0                 ;523
0002ae  4630              MOV      r0,r6                 ;523
0002b0  f7fffffe          BL       TEXT_SetTextColor
0002b4  2037              MOVS     r0,#0x37              ;525
0002b6  7028              STRB     r0,[r5,#0]            ;525
0002b8  e6df              B        |L8.122|
                  |L8.698|
0002ba  f6403102          MOV      r1,#0xb02             ;530
0002be  4d4f              LDR      r5,|L8.1020|
0002c0  f7fffffe          BL       WM_GetDialogItem
0002c4  4606              MOV      r6,r0                 ;530
0002c6  f06f4170          MVN      r1,#0xf0000000        ;531
0002ca  4630              MOV      r0,r6                 ;531
0002cc  f7fffffe          BL       TEXT_SetBkColor
0002d0  4621              MOV      r1,r4                 ;532
0002d2  4630              MOV      r0,r6                 ;532
0002d4  f7fffffe          BL       TEXT_SetTextColor
0002d8  f6403103          MOV      r1,#0xb03             ;534
0002dc  69a8              LDR      r0,[r5,#0x18]         ;534  ; hWinsysinfo
0002de  f7fffffe          BL       WM_GetDialogItem
0002e2  4606              MOV      r6,r0                 ;534
0002e4  4621              MOV      r1,r4                 ;535
0002e6  4630              MOV      r0,r6                 ;535
0002e8  f7fffffe          BL       TEXT_SetBkColor
0002ec  2100              MOVS     r1,#0                 ;536
0002ee  4630              MOV      r0,r6                 ;536
0002f0  f7fffffe          BL       TEXT_SetTextColor
0002f4  2038              MOVS     r0,#0x38              ;538
0002f6  7028              STRB     r0,[r5,#0]            ;538
0002f8  e6bf              B        |L8.122|
                  |L8.762|
0002fa  f6403103          MOV      r1,#0xb03             ;543
0002fe  4d3f              LDR      r5,|L8.1020|
000300  f7fffffe          BL       WM_GetDialogItem
000304  4606              MOV      r6,r0                 ;543
000306  f06f4170          MVN      r1,#0xf0000000        ;544
00030a  4630              MOV      r0,r6                 ;544
00030c  f7fffffe          BL       TEXT_SetBkColor
000310  4621              MOV      r1,r4                 ;545
000312  4630              MOV      r0,r6                 ;545
000314  f7fffffe          BL       TEXT_SetTextColor
000318  f6403104          MOV      r1,#0xb04             ;547
00031c  69a8              LDR      r0,[r5,#0x18]         ;547  ; hWinsysinfo
00031e  f7fffffe          BL       WM_GetDialogItem
000322  4606              MOV      r6,r0                 ;547
000324  4621              MOV      r1,r4                 ;548
000326  4630              MOV      r0,r6                 ;548
000328  f7fffffe          BL       TEXT_SetBkColor
00032c  2100              MOVS     r1,#0                 ;549
00032e  4630              MOV      r0,r6                 ;549
000330  f7fffffe          BL       TEXT_SetTextColor
000334  2039              MOVS     r0,#0x39              ;551
000336  7028              STRB     r0,[r5,#0]            ;551
000338  e69f              B        |L8.122|
                  |L8.826|
00033a  f6403104          MOV      r1,#0xb04             ;556
00033e  4d2f              LDR      r5,|L8.1020|
000340  f7fffffe          BL       WM_GetDialogItem
000344  4606              MOV      r6,r0                 ;556
000346  f06f4170          MVN      r1,#0xf0000000        ;557
00034a  4630              MOV      r0,r6                 ;557
00034c  f7fffffe          BL       TEXT_SetBkColor
000350  4621              MOV      r1,r4                 ;558
000352  4630              MOV      r0,r6                 ;558
000354  f7fffffe          BL       TEXT_SetTextColor
000358  f6403105          MOV      r1,#0xb05             ;560
00035c  69a8              LDR      r0,[r5,#0x18]         ;560  ; hWinsysinfo
00035e  f7fffffe          BL       WM_GetDialogItem
000362  4606              MOV      r6,r0                 ;560
000364  4621              MOV      r1,r4                 ;561
000366  4630              MOV      r0,r6                 ;561
000368  f7fffffe          BL       TEXT_SetBkColor
00036c  2100              MOVS     r1,#0                 ;562
00036e  4630              MOV      r0,r6                 ;562
000370  f7fffffe          BL       TEXT_SetTextColor
000374  203a              MOVS     r0,#0x3a              ;564
000376  7028              STRB     r0,[r5,#0]            ;564
000378  e67f              B        |L8.122|
                  |L8.890|
00037a  f6403105          MOV      r1,#0xb05             ;569
00037e  4d1f              LDR      r5,|L8.1020|
000380  f7fffffe          BL       WM_GetDialogItem
000384  4606              MOV      r6,r0                 ;569
000386  f06f4170          MVN      r1,#0xf0000000        ;570
00038a  4630              MOV      r0,r6                 ;570
00038c  f7fffffe          BL       TEXT_SetBkColor
000390  4621              MOV      r1,r4                 ;571
000392  4630              MOV      r0,r6                 ;571
000394  f7fffffe          BL       TEXT_SetTextColor
000398  f6403106          MOV      r1,#0xb06             ;573
00039c  69a8              LDR      r0,[r5,#0x18]         ;573  ; hWinsysinfo
00039e  f7fffffe          BL       WM_GetDialogItem
0003a2  4606              MOV      r6,r0                 ;573
0003a4  4621              MOV      r1,r4                 ;574
0003a6  4630              MOV      r0,r6                 ;574
0003a8  f7fffffe          BL       TEXT_SetBkColor
0003ac  2100              MOVS     r1,#0                 ;575
0003ae  4630              MOV      r0,r6                 ;575
0003b0  f7fffffe          BL       TEXT_SetTextColor
0003b4  203b              MOVS     r0,#0x3b              ;577
0003b6  7028              STRB     r0,[r5,#0]            ;577
0003b8  e65f              B        |L8.122|
                  |L8.954|
0003ba  f6403106          MOV      r1,#0xb06             ;582
0003be  4d0f              LDR      r5,|L8.1020|
0003c0  f7fffffe          BL       WM_GetDialogItem
0003c4  4606              MOV      r6,r0                 ;582
0003c6  f06f4170          MVN      r1,#0xf0000000        ;583
0003ca  4630              MOV      r0,r6                 ;583
0003cc  f7fffffe          BL       TEXT_SetBkColor
0003d0  4621              MOV      r1,r4                 ;584
0003d2  4630              MOV      r0,r6                 ;584
0003d4  f7fffffe          BL       TEXT_SetTextColor
0003d8  f6403107          MOV      r1,#0xb07             ;586
0003dc  69a8              LDR      r0,[r5,#0x18]         ;586  ; hWinsysinfo
0003de  f7fffffe          BL       WM_GetDialogItem
0003e2  4606              MOV      r6,r0                 ;586
0003e4  4621              MOV      r1,r4                 ;587
0003e6  4630              MOV      r0,r6                 ;587
0003e8  f7fffffe          BL       TEXT_SetBkColor
0003ec  2100              MOVS     r1,#0                 ;588
0003ee  4630              MOV      r0,r6                 ;588
0003f0  f7fffffe          BL       TEXT_SetTextColor
0003f4  203c              MOVS     r0,#0x3c              ;590
0003f6  7028              STRB     r0,[r5,#0]            ;590
0003f8  e63f              B        |L8.122|
0003fa  0000              DCW      0x0000
                  |L8.1020|
                          DCD      ||.data||
                  |L8.1024|
                          DCD      0x00bfffff
                  |L8.1028|
000404  f6403107          MOV      r1,#0xb07             ;595
000408  4d0e              LDR      r5,|L8.1092|
00040a  f7fffffe          BL       WM_GetDialogItem
00040e  4607              MOV      r7,r0                 ;595
000410  f06f4170          MVN      r1,#0xf0000000        ;596
000414  4638              MOV      r0,r7                 ;596
000416  f7fffffe          BL       TEXT_SetBkColor
00041a  4621              MOV      r1,r4                 ;597
00041c  4638              MOV      r0,r7                 ;597
00041e  f7fffffe          BL       TEXT_SetTextColor
000422  4631              MOV      r1,r6                 ;599
000424  69a8              LDR      r0,[r5,#0x18]         ;599  ; hWinsysinfo
000426  f7fffffe          BL       WM_GetDialogItem
00042a  4606              MOV      r6,r0                 ;599
00042c  4621              MOV      r1,r4                 ;600
00042e  4630              MOV      r0,r6                 ;600
000430  f7fffffe          BL       TEXT_SetBkColor
000434  2100              MOVS     r1,#0                 ;601
000436  4630              MOV      r0,r6                 ;601
000438  f7fffffe          BL       TEXT_SetTextColor
00043c  203d              MOVS     r0,#0x3d              ;603
00043e  7028              STRB     r0,[r5,#0]            ;603
000440  e61b              B        |L8.122|
;;;609    
                          ENDP

000442  0000              DCW      0x0000
                  |L8.1092|
                          DCD      ||.data||

                          AREA ||i.SYS_INFO_UP||, CODE, READONLY, ALIGN=2

                  SYS_INFO_UP PROC
;;;830    void SYS_INFO_UP(void);
;;;831    void SYS_INFO_UP(void)
000000  e92d47f0          PUSH     {r4-r10,lr}
;;;832    {
;;;833        WM_HWIN hItem;
;;;834        switch(info_set)
000004  4cf0              LDR      r4,|L9.968|
000006  7821              LDRB     r1,[r4,#0]  ; info_set
000008  4620              MOV      r0,r4
00000a  392f              SUBS     r1,r1,#0x2f
;;;835        {
;;;836            case set_48:
;;;837            {
;;;838                hItem = WM_GetDialogItem(hWinsysinfo, ID_TEXT_99);
;;;839                TEXT_SetBkColor(hItem,GUI_INVALID_COLOR);
;;;840                TEXT_SetTextColor(hItem, 0x00BFFFFF);
00000c  4def              LDR      r5,|L9.972|
;;;841                
;;;842                hItem = WM_GetDialogItem(hWinsysinfo, ID_TEXT_113);
;;;843                TEXT_SetBkColor(hItem,0x00BFFFFF);
;;;844                TEXT_SetTextColor(hItem, GUI_BLACK);
;;;845                
;;;846                info_set = set_62;
00000e  263d              MOVS     r6,#0x3d
;;;847                break;
;;;848            }
;;;849            case set_49:
;;;850            {
;;;851                hItem = WM_GetDialogItem(hWinsysinfo, ID_TEXT_100);
;;;852                TEXT_SetBkColor(hItem,GUI_INVALID_COLOR);
;;;853                TEXT_SetTextColor(hItem, 0x00BFFFFF);
;;;854                
;;;855                hItem = WM_GetDialogItem(hWinsysinfo, ID_TEXT_113);
;;;856                TEXT_SetBkColor(hItem,0x00BFFFFF);
;;;857                TEXT_SetTextColor(hItem, GUI_BLACK);
;;;858                
;;;859                info_set = set_62;
;;;860                break;
;;;861            }
;;;862            case set_50:
;;;863            {
;;;864                hItem = WM_GetDialogItem(hWinsysinfo, ID_TEXT_101);
;;;865                TEXT_SetBkColor(hItem,GUI_INVALID_COLOR);
;;;866                TEXT_SetTextColor(hItem, 0x00BFFFFF);
;;;867                
;;;868                hItem = WM_GetDialogItem(hWinsysinfo, ID_TEXT_113);
;;;869                TEXT_SetBkColor(hItem,0x00BFFFFF);
;;;870                TEXT_SetTextColor(hItem, GUI_BLACK);
;;;871                
;;;872                info_set = set_62;
;;;873                break;
;;;874            }
;;;875            case set_51:
;;;876            {
;;;877                hItem = WM_GetDialogItem(hWinsysinfo, ID_TEXT_102);
;;;878                TEXT_SetBkColor(hItem,GUI_INVALID_COLOR);
;;;879                TEXT_SetTextColor(hItem, 0x00BFFFFF);
;;;880                
;;;881                hItem = WM_GetDialogItem(hWinsysinfo, ID_TEXT_113);
;;;882                TEXT_SetBkColor(hItem,0x00BFFFFF);
;;;883                TEXT_SetTextColor(hItem, GUI_BLACK);
;;;884                
;;;885                info_set = set_62;
;;;886                break;
;;;887            }
;;;888            case set_52:
;;;889            {
;;;890                hItem = WM_GetDialogItem(hWinsysinfo, ID_TEXT_103);
;;;891                TEXT_SetBkColor(hItem,GUI_INVALID_COLOR);
;;;892                TEXT_SetTextColor(hItem, 0x00BFFFFF);
;;;893                
;;;894                hItem = WM_GetDialogItem(hWinsysinfo, ID_TEXT_113);
;;;895                TEXT_SetBkColor(hItem,0x00BFFFFF);
;;;896                TEXT_SetTextColor(hItem, GUI_BLACK);
;;;897                
;;;898                info_set = set_62;
;;;899                break;
;;;900            }
;;;901            case set_53:
;;;902            {
;;;903                hItem = WM_GetDialogItem(hWinsysinfo, ID_TEXT_104);
;;;904                TEXT_SetBkColor(hItem,GUI_INVALID_COLOR);
;;;905                TEXT_SetTextColor(hItem, 0x00BFFFFF);
;;;906                
;;;907                hItem = WM_GetDialogItem(hWinsysinfo, ID_TEXT_113);
;;;908                TEXT_SetBkColor(hItem,0x00BFFFFF);
;;;909                TEXT_SetTextColor(hItem, GUI_BLACK);
;;;910                
;;;911                info_set = set_62;
;;;912                break;
;;;913            }
;;;914            case set_54:
;;;915            {
;;;916                hItem = WM_GetDialogItem(hWinsysinfo, ID_TEXT_105);
;;;917                TEXT_SetBkColor(hItem,GUI_INVALID_COLOR);
;;;918                TEXT_SetTextColor(hItem, 0x00BFFFFF);
;;;919                
;;;920                hItem = WM_GetDialogItem(hWinsysinfo, ID_TEXT_113);
;;;921                TEXT_SetBkColor(hItem,0x00BFFFFF);
;;;922                TEXT_SetTextColor(hItem, GUI_BLACK);
;;;923                
;;;924                info_set = set_62;
;;;925                break;
;;;926            }
;;;927            case set_55:
;;;928            {
;;;929                hItem = WM_GetDialogItem(hWinsysinfo, ID_TEXT_106);
;;;930                TEXT_SetBkColor(hItem,GUI_INVALID_COLOR);
;;;931                TEXT_SetTextColor(hItem, 0x00BFFFFF);
;;;932                
;;;933                hItem = WM_GetDialogItem(hWinsysinfo, ID_TEXT_113);
;;;934                TEXT_SetBkColor(hItem,0x00BFFFFF);
;;;935                TEXT_SetTextColor(hItem, GUI_BLACK);
;;;936                
;;;937                info_set = set_62;
;;;938                break;
;;;939            }
;;;940            case set_56:
;;;941            {
;;;942                hItem = WM_GetDialogItem(hWinsysinfo, ID_TEXT_107);
;;;943                TEXT_SetBkColor(hItem,GUI_INVALID_COLOR);
;;;944                TEXT_SetTextColor(hItem, 0x00BFFFFF);
;;;945                
;;;946                hItem = WM_GetDialogItem(hWinsysinfo, ID_TEXT_99);
;;;947                TEXT_SetBkColor(hItem,0x00BFFFFF);
;;;948                TEXT_SetTextColor(hItem, GUI_BLACK);
;;;949                
;;;950                info_set = set_48;
000010  272f              MOVS     r7,#0x2f
000012  6980              LDR      r0,[r0,#0x18]         ;838
000014  f6400a99          MOV      r10,#0x899            ;838
000018  f06f4870          MVN      r8,#0xf0000000        ;839
00001c  f6403908          MOV      r9,#0xb08             ;842
000020  2910              CMP      r1,#0x10              ;834
000022  d223              BCS      |L9.108|
000024  e8dff001          TBB      [pc,r1]               ;834
000028  0824405c          DCB      0x08,0x24,0x40,0x5c
00002c  7894b0cc          DCB      0x78,0x94,0xb0,0xcc
000030  f0eeedec          DCB      0xf0,0xee,0xed,0xec
000034  ebeae9e8          DCB      0xeb,0xea,0xe9,0xe8
000038  4651              MOV      r1,r10                ;838
00003a  f7fffffe          BL       WM_GetDialogItem
00003e  4607              MOV      r7,r0                 ;838
000040  4641              MOV      r1,r8                 ;839
000042  4638              MOV      r0,r7                 ;839
000044  f7fffffe          BL       TEXT_SetBkColor
000048  4629              MOV      r1,r5                 ;840
00004a  4638              MOV      r0,r7                 ;840
00004c  f7fffffe          BL       TEXT_SetTextColor
000050  4649              MOV      r1,r9                 ;842
000052  69a0              LDR      r0,[r4,#0x18]         ;842  ; hWinsysinfo
000054  f7fffffe          BL       WM_GetDialogItem
000058  4607              MOV      r7,r0                 ;842
00005a  4629              MOV      r1,r5                 ;843
00005c  4638              MOV      r0,r7                 ;843
00005e  f7fffffe          BL       TEXT_SetBkColor
000062  2100              MOVS     r1,#0                 ;844
000064  4638              MOV      r0,r7                 ;844
000066  f7fffffe          BL       TEXT_SetTextColor
00006a  7026              STRB     r6,[r4,#0]            ;846
                  |L9.108|
;;;951                break;
;;;952            }
;;;953            case set_62:
;;;954            {
;;;955                hItem = WM_GetDialogItem(hWinsysinfo, ID_TEXT_113);
;;;956                TEXT_SetBkColor(hItem,GUI_INVALID_COLOR);
;;;957                TEXT_SetTextColor(hItem, 0x00BFFFFF);
;;;958                
;;;959                hItem = WM_GetDialogItem(hWinsysinfo, ID_TEXT_99);
;;;960                TEXT_SetBkColor(hItem,0x00BFFFFF);
;;;961                TEXT_SetTextColor(hItem, GUI_BLACK);
;;;962                
;;;963                info_set = set_48;
;;;964                break;
;;;965            }
;;;966            case set_63:
;;;967            {
;;;968                hItem = WM_GetDialogItem(hWinsysinfo, ID_TEXT_114);
;;;969                TEXT_SetBkColor(hItem,GUI_INVALID_COLOR);
;;;970                TEXT_SetTextColor(hItem, 0x00BFFFFF);
;;;971                
;;;972                hItem = WM_GetDialogItem(hWinsysinfo, ID_TEXT_99);
;;;973                TEXT_SetBkColor(hItem,0x00BFFFFF);
;;;974                TEXT_SetTextColor(hItem, GUI_BLACK);
;;;975                
;;;976                info_set = set_48;
;;;977                break;
;;;978            }
;;;979            case set_57:
;;;980            {
;;;981                hItem = WM_GetDialogItem(hWinsysinfo, ID_TEXT_108);
;;;982                TEXT_SetBkColor(hItem,GUI_INVALID_COLOR);
;;;983                TEXT_SetTextColor(hItem, 0x00BFFFFF);
;;;984                
;;;985                hItem = WM_GetDialogItem(hWinsysinfo, ID_TEXT_99);
;;;986                TEXT_SetBkColor(hItem,0x00BFFFFF);
;;;987                TEXT_SetTextColor(hItem, GUI_BLACK);
;;;988                
;;;989                info_set = set_48;
;;;990                break;
;;;991            }
;;;992            case set_58:
;;;993            {
;;;994                hItem = WM_GetDialogItem(hWinsysinfo, ID_TEXT_109);
;;;995                TEXT_SetBkColor(hItem,GUI_INVALID_COLOR);
;;;996                TEXT_SetTextColor(hItem, 0x00BFFFFF);
;;;997                
;;;998                hItem = WM_GetDialogItem(hWinsysinfo, ID_TEXT_99);
;;;999                TEXT_SetBkColor(hItem,0x00BFFFFF);
;;;1000               TEXT_SetTextColor(hItem, GUI_BLACK);
;;;1001               
;;;1002               info_set = set_48;
;;;1003               break;
;;;1004           }
;;;1005           case set_59:
;;;1006           {
;;;1007               hItem = WM_GetDialogItem(hWinsysinfo, ID_TEXT_110);
;;;1008               TEXT_SetBkColor(hItem,GUI_INVALID_COLOR);
;;;1009               TEXT_SetTextColor(hItem, 0x00BFFFFF);
;;;1010               
;;;1011               hItem = WM_GetDialogItem(hWinsysinfo, ID_TEXT_99);
;;;1012               TEXT_SetBkColor(hItem,0x00BFFFFF);
;;;1013               TEXT_SetTextColor(hItem, GUI_BLACK);
;;;1014               
;;;1015               info_set = set_48;
;;;1016               break;
;;;1017           }
;;;1018           case set_60:
;;;1019           {
;;;1020               hItem = WM_GetDialogItem(hWinsysinfo, ID_TEXT_111);
;;;1021               TEXT_SetBkColor(hItem,GUI_INVALID_COLOR);
;;;1022               TEXT_SetTextColor(hItem, 0x00BFFFFF);
;;;1023               
;;;1024               hItem = WM_GetDialogItem(hWinsysinfo, ID_TEXT_99);
;;;1025               TEXT_SetBkColor(hItem,0x00BFFFFF);
;;;1026               TEXT_SetTextColor(hItem, GUI_BLACK);
;;;1027               
;;;1028               info_set = set_48;
;;;1029               break;
;;;1030           }
;;;1031           case set_61:
;;;1032           {
;;;1033               hItem = WM_GetDialogItem(hWinsysinfo, ID_TEXT_112);
;;;1034               TEXT_SetBkColor(hItem,GUI_INVALID_COLOR);
;;;1035               TEXT_SetTextColor(hItem, 0x00BFFFFF);
;;;1036               
;;;1037               hItem = WM_GetDialogItem(hWinsysinfo, ID_TEXT_99);
;;;1038               TEXT_SetBkColor(hItem,0x00BFFFFF);
;;;1039               TEXT_SetTextColor(hItem, GUI_BLACK);
;;;1040               
;;;1041               info_set = set_48;
;;;1042               break;
;;;1043           }
;;;1044       }
;;;1045       
;;;1046   }
00006c  e8bd87f0          POP      {r4-r10,pc}
000070  f640019a          MOV      r1,#0x89a             ;851
000074  f7fffffe          BL       WM_GetDialogItem
000078  4607              MOV      r7,r0                 ;851
00007a  4641              MOV      r1,r8                 ;852
00007c  4638              MOV      r0,r7                 ;852
00007e  f7fffffe          BL       TEXT_SetBkColor
000082  4629              MOV      r1,r5                 ;853
000084  4638              MOV      r0,r7                 ;853
000086  f7fffffe          BL       TEXT_SetTextColor
00008a  4649              MOV      r1,r9                 ;855
00008c  69a0              LDR      r0,[r4,#0x18]         ;855  ; hWinsysinfo
00008e  f7fffffe          BL       WM_GetDialogItem
000092  4607              MOV      r7,r0                 ;855
000094  4629              MOV      r1,r5                 ;856
000096  4638              MOV      r0,r7                 ;856
000098  f7fffffe          BL       TEXT_SetBkColor
00009c  2100              MOVS     r1,#0                 ;857
00009e  4638              MOV      r0,r7                 ;857
0000a0  f7fffffe          BL       TEXT_SetTextColor
0000a4  7026              STRB     r6,[r4,#0]            ;859
0000a6  e7e1              B        |L9.108|
0000a8  f640019b          MOV      r1,#0x89b             ;864
0000ac  f7fffffe          BL       WM_GetDialogItem
0000b0  4607              MOV      r7,r0                 ;864
0000b2  4641              MOV      r1,r8                 ;865
0000b4  4638              MOV      r0,r7                 ;865
0000b6  f7fffffe          BL       TEXT_SetBkColor
0000ba  4629              MOV      r1,r5                 ;866
0000bc  4638              MOV      r0,r7                 ;866
0000be  f7fffffe          BL       TEXT_SetTextColor
0000c2  4649              MOV      r1,r9                 ;868
0000c4  69a0              LDR      r0,[r4,#0x18]         ;868  ; hWinsysinfo
0000c6  f7fffffe          BL       WM_GetDialogItem
0000ca  4607              MOV      r7,r0                 ;868
0000cc  4629              MOV      r1,r5                 ;869
0000ce  4638              MOV      r0,r7                 ;869
0000d0  f7fffffe          BL       TEXT_SetBkColor
0000d4  2100              MOVS     r1,#0                 ;870
0000d6  4638              MOV      r0,r7                 ;870
0000d8  f7fffffe          BL       TEXT_SetTextColor
0000dc  7026              STRB     r6,[r4,#0]            ;872
0000de  e7c5              B        |L9.108|
0000e0  f640019c          MOV      r1,#0x89c             ;877
0000e4  f7fffffe          BL       WM_GetDialogItem
0000e8  4607              MOV      r7,r0                 ;877
0000ea  4641              MOV      r1,r8                 ;878
0000ec  4638              MOV      r0,r7                 ;878
0000ee  f7fffffe          BL       TEXT_SetBkColor
0000f2  4629              MOV      r1,r5                 ;879
0000f4  4638              MOV      r0,r7                 ;879
0000f6  f7fffffe          BL       TEXT_SetTextColor
0000fa  4649              MOV      r1,r9                 ;881
0000fc  69a0              LDR      r0,[r4,#0x18]         ;881  ; hWinsysinfo
0000fe  f7fffffe          BL       WM_GetDialogItem
000102  4607              MOV      r7,r0                 ;881
000104  4629              MOV      r1,r5                 ;882
000106  4638              MOV      r0,r7                 ;882
000108  f7fffffe          BL       TEXT_SetBkColor
00010c  2100              MOVS     r1,#0                 ;883
00010e  4638              MOV      r0,r7                 ;883
000110  f7fffffe          BL       TEXT_SetTextColor
000114  7026              STRB     r6,[r4,#0]            ;885
000116  e7a9              B        |L9.108|
000118  f640019d          MOV      r1,#0x89d             ;890
00011c  f7fffffe          BL       WM_GetDialogItem
000120  4607              MOV      r7,r0                 ;890
000122  4641              MOV      r1,r8                 ;891
000124  4638              MOV      r0,r7                 ;891
000126  f7fffffe          BL       TEXT_SetBkColor
00012a  4629              MOV      r1,r5                 ;892
00012c  4638              MOV      r0,r7                 ;892
00012e  f7fffffe          BL       TEXT_SetTextColor
000132  4649              MOV      r1,r9                 ;894
000134  69a0              LDR      r0,[r4,#0x18]         ;894  ; hWinsysinfo
000136  f7fffffe          BL       WM_GetDialogItem
00013a  4607              MOV      r7,r0                 ;894
00013c  4629              MOV      r1,r5                 ;895
00013e  4638              MOV      r0,r7                 ;895
000140  f7fffffe          BL       TEXT_SetBkColor
000144  2100              MOVS     r1,#0                 ;896
000146  4638              MOV      r0,r7                 ;896
000148  f7fffffe          BL       TEXT_SetTextColor
00014c  7026              STRB     r6,[r4,#0]            ;898
00014e  e78d              B        |L9.108|
000150  f640019e          MOV      r1,#0x89e             ;903
000154  f7fffffe          BL       WM_GetDialogItem
000158  4607              MOV      r7,r0                 ;903
00015a  4641              MOV      r1,r8                 ;904
00015c  4638              MOV      r0,r7                 ;904
00015e  f7fffffe          BL       TEXT_SetBkColor
000162  4629              MOV      r1,r5                 ;905
000164  4638              MOV      r0,r7                 ;905
000166  f7fffffe          BL       TEXT_SetTextColor
00016a  4649              MOV      r1,r9                 ;907
00016c  69a0              LDR      r0,[r4,#0x18]         ;907  ; hWinsysinfo
00016e  f7fffffe          BL       WM_GetDialogItem
000172  4607              MOV      r7,r0                 ;907
000174  4629              MOV      r1,r5                 ;908
000176  4638              MOV      r0,r7                 ;908
000178  f7fffffe          BL       TEXT_SetBkColor
00017c  2100              MOVS     r1,#0                 ;909
00017e  4638              MOV      r0,r7                 ;909
000180  f7fffffe          BL       TEXT_SetTextColor
000184  7026              STRB     r6,[r4,#0]            ;911
000186  e771              B        |L9.108|
000188  f44f6130          MOV      r1,#0xb00             ;916
00018c  f7fffffe          BL       WM_GetDialogItem
000190  4607              MOV      r7,r0                 ;916
000192  4641              MOV      r1,r8                 ;917
000194  4638              MOV      r0,r7                 ;917
000196  f7fffffe          BL       TEXT_SetBkColor
00019a  4629              MOV      r1,r5                 ;918
00019c  4638              MOV      r0,r7                 ;918
00019e  f7fffffe          BL       TEXT_SetTextColor
0001a2  4649              MOV      r1,r9                 ;920
0001a4  69a0              LDR      r0,[r4,#0x18]         ;920  ; hWinsysinfo
0001a6  f7fffffe          BL       WM_GetDialogItem
0001aa  4607              MOV      r7,r0                 ;920
0001ac  4629              MOV      r1,r5                 ;921
0001ae  4638              MOV      r0,r7                 ;921
0001b0  f7fffffe          BL       TEXT_SetBkColor
0001b4  2100              MOVS     r1,#0                 ;922
0001b6  4638              MOV      r0,r7                 ;922
0001b8  f7fffffe          BL       TEXT_SetTextColor
0001bc  7026              STRB     r6,[r4,#0]            ;924
0001be  e755              B        |L9.108|
0001c0  f6403101          MOV      r1,#0xb01             ;929
0001c4  f7fffffe          BL       WM_GetDialogItem
0001c8  4607              MOV      r7,r0                 ;929
0001ca  4641              MOV      r1,r8                 ;930
0001cc  4638              MOV      r0,r7                 ;930
0001ce  f7fffffe          BL       TEXT_SetBkColor
0001d2  4629              MOV      r1,r5                 ;931
0001d4  4638              MOV      r0,r7                 ;931
0001d6  f7fffffe          BL       TEXT_SetTextColor
0001da  4649              MOV      r1,r9                 ;933
0001dc  69a0              LDR      r0,[r4,#0x18]         ;933  ; hWinsysinfo
0001de  f7fffffe          BL       WM_GetDialogItem
0001e2  4607              MOV      r7,r0                 ;933
0001e4  4629              MOV      r1,r5                 ;934
0001e6  4638              MOV      r0,r7                 ;934
0001e8  f7fffffe          BL       TEXT_SetBkColor
0001ec  2100              MOVS     r1,#0                 ;935
0001ee  4638              MOV      r0,r7                 ;935
0001f0  f7fffffe          BL       TEXT_SetTextColor
0001f4  7026              STRB     r6,[r4,#0]            ;937
0001f6  e739              B        |L9.108|
0001f8  e03d              B        |L9.630|
0001fa  e021              B        |L9.576|
0001fc  e0c7              B        |L9.910|
0001fe  e0aa              B        |L9.854|
000200  e08d              B        |L9.798|
000202  e070              B        |L9.742|
000204  e053              B        |L9.686|
000206  e7ff              B        |L9.520|
                  |L9.520|
000208  f6403102          MOV      r1,#0xb02             ;942
00020c  f7fffffe          BL       WM_GetDialogItem
000210  4606              MOV      r6,r0                 ;942
000212  4641              MOV      r1,r8                 ;943
000214  4630              MOV      r0,r6                 ;943
000216  f7fffffe          BL       TEXT_SetBkColor
00021a  4629              MOV      r1,r5                 ;944
00021c  4630              MOV      r0,r6                 ;944
00021e  f7fffffe          BL       TEXT_SetTextColor
000222  4651              MOV      r1,r10                ;946
000224  69a0              LDR      r0,[r4,#0x18]         ;946  ; hWinsysinfo
000226  f7fffffe          BL       WM_GetDialogItem
00022a  4606              MOV      r6,r0                 ;946
00022c  4629              MOV      r1,r5                 ;947
00022e  4630              MOV      r0,r6                 ;947
000230  f7fffffe          BL       TEXT_SetBkColor
000234  2100              MOVS     r1,#0                 ;948
000236  4630              MOV      r0,r6                 ;948
000238  f7fffffe          BL       TEXT_SetTextColor
00023c  7027              STRB     r7,[r4,#0]            ;950
00023e  e715              B        |L9.108|
                  |L9.576|
000240  4649              MOV      r1,r9                 ;955
000242  f7fffffe          BL       WM_GetDialogItem
000246  4606              MOV      r6,r0                 ;955
000248  4641              MOV      r1,r8                 ;956
00024a  4630              MOV      r0,r6                 ;956
00024c  f7fffffe          BL       TEXT_SetBkColor
000250  4629              MOV      r1,r5                 ;957
000252  4630              MOV      r0,r6                 ;957
000254  f7fffffe          BL       TEXT_SetTextColor
000258  4651              MOV      r1,r10                ;959
00025a  69a0              LDR      r0,[r4,#0x18]         ;959  ; hWinsysinfo
00025c  f7fffffe          BL       WM_GetDialogItem
000260  4606              MOV      r6,r0                 ;959
000262  4629              MOV      r1,r5                 ;960
000264  4630              MOV      r0,r6                 ;960
000266  f7fffffe          BL       TEXT_SetBkColor
00026a  2100              MOVS     r1,#0                 ;961
00026c  4630              MOV      r0,r6                 ;961
00026e  f7fffffe          BL       TEXT_SetTextColor
000272  7027              STRB     r7,[r4,#0]            ;963
000274  e6fa              B        |L9.108|
                  |L9.630|
000276  f6403109          MOV      r1,#0xb09             ;968
00027a  f7fffffe          BL       WM_GetDialogItem
00027e  4606              MOV      r6,r0                 ;968
000280  4641              MOV      r1,r8                 ;969
000282  4630              MOV      r0,r6                 ;969
000284  f7fffffe          BL       TEXT_SetBkColor
000288  4629              MOV      r1,r5                 ;970
00028a  4630              MOV      r0,r6                 ;970
00028c  f7fffffe          BL       TEXT_SetTextColor
000290  4651              MOV      r1,r10                ;972
000292  69a0              LDR      r0,[r4,#0x18]         ;972  ; hWinsysinfo
000294  f7fffffe          BL       WM_GetDialogItem
000298  4606              MOV      r6,r0                 ;972
00029a  4629              MOV      r1,r5                 ;973
00029c  4630              MOV      r0,r6                 ;973
00029e  f7fffffe          BL       TEXT_SetBkColor
0002a2  2100              MOVS     r1,#0                 ;974
0002a4  4630              MOV      r0,r6                 ;974
0002a6  f7fffffe          BL       TEXT_SetTextColor
0002aa  7027              STRB     r7,[r4,#0]            ;976
0002ac  e6de              B        |L9.108|
                  |L9.686|
0002ae  f6403103          MOV      r1,#0xb03             ;981
0002b2  f7fffffe          BL       WM_GetDialogItem
0002b6  4606              MOV      r6,r0                 ;981
0002b8  4641              MOV      r1,r8                 ;982
0002ba  4630              MOV      r0,r6                 ;982
0002bc  f7fffffe          BL       TEXT_SetBkColor
0002c0  4629              MOV      r1,r5                 ;983
0002c2  4630              MOV      r0,r6                 ;983
0002c4  f7fffffe          BL       TEXT_SetTextColor
0002c8  4651              MOV      r1,r10                ;985
0002ca  69a0              LDR      r0,[r4,#0x18]         ;985  ; hWinsysinfo
0002cc  f7fffffe          BL       WM_GetDialogItem
0002d0  4606              MOV      r6,r0                 ;985
0002d2  4629              MOV      r1,r5                 ;986
0002d4  4630              MOV      r0,r6                 ;986
0002d6  f7fffffe          BL       TEXT_SetBkColor
0002da  2100              MOVS     r1,#0                 ;987
0002dc  4630              MOV      r0,r6                 ;987
0002de  f7fffffe          BL       TEXT_SetTextColor
0002e2  7027              STRB     r7,[r4,#0]            ;989
0002e4  e6c2              B        |L9.108|
                  |L9.742|
0002e6  f6403104          MOV      r1,#0xb04             ;994
0002ea  f7fffffe          BL       WM_GetDialogItem
0002ee  4606              MOV      r6,r0                 ;994
0002f0  4641              MOV      r1,r8                 ;995
0002f2  4630              MOV      r0,r6                 ;995
0002f4  f7fffffe          BL       TEXT_SetBkColor
0002f8  4629              MOV      r1,r5                 ;996
0002fa  4630              MOV      r0,r6                 ;996
0002fc  f7fffffe          BL       TEXT_SetTextColor
000300  4651              MOV      r1,r10                ;998
000302  69a0              LDR      r0,[r4,#0x18]         ;998  ; hWinsysinfo
000304  f7fffffe          BL       WM_GetDialogItem
000308  4606              MOV      r6,r0                 ;998
00030a  4629              MOV      r1,r5                 ;999
00030c  4630              MOV      r0,r6                 ;999
00030e  f7fffffe          BL       TEXT_SetBkColor
000312  2100              MOVS     r1,#0                 ;1000
000314  4630              MOV      r0,r6                 ;1000
000316  f7fffffe          BL       TEXT_SetTextColor
00031a  7027              STRB     r7,[r4,#0]            ;1002
00031c  e6a6              B        |L9.108|
                  |L9.798|
00031e  f6403105          MOV      r1,#0xb05             ;1007
000322  f7fffffe          BL       WM_GetDialogItem
000326  4606              MOV      r6,r0                 ;1007
000328  4641              MOV      r1,r8                 ;1008
00032a  4630              MOV      r0,r6                 ;1008
00032c  f7fffffe          BL       TEXT_SetBkColor
000330  4629              MOV      r1,r5                 ;1009
000332  4630              MOV      r0,r6                 ;1009
000334  f7fffffe          BL       TEXT_SetTextColor
000338  4651              MOV      r1,r10                ;1011
00033a  69a0              LDR      r0,[r4,#0x18]         ;1011  ; hWinsysinfo
00033c  f7fffffe          BL       WM_GetDialogItem
000340  4606              MOV      r6,r0                 ;1011
000342  4629              MOV      r1,r5                 ;1012
000344  4630              MOV      r0,r6                 ;1012
000346  f7fffffe          BL       TEXT_SetBkColor
00034a  2100              MOVS     r1,#0                 ;1013
00034c  4630              MOV      r0,r6                 ;1013
00034e  f7fffffe          BL       TEXT_SetTextColor
000352  7027              STRB     r7,[r4,#0]            ;1015
000354  e68a              B        |L9.108|
                  |L9.854|
000356  f6403106          MOV      r1,#0xb06             ;1020
00035a  f7fffffe          BL       WM_GetDialogItem
00035e  4606              MOV      r6,r0                 ;1020
000360  4641              MOV      r1,r8                 ;1021
000362  4630              MOV      r0,r6                 ;1021
000364  f7fffffe          BL       TEXT_SetBkColor
000368  4629              MOV      r1,r5                 ;1022
00036a  4630              MOV      r0,r6                 ;1022
00036c  f7fffffe          BL       TEXT_SetTextColor
000370  4651              MOV      r1,r10                ;1024
000372  69a0              LDR      r0,[r4,#0x18]         ;1024  ; hWinsysinfo
000374  f7fffffe          BL       WM_GetDialogItem
000378  4606              MOV      r6,r0                 ;1024
00037a  4629              MOV      r1,r5                 ;1025
00037c  4630              MOV      r0,r6                 ;1025
00037e  f7fffffe          BL       TEXT_SetBkColor
000382  2100              MOVS     r1,#0                 ;1026
000384  4630              MOV      r0,r6                 ;1026
000386  f7fffffe          BL       TEXT_SetTextColor
00038a  7027              STRB     r7,[r4,#0]            ;1028
00038c  e66e              B        |L9.108|
                  |L9.910|
00038e  f6403107          MOV      r1,#0xb07             ;1033
000392  f7fffffe          BL       WM_GetDialogItem
000396  4606              MOV      r6,r0                 ;1033
000398  4641              MOV      r1,r8                 ;1034
00039a  4630              MOV      r0,r6                 ;1034
00039c  f7fffffe          BL       TEXT_SetBkColor
0003a0  4629              MOV      r1,r5                 ;1035
0003a2  4630              MOV      r0,r6                 ;1035
0003a4  f7fffffe          BL       TEXT_SetTextColor
0003a8  4651              MOV      r1,r10                ;1037
0003aa  69a0              LDR      r0,[r4,#0x18]         ;1037  ; hWinsysinfo
0003ac  f7fffffe          BL       WM_GetDialogItem
0003b0  4606              MOV      r6,r0                 ;1037
0003b2  4629              MOV      r1,r5                 ;1038
0003b4  4630              MOV      r0,r6                 ;1038
0003b6  f7fffffe          BL       TEXT_SetBkColor
0003ba  2100              MOVS     r1,#0                 ;1039
0003bc  4630              MOV      r0,r6                 ;1039
0003be  f7fffffe          BL       TEXT_SetTextColor
0003c2  7027              STRB     r7,[r4,#0]            ;1041
0003c4  e652              B        |L9.108|
;;;1047   
                          ENDP

0003c6  0000              DCW      0x0000
                  |L9.968|
                          DCD      ||.data||
                  |L9.972|
                          DCD      0x00bfffff

                          AREA ||i._cbDialog||, CODE, READONLY, ALIGN=2

                          REQUIRE _printf_pre_padding
                          REQUIRE _printf_percent
                          REQUIRE _printf_widthprec
                          REQUIRE _printf_d
                          REQUIRE _printf_int_dec
                  _cbDialog PROC
;;;142    */
;;;143    static void _cbDialog(WM_MESSAGE * pMsg) {
000000  e92d41f0          PUSH     {r4-r8,lr}
000004  4604              MOV      r4,r0
;;;144        WM_HWIN hItem;
;;;145        static char buf[5];
;;;146    
;;;147    
;;;148        
;;;149      
;;;150      // USER START (Optionally insert additional variables)
;;;151      // USER END
;;;152    
;;;153      switch (pMsg->MsgId) {
;;;154    		
;;;155    	case WM_PAINT:
;;;156            GUI_SetColor(GUI_WHITE);//ʨ׃ۭҊҕɫ
;;;157            GUI_FillRect(0,25,480,26);//ۭһ͵ʵП
;;;158            GUI_SetColor(GUI_ORANGE);
;;;159            GUI_SetFont(&GUI_Fontsymbol);
;;;160            GUI_UC_SetEncodeUTF8();
;;;161            GUI_SetTextMode(GUI_TM_TRANS);//ʨ׃τѾģʽΪ֗ɫ͸ķ
;;;162            GUI_DispStringAt("Jinko", 5, 1);//SET
;;;163            if(lang == 0)
;;;164            {  
;;;165                GUI_SetColor(GUI_WHITE);
;;;166                GUI_SetFont(&GUI_FontHZ20S);
;;;167                GUI_UC_SetEncodeUTF8();
;;;168                GUI_SetTextMode(GUI_TM_TRANS);//ʨ׃τѾģʽΪ֗ɫ͸ķ
;;;169                GUI_DispStringAt("系统信息", 130, 3);//SET
;;;170                GUI_SetColor(GUI_LIGHTBLUE);
;;;171                GUI_SetFont(&GUI_Fontset_font);
;;;172                GUI_DispStringAt("仪器型号", 30, 50);
;;;173                GUI_DispStringAt("软件版本", 30, 75);
;;;174                GUI_DispStringAt("硬件版本", 30, 100);
;;;175                GUI_DispStringAt("生产日期", 30, 125);
;;;176                GUI_DispStringAt("仪器编号", 30, 150);
;;;177            }else{
;;;178                GUI_SetColor(GUI_WHITE);
;;;179                GUI_SetFont(&GUI_Font20_ASCII);
;;;180                GUI_UC_SetEncodeUTF8();
;;;181                GUI_SetTextMode(GUI_TM_TRANS);//ʨ׃τѾģʽΪ֗ɫ͸ķ
;;;182                GUI_DispStringAt("System Information", 130, 3);//SET
;;;183                GUI_SetColor(GUI_LIGHTBLUE);
;;;184                GUI_SetFont(&GUI_Font20_ASCII);
;;;185                GUI_DispStringAt("Instrument Model", 30, 50);
;;;186                GUI_DispStringAt("Software Version", 30, 75);
;;;187                GUI_DispStringAt("Hardware Version", 30, 100);
;;;188                GUI_DispStringAt("Production Date", 30, 125);
;;;189                GUI_DispStringAt("Serial NO.", 30, 150);
;;;190            }
;;;191            GUI_SetColor(0x00BFFFFF);
000006  4ffe              LDR      r7,|L10.1024|
000008  6820              LDR      r0,[r4,#0]            ;153
00000a  f06f467f          MVN      r6,#0xff000000        ;156
00000e  280f              CMP      r0,#0xf               ;153
000010  d00b              BEQ      |L10.42|
;;;192            GUI_SetFont(&GUI_Font24_1);
;;;193            GUI_DispStringAt("JK5530", 180, 50);
;;;194            GUI_DispStringAt("Ver:2.7", 180, 75);
;;;195            //1.7版本修改内阻测试判断测试结束与下一次测试开始的逻辑
;;;196            //1.8版本修正内阻测试短路后激活电池问题，添加手动测试功能，修正内阻显示不稳定问题
;;;197            //2.0版本添加英文
;;;198            //2.1版本添加步进时间设置
;;;199            //2.6添加上位机通信协议
;;;200            GUI_DispStringAt("Ver:1.0", 180, 100);
;;;201            GUI_DispStringAt("-", 231, 125);
;;;202            GUI_DispStringAt("-", 267, 125);
;;;203            GUI_DispStringAt("A", 204, 150);
;;;204    	break;
;;;205    	case WM_TIMER:
;;;206    	if(WM_GetTimerId(pMsg->Data.v) == ID_TimerTime7)
;;;207    	{
;;;208            if(pass == 14)
;;;209            {
;;;210                admin = 1;
000012  4dfc              LDR      r5,|L10.1028|
000014  281d              CMP      r0,#0x1d              ;153
000016  d07d              BEQ      |L10.276|
000018  f5a07080          SUB      r0,r0,#0x100          ;153
00001c  3813              SUBS     r0,r0,#0x13           ;153
00001e  d07a              BEQ      |L10.278|
;;;211            }else if(pass == 10){
;;;212                cal = 1;
;;;213            }else{
;;;214                admin = 0;
;;;215                cal = 0;
;;;216            }
;;;217            
;;;218            if(cal ==  1)
;;;219            {
;;;220                hItem = WM_GetDialogItem(pMsg->hWin, ID_TEXT_123);
;;;221                TEXT_SetTextColor(hItem, GUI_WHITE);//设置字体颜色
;;;222                sprintf(buf,"%4d",R_VLUE);
;;;223                TEXT_SetFont(hItem,&GUI_Font24_1);//设定文本字体
;;;224                GUI_UC_SetEncodeUTF8();        
;;;225                TEXT_SetText(hItem,buf);
;;;226            }else{
;;;227                hItem = WM_GetDialogItem(pMsg->hWin, ID_TEXT_123);
;;;228                TEXT_SetText(hItem, "");
;;;229                TEXT_SetTextColor(hItem, GUI_INVALID_COLOR);
;;;230            }
;;;231    		WM_RestartTimer(pMsg->Data.v,500);//شλ֨ʱǷ˽ֵԽճˢтʱݤԽ׌                
;;;232    	}
;;;233    	break;
;;;234        
;;;235    		
;;;236      case WM_INIT_DIALOG:
;;;237          hItem = pMsg->hWin;
;;;238          WINDOW_SetBkColor(hItem, GUI_BLACK);
;;;239          WM_CreateTimer(hItem,ID_TimerTime7,20,0);
;;;240      
;;;241          hItem = WM_GetDialogItem(pMsg->hWin, ID_TEXT_99);
;;;242          GUI_UC_SetEncodeUTF8();
;;;243          sprintf(buf,"%d",year1);
;;;244          TEXT_SetText(hItem,buf);
;;;245          TEXT_SetTextColor(hItem, 0x00BFFFFF);
;;;246          TEXT_SetFont(hItem, &GUI_Font24_1);
;;;247    	
;;;248    	  hItem = WM_GetDialogItem(pMsg->hWin, ID_TEXT_100);
;;;249          GUI_UC_SetEncodeUTF8();
;;;250          sprintf(buf,"%d",year2);
;;;251          TEXT_SetText(hItem,buf);
;;;252          TEXT_SetTextColor(hItem, 0x00BFFFFF);
;;;253          TEXT_SetFont(hItem, &GUI_Font24_1);
;;;254    		
;;;255    	  hItem = WM_GetDialogItem(pMsg->hWin, ID_TEXT_101);
;;;256          GUI_UC_SetEncodeUTF8();
;;;257          sprintf(buf,"%d",year3);
;;;258          TEXT_SetText(hItem,buf);
;;;259          TEXT_SetTextColor(hItem, 0x00BFFFFF);
;;;260          TEXT_SetFont(hItem, &GUI_Font24_1);
;;;261    		
;;;262    	  hItem = WM_GetDialogItem(pMsg->hWin, ID_TEXT_102);
;;;263          GUI_UC_SetEncodeUTF8();
;;;264          sprintf(buf,"%d",year4);
;;;265          TEXT_SetText(hItem,buf);
;;;266          TEXT_SetTextColor(hItem, 0x00BFFFFF);
;;;267          TEXT_SetFont(hItem, &GUI_Font24_1);
;;;268          
;;;269          hItem = WM_GetDialogItem(pMsg->hWin, ID_TEXT_103);
;;;270          GUI_UC_SetEncodeUTF8();
;;;271          sprintf(buf,"%d",month1);
;;;272          TEXT_SetText(hItem,buf);
;;;273          TEXT_SetTextColor(hItem, 0x00BFFFFF);
;;;274          TEXT_SetFont(hItem, &GUI_Font24_1);
;;;275    	
;;;276    	  hItem = WM_GetDialogItem(pMsg->hWin, ID_TEXT_104);
;;;277          GUI_UC_SetEncodeUTF8();
;;;278          sprintf(buf,"%d",month2);
;;;279          TEXT_SetText(hItem,buf);
;;;280          TEXT_SetTextColor(hItem, 0x00BFFFFF);
;;;281          TEXT_SetFont(hItem, &GUI_Font24_1);
;;;282    		
;;;283    	  hItem = WM_GetDialogItem(pMsg->hWin, ID_TEXT_105);
;;;284          GUI_UC_SetEncodeUTF8();
;;;285          sprintf(buf,"%d",day1);
;;;286          TEXT_SetText(hItem,buf);
;;;287          TEXT_SetTextColor(hItem, 0x00BFFFFF);
;;;288          TEXT_SetFont(hItem, &GUI_Font24_1);
;;;289    		
;;;290    	  hItem = WM_GetDialogItem(pMsg->hWin, ID_TEXT_106);
;;;291          GUI_UC_SetEncodeUTF8();
;;;292          sprintf(buf,"%d",day2);
;;;293          TEXT_SetText(hItem,buf);
;;;294          TEXT_SetTextColor(hItem, 0x00BFFFFF);
;;;295          TEXT_SetFont(hItem, &GUI_Font24_1);
;;;296    	
;;;297          hItem = WM_GetDialogItem(pMsg->hWin, ID_TEXT_107);
;;;298          GUI_UC_SetEncodeUTF8();
;;;299          sprintf(buf,"%d",code3);
;;;300          TEXT_SetText(hItem,buf);
;;;301          TEXT_SetTextColor(hItem, 0x00BFFFFF);
;;;302          TEXT_SetFont(hItem, &GUI_Font24_1);
;;;303    		
;;;304    	  hItem = WM_GetDialogItem(pMsg->hWin, ID_TEXT_108);
;;;305          GUI_UC_SetEncodeUTF8();
;;;306          sprintf(buf,"%d",code4);
;;;307          TEXT_SetText(hItem,buf);
;;;308          TEXT_SetTextColor(hItem, 0x00BFFFFF);
;;;309          TEXT_SetFont(hItem, &GUI_Font24_1);
;;;310          
;;;311          hItem = WM_GetDialogItem(pMsg->hWin, ID_TEXT_109);
;;;312          GUI_UC_SetEncodeUTF8();
;;;313          sprintf(buf,"%d",code5);
;;;314          TEXT_SetText(hItem,buf);
;;;315          TEXT_SetTextColor(hItem, 0x00BFFFFF);
;;;316          TEXT_SetFont(hItem, &GUI_Font24_1);
;;;317    		
;;;318    	  hItem = WM_GetDialogItem(pMsg->hWin, ID_TEXT_110);
;;;319          GUI_UC_SetEncodeUTF8();
;;;320          sprintf(buf,"%d",code6);
;;;321          TEXT_SetText(hItem,buf);
;;;322          TEXT_SetTextColor(hItem, 0x00BFFFFF);
;;;323          TEXT_SetFont(hItem, &GUI_Font24_1);
;;;324          
;;;325          hItem = WM_GetDialogItem(pMsg->hWin, ID_TEXT_111);
;;;326          GUI_UC_SetEncodeUTF8();
;;;327          sprintf(buf,"%d",code7);
;;;328          TEXT_SetText(hItem,buf);
;;;329          TEXT_SetTextColor(hItem, 0x00BFFFFF);
;;;330          TEXT_SetFont(hItem, &GUI_Font24_1);
;;;331    		
;;;332    	  hItem = WM_GetDialogItem(pMsg->hWin, ID_TEXT_112);
;;;333          GUI_UC_SetEncodeUTF8();
;;;334          sprintf(buf,"%d",code8);
;;;335          TEXT_SetText(hItem,buf);
;;;336          TEXT_SetTextColor(hItem, 0x00BFFFFF);
;;;337          TEXT_SetFont(hItem, &GUI_Font24_1);
;;;338          
;;;339          hItem = WM_GetDialogItem(pMsg->hWin, ID_TEXT_113);
;;;340          GUI_UC_SetEncodeUTF8();
;;;341          sprintf(buf,"%d",code1);
;;;342          TEXT_SetText(hItem,buf);
;;;343          TEXT_SetTextColor(hItem, 0x00BFFFFF);
;;;344          TEXT_SetFont(hItem, &GUI_Font24_1);
;;;345    		
;;;346    	  hItem = WM_GetDialogItem(pMsg->hWin, ID_TEXT_114);
;;;347          GUI_UC_SetEncodeUTF8();
;;;348          sprintf(buf,"%d",code2);
;;;349          TEXT_SetText(hItem,buf);
;;;350          TEXT_SetTextColor(hItem, 0x00BFFFFF);
;;;351          TEXT_SetFont(hItem, &GUI_Font24_1);
;;;352          
;;;353    
;;;354    
;;;355        // USER START (Optionally insert additional code for further widget initialization)
;;;356        // USER END
;;;357            break;
;;;358      // USER START (Optionally insert additional message handling)
;;;359      // USER END
;;;360        default:
;;;361            WM_DefaultProc(pMsg);
000020  4620              MOV      r0,r4
000022  e8bd41f0          POP      {r4-r8,lr}
000026  f7ffbffe          B.W      WM_DefaultProc
                  |L10.42|
00002a  4630              MOV      r0,r6                 ;156
00002c  f7fffffe          BL       GUI_SetColor
000030  231a              MOVS     r3,#0x1a              ;157
000032  f44f72f0          MOV      r2,#0x1e0             ;157
000036  2119              MOVS     r1,#0x19              ;157
000038  2000              MOVS     r0,#0                 ;157
00003a  f7fffffe          BL       GUI_FillRect
00003e  f24a50ff          MOV      r0,#0xa5ff            ;158
000042  f7fffffe          BL       GUI_SetColor
000046  48f0              LDR      r0,|L10.1032|
000048  f7fffffe          BL       GUI_SetFont
00004c  f7fffffe          BL       GUI_UC_SetEncodeUTF8
000050  2002              MOVS     r0,#2                 ;161
000052  f7fffffe          BL       GUI_SetTextMode
000056  2201              MOVS     r2,#1                 ;162
000058  2105              MOVS     r1,#5                 ;162
00005a  a0ec              ADR      r0,|L10.1036|
00005c  f7fffffe          BL       GUI_DispStringAt
000060  48ec              LDR      r0,|L10.1044|
000062  7800              LDRB     r0,[r0,#0]            ;163  ; lang
000064  4cec              LDR      r4,|L10.1048|
000066  2800              CMP      r0,#0                 ;163
000068  d058              BEQ      |L10.284|
00006a  4630              MOV      r0,r6                 ;178
00006c  f7fffffe          BL       GUI_SetColor
000070  48ea              LDR      r0,|L10.1052|
000072  f7fffffe          BL       GUI_SetFont
000076  f7fffffe          BL       GUI_UC_SetEncodeUTF8
00007a  2002              MOVS     r0,#2                 ;181
00007c  f7fffffe          BL       GUI_SetTextMode
000080  2203              MOVS     r2,#3                 ;182
000082  2182              MOVS     r1,#0x82              ;182
000084  a0e6              ADR      r0,|L10.1056|
000086  f7fffffe          BL       GUI_DispStringAt
00008a  4620              MOV      r0,r4                 ;183
00008c  f7fffffe          BL       GUI_SetColor
000090  48e2              LDR      r0,|L10.1052|
000092  f7fffffe          BL       GUI_SetFont
000096  2232              MOVS     r2,#0x32              ;185
000098  211e              MOVS     r1,#0x1e              ;185
00009a  a0e6              ADR      r0,|L10.1076|
00009c  f7fffffe          BL       GUI_DispStringAt
0000a0  224b              MOVS     r2,#0x4b              ;186
0000a2  211e              MOVS     r1,#0x1e              ;186
0000a4  a0e8              ADR      r0,|L10.1096|
0000a6  f7fffffe          BL       GUI_DispStringAt
0000aa  2264              MOVS     r2,#0x64              ;187
0000ac  211e              MOVS     r1,#0x1e              ;187
0000ae  a0eb              ADR      r0,|L10.1116|
0000b0  f7fffffe          BL       GUI_DispStringAt
0000b4  227d              MOVS     r2,#0x7d              ;188
0000b6  211e              MOVS     r1,#0x1e              ;188
0000b8  a0ed              ADR      r0,|L10.1136|
0000ba  f7fffffe          BL       GUI_DispStringAt
0000be  2296              MOVS     r2,#0x96              ;189
0000c0  211e              MOVS     r1,#0x1e              ;189
0000c2  a0ef              ADR      r0,|L10.1152|
0000c4  f7fffffe          BL       GUI_DispStringAt
                  |L10.200|
0000c8  4638              MOV      r0,r7                 ;191
0000ca  f7fffffe          BL       GUI_SetColor
0000ce  48ef              LDR      r0,|L10.1164|
0000d0  f7fffffe          BL       GUI_SetFont
0000d4  2232              MOVS     r2,#0x32              ;193
0000d6  21b4              MOVS     r1,#0xb4              ;193
0000d8  a0ed              ADR      r0,|L10.1168|
0000da  f7fffffe          BL       GUI_DispStringAt
0000de  224b              MOVS     r2,#0x4b              ;194
0000e0  21b4              MOVS     r1,#0xb4              ;194
0000e2  a0ed              ADR      r0,|L10.1176|
0000e4  f7fffffe          BL       GUI_DispStringAt
0000e8  2264              MOVS     r2,#0x64              ;200
0000ea  21b4              MOVS     r1,#0xb4              ;200
0000ec  a0ec              ADR      r0,|L10.1184|
0000ee  f7fffffe          BL       GUI_DispStringAt
0000f2  227d              MOVS     r2,#0x7d              ;201
0000f4  21e7              MOVS     r1,#0xe7              ;201
0000f6  a0ec              ADR      r0,|L10.1192|
0000f8  f7fffffe          BL       GUI_DispStringAt
0000fc  227d              MOVS     r2,#0x7d              ;202
0000fe  f240110b          MOV      r1,#0x10b             ;202
000102  a0e9              ADR      r0,|L10.1192|
000104  f7fffffe          BL       GUI_DispStringAt
000108  e8bd41f0          POP      {r4-r8,lr}            ;203
00010c  2296              MOVS     r2,#0x96              ;203
00010e  21cc              MOVS     r1,#0xcc              ;203
000110  a0e6              ADR      r0,|L10.1196|
000112  e001              B        |L10.280|
                  |L10.276|
000114  e07a              B        |L10.524|
                  |L10.278|
000116  e031              B        |L10.380|
                  |L10.280|
000118  f7ffbffe          B.W      GUI_DispStringAt
                  |L10.284|
00011c  4630              MOV      r0,r6                 ;165
00011e  f7fffffe          BL       GUI_SetColor
000122  48e3              LDR      r0,|L10.1200|
000124  f7fffffe          BL       GUI_SetFont
000128  f7fffffe          BL       GUI_UC_SetEncodeUTF8
00012c  2002              MOVS     r0,#2                 ;168
00012e  f7fffffe          BL       GUI_SetTextMode
000132  2203              MOVS     r2,#3                 ;169
000134  2182              MOVS     r1,#0x82              ;169
000136  a0df              ADR      r0,|L10.1204|
000138  f7fffffe          BL       GUI_DispStringAt
00013c  4620              MOV      r0,r4                 ;170
00013e  f7fffffe          BL       GUI_SetColor
000142  48e0              LDR      r0,|L10.1220|
000144  f7fffffe          BL       GUI_SetFont
000148  2232              MOVS     r2,#0x32              ;172
00014a  211e              MOVS     r1,#0x1e              ;172
00014c  a0de              ADR      r0,|L10.1224|
00014e  f7fffffe          BL       GUI_DispStringAt
000152  224b              MOVS     r2,#0x4b              ;173
000154  211e              MOVS     r1,#0x1e              ;173
000156  a0e0              ADR      r0,|L10.1240|
000158  f7fffffe          BL       GUI_DispStringAt
00015c  2264              MOVS     r2,#0x64              ;174
00015e  211e              MOVS     r1,#0x1e              ;174
000160  a0e1              ADR      r0,|L10.1256|
000162  f7fffffe          BL       GUI_DispStringAt
000166  227d              MOVS     r2,#0x7d              ;175
000168  211e              MOVS     r1,#0x1e              ;175
00016a  a0e3              ADR      r0,|L10.1272|
00016c  f7fffffe          BL       GUI_DispStringAt
000170  2296              MOVS     r2,#0x96              ;176
000172  211e              MOVS     r1,#0x1e              ;176
000174  a0e4              ADR      r0,|L10.1288|
000176  f7fffffe          BL       GUI_DispStringAt
00017a  e7a5              B        |L10.200|
                  |L10.380|
00017c  68e0              LDR      r0,[r4,#0xc]          ;206
00017e  f7fffffe          BL       WM_GetTimerId
000182  2808              CMP      r0,#8                 ;206
000184  d17e              BNE      |L10.644|
000186  48e4              LDR      r0,|L10.1304|
000188  7802              LDRB     r2,[r0,#0]            ;208  ; pass
00018a  2101              MOVS     r1,#1                 ;162
00018c  2a0e              CMP      r2,#0xe               ;208
00018e  d01e              BEQ      |L10.462|
000190  7800              LDRB     r0,[r0,#0]            ;211  ; pass
000192  280a              CMP      r0,#0xa               ;211
000194  d01d              BEQ      |L10.466|
000196  2000              MOVS     r0,#0                 ;214
000198  7168              STRB     r0,[r5,#5]            ;214
00019a  73a8              STRB     r0,[r5,#0xe]          ;215
                  |L10.412|
00019c  7ba8              LDRB     r0,[r5,#0xe]          ;218  ; cal
00019e  f6403112          MOV      r1,#0xb12             ;220
0001a2  2801              CMP      r0,#1                 ;218
0001a4  d017              BEQ      |L10.470|
0001a6  6860              LDR      r0,[r4,#4]            ;227
0001a8  f7fffffe          BL       WM_GetDialogItem
0001ac  4605              MOV      r5,r0                 ;227
0001ae  a1a5              ADR      r1,|L10.1092|
0001b0  4628              MOV      r0,r5                 ;228
0001b2  f7fffffe          BL       TEXT_SetText
0001b6  f06f4170          MVN      r1,#0xf0000000        ;229
0001ba  4628              MOV      r0,r5                 ;229
0001bc  f7fffffe          BL       TEXT_SetTextColor
                  |L10.448|
0001c0  68e0              LDR      r0,[r4,#0xc]          ;231
0001c2  e8bd41f0          POP      {r4-r8,lr}            ;231
0001c6  f44f71fa          MOV      r1,#0x1f4             ;231
0001ca  f7ffbffe          B.W      WM_RestartTimer
                  |L10.462|
0001ce  7169              STRB     r1,[r5,#5]            ;210
0001d0  e7e4              B        |L10.412|
                  |L10.466|
0001d2  73a9              STRB     r1,[r5,#0xe]          ;212
0001d4  e7e2              B        |L10.412|
                  |L10.470|
0001d6  6860              LDR      r0,[r4,#4]            ;220
0001d8  f7fffffe          BL       WM_GetDialogItem
0001dc  4605              MOV      r5,r0                 ;220
0001de  4631              MOV      r1,r6                 ;221
0001e0  4628              MOV      r0,r5                 ;221
0001e2  f7fffffe          BL       TEXT_SetTextColor
0001e6  48cd              LDR      r0,|L10.1308|
0001e8  8b42              LDRH     r2,[r0,#0x1a]         ;222  ; Run_Control
0001ea  4886              LDR      r0,|L10.1028|
0001ec  a1cc              ADR      r1,|L10.1312|
0001ee  301c              ADDS     r0,r0,#0x1c           ;222
0001f0  f7fffffe          BL       __2sprintf
0001f4  49a5              LDR      r1,|L10.1164|
0001f6  4628              MOV      r0,r5                 ;223
0001f8  f7fffffe          BL       TEXT_SetFont
0001fc  f7fffffe          BL       GUI_UC_SetEncodeUTF8
000200  4980              LDR      r1,|L10.1028|
000202  4628              MOV      r0,r5                 ;225
000204  311c              ADDS     r1,r1,#0x1c           ;225
000206  f7fffffe          BL       TEXT_SetText
00020a  e7d9              B        |L10.448|
                  |L10.524|
00020c  6866              LDR      r6,[r4,#4]            ;237
00020e  2100              MOVS     r1,#0                 ;238
000210  4630              MOV      r0,r6                 ;238
000212  f7fffffe          BL       WINDOW_SetBkColor
000216  2300              MOVS     r3,#0                 ;239
000218  2214              MOVS     r2,#0x14              ;239
00021a  2108              MOVS     r1,#8                 ;239
00021c  4630              MOV      r0,r6                 ;239
00021e  f7fffffe          BL       WM_CreateTimer
000222  f6400199          MOV      r1,#0x899             ;241
000226  6860              LDR      r0,[r4,#4]            ;241
000228  f7fffffe          BL       WM_GetDialogItem
00022c  4680              MOV      r8,r0                 ;241
00022e  f7fffffe          BL       GUI_UC_SetEncodeUTF8
000232  8a2a              LDRH     r2,[r5,#0x10]         ;243  ; year1
000234  4873              LDR      r0,|L10.1028|
000236  a1bb              ADR      r1,|L10.1316|
000238  301c              ADDS     r0,r0,#0x1c           ;243
00023a  f7fffffe          BL       __2sprintf
00023e  4971              LDR      r1,|L10.1028|
000240  4640              MOV      r0,r8                 ;244
000242  311c              ADDS     r1,r1,#0x1c           ;244
000244  f7fffffe          BL       TEXT_SetText
000248  463e              MOV      r6,r7                 ;245
00024a  4631              MOV      r1,r6                 ;245
00024c  4640              MOV      r0,r8                 ;245
00024e  f7fffffe          BL       TEXT_SetTextColor
000252  498e              LDR      r1,|L10.1164|
000254  4640              MOV      r0,r8                 ;246
000256  f7fffffe          BL       TEXT_SetFont
00025a  f640019a          MOV      r1,#0x89a             ;248
00025e  6860              LDR      r0,[r4,#4]            ;248
000260  f7fffffe          BL       WM_GetDialogItem
000264  4607              MOV      r7,r0                 ;248
000266  f7fffffe          BL       GUI_UC_SetEncodeUTF8
00026a  8a6a              LDRH     r2,[r5,#0x12]         ;250  ; year2
00026c  4865              LDR      r0,|L10.1028|
00026e  a1ad              ADR      r1,|L10.1316|
000270  301c              ADDS     r0,r0,#0x1c           ;250
000272  f7fffffe          BL       __2sprintf
000276  4963              LDR      r1,|L10.1028|
000278  4638              MOV      r0,r7                 ;251
00027a  311c              ADDS     r1,r1,#0x1c           ;251
00027c  f7fffffe          BL       TEXT_SetText
000280  4631              MOV      r1,r6                 ;252
000282  e000              B        |L10.646|
                  |L10.644|
000284  e210              B        |L10.1704|
                  |L10.646|
000286  4638              MOV      r0,r7                 ;252
000288  f7fffffe          BL       TEXT_SetTextColor
00028c  497f              LDR      r1,|L10.1164|
00028e  4638              MOV      r0,r7                 ;253
000290  f7fffffe          BL       TEXT_SetFont
000294  f640019b          MOV      r1,#0x89b             ;255
000298  6860              LDR      r0,[r4,#4]            ;255
00029a  f7fffffe          BL       WM_GetDialogItem
00029e  4607              MOV      r7,r0                 ;255
0002a0  f7fffffe          BL       GUI_UC_SetEncodeUTF8
0002a4  8aaa              LDRH     r2,[r5,#0x14]         ;257  ; year3
0002a6  4857              LDR      r0,|L10.1028|
0002a8  a19e              ADR      r1,|L10.1316|
0002aa  301c              ADDS     r0,r0,#0x1c           ;257
0002ac  f7fffffe          BL       __2sprintf
0002b0  4954              LDR      r1,|L10.1028|
0002b2  4638              MOV      r0,r7                 ;258
0002b4  311c              ADDS     r1,r1,#0x1c           ;258
0002b6  f7fffffe          BL       TEXT_SetText
0002ba  4631              MOV      r1,r6                 ;259
0002bc  4638              MOV      r0,r7                 ;259
0002be  f7fffffe          BL       TEXT_SetTextColor
0002c2  4972              LDR      r1,|L10.1164|
0002c4  4638              MOV      r0,r7                 ;260
0002c6  f7fffffe          BL       TEXT_SetFont
0002ca  f640019c          MOV      r1,#0x89c             ;262
0002ce  6860              LDR      r0,[r4,#4]            ;262
0002d0  f7fffffe          BL       WM_GetDialogItem
0002d4  4607              MOV      r7,r0                 ;262
0002d6  f7fffffe          BL       GUI_UC_SetEncodeUTF8
0002da  8aea              LDRH     r2,[r5,#0x16]         ;264  ; year4
0002dc  4849              LDR      r0,|L10.1028|
0002de  a191              ADR      r1,|L10.1316|
0002e0  301c              ADDS     r0,r0,#0x1c           ;264
0002e2  f7fffffe          BL       __2sprintf
0002e6  4947              LDR      r1,|L10.1028|
0002e8  4638              MOV      r0,r7                 ;265
0002ea  311c              ADDS     r1,r1,#0x1c           ;265
0002ec  f7fffffe          BL       TEXT_SetText
0002f0  4631              MOV      r1,r6                 ;266
0002f2  4638              MOV      r0,r7                 ;266
0002f4  f7fffffe          BL       TEXT_SetTextColor
0002f8  4964              LDR      r1,|L10.1164|
0002fa  4638              MOV      r0,r7                 ;267
0002fc  f7fffffe          BL       TEXT_SetFont
000300  f640019d          MOV      r1,#0x89d             ;269
000304  6860              LDR      r0,[r4,#4]            ;269
000306  f7fffffe          BL       WM_GetDialogItem
00030a  4607              MOV      r7,r0                 ;269
00030c  f7fffffe          BL       GUI_UC_SetEncodeUTF8
000310  786a              LDRB     r2,[r5,#1]            ;271  ; month1
000312  483c              LDR      r0,|L10.1028|
000314  a183              ADR      r1,|L10.1316|
000316  301c              ADDS     r0,r0,#0x1c           ;271
000318  f7fffffe          BL       __2sprintf
00031c  4939              LDR      r1,|L10.1028|
00031e  4638              MOV      r0,r7                 ;272
000320  311c              ADDS     r1,r1,#0x1c           ;272
000322  f7fffffe          BL       TEXT_SetText
000326  4631              MOV      r1,r6                 ;273
000328  4638              MOV      r0,r7                 ;273
00032a  f7fffffe          BL       TEXT_SetTextColor
00032e  4957              LDR      r1,|L10.1164|
000330  4638              MOV      r0,r7                 ;274
000332  f7fffffe          BL       TEXT_SetFont
000336  f640019e          MOV      r1,#0x89e             ;276
00033a  6860              LDR      r0,[r4,#4]            ;276
00033c  f7fffffe          BL       WM_GetDialogItem
000340  4607              MOV      r7,r0                 ;276
000342  f7fffffe          BL       GUI_UC_SetEncodeUTF8
000346  78aa              LDRB     r2,[r5,#2]            ;278  ; month2
000348  482e              LDR      r0,|L10.1028|
00034a  a176              ADR      r1,|L10.1316|
00034c  301c              ADDS     r0,r0,#0x1c           ;278
00034e  f7fffffe          BL       __2sprintf
000352  492c              LDR      r1,|L10.1028|
000354  4638              MOV      r0,r7                 ;279
000356  311c              ADDS     r1,r1,#0x1c           ;279
000358  f7fffffe          BL       TEXT_SetText
00035c  4631              MOV      r1,r6                 ;280
00035e  4638              MOV      r0,r7                 ;280
000360  f7fffffe          BL       TEXT_SetTextColor
000364  4949              LDR      r1,|L10.1164|
000366  4638              MOV      r0,r7                 ;281
000368  f7fffffe          BL       TEXT_SetFont
00036c  f44f6130          MOV      r1,#0xb00             ;283
000370  6860              LDR      r0,[r4,#4]            ;283
000372  f7fffffe          BL       WM_GetDialogItem
000376  4607              MOV      r7,r0                 ;283
000378  f7fffffe          BL       GUI_UC_SetEncodeUTF8
00037c  78ea              LDRB     r2,[r5,#3]            ;285  ; day1
00037e  4821              LDR      r0,|L10.1028|
000380  a168              ADR      r1,|L10.1316|
000382  301c              ADDS     r0,r0,#0x1c           ;285
000384  f7fffffe          BL       __2sprintf
000388  491e              LDR      r1,|L10.1028|
00038a  4638              MOV      r0,r7                 ;286
00038c  311c              ADDS     r1,r1,#0x1c           ;286
00038e  f7fffffe          BL       TEXT_SetText
000392  4631              MOV      r1,r6                 ;287
000394  4638              MOV      r0,r7                 ;287
000396  f7fffffe          BL       TEXT_SetTextColor
00039a  493c              LDR      r1,|L10.1164|
00039c  4638              MOV      r0,r7                 ;288
00039e  f7fffffe          BL       TEXT_SetFont
0003a2  f6403101          MOV      r1,#0xb01             ;290
0003a6  6860              LDR      r0,[r4,#4]            ;290
0003a8  f7fffffe          BL       WM_GetDialogItem
0003ac  4607              MOV      r7,r0                 ;290
0003ae  f7fffffe          BL       GUI_UC_SetEncodeUTF8
0003b2  792a              LDRB     r2,[r5,#4]            ;292  ; day2
0003b4  4813              LDR      r0,|L10.1028|
0003b6  a15b              ADR      r1,|L10.1316|
0003b8  301c              ADDS     r0,r0,#0x1c           ;292
0003ba  f7fffffe          BL       __2sprintf
0003be  4911              LDR      r1,|L10.1028|
0003c0  4638              MOV      r0,r7                 ;293
0003c2  311c              ADDS     r1,r1,#0x1c           ;293
0003c4  f7fffffe          BL       TEXT_SetText
0003c8  4631              MOV      r1,r6                 ;294
0003ca  4638              MOV      r0,r7                 ;294
0003cc  f7fffffe          BL       TEXT_SetTextColor
0003d0  492e              LDR      r1,|L10.1164|
0003d2  4638              MOV      r0,r7                 ;295
0003d4  f7fffffe          BL       TEXT_SetFont
0003d8  f6403102          MOV      r1,#0xb02             ;297
0003dc  6860              LDR      r0,[r4,#4]            ;297
0003de  f7fffffe          BL       WM_GetDialogItem
0003e2  4607              MOV      r7,r0                 ;297
0003e4  f7fffffe          BL       GUI_UC_SetEncodeUTF8
0003e8  7a2a              LDRB     r2,[r5,#8]            ;299  ; code3
0003ea  4806              LDR      r0,|L10.1028|
0003ec  a14d              ADR      r1,|L10.1316|
0003ee  301c              ADDS     r0,r0,#0x1c           ;299
0003f0  f7fffffe          BL       __2sprintf
0003f4  4903              LDR      r1,|L10.1028|
0003f6  4638              MOV      r0,r7                 ;300
0003f8  311c              ADDS     r1,r1,#0x1c           ;300
0003fa  f7fffffe          BL       TEXT_SetText
0003fe  e093              B        |L10.1320|
                  |L10.1024|
                          DCD      0x00bfffff
                  |L10.1028|
                          DCD      ||.data||
                  |L10.1032|
                          DCD      GUI_Fontsymbol
                  |L10.1036|
00040c  4a696e6b          DCB      "Jinko",0
000410  6f00    
000412  00                DCB      0
000413  00                DCB      0
                  |L10.1044|
                          DCD      lang
                  |L10.1048|
                          DCD      0x00ff8080
                  |L10.1052|
                          DCD      GUI_Font20_ASCII
                  |L10.1056|
000420  53797374          DCB      "System Information",0
000424  656d2049
000428  6e666f72
00042c  6d617469
000430  6f6e00  
000433  00                DCB      0
                  |L10.1076|
000434  496e7374          DCB      "Instrument Model"
000438  72756d65
00043c  6e74204d
000440  6f64656c
                  |L10.1092|
000444  00                DCB      0
000445  00                DCB      0
000446  00                DCB      0
000447  00                DCB      0
                  |L10.1096|
000448  536f6674          DCB      "Software Version",0
00044c  77617265
000450  20566572
000454  73696f6e
000458  00      
000459  00                DCB      0
00045a  00                DCB      0
00045b  00                DCB      0
                  |L10.1116|
00045c  48617264          DCB      "Hardware Version",0
000460  77617265
000464  20566572
000468  73696f6e
00046c  00      
00046d  00                DCB      0
00046e  00                DCB      0
00046f  00                DCB      0
                  |L10.1136|
000470  50726f64          DCB      "Production Date",0
000474  75637469
000478  6f6e2044
00047c  61746500
                  |L10.1152|
000480  53657269          DCB      "Serial NO.",0
000484  616c204e
000488  4f2e00  
00048b  00                DCB      0
                  |L10.1164|
                          DCD      GUI_Font24_1
                  |L10.1168|
000490  4a4b3535          DCB      "JK5530",0
000494  333000  
000497  00                DCB      0
                  |L10.1176|
000498  5665723a          DCB      "Ver:2.7",0
00049c  322e3700
                  |L10.1184|
0004a0  5665723a          DCB      "Ver:1.0",0
0004a4  312e3000
                  |L10.1192|
0004a8  2d00              DCB      "-",0
0004aa  00                DCB      0
0004ab  00                DCB      0
                  |L10.1196|
0004ac  4100              DCB      "A",0
0004ae  00                DCB      0
0004af  00                DCB      0
                  |L10.1200|
                          DCD      GUI_FontHZ20S
                  |L10.1204|
0004b4  e7b3bbe7          DCB      231,179,187,231,187,159,228,191,161,230,129,175,0
0004b8  bb9fe4bf
0004bc  a1e681af
0004c0  00      
0004c1  00                DCB      0
0004c2  00                DCB      0
0004c3  00                DCB      0
                  |L10.1220|
                          DCD      GUI_Fontset_font
                  |L10.1224|
0004c8  e4bbaae5          DCB      228,187,170,229,153,168,229,158,139,229,143,183,0
0004cc  99a8e59e
0004d0  8be58fb7
0004d4  00      
0004d5  00                DCB      0
0004d6  00                DCB      0
0004d7  00                DCB      0
                  |L10.1240|
0004d8  e8bdafe4          DCB      232,189,175,228,187,182,231,137,136,230,156,172,0
0004dc  bbb6e789
0004e0  88e69cac
0004e4  00      
0004e5  00                DCB      0
0004e6  00                DCB      0
0004e7  00                DCB      0
                  |L10.1256|
0004e8  e7a1ace4          DCB      231,161,172,228,187,182,231,137,136,230,156,172,0
0004ec  bbb6e789
0004f0  88e69cac
0004f4  00      
0004f5  00                DCB      0
0004f6  00                DCB      0
0004f7  00                DCB      0
                  |L10.1272|
0004f8  e7949fe4          DCB      231,148,159,228,186,167,230,151,165,230,156,159,0
0004fc  baa7e697
000500  a5e69c9f
000504  00      
000505  00                DCB      0
000506  00                DCB      0
000507  00                DCB      0
                  |L10.1288|
000508  e4bbaae5          DCB      228,187,170,229,153,168,231,188,150,229,143,183,0
00050c  99a8e7bc
000510  96e58fb7
000514  00      
000515  00                DCB      0
000516  00                DCB      0
000517  00                DCB      0
                  |L10.1304|
                          DCD      pass
                  |L10.1308|
                          DCD      Run_Control
                  |L10.1312|
000520  25346400          DCB      "%4d",0
                  |L10.1316|
000524  256400            DCB      "%d",0
000527  00                DCB      0
                  |L10.1320|
000528  4631              MOV      r1,r6                 ;301
00052a  4638              MOV      r0,r7                 ;301
00052c  f7fffffe          BL       TEXT_SetTextColor
000530  495e              LDR      r1,|L10.1708|
000532  4638              MOV      r0,r7                 ;302
000534  f7fffffe          BL       TEXT_SetFont
000538  f6403103          MOV      r1,#0xb03             ;304
00053c  6860              LDR      r0,[r4,#4]            ;304
00053e  f7fffffe          BL       WM_GetDialogItem
000542  4607              MOV      r7,r0                 ;304
000544  f7fffffe          BL       GUI_UC_SetEncodeUTF8
000548  7a6a              LDRB     r2,[r5,#9]            ;306  ; code4
00054a  f2af0128          ADR      r1,|L10.1316|
00054e  4858              LDR      r0,|L10.1712|
000550  f7fffffe          BL       __2sprintf
000554  4956              LDR      r1,|L10.1712|
000556  4638              MOV      r0,r7                 ;307
000558  f7fffffe          BL       TEXT_SetText
00055c  4631              MOV      r1,r6                 ;308
00055e  4638              MOV      r0,r7                 ;308
000560  f7fffffe          BL       TEXT_SetTextColor
000564  4951              LDR      r1,|L10.1708|
000566  4638              MOV      r0,r7                 ;309
000568  f7fffffe          BL       TEXT_SetFont
00056c  f6403104          MOV      r1,#0xb04             ;311
000570  6860              LDR      r0,[r4,#4]            ;311
000572  f7fffffe          BL       WM_GetDialogItem
000576  4607              MOV      r7,r0                 ;311
000578  f7fffffe          BL       GUI_UC_SetEncodeUTF8
00057c  7aaa              LDRB     r2,[r5,#0xa]          ;313  ; code5
00057e  f2af015c          ADR      r1,|L10.1316|
000582  484b              LDR      r0,|L10.1712|
000584  f7fffffe          BL       __2sprintf
000588  4949              LDR      r1,|L10.1712|
00058a  4638              MOV      r0,r7                 ;314
00058c  f7fffffe          BL       TEXT_SetText
000590  4631              MOV      r1,r6                 ;315
000592  4638              MOV      r0,r7                 ;315
000594  f7fffffe          BL       TEXT_SetTextColor
000598  4944              LDR      r1,|L10.1708|
00059a  4638              MOV      r0,r7                 ;316
00059c  f7fffffe          BL       TEXT_SetFont
0005a0  f6403105          MOV      r1,#0xb05             ;318
0005a4  6860              LDR      r0,[r4,#4]            ;318
0005a6  f7fffffe          BL       WM_GetDialogItem
0005aa  4607              MOV      r7,r0                 ;318
0005ac  f7fffffe          BL       GUI_UC_SetEncodeUTF8
0005b0  7aea              LDRB     r2,[r5,#0xb]          ;320  ; code6
0005b2  f2af0190          ADR      r1,|L10.1316|
0005b6  483e              LDR      r0,|L10.1712|
0005b8  f7fffffe          BL       __2sprintf
0005bc  493c              LDR      r1,|L10.1712|
0005be  4638              MOV      r0,r7                 ;321
0005c0  f7fffffe          BL       TEXT_SetText
0005c4  4631              MOV      r1,r6                 ;322
0005c6  4638              MOV      r0,r7                 ;322
0005c8  f7fffffe          BL       TEXT_SetTextColor
0005cc  4937              LDR      r1,|L10.1708|
0005ce  4638              MOV      r0,r7                 ;323
0005d0  f7fffffe          BL       TEXT_SetFont
0005d4  f6403106          MOV      r1,#0xb06             ;325
0005d8  6860              LDR      r0,[r4,#4]            ;325
0005da  f7fffffe          BL       WM_GetDialogItem
0005de  4607              MOV      r7,r0                 ;325
0005e0  f7fffffe          BL       GUI_UC_SetEncodeUTF8
0005e4  7b2a              LDRB     r2,[r5,#0xc]          ;327  ; code7
0005e6  f2af01c4          ADR      r1,|L10.1316|
0005ea  4831              LDR      r0,|L10.1712|
0005ec  f7fffffe          BL       __2sprintf
0005f0  492f              LDR      r1,|L10.1712|
0005f2  4638              MOV      r0,r7                 ;328
0005f4  f7fffffe          BL       TEXT_SetText
0005f8  4631              MOV      r1,r6                 ;329
0005fa  4638              MOV      r0,r7                 ;329
0005fc  f7fffffe          BL       TEXT_SetTextColor
000600  492a              LDR      r1,|L10.1708|
000602  4638              MOV      r0,r7                 ;330
000604  f7fffffe          BL       TEXT_SetFont
000608  f6403107          MOV      r1,#0xb07             ;332
00060c  6860              LDR      r0,[r4,#4]            ;332
00060e  f7fffffe          BL       WM_GetDialogItem
000612  4607              MOV      r7,r0                 ;332
000614  f7fffffe          BL       GUI_UC_SetEncodeUTF8
000618  7b6a              LDRB     r2,[r5,#0xd]          ;334  ; code8
00061a  f2af01f8          ADR      r1,|L10.1316|
00061e  4824              LDR      r0,|L10.1712|
000620  f7fffffe          BL       __2sprintf
000624  4922              LDR      r1,|L10.1712|
000626  4638              MOV      r0,r7                 ;335
000628  f7fffffe          BL       TEXT_SetText
00062c  4631              MOV      r1,r6                 ;336
00062e  4638              MOV      r0,r7                 ;336
000630  f7fffffe          BL       TEXT_SetTextColor
000634  491d              LDR      r1,|L10.1708|
000636  4638              MOV      r0,r7                 ;337
000638  f7fffffe          BL       TEXT_SetFont
00063c  f6403108          MOV      r1,#0xb08             ;339
000640  6860              LDR      r0,[r4,#4]            ;339
000642  f7fffffe          BL       WM_GetDialogItem
000646  4607              MOV      r7,r0                 ;339
000648  f7fffffe          BL       GUI_UC_SetEncodeUTF8
00064c  79aa              LDRB     r2,[r5,#6]            ;341  ; code1
00064e  f2af112c          ADR      r1,|L10.1316|
000652  4817              LDR      r0,|L10.1712|
000654  f7fffffe          BL       __2sprintf
000658  4915              LDR      r1,|L10.1712|
00065a  4638              MOV      r0,r7                 ;342
00065c  f7fffffe          BL       TEXT_SetText
000660  4631              MOV      r1,r6                 ;343
000662  4638              MOV      r0,r7                 ;343
000664  f7fffffe          BL       TEXT_SetTextColor
000668  4910              LDR      r1,|L10.1708|
00066a  4638              MOV      r0,r7                 ;344
00066c  f7fffffe          BL       TEXT_SetFont
000670  f6403109          MOV      r1,#0xb09             ;346
000674  6860              LDR      r0,[r4,#4]            ;346
000676  f7fffffe          BL       WM_GetDialogItem
00067a  4604              MOV      r4,r0                 ;346
00067c  f7fffffe          BL       GUI_UC_SetEncodeUTF8
000680  79ea              LDRB     r2,[r5,#7]            ;348  ; code2
000682  f2af1160          ADR      r1,|L10.1316|
000686  480a              LDR      r0,|L10.1712|
000688  f7fffffe          BL       __2sprintf
00068c  4908              LDR      r1,|L10.1712|
00068e  4620              MOV      r0,r4                 ;349
000690  f7fffffe          BL       TEXT_SetText
000694  4631              MOV      r1,r6                 ;350
000696  4620              MOV      r0,r4                 ;350
000698  f7fffffe          BL       TEXT_SetTextColor
00069c  4620              MOV      r0,r4                 ;351
00069e  e8bd41f0          POP      {r4-r8,lr}            ;351
0006a2  4902              LDR      r1,|L10.1708|
0006a4  f7ffbffe          B.W      TEXT_SetFont
                  |L10.1704|
;;;362            break;
;;;363      }
;;;364    }
0006a8  e8bd81f0          POP      {r4-r8,pc}
;;;365    
                          ENDP

                  |L10.1708|
                          DCD      GUI_Font24_1
                  |L10.1712|
                          DCD      ||.data||+0x1c

                          AREA ||.constdata||, DATA, READONLY, ALIGN=2

                  _aDialogCreate7
                          DCD      WINDOW_CreateIndirect
                          DCD      ||.conststring||
000008  08980000          DCW      0x0898,0x0000
00000c  000001e0          DCW      0x0000,0x01e0
000010  01100000          DCW      0x0110,0x0000
                          DCD      0x00000000
                          DCD      0x00000000
                          DCD      TEXT_CreateIndirect
                          DCD      ||.conststring||+0x8
000024  089900b4          DCW      0x0899,0x00b4
000028  007d000c          DCW      0x007d,0x000c
00002c  00140000          DCW      0x0014,0x0000
                          DCD      0x00000000
                          DCD      0x00000000
                          DCD      TEXT_CreateIndirect
                          DCD      ||.conststring||+0x8
000040  089a00c0          DCW      0x089a,0x00c0
000044  007d000c          DCW      0x007d,0x000c
000048  00140000          DCW      0x0014,0x0000
                          DCD      0x00000000
                          DCD      0x00000000
                          DCD      TEXT_CreateIndirect
                          DCD      ||.conststring||+0x8
00005c  089b00cc          DCW      0x089b,0x00cc
000060  007d000c          DCW      0x007d,0x000c
000064  00140000          DCW      0x0014,0x0000
                          DCD      0x00000000
                          DCD      0x00000000
                          DCD      TEXT_CreateIndirect
                          DCD      ||.conststring||+0x8
000078  089c00d8          DCW      0x089c,0x00d8
00007c  007d000c          DCW      0x007d,0x000c
000080  00140000          DCW      0x0014,0x0000
                          DCD      0x00000000
                          DCD      0x00000000
                          DCD      TEXT_CreateIndirect
                          DCD      ||.conststring||+0x8
000094  089d00f0          DCW      0x089d,0x00f0
000098  007d000c          DCW      0x007d,0x000c
00009c  00140000          DCW      0x0014,0x0000
                          DCD      0x00000000
                          DCD      0x00000000
                          DCD      TEXT_CreateIndirect
                          DCD      ||.conststring||+0x8
0000b0  089e00fc          DCW      0x089e,0x00fc
0000b4  007d000c          DCW      0x007d,0x000c
0000b8  00140000          DCW      0x0014,0x0000
                          DCD      0x00000000
                          DCD      0x00000000
                          DCD      TEXT_CreateIndirect
                          DCD      ||.conststring||+0x8
0000cc  0b000114          DCW      0x0b00,0x0114
0000d0  007d000c          DCW      0x007d,0x000c
0000d4  00140000          DCW      0x0014,0x0000
                          DCD      0x00000000
                          DCD      0x00000000
                          DCD      TEXT_CreateIndirect
                          DCD      ||.conststring||+0x8
0000e8  0b010120          DCW      0x0b01,0x0120
0000ec  007d000c          DCW      0x007d,0x000c
0000f0  00140000          DCW      0x0014,0x0000
                          DCD      0x00000000
                          DCD      0x00000000
                          DCD      TEXT_CreateIndirect
                          DCD      ||.conststring||+0x8
000104  0b0200d8          DCW      0x0b02,0x00d8
000108  0096000c          DCW      0x0096,0x000c
00010c  00140000          DCW      0x0014,0x0000
                          DCD      0x00000000
                          DCD      0x00000000
                          DCD      TEXT_CreateIndirect
                          DCD      ||.conststring||+0x8
000120  0b0300e4          DCW      0x0b03,0x00e4
000124  0096000c          DCW      0x0096,0x000c
000128  00140000          DCW      0x0014,0x0000
                          DCD      0x00000000
                          DCD      0x00000000
                          DCD      TEXT_CreateIndirect
                          DCD      ||.conststring||+0x8
00013c  0b0400f0          DCW      0x0b04,0x00f0
000140  0096000c          DCW      0x0096,0x000c
000144  00140000          DCW      0x0014,0x0000
                          DCD      0x00000000
                          DCD      0x00000000
                          DCD      TEXT_CreateIndirect
                          DCD      ||.conststring||+0x8
000158  0b0500fc          DCW      0x0b05,0x00fc
00015c  0096000c          DCW      0x0096,0x000c
000160  00140000          DCW      0x0014,0x0000
                          DCD      0x00000000
                          DCD      0x00000000
                          DCD      TEXT_CreateIndirect
                          DCD      ||.conststring||+0x8
000174  0b060108          DCW      0x0b06,0x0108
000178  0096000c          DCW      0x0096,0x000c
00017c  00140000          DCW      0x0014,0x0000
                          DCD      0x00000000
                          DCD      0x00000000
                          DCD      TEXT_CreateIndirect
                          DCD      ||.conststring||+0x8
000190  0b070114          DCW      0x0b07,0x0114
000194  0096000c          DCW      0x0096,0x000c
000198  00140000          DCW      0x0014,0x0000
                          DCD      0x00000000
                          DCD      0x00000000
                          DCD      TEXT_CreateIndirect
                          DCD      ||.conststring||+0x8
0001ac  0b0800b4          DCW      0x0b08,0x00b4
0001b0  0096000c          DCW      0x0096,0x000c
0001b4  00140000          DCW      0x0014,0x0000
                          DCD      0x00000000
                          DCD      0x00000000
                          DCD      TEXT_CreateIndirect
                          DCD      ||.conststring||+0x8
0001c8  0b0900c0          DCW      0x0b09,0x00c0
0001cc  0096000c          DCW      0x0096,0x000c
0001d0  00140000          DCW      0x0014,0x0000
                          DCD      0x00000000
                          DCD      0x00000000
                          DCD      TEXT_CreateIndirect
                          DCD      ||.conststring||+0x8
0001e4  0b1200c0          DCW      0x0b12,0x00c0
0001e8  00c80050          DCW      0x00c8,0x0050
0001ec  00140000          DCW      0x0014,0x0000
                          DCD      0x00000000
                          DCD      0x00000000

                          AREA ||.conststring||, DATA, READONLY, MERGE=1, STRINGS, ALIGN=2

000000  53595349          DCB      "SYSINFO",0
000004  4e464f00
000008  54657874          DCB      "Text",0
00000c  00      

                          AREA ||.data||, DATA, ALIGN=2

                  info_set
000000  2f                DCB      0x2f
                  month1
000001  00                DCB      0x00
                  month2
000002  00                DCB      0x00
                  day1
000003  00                DCB      0x00
                  day2
000004  00                DCB      0x00
                  admin
000005  00                DCB      0x00
                  code1
000006  00                DCB      0x00
                  code2
000007  00                DCB      0x00
                  code3
000008  00                DCB      0x00
                  code4
000009  00                DCB      0x00
                  code5
00000a  00                DCB      0x00
                  code6
00000b  00                DCB      0x00
                  code7
00000c  00                DCB      0x00
                  code8
00000d  00                DCB      0x00
                  ||cal||
00000e  0000              DCB      0x00,0x00
                  year1
000010  0000              DCW      0x0000
                  year2
000012  0000              DCW      0x0000
                  year3
000014  0000              DCW      0x0000
                  year4
000016  0000              DCW      0x0000
                  hWinsysinfo
                          DCD      0x00000000
                  buf
                          DCD      0x00000000
000020  00                DCB      0x00
                  |symbol_number.54|
000021  000000            DCB      0x00,0x00,0x00
000024  0000              DCB      0x00,0x00

;*** Start embedded assembler ***

#line 1 "..\\APP\\sysinfo.c"
	AREA ||.rev16_text||, CODE
	THUMB
	EXPORT |__asm___9_sysinfo_c_info_set____REV16|
#line 129 "D:\\Keil_v5\\ARM\\CMSIS\\Include\\core_cmInstr.h"
|__asm___9_sysinfo_c_info_set____REV16| PROC
#line 130

 rev16 r0, r0
 bx lr
	ENDP
	AREA ||.revsh_text||, CODE
	THUMB
	EXPORT |__asm___9_sysinfo_c_info_set____REVSH|
#line 144
|__asm___9_sysinfo_c_info_set____REVSH| PROC
#line 145

 revsh r0, r0
 bx lr
	ENDP

;*** End   embedded assembler ***
