; generated by ARM C/C++ Compiler, 4.1 [Build 894]
; commandline ArmCC [--list --split_sections --debug -c --asm --interleave -o..\Output\sysinfo.o --asm_dir=..\Listing\ --list_dir=..\Listing\ --depend=..\Output\sysinfo.d --cpu=Cortex-M4.fp --apcs=interwork -O1 --diag_suppress=870 -I..\APP -I..\drive -I..\Include -I..\Libraries\CMSIS\inc -I..\Libraries\CMSIS\src -I..\Libraries\FWlib\inc -I..\Libraries\FWlib\src -I..\Listing -I..\Output -I..\Project -I..\STemWinLibrary522\Config -I..\STemWinLibrary522\emWinTask -I..\STemWinLibrary522\GUILib -I..\STemWinLibrary522\inc -I..\User -I..\USB\STM32_USB_HOST_Library\Class\HID\inc -I..\USB\STM32_USB_HOST_Library\Class\MSC\src -I..\USB\STM32_USB_HOST_Library\Core\src -I..\USB\USB_APP -I..\USB\STM32_USB_HOST_Library\Class\HID\src -I..\USB\STM32_USB_HOST_Library\Class\MSC\inc -I..\USB\STM32_USB_HOST_Library\Core\inc -I..\USB\STM32_USB_OTG_Driver\inc -I..\FATFS\exfuns -I..\FATFS\src\option -I..\FATFS\src -I..\MALLOC -ID:\Keil\ARM\RV31\Inc -ID:\Keil\ARM\CMSIS\Include -ID:\Keil\ARM\Inc\ST\STM32F4xx -DUSE_STDPERIPH_DRIVER -DSTM32F40XX -DUSE_USB_OTG_FS -DUSE_EMBEDDED_PHY -DUSE_USB_OTG_HS -DSTM32F40XX --omf_browse=..\Output\sysinfo.crf ..\APP\sysinfo.c]
                          THUMB

                          AREA ||i.CFM_PASS||, CODE, READONLY, ALIGN=2

                  CFM_PASS PROC
;;;1421   WM_HWIN CFM_PASS(void);            
;;;1422   WM_HWIN CFM_PASS(void){
000000  b570              PUSH     {r4-r6,lr}
;;;1423       if(admin == 1)
000002  4d13              LDR      r5,|L1.80|
000004  7969              LDRB     r1,[r5,#5]  ; admin
000006  4628              MOV      r0,r5
;;;1424       {
;;;1425           WM_HWIN hItem;
;;;1426           hItem = WM_GetDialogItem(hWinsysinfo, ID_TEXT_99);
;;;1427           TEXT_SetBkColor(hItem,0x00BFFFFF);
000008  4e12              LDR      r6,|L1.84|
00000a  6980              LDR      r0,[r0,#0x18]         ;1426
00000c  f6400299          MOV      r2,#0x899             ;1426
000010  2901              CMP      r1,#1                 ;1423
000012  d00f              BEQ      |L1.52|
;;;1428           TEXT_SetTextColor(hItem, GUI_BLACK);
;;;1429       }else{
;;;1430           WM_HWIN hItem;
;;;1431           hItem = WM_GetDialogItem(hWinsysinfo, ID_TEXT_99);
000014  4611              MOV      r1,r2
000016  f7fffffe          BL       WM_GetDialogItem
00001a  4604              MOV      r4,r0
;;;1432           TEXT_SetBkColor(hItem,GUI_INVALID_COLOR);
00001c  f06f4170          MVN      r1,#0xf0000000
000020  4620              MOV      r0,r4
000022  f7fffffe          BL       TEXT_SetBkColor
;;;1433           TEXT_SetTextColor(hItem, 0x00BFFFFF);
000026  4631              MOV      r1,r6
000028  4620              MOV      r0,r4
00002a  f7fffffe          BL       TEXT_SetTextColor
;;;1434           info_set = set_48;
00002e  202f              MOVS     r0,#0x2f
000030  7028              STRB     r0,[r5,#0]
;;;1435       }
;;;1436   }
000032  bd70              POP      {r4-r6,pc}
                  |L1.52|
000034  4611              MOV      r1,r2                 ;1426
000036  f7fffffe          BL       WM_GetDialogItem
00003a  4604              MOV      r4,r0                 ;1426
00003c  4631              MOV      r1,r6                 ;1427
00003e  4620              MOV      r0,r4                 ;1427
000040  f7fffffe          BL       TEXT_SetBkColor
000044  4620              MOV      r0,r4                 ;1428
000046  e8bd4070          POP      {r4-r6,lr}            ;1428
00004a  2100              MOVS     r1,#0                 ;1428
00004c  f7ffbffe          B.W      TEXT_SetTextColor
;;;1437   
                          ENDP

                  |L1.80|
                          DCD      ||.data||
                  |L1.84|
                          DCD      0x00bfffff

                          AREA ||i.Createsysinfo||, CODE, READONLY, ALIGN=2

                  Createsysinfo PROC
;;;378    WM_HWIN Createsysinfo(void);
;;;379    WM_HWIN Createsysinfo(void) {
000000  b57c              PUSH     {r2-r6,lr}
;;;380      hWinsysinfo  = GUI_CreateDialogBox(_aDialogCreate7, GUI_COUNTOF(_aDialogCreate7), _cbDialog, WM_HBKWIN, 0, 0);
000002  f7fffffe          BL       WM_GetDesktopWindow
000006  2400              MOVS     r4,#0
000008  4603              MOV      r3,r0
00000a  9400              STR      r4,[sp,#0]
00000c  4a0c              LDR      r2,|L2.64|
00000e  2112              MOVS     r1,#0x12
000010  480c              LDR      r0,|L2.68|
000012  9401              STR      r4,[sp,#4]
000014  f7fffffe          BL       GUI_CreateDialogBox
000018  4d0b              LDR      r5,|L2.72|
00001a  61a8              STR      r0,[r5,#0x18]  ; hWinsysinfo
;;;381      pass = 0;
00001c  480b              LDR      r0,|L2.76|
00001e  7004              STRB     r4,[r0,#0]
;;;382      page_sw = face_sys_info;
000020  490b              LDR      r1,|L2.80|
000022  2007              MOVS     r0,#7
000024  7008              STRB     r0,[r1,#0]
;;;383      load_sw = load_off;
000026  480b              LDR      r0,|L2.84|
000028  7004              STRB     r4,[r0,#0]
;;;384      pow_sw == pow_off;
00002a  480b              LDR      r0,|L2.88|
00002c  7800              LDRB     r0,[r0,#0]  ; pow_sw
;;;385      GPIO_ResetBits(GPIOB,GPIO_Pin_13);
00002e  f44f5100          MOV      r1,#0x2000
000032  480a              LDR      r0,|L2.92|
000034  f7fffffe          BL       GPIO_ResetBits
;;;386      info_set = set_48;
000038  202f              MOVS     r0,#0x2f
00003a  7028              STRB     r0,[r5,#0]
;;;387      return hWinsysinfo;
00003c  69a8              LDR      r0,[r5,#0x18]  ; hWinsysinfo
;;;388    }
00003e  bd7c              POP      {r2-r6,pc}
;;;389    
                          ENDP

                  |L2.64|
                          DCD      _cbDialog
                  |L2.68|
                          DCD      ||.constdata||
                  |L2.72|
                          DCD      ||.data||
                  |L2.76|
                          DCD      pass
                  |L2.80|
                          DCD      page_sw
                  |L2.84|
                          DCD      load_sw
                  |L2.88|
                          DCD      pow_sw
                  |L2.92|
                          DCD      0x40020400

                          AREA ||i.INPUT_INFO||, CODE, READONLY, ALIGN=2

                          REQUIRE _printf_percent
                          REQUIRE _printf_d
                          REQUIRE _printf_int_dec
                  INPUT_INFO PROC
;;;1267             
;;;1268   void INPUT_INFO(vu8 num){
000000  b570              PUSH     {r4-r6,lr}
000002  4604              MOV      r4,r0
;;;1269       static char buf[5];
;;;1270       WM_HWIN hItem;
;;;1271       switch(info_set)
000004  4eb4              LDR      r6,|L3.728|
000006  7831              LDRB     r1,[r6,#0]  ; info_set
000008  4630              MOV      r0,r6
00000a  392f              SUBS     r1,r1,#0x2f
;;;1272       {
;;;1273           case set_48:
;;;1274           {
;;;1275               hItem = WM_GetDialogItem(hWinsysinfo, ID_TEXT_99);
00000c  6980              LDR      r0,[r0,#0x18]
00000e  2910              CMP      r1,#0x10              ;1271
000010  d27e              BCS      |L3.272|
000012  e8dff001          TBB      [pc,r1]               ;1271
000016  081d              DCB      0x08,0x1d
000018  32475c71          DCB      0x32,0x47,0x5c,0x71
00001c  889db2c7          DCB      0x88,0x9d,0xb2,0xc7
000020  dcf1fefd          DCB      0xdc,0xf1,0xfe,0xfd
000024  fcfb              DCB      0xfc,0xfb
000026  f6400199          MOV      r1,#0x899
00002a  f7fffffe          BL       WM_GetDialogItem
00002e  4605              MOV      r5,r0
;;;1276               sprintf(buf,"%d",num);
000030  48a9              LDR      r0,|L3.728|
000032  4622              MOV      r2,r4
000034  a1a9              ADR      r1,|L3.732|
000036  3021              ADDS     r0,r0,#0x21
000038  f7fffffe          BL       __2sprintf
;;;1277               TEXT_SetText(hItem,buf);
00003c  49a6              LDR      r1,|L3.728|
00003e  4628              MOV      r0,r5
000040  3121              ADDS     r1,r1,#0x21
000042  f7fffffe          BL       TEXT_SetText
;;;1278               year1 = num;
000046  8234              STRH     r4,[r6,#0x10]
;;;1279               Write_info();
000048  e8bd4070          POP      {r4-r6,lr}
00004c  f7ffbffe          B.W      Write_info
;;;1280               break;
;;;1281           }
;;;1282           case set_49:
;;;1283           {
;;;1284               hItem = WM_GetDialogItem(hWinsysinfo, ID_TEXT_100);
000050  f640019a          MOV      r1,#0x89a
000054  f7fffffe          BL       WM_GetDialogItem
000058  4605              MOV      r5,r0
;;;1285               sprintf(buf,"%d",num);
00005a  489f              LDR      r0,|L3.728|
00005c  4622              MOV      r2,r4
00005e  a19f              ADR      r1,|L3.732|
000060  3021              ADDS     r0,r0,#0x21
000062  f7fffffe          BL       __2sprintf
;;;1286               TEXT_SetText(hItem,buf);
000066  499c              LDR      r1,|L3.728|
000068  4628              MOV      r0,r5
00006a  3121              ADDS     r1,r1,#0x21
00006c  f7fffffe          BL       TEXT_SetText
;;;1287               year2= num;
000070  8274              STRH     r4,[r6,#0x12]
;;;1288               Write_info();
000072  e8bd4070          POP      {r4-r6,lr}
000076  f7ffbffe          B.W      Write_info
;;;1289               break;
;;;1290           }
;;;1291           case set_50:
;;;1292           {
;;;1293               hItem = WM_GetDialogItem(hWinsysinfo, ID_TEXT_101);
00007a  f640019b          MOV      r1,#0x89b
00007e  f7fffffe          BL       WM_GetDialogItem
000082  4605              MOV      r5,r0
;;;1294               sprintf(buf,"%d",num);
000084  4894              LDR      r0,|L3.728|
000086  4622              MOV      r2,r4
000088  a194              ADR      r1,|L3.732|
00008a  3021              ADDS     r0,r0,#0x21
00008c  f7fffffe          BL       __2sprintf
;;;1295               TEXT_SetText(hItem,buf);
000090  4991              LDR      r1,|L3.728|
000092  4628              MOV      r0,r5
000094  3121              ADDS     r1,r1,#0x21
000096  f7fffffe          BL       TEXT_SetText
;;;1296               year3= num;
00009a  82b4              STRH     r4,[r6,#0x14]
;;;1297               Write_info();
00009c  e8bd4070          POP      {r4-r6,lr}
0000a0  f7ffbffe          B.W      Write_info
;;;1298               break;
;;;1299           }
;;;1300           case set_51:
;;;1301           {
;;;1302               hItem = WM_GetDialogItem(hWinsysinfo, ID_TEXT_102);
0000a4  f640019c          MOV      r1,#0x89c
0000a8  f7fffffe          BL       WM_GetDialogItem
0000ac  4605              MOV      r5,r0
;;;1303               sprintf(buf,"%d",num);
0000ae  488a              LDR      r0,|L3.728|
0000b0  4622              MOV      r2,r4
0000b2  a18a              ADR      r1,|L3.732|
0000b4  3021              ADDS     r0,r0,#0x21
0000b6  f7fffffe          BL       __2sprintf
;;;1304               TEXT_SetText(hItem,buf);
0000ba  4987              LDR      r1,|L3.728|
0000bc  4628              MOV      r0,r5
0000be  3121              ADDS     r1,r1,#0x21
0000c0  f7fffffe          BL       TEXT_SetText
;;;1305               year4= num;
0000c4  82f4              STRH     r4,[r6,#0x16]
;;;1306               Write_info();
0000c6  e8bd4070          POP      {r4-r6,lr}
0000ca  f7ffbffe          B.W      Write_info
;;;1307               break;
;;;1308           }
;;;1309           case set_52:
;;;1310           {
;;;1311               hItem = WM_GetDialogItem(hWinsysinfo, ID_TEXT_103);
0000ce  f640019d          MOV      r1,#0x89d
0000d2  f7fffffe          BL       WM_GetDialogItem
0000d6  4605              MOV      r5,r0
;;;1312               sprintf(buf,"%d",num);
0000d8  487f              LDR      r0,|L3.728|
0000da  4622              MOV      r2,r4
0000dc  a17f              ADR      r1,|L3.732|
0000de  3021              ADDS     r0,r0,#0x21
0000e0  f7fffffe          BL       __2sprintf
;;;1313               TEXT_SetText(hItem,buf);
0000e4  497c              LDR      r1,|L3.728|
0000e6  4628              MOV      r0,r5
0000e8  3121              ADDS     r1,r1,#0x21
0000ea  f7fffffe          BL       TEXT_SetText
;;;1314               month1 = num;
0000ee  7074              STRB     r4,[r6,#1]
;;;1315               Write_info();
0000f0  e8bd4070          POP      {r4-r6,lr}
0000f4  f7ffbffe          B.W      Write_info
;;;1316               break;
;;;1317           }
;;;1318           case set_53:
;;;1319           {
;;;1320               hItem = WM_GetDialogItem(hWinsysinfo, ID_TEXT_104);
0000f8  f640019e          MOV      r1,#0x89e
0000fc  f7fffffe          BL       WM_GetDialogItem
000100  4605              MOV      r5,r0
;;;1321               sprintf(buf,"%d",num);
000102  4875              LDR      r0,|L3.728|
000104  4622              MOV      r2,r4
000106  a175              ADR      r1,|L3.732|
000108  3021              ADDS     r0,r0,#0x21
00010a  f7fffffe          BL       __2sprintf
;;;1322               TEXT_SetText(hItem,buf);
00010e  e000              B        |L3.274|
                  |L3.272|
000110  e0e0              B        |L3.724|
                  |L3.274|
000112  4971              LDR      r1,|L3.728|
000114  4628              MOV      r0,r5
000116  3121              ADDS     r1,r1,#0x21
000118  f7fffffe          BL       TEXT_SetText
;;;1323               month2 = num;
00011c  70b4              STRB     r4,[r6,#2]
;;;1324               Write_info();
00011e  e8bd4070          POP      {r4-r6,lr}
000122  f7ffbffe          B.W      Write_info
;;;1325               break;
;;;1326           }
;;;1327           case set_54:
;;;1328           {
;;;1329               hItem = WM_GetDialogItem(hWinsysinfo, ID_TEXT_105);
000126  f44f6130          MOV      r1,#0xb00
00012a  f7fffffe          BL       WM_GetDialogItem
00012e  4605              MOV      r5,r0
;;;1330               sprintf(buf,"%d",num);
000130  4869              LDR      r0,|L3.728|
000132  4622              MOV      r2,r4
000134  a169              ADR      r1,|L3.732|
000136  3021              ADDS     r0,r0,#0x21
000138  f7fffffe          BL       __2sprintf
;;;1331               TEXT_SetText(hItem,buf);
00013c  4966              LDR      r1,|L3.728|
00013e  4628              MOV      r0,r5
000140  3121              ADDS     r1,r1,#0x21
000142  f7fffffe          BL       TEXT_SetText
;;;1332               day1 = num;
000146  70f4              STRB     r4,[r6,#3]
;;;1333               Write_info();
000148  e8bd4070          POP      {r4-r6,lr}
00014c  f7ffbffe          B.W      Write_info
;;;1334               break;
;;;1335           }
;;;1336           case set_55:
;;;1337           {
;;;1338               hItem = WM_GetDialogItem(hWinsysinfo, ID_TEXT_106);
000150  f6403101          MOV      r1,#0xb01
000154  f7fffffe          BL       WM_GetDialogItem
000158  4605              MOV      r5,r0
;;;1339               sprintf(buf,"%d",num);
00015a  485f              LDR      r0,|L3.728|
00015c  4622              MOV      r2,r4
00015e  a15f              ADR      r1,|L3.732|
000160  3021              ADDS     r0,r0,#0x21
000162  f7fffffe          BL       __2sprintf
;;;1340               TEXT_SetText(hItem,buf);
000166  495c              LDR      r1,|L3.728|
000168  4628              MOV      r0,r5
00016a  3121              ADDS     r1,r1,#0x21
00016c  f7fffffe          BL       TEXT_SetText
;;;1341               day2 = num;
000170  7134              STRB     r4,[r6,#4]
;;;1342               Write_info();
000172  e8bd4070          POP      {r4-r6,lr}
000176  f7ffbffe          B.W      Write_info
;;;1343               break;
;;;1344           }
;;;1345           case set_56:
;;;1346           {
;;;1347               hItem = WM_GetDialogItem(hWinsysinfo, ID_TEXT_107);
00017a  f6403102          MOV      r1,#0xb02
00017e  f7fffffe          BL       WM_GetDialogItem
000182  4605              MOV      r5,r0
;;;1348               sprintf(buf,"%d",num);
000184  4854              LDR      r0,|L3.728|
000186  4622              MOV      r2,r4
000188  a154              ADR      r1,|L3.732|
00018a  3021              ADDS     r0,r0,#0x21
00018c  f7fffffe          BL       __2sprintf
;;;1349               TEXT_SetText(hItem,buf);
000190  4951              LDR      r1,|L3.728|
000192  4628              MOV      r0,r5
000194  3121              ADDS     r1,r1,#0x21
000196  f7fffffe          BL       TEXT_SetText
;;;1350               code3 = num;
00019a  7234              STRB     r4,[r6,#8]
;;;1351               Write_info();
00019c  e8bd4070          POP      {r4-r6,lr}
0001a0  f7ffbffe          B.W      Write_info
;;;1352               break;
;;;1353           }
;;;1354           case set_57:
;;;1355           {
;;;1356               hItem = WM_GetDialogItem(hWinsysinfo, ID_TEXT_108);
0001a4  f6403103          MOV      r1,#0xb03
0001a8  f7fffffe          BL       WM_GetDialogItem
0001ac  4605              MOV      r5,r0
;;;1357               sprintf(buf,"%d",num);
0001ae  484a              LDR      r0,|L3.728|
0001b0  4622              MOV      r2,r4
0001b2  a14a              ADR      r1,|L3.732|
0001b4  3021              ADDS     r0,r0,#0x21
0001b6  f7fffffe          BL       __2sprintf
;;;1358               TEXT_SetText(hItem,buf);
0001ba  4947              LDR      r1,|L3.728|
0001bc  4628              MOV      r0,r5
0001be  3121              ADDS     r1,r1,#0x21
0001c0  f7fffffe          BL       TEXT_SetText
;;;1359               code4 = num;
0001c4  7274              STRB     r4,[r6,#9]
;;;1360               Write_info();
0001c6  e8bd4070          POP      {r4-r6,lr}
0001ca  f7ffbffe          B.W      Write_info
;;;1361               break;
;;;1362           }
;;;1363           case set_58:
;;;1364           {
;;;1365               hItem = WM_GetDialogItem(hWinsysinfo, ID_TEXT_109);
0001ce  f6403104          MOV      r1,#0xb04
0001d2  f7fffffe          BL       WM_GetDialogItem
0001d6  4605              MOV      r5,r0
;;;1366               sprintf(buf,"%d",num);
0001d8  483f              LDR      r0,|L3.728|
0001da  4622              MOV      r2,r4
0001dc  a13f              ADR      r1,|L3.732|
0001de  3021              ADDS     r0,r0,#0x21
0001e0  f7fffffe          BL       __2sprintf
;;;1367               TEXT_SetText(hItem,buf);
0001e4  493c              LDR      r1,|L3.728|
0001e6  4628              MOV      r0,r5
0001e8  3121              ADDS     r1,r1,#0x21
0001ea  f7fffffe          BL       TEXT_SetText
;;;1368               code5 = num;
0001ee  72b4              STRB     r4,[r6,#0xa]
;;;1369               Write_info();
0001f0  e8bd4070          POP      {r4-r6,lr}
0001f4  f7ffbffe          B.W      Write_info
;;;1370               break;
;;;1371           }
;;;1372           case set_59:
;;;1373           {
;;;1374               hItem = WM_GetDialogItem(hWinsysinfo, ID_TEXT_110);
0001f8  f6403105          MOV      r1,#0xb05
0001fc  f7fffffe          BL       WM_GetDialogItem
000200  4605              MOV      r5,r0
;;;1375               sprintf(buf,"%d",num);
000202  4835              LDR      r0,|L3.728|
000204  4622              MOV      r2,r4
000206  a135              ADR      r1,|L3.732|
000208  3021              ADDS     r0,r0,#0x21
00020a  e003              B        |L3.532|
00020c  e04d              B        |L3.682|
00020e  e037              B        |L3.640|
000210  e021              B        |L3.598|
000212  e00b              B        |L3.556|
                  |L3.532|
000214  f7fffffe          BL       __2sprintf
;;;1376               TEXT_SetText(hItem,buf);
000218  492f              LDR      r1,|L3.728|
00021a  4628              MOV      r0,r5
00021c  3121              ADDS     r1,r1,#0x21
00021e  f7fffffe          BL       TEXT_SetText
;;;1377               code6 = num;
000222  72f4              STRB     r4,[r6,#0xb]
;;;1378               Write_info();
000224  e8bd4070          POP      {r4-r6,lr}
000228  f7ffbffe          B.W      Write_info
                  |L3.556|
;;;1379               break;
;;;1380           }
;;;1381           case set_60:
;;;1382           {
;;;1383               hItem = WM_GetDialogItem(hWinsysinfo, ID_TEXT_111);
00022c  f6403106          MOV      r1,#0xb06
000230  f7fffffe          BL       WM_GetDialogItem
000234  4605              MOV      r5,r0
;;;1384               sprintf(buf,"%d",num);
000236  4828              LDR      r0,|L3.728|
000238  4622              MOV      r2,r4
00023a  a128              ADR      r1,|L3.732|
00023c  3021              ADDS     r0,r0,#0x21
00023e  f7fffffe          BL       __2sprintf
;;;1385               TEXT_SetText(hItem,buf);
000242  4925              LDR      r1,|L3.728|
000244  4628              MOV      r0,r5
000246  3121              ADDS     r1,r1,#0x21
000248  f7fffffe          BL       TEXT_SetText
;;;1386               code7 = num;
00024c  7334              STRB     r4,[r6,#0xc]
;;;1387               Write_info();
00024e  e8bd4070          POP      {r4-r6,lr}
000252  f7ffbffe          B.W      Write_info
                  |L3.598|
;;;1388               break;
;;;1389           }
;;;1390           case set_61:
;;;1391           {
;;;1392               hItem = WM_GetDialogItem(hWinsysinfo, ID_TEXT_112);
000256  f6403107          MOV      r1,#0xb07
00025a  f7fffffe          BL       WM_GetDialogItem
00025e  4605              MOV      r5,r0
;;;1393               sprintf(buf,"%d",num);
000260  481d              LDR      r0,|L3.728|
000262  4622              MOV      r2,r4
000264  a11d              ADR      r1,|L3.732|
000266  3021              ADDS     r0,r0,#0x21
000268  f7fffffe          BL       __2sprintf
;;;1394               TEXT_SetText(hItem,buf);
00026c  491a              LDR      r1,|L3.728|
00026e  4628              MOV      r0,r5
000270  3121              ADDS     r1,r1,#0x21
000272  f7fffffe          BL       TEXT_SetText
;;;1395               code8 = num;
000276  7374              STRB     r4,[r6,#0xd]
;;;1396               Write_info();
000278  e8bd4070          POP      {r4-r6,lr}
00027c  f7ffbffe          B.W      Write_info
                  |L3.640|
;;;1397               break;
;;;1398           }
;;;1399           case set_62:
;;;1400           {
;;;1401               hItem = WM_GetDialogItem(hWinsysinfo, ID_TEXT_113);
000280  f6403108          MOV      r1,#0xb08
000284  f7fffffe          BL       WM_GetDialogItem
000288  4605              MOV      r5,r0
;;;1402               sprintf(buf,"%d",num);
00028a  4813              LDR      r0,|L3.728|
00028c  4622              MOV      r2,r4
00028e  a113              ADR      r1,|L3.732|
000290  3021              ADDS     r0,r0,#0x21
000292  f7fffffe          BL       __2sprintf
;;;1403               TEXT_SetText(hItem,buf);
000296  4910              LDR      r1,|L3.728|
000298  4628              MOV      r0,r5
00029a  3121              ADDS     r1,r1,#0x21
00029c  f7fffffe          BL       TEXT_SetText
;;;1404               code1 = num;
0002a0  71b4              STRB     r4,[r6,#6]
;;;1405               Write_info();
0002a2  e8bd4070          POP      {r4-r6,lr}
0002a6  f7ffbffe          B.W      Write_info
                  |L3.682|
;;;1406               break;
;;;1407           }
;;;1408           case set_63:
;;;1409           {
;;;1410               hItem = WM_GetDialogItem(hWinsysinfo, ID_TEXT_114);
0002aa  f6403109          MOV      r1,#0xb09
0002ae  f7fffffe          BL       WM_GetDialogItem
0002b2  4605              MOV      r5,r0
;;;1411               sprintf(buf,"%d",num);
0002b4  4808              LDR      r0,|L3.728|
0002b6  4622              MOV      r2,r4
0002b8  a108              ADR      r1,|L3.732|
0002ba  3021              ADDS     r0,r0,#0x21
0002bc  f7fffffe          BL       __2sprintf
;;;1412               TEXT_SetText(hItem,buf);
0002c0  4905              LDR      r1,|L3.728|
0002c2  4628              MOV      r0,r5
0002c4  3121              ADDS     r1,r1,#0x21
0002c6  f7fffffe          BL       TEXT_SetText
;;;1413               code2 = num;
0002ca  71f4              STRB     r4,[r6,#7]
;;;1414               Write_info();
0002cc  e8bd4070          POP      {r4-r6,lr}
0002d0  f7ffbffe          B.W      Write_info
                  |L3.724|
;;;1415               break;
;;;1416           }
;;;1417           
;;;1418       }
;;;1419   }
0002d4  bd70              POP      {r4-r6,pc}
;;;1420   
                          ENDP

0002d6  0000              DCW      0x0000
                  |L3.728|
                          DCD      ||.data||
                  |L3.732|
0002dc  256400            DCB      "%d",0
0002df  00                DCB      0

                          AREA ||i.Rhigh_cal||, CODE, READONLY, ALIGN=2

                  Rhigh_cal PROC
;;;1488   
;;;1489   void Rhigh_cal(u8 step)
000000  b570              PUSH     {r4-r6,lr}
;;;1490   {
;;;1491       if(step == 3)
;;;1492       {
;;;1493           Modify_A_READ = Rmon_value;//测量电压值
000002  4b25              LDR      r3,|L4.152|
000004  4a25              LDR      r2,|L4.156|
;;;1494   		Modify_A_ACT = 0x64;//读取低段
000006  4926              LDR      r1,|L4.160|
000008  2803              CMP      r0,#3                 ;1491
00000a  d029              BEQ      |L4.96|
;;;1495       }else if(step == 4){
00000c  2804              CMP      r0,#4
00000e  d12b              BNE      |L4.104|
;;;1496           vu16 var16;
;;;1497           vu32 var32a;
;;;1498           vu32 var32b;
;;;1499           
;;;1500           vu16 var16a;
;;;1501           vu32 var32c;
;;;1502           vu32 var32d;
;;;1503           Modify_B_READ =Rmon_value;//测量电压值
000010  8818              LDRH     r0,[r3,#0]  ; Rmon_value
000012  4b24              LDR      r3,|L4.164|
000014  8018              STRH     r0,[r3,#0]
;;;1504           flag_OverV=1;
000016  4c24              LDR      r4,|L4.168|
000018  6820              LDR      r0,[r4,#0]  ; flagG
00001a  f0400002          ORR      r0,r0,#2
00001e  6020              STR      r0,[r4,#0]  ; flagG
;;;1505           Modify_B_ACT = 0xC8;//读取高段
000020  4d22              LDR      r5,|L4.172|
000022  26c8              MOVS     r6,#0xc8
000024  802e              STRH     r6,[r5,#0]
;;;1506           if(flag_OverV==1)//只有当有数据写入时才能将校准数据写入FLASH
000026  0780              LSLS     r0,r0,#30
000028  d530              BPL      |L4.140|
;;;1507           {
;;;1508               var32a = Modify_B_ACT;
00002a  8828              LDRH     r0,[r5,#0]  ; Modify_B_ACT
;;;1509               var32a = var32a - Modify_A_ACT;
00002c  8809              LDRH     r1,[r1,#0]  ; Modify_A_ACT
00002e  1a40              SUBS     r0,r0,r1
;;;1510               var32a = var32a << 12;
000030  0301              LSLS     r1,r0,#12
;;;1511               var16 = Modify_B_READ - Modify_A_READ;
000032  8818              LDRH     r0,[r3,#0]  ; Modify_B_READ
000034  8812              LDRH     r2,[r2,#0]  ; Modify_A_READ
000036  1a80              SUBS     r0,r0,r2
000038  b280              UXTH     r0,r0
;;;1512               var32a = var32a / var16;
00003a  fbb1f0f0          UDIV     r0,r1,r0
;;;1513               REG_CorrectionRH = var32a;
00003e  4a1c              LDR      r2,|L4.176|
000040  8350              STRH     r0,[r2,#0x1a]
;;;1514               var32a=0;
;;;1515               var32a = Modify_B_ACT;
000042  8828              LDRH     r0,[r5,#0]  ; Modify_B_ACT
;;;1516               var32a = var32a << 12;
000044  0301              LSLS     r1,r0,#12
;;;1517               var32b = Modify_B_READ;
000046  881b              LDRH     r3,[r3,#0]  ; Modify_B_READ
;;;1518               var32b = var32b * REG_CorrectionRH;
000048  8b50              LDRH     r0,[r2,#0x1a]  ; Correct_Parametet
00004a  4358              MULS     r0,r3,r0
;;;1519               if (var32a < var32b)
;;;1520               {
;;;1521                   var32b = var32b - var32a;
;;;1522                   REG_ReadRH_Offset = var32b;
00004c  4b19              LDR      r3,|L4.180|
00004e  4281              CMP      r1,r0                 ;1519
000050  d20b              BCS      |L4.106|
000052  1a40              SUBS     r0,r0,r1              ;1521
000054  6258              STR      r0,[r3,#0x24]  ; Correct_Strong
;;;1523                   Polar3 |= 0x01;
000056  8ad0              LDRH     r0,[r2,#0x16]  ; Correct_Parametet
000058  f0400001          ORR      r0,r0,#1
00005c  82d0              STRH     r0,[r2,#0x16]
00005e  e00a              B        |L4.118|
                  |L4.96|
000060  8818              LDRH     r0,[r3,#0]            ;1493  ; Rmon_value
000062  8010              STRH     r0,[r2,#0]            ;1493
000064  2064              MOVS     r0,#0x64              ;1494
000066  8008              STRH     r0,[r1,#0]            ;1494
                  |L4.104|
;;;1524               }
;;;1525               else 
;;;1526               {
;;;1527                   var32a = var32a - var32b;
;;;1528                   REG_ReadRH_Offset = var32a;
;;;1529                   Polar3 &= ~0x01;
;;;1530               }
;;;1531   //---------------------------------------------------------------------------------------//
;;;1532               Flash_Write_all();	//参数写进FLASH
;;;1533               flag_OverV=0;
;;;1534               Flag_DAC_OFF=0;
;;;1535           }
;;;1536           flag_ADJ_VH=0;//清掉标志位防止一直进入
;;;1537       }
;;;1538   }
000068  bd70              POP      {r4-r6,pc}
                  |L4.106|
00006a  1a08              SUBS     r0,r1,r0              ;1527
00006c  6258              STR      r0,[r3,#0x24]         ;1528  ; Correct_Strong
00006e  8ad0              LDRH     r0,[r2,#0x16]         ;1529  ; Correct_Parametet
000070  f0200001          BIC      r0,r0,#1              ;1529
000074  82d0              STRH     r0,[r2,#0x16]         ;1529
                  |L4.118|
000076  f7fffffe          BL       Flash_Write_all
00007a  6820              LDR      r0,[r4,#0]            ;1533  ; flagG
00007c  f0200002          BIC      r0,r0,#2              ;1533
000080  6020              STR      r0,[r4,#0]            ;1533  ; flagG
000082  480d              LDR      r0,|L4.184|
000084  6801              LDR      r1,[r0,#0]            ;1534  ; flagB
000086  f0210108          BIC      r1,r1,#8              ;1534
00008a  6001              STR      r1,[r0,#0]            ;1534  ; flagB
                  |L4.140|
00008c  480b              LDR      r0,|L4.188|
00008e  6801              LDR      r1,[r0,#0]            ;1536  ; flagF
000090  f0210108          BIC      r1,r1,#8              ;1536
000094  6001              STR      r1,[r0,#0]            ;1536  ; flagF
000096  bd70              POP      {r4-r6,pc}
                          ENDP

                  |L4.152|
                          DCD      Rmon_value
                  |L4.156|
                          DCD      Modify_A_READ
                  |L4.160|
                          DCD      Modify_A_ACT
                  |L4.164|
                          DCD      Modify_B_READ
                  |L4.168|
                          DCD      flagG
                  |L4.172|
                          DCD      Modify_B_ACT
                  |L4.176|
                          DCD      Correct_Parametet
                  |L4.180|
                          DCD      Correct_Strong
                  |L4.184|
                          DCD      flagB
                  |L4.188|
                          DCD      flagF

                          AREA ||i.Rlow_cal||, CODE, READONLY, ALIGN=2

                  Rlow_cal PROC
;;;1437   
;;;1438   void Rlow_cal(u8 step)
000000  b570              PUSH     {r4-r6,lr}
;;;1439   {
;;;1440       if(step == 1)
;;;1441       {
;;;1442           Modify_A_READ = Rmon_value;//测量电压值
000002  4b25              LDR      r3,|L5.152|
000004  4a25              LDR      r2,|L5.156|
;;;1443   		Modify_A_ACT = 0x0A;//读取低段
000006  4926              LDR      r1,|L5.160|
000008  2801              CMP      r0,#1                 ;1440
00000a  d029              BEQ      |L5.96|
;;;1444       }else if(step == 2){
00000c  2802              CMP      r0,#2
00000e  d12b              BNE      |L5.104|
;;;1445           vu16 var16;
;;;1446           vu32 var32a;
;;;1447           vu32 var32b;
;;;1448           
;;;1449           vu16 var16a;
;;;1450           vu32 var32c;
;;;1451           vu32 var32d;
;;;1452           Modify_B_READ =Rmon_value;//测量电压值
000010  8818              LDRH     r0,[r3,#0]  ; Rmon_value
000012  4b24              LDR      r3,|L5.164|
000014  8018              STRH     r0,[r3,#0]
;;;1453           flag_OverV=1;
000016  4c24              LDR      r4,|L5.168|
000018  6820              LDR      r0,[r4,#0]  ; flagG
00001a  f0400002          ORR      r0,r0,#2
00001e  6020              STR      r0,[r4,#0]  ; flagG
;;;1454           Modify_B_ACT = 0x64;//读取高段
000020  4d22              LDR      r5,|L5.172|
000022  2664              MOVS     r6,#0x64
000024  802e              STRH     r6,[r5,#0]
;;;1455           if(flag_OverV==1)//只有当有数据写入时才能将校准数据写入FLASH
000026  0780              LSLS     r0,r0,#30
000028  d530              BPL      |L5.140|
;;;1456           {
;;;1457               var32a = Modify_B_ACT;
00002a  8828              LDRH     r0,[r5,#0]  ; Modify_B_ACT
;;;1458               var32a = var32a - Modify_A_ACT;
00002c  8809              LDRH     r1,[r1,#0]  ; Modify_A_ACT
00002e  1a40              SUBS     r0,r0,r1
;;;1459               var32a = var32a << 12;
000030  0301              LSLS     r1,r0,#12
;;;1460               var16 = Modify_B_READ - Modify_A_READ;
000032  8818              LDRH     r0,[r3,#0]  ; Modify_B_READ
000034  8812              LDRH     r2,[r2,#0]  ; Modify_A_READ
000036  1a80              SUBS     r0,r0,r2
000038  b280              UXTH     r0,r0
;;;1461               var32a = var32a / var16;
00003a  fbb1f0f0          UDIV     r0,r1,r0
;;;1462               REG_CorrectionR = var32a;
00003e  4a1c              LDR      r2,|L5.176|
000040  80d0              STRH     r0,[r2,#6]
;;;1463               var32a=0;
;;;1464               var32a = Modify_B_ACT;
000042  8828              LDRH     r0,[r5,#0]  ; Modify_B_ACT
;;;1465               var32a = var32a << 12;
000044  0301              LSLS     r1,r0,#12
;;;1466               var32b = Modify_B_READ;
000046  881b              LDRH     r3,[r3,#0]  ; Modify_B_READ
;;;1467               var32b = var32b * REG_CorrectionR;
000048  88d0              LDRH     r0,[r2,#6]  ; Correct_Parametet
00004a  4358              MULS     r0,r3,r0
;;;1468               if (var32a < var32b)
;;;1469               {
;;;1470                   var32b = var32b - var32a;
;;;1471                   REG_ReadR_Offset = var32b;
00004c  4b19              LDR      r3,|L5.180|
00004e  4281              CMP      r1,r0                 ;1468
000050  d20b              BCS      |L5.106|
000052  1a40              SUBS     r0,r0,r1              ;1470
000054  60d8              STR      r0,[r3,#0xc]  ; Correct_Strong
;;;1472                   Polar3 |= 0x01;
000056  8ad0              LDRH     r0,[r2,#0x16]  ; Correct_Parametet
000058  f0400001          ORR      r0,r0,#1
00005c  82d0              STRH     r0,[r2,#0x16]
00005e  e00a              B        |L5.118|
                  |L5.96|
000060  8818              LDRH     r0,[r3,#0]            ;1442  ; Rmon_value
000062  8010              STRH     r0,[r2,#0]            ;1442
000064  200a              MOVS     r0,#0xa               ;1443
000066  8008              STRH     r0,[r1,#0]            ;1443
                  |L5.104|
;;;1473               }
;;;1474               else 
;;;1475               {
;;;1476                   var32a = var32a - var32b;
;;;1477                   REG_ReadR_Offset = var32a;
;;;1478                   Polar3 &= ~0x01;
;;;1479               }
;;;1480   //---------------------------------------------------------------------------------------//
;;;1481               Flash_Write_all();	//参数写进FLASH
;;;1482               flag_OverV=0;
;;;1483               Flag_DAC_OFF=0;
;;;1484           }
;;;1485           flag_ADJ_VH=0;//清掉标志位防止一直进入
;;;1486       }
;;;1487   }
000068  bd70              POP      {r4-r6,pc}
                  |L5.106|
00006a  1a08              SUBS     r0,r1,r0              ;1476
00006c  60d8              STR      r0,[r3,#0xc]          ;1477  ; Correct_Strong
00006e  8ad0              LDRH     r0,[r2,#0x16]         ;1478  ; Correct_Parametet
000070  f0200001          BIC      r0,r0,#1              ;1478
000074  82d0              STRH     r0,[r2,#0x16]         ;1478
                  |L5.118|
000076  f7fffffe          BL       Flash_Write_all
00007a  6820              LDR      r0,[r4,#0]            ;1482  ; flagG
00007c  f0200002          BIC      r0,r0,#2              ;1482
000080  6020              STR      r0,[r4,#0]            ;1482  ; flagG
000082  480d              LDR      r0,|L5.184|
000084  6801              LDR      r1,[r0,#0]            ;1483  ; flagB
000086  f0210108          BIC      r1,r1,#8              ;1483
00008a  6001              STR      r1,[r0,#0]            ;1483  ; flagB
                  |L5.140|
00008c  480b              LDR      r0,|L5.188|
00008e  6801              LDR      r1,[r0,#0]            ;1485  ; flagF
000090  f0210108          BIC      r1,r1,#8              ;1485
000094  6001              STR      r1,[r0,#0]            ;1485  ; flagF
000096  bd70              POP      {r4-r6,pc}
;;;1488   
                          ENDP

                  |L5.152|
                          DCD      Rmon_value
                  |L5.156|
                          DCD      Modify_A_READ
                  |L5.160|
                          DCD      Modify_A_ACT
                  |L5.164|
                          DCD      Modify_B_READ
                  |L5.168|
                          DCD      flagG
                  |L5.172|
                          DCD      Modify_B_ACT
                  |L5.176|
                          DCD      Correct_Parametet
                  |L5.180|
                          DCD      Correct_Strong
                  |L5.184|
                          DCD      flagB
                  |L5.188|
                          DCD      flagF

                          AREA ||i.SYS_INFO_DOWN||, CODE, READONLY, ALIGN=2

                  SYS_INFO_DOWN PROC
;;;1048   void SYS_INFO_DOWN(void);
;;;1049   void SYS_INFO_DOWN(void)
000000  e92d5ff0          PUSH     {r4-r12,lr}
;;;1050   {
;;;1051       WM_HWIN hItem;
;;;1052       switch(info_set)
000004  f8dfb404          LDR      r11,|L6.1036|
000008  f89b1000          LDRB     r1,[r11,#0]  ; info_set
00000c  4658              MOV      r0,r11
00000e  392f              SUBS     r1,r1,#0x2f
;;;1053       {
;;;1054           case set_48:
;;;1055           {
;;;1056               hItem = WM_GetDialogItem(hWinsysinfo, ID_TEXT_99);
;;;1057               TEXT_SetBkColor(hItem,GUI_INVALID_COLOR);
;;;1058               TEXT_SetTextColor(hItem, 0x00BFFFFF);
000010  4fff              LDR      r7,|L6.1040|
;;;1059               
;;;1060               hItem = WM_GetDialogItem(hWinsysinfo, ID_TEXT_113);
;;;1061               TEXT_SetBkColor(hItem,0x00BFFFFF);
;;;1062               TEXT_SetTextColor(hItem, GUI_BLACK);
;;;1063               
;;;1064               info_set = set_62;
000012  253d              MOVS     r5,#0x3d
;;;1065               break;
;;;1066           }
;;;1067           case set_49:
;;;1068           {
;;;1069               hItem = WM_GetDialogItem(hWinsysinfo, ID_TEXT_100);
;;;1070               TEXT_SetBkColor(hItem,GUI_INVALID_COLOR);
;;;1071               TEXT_SetTextColor(hItem, 0x00BFFFFF);
;;;1072               
;;;1073               hItem = WM_GetDialogItem(hWinsysinfo, ID_TEXT_113);
;;;1074               TEXT_SetBkColor(hItem,0x00BFFFFF);
;;;1075               TEXT_SetTextColor(hItem, GUI_BLACK);
;;;1076               
;;;1077               info_set = set_62;
;;;1078               break;
;;;1079           }
;;;1080           case set_50:
;;;1081           {
;;;1082               hItem = WM_GetDialogItem(hWinsysinfo, ID_TEXT_101);
;;;1083               TEXT_SetBkColor(hItem,GUI_INVALID_COLOR);
;;;1084               TEXT_SetTextColor(hItem, 0x00BFFFFF);
;;;1085               
;;;1086               hItem = WM_GetDialogItem(hWinsysinfo, ID_TEXT_113);
;;;1087               TEXT_SetBkColor(hItem,0x00BFFFFF);
;;;1088               TEXT_SetTextColor(hItem, GUI_BLACK);
;;;1089               
;;;1090               info_set = set_62;
;;;1091               break;
;;;1092           }
;;;1093           case set_51:
;;;1094           {
;;;1095               hItem = WM_GetDialogItem(hWinsysinfo, ID_TEXT_102);
;;;1096               TEXT_SetBkColor(hItem,GUI_INVALID_COLOR);
;;;1097               TEXT_SetTextColor(hItem, 0x00BFFFFF);
;;;1098               
;;;1099               hItem = WM_GetDialogItem(hWinsysinfo, ID_TEXT_113);
;;;1100               TEXT_SetBkColor(hItem,0x00BFFFFF);
;;;1101               TEXT_SetTextColor(hItem, GUI_BLACK);
;;;1102               
;;;1103               info_set = set_62;
;;;1104               break;
;;;1105           }
;;;1106           case set_52:
;;;1107           {
;;;1108               hItem = WM_GetDialogItem(hWinsysinfo, ID_TEXT_103);
;;;1109               TEXT_SetBkColor(hItem,GUI_INVALID_COLOR);
;;;1110               TEXT_SetTextColor(hItem, 0x00BFFFFF);
;;;1111               
;;;1112               hItem = WM_GetDialogItem(hWinsysinfo, ID_TEXT_113);
;;;1113               TEXT_SetBkColor(hItem,0x00BFFFFF);
;;;1114               TEXT_SetTextColor(hItem, GUI_BLACK);
;;;1115               
;;;1116               info_set = set_62;
;;;1117               break;
;;;1118           }
;;;1119           case set_53:
;;;1120           {
;;;1121               hItem = WM_GetDialogItem(hWinsysinfo, ID_TEXT_104);
;;;1122               TEXT_SetBkColor(hItem,GUI_INVALID_COLOR);
;;;1123               TEXT_SetTextColor(hItem, 0x00BFFFFF);
;;;1124               
;;;1125               hItem = WM_GetDialogItem(hWinsysinfo, ID_TEXT_113);
;;;1126               TEXT_SetBkColor(hItem,0x00BFFFFF);
;;;1127               TEXT_SetTextColor(hItem, GUI_BLACK);
;;;1128               
;;;1129               info_set = set_62;
;;;1130               break;
;;;1131           }
;;;1132           case set_54:
;;;1133           {
;;;1134               hItem = WM_GetDialogItem(hWinsysinfo, ID_TEXT_105);
;;;1135               TEXT_SetBkColor(hItem,GUI_INVALID_COLOR);
;;;1136               TEXT_SetTextColor(hItem, 0x00BFFFFF);
;;;1137               
;;;1138               hItem = WM_GetDialogItem(hWinsysinfo, ID_TEXT_113);
;;;1139               TEXT_SetBkColor(hItem,0x00BFFFFF);
;;;1140               TEXT_SetTextColor(hItem, GUI_BLACK);
;;;1141               
;;;1142               info_set = set_62;
;;;1143               break;
;;;1144           }
;;;1145           case set_55:
;;;1146           {
;;;1147               hItem = WM_GetDialogItem(hWinsysinfo, ID_TEXT_106);
;;;1148               TEXT_SetBkColor(hItem,GUI_INVALID_COLOR);
;;;1149               TEXT_SetTextColor(hItem, 0x00BFFFFF);
;;;1150               
;;;1151               hItem = WM_GetDialogItem(hWinsysinfo, ID_TEXT_113);
;;;1152               TEXT_SetBkColor(hItem,0x00BFFFFF);
;;;1153               TEXT_SetTextColor(hItem, GUI_BLACK);
;;;1154               
;;;1155               info_set = set_62;
;;;1156               break;
;;;1157           }
;;;1158           case set_62:
;;;1159           {
;;;1160               hItem = WM_GetDialogItem(hWinsysinfo, ID_TEXT_113);
;;;1161               TEXT_SetBkColor(hItem,GUI_INVALID_COLOR);
;;;1162               TEXT_SetTextColor(hItem, 0x00BFFFFF);
;;;1163               
;;;1164               hItem = WM_GetDialogItem(hWinsysinfo, ID_TEXT_99);
;;;1165               TEXT_SetBkColor(hItem,0x00BFFFFF);
;;;1166               TEXT_SetTextColor(hItem, GUI_BLACK);
;;;1167               
;;;1168               info_set = set_48;
000014  262f              MOVS     r6,#0x2f
000016  6980              LDR      r0,[r0,#0x18]         ;1056
000018  f6400a99          MOV      r10,#0x899            ;1056
00001c  f06f4870          MVN      r8,#0xf0000000        ;1057
000020  f6403908          MOV      r9,#0xb08             ;1060
000024  2910              CMP      r1,#0x10              ;1052
000026  d225              BCS      |L6.116|
000028  e8dff001          TBB      [pc,r1]               ;1052
00002c  08264462          DCB      0x08,0x26,0x44,0x62
000030  809ebcda          DCB      0x80,0x9e,0xbc,0xda
000034  fdfcfbfa          DCB      0xfd,0xfc,0xfb,0xfa
000038  f9f8f7f6          DCB      0xf9,0xf8,0xf7,0xf6
00003c  4651              MOV      r1,r10                ;1056
00003e  f7fffffe          BL       WM_GetDialogItem
000042  4604              MOV      r4,r0                 ;1056
000044  4641              MOV      r1,r8                 ;1057
000046  4620              MOV      r0,r4                 ;1057
000048  f7fffffe          BL       TEXT_SetBkColor
00004c  4639              MOV      r1,r7                 ;1058
00004e  4620              MOV      r0,r4                 ;1058
000050  f7fffffe          BL       TEXT_SetTextColor
000054  4649              MOV      r1,r9                 ;1060
000056  f8db0018          LDR      r0,[r11,#0x18]        ;1060  ; hWinsysinfo
00005a  f7fffffe          BL       WM_GetDialogItem
00005e  4604              MOV      r4,r0                 ;1060
000060  4639              MOV      r1,r7                 ;1061
000062  4620              MOV      r0,r4                 ;1061
000064  f7fffffe          BL       TEXT_SetBkColor
000068  2100              MOVS     r1,#0                 ;1062
00006a  4620              MOV      r0,r4                 ;1062
00006c  f7fffffe          BL       TEXT_SetTextColor
000070  f88b5000          STRB     r5,[r11,#0]           ;1064
                  |L6.116|
;;;1169               break;
;;;1170           }
;;;1171           case set_63:
;;;1172           {
;;;1173               hItem = WM_GetDialogItem(hWinsysinfo, ID_TEXT_114);
;;;1174               TEXT_SetBkColor(hItem,GUI_INVALID_COLOR);
;;;1175               TEXT_SetTextColor(hItem, 0x00BFFFFF);
;;;1176               
;;;1177               hItem = WM_GetDialogItem(hWinsysinfo, ID_TEXT_99);
;;;1178               TEXT_SetBkColor(hItem,0x00BFFFFF);
;;;1179               TEXT_SetTextColor(hItem, GUI_BLACK);
;;;1180               
;;;1181               info_set = set_48;
;;;1182               break;
;;;1183           }
;;;1184           case set_56:
;;;1185           {
;;;1186               hItem = WM_GetDialogItem(hWinsysinfo, ID_TEXT_107);
;;;1187               TEXT_SetBkColor(hItem,GUI_INVALID_COLOR);
;;;1188               TEXT_SetTextColor(hItem, 0x00BFFFFF);
;;;1189               
;;;1190               hItem = WM_GetDialogItem(hWinsysinfo, ID_TEXT_99);
;;;1191               TEXT_SetBkColor(hItem,0x00BFFFFF);
;;;1192               TEXT_SetTextColor(hItem, GUI_BLACK);
;;;1193               
;;;1194               info_set = set_48;
;;;1195               break;
;;;1196           }
;;;1197           case set_57:
;;;1198           {
;;;1199               hItem = WM_GetDialogItem(hWinsysinfo, ID_TEXT_108);
;;;1200               TEXT_SetBkColor(hItem,GUI_INVALID_COLOR);
;;;1201               TEXT_SetTextColor(hItem, 0x00BFFFFF);
;;;1202               
;;;1203               hItem = WM_GetDialogItem(hWinsysinfo, ID_TEXT_99);
;;;1204               TEXT_SetBkColor(hItem,0x00BFFFFF);
;;;1205               TEXT_SetTextColor(hItem, GUI_BLACK);
;;;1206               
;;;1207               info_set = set_48;
;;;1208               break;
;;;1209           }
;;;1210           case set_58:
;;;1211           {
;;;1212               hItem = WM_GetDialogItem(hWinsysinfo, ID_TEXT_109);
;;;1213               TEXT_SetBkColor(hItem,GUI_INVALID_COLOR);
;;;1214               TEXT_SetTextColor(hItem, 0x00BFFFFF);
;;;1215               
;;;1216               hItem = WM_GetDialogItem(hWinsysinfo, ID_TEXT_99);
;;;1217               TEXT_SetBkColor(hItem,0x00BFFFFF);
;;;1218               TEXT_SetTextColor(hItem, GUI_BLACK);
;;;1219               
;;;1220               info_set = set_48;
;;;1221               break;
;;;1222           }
;;;1223           case set_59:
;;;1224           {
;;;1225               hItem = WM_GetDialogItem(hWinsysinfo, ID_TEXT_110);
;;;1226               TEXT_SetBkColor(hItem,GUI_INVALID_COLOR);
;;;1227               TEXT_SetTextColor(hItem, 0x00BFFFFF);
;;;1228               
;;;1229               hItem = WM_GetDialogItem(hWinsysinfo, ID_TEXT_99);
;;;1230               TEXT_SetBkColor(hItem,0x00BFFFFF);
;;;1231               TEXT_SetTextColor(hItem, GUI_BLACK);
;;;1232               
;;;1233               info_set = set_48;
;;;1234               break;
;;;1235           }
;;;1236           case set_60:
;;;1237           {
;;;1238               hItem = WM_GetDialogItem(hWinsysinfo, ID_TEXT_111);
;;;1239               TEXT_SetBkColor(hItem,GUI_INVALID_COLOR);
;;;1240               TEXT_SetTextColor(hItem, 0x00BFFFFF);
;;;1241               
;;;1242               hItem = WM_GetDialogItem(hWinsysinfo, ID_TEXT_99);
;;;1243               TEXT_SetBkColor(hItem,0x00BFFFFF);
;;;1244               TEXT_SetTextColor(hItem, GUI_BLACK);
;;;1245               
;;;1246               info_set = set_48;
;;;1247               break;
;;;1248           }
;;;1249           case set_61:
;;;1250           {
;;;1251               hItem = WM_GetDialogItem(hWinsysinfo, ID_TEXT_112);
;;;1252               TEXT_SetBkColor(hItem,GUI_INVALID_COLOR);
;;;1253               TEXT_SetTextColor(hItem, 0x00BFFFFF);
;;;1254               
;;;1255               hItem = WM_GetDialogItem(hWinsysinfo, ID_TEXT_99);
;;;1256               TEXT_SetBkColor(hItem,0x00BFFFFF);
;;;1257               TEXT_SetTextColor(hItem, GUI_BLACK);
;;;1258               
;;;1259               info_set = set_48;
;;;1260               break;
;;;1261           }
;;;1262       }
;;;1263       
;;;1264   }
000074  e8bd9ff0          POP      {r4-r12,pc}
000078  f640019a          MOV      r1,#0x89a             ;1069
00007c  f7fffffe          BL       WM_GetDialogItem
000080  4604              MOV      r4,r0                 ;1069
000082  4641              MOV      r1,r8                 ;1070
000084  4620              MOV      r0,r4                 ;1070
000086  f7fffffe          BL       TEXT_SetBkColor
00008a  4639              MOV      r1,r7                 ;1071
00008c  4620              MOV      r0,r4                 ;1071
00008e  f7fffffe          BL       TEXT_SetTextColor
000092  4649              MOV      r1,r9                 ;1073
000094  f8db0018          LDR      r0,[r11,#0x18]        ;1073  ; hWinsysinfo
000098  f7fffffe          BL       WM_GetDialogItem
00009c  4604              MOV      r4,r0                 ;1073
00009e  4639              MOV      r1,r7                 ;1074
0000a0  4620              MOV      r0,r4                 ;1074
0000a2  f7fffffe          BL       TEXT_SetBkColor
0000a6  2100              MOVS     r1,#0                 ;1075
0000a8  4620              MOV      r0,r4                 ;1075
0000aa  f7fffffe          BL       TEXT_SetTextColor
0000ae  f88b5000          STRB     r5,[r11,#0]           ;1077
0000b2  e7df              B        |L6.116|
0000b4  f640019b          MOV      r1,#0x89b             ;1082
0000b8  f7fffffe          BL       WM_GetDialogItem
0000bc  4604              MOV      r4,r0                 ;1082
0000be  4641              MOV      r1,r8                 ;1083
0000c0  4620              MOV      r0,r4                 ;1083
0000c2  f7fffffe          BL       TEXT_SetBkColor
0000c6  4639              MOV      r1,r7                 ;1084
0000c8  4620              MOV      r0,r4                 ;1084
0000ca  f7fffffe          BL       TEXT_SetTextColor
0000ce  4649              MOV      r1,r9                 ;1086
0000d0  f8db0018          LDR      r0,[r11,#0x18]        ;1086  ; hWinsysinfo
0000d4  f7fffffe          BL       WM_GetDialogItem
0000d8  4604              MOV      r4,r0                 ;1086
0000da  4639              MOV      r1,r7                 ;1087
0000dc  4620              MOV      r0,r4                 ;1087
0000de  f7fffffe          BL       TEXT_SetBkColor
0000e2  2100              MOVS     r1,#0                 ;1088
0000e4  4620              MOV      r0,r4                 ;1088
0000e6  f7fffffe          BL       TEXT_SetTextColor
0000ea  f88b5000          STRB     r5,[r11,#0]           ;1090
0000ee  e7c1              B        |L6.116|
0000f0  f640019c          MOV      r1,#0x89c             ;1095
0000f4  f7fffffe          BL       WM_GetDialogItem
0000f8  4604              MOV      r4,r0                 ;1095
0000fa  4641              MOV      r1,r8                 ;1096
0000fc  4620              MOV      r0,r4                 ;1096
0000fe  f7fffffe          BL       TEXT_SetBkColor
000102  4639              MOV      r1,r7                 ;1097
000104  4620              MOV      r0,r4                 ;1097
000106  f7fffffe          BL       TEXT_SetTextColor
00010a  4649              MOV      r1,r9                 ;1099
00010c  f8db0018          LDR      r0,[r11,#0x18]        ;1099  ; hWinsysinfo
000110  f7fffffe          BL       WM_GetDialogItem
000114  4604              MOV      r4,r0                 ;1099
000116  4639              MOV      r1,r7                 ;1100
000118  4620              MOV      r0,r4                 ;1100
00011a  f7fffffe          BL       TEXT_SetBkColor
00011e  2100              MOVS     r1,#0                 ;1101
000120  4620              MOV      r0,r4                 ;1101
000122  f7fffffe          BL       TEXT_SetTextColor
000126  f88b5000          STRB     r5,[r11,#0]           ;1103
00012a  e7a3              B        |L6.116|
00012c  f640019d          MOV      r1,#0x89d             ;1108
000130  f7fffffe          BL       WM_GetDialogItem
000134  4604              MOV      r4,r0                 ;1108
000136  4641              MOV      r1,r8                 ;1109
000138  4620              MOV      r0,r4                 ;1109
00013a  f7fffffe          BL       TEXT_SetBkColor
00013e  4639              MOV      r1,r7                 ;1110
000140  4620              MOV      r0,r4                 ;1110
000142  f7fffffe          BL       TEXT_SetTextColor
000146  4649              MOV      r1,r9                 ;1112
000148  f8db0018          LDR      r0,[r11,#0x18]        ;1112  ; hWinsysinfo
00014c  f7fffffe          BL       WM_GetDialogItem
000150  4604              MOV      r4,r0                 ;1112
000152  4639              MOV      r1,r7                 ;1113
000154  4620              MOV      r0,r4                 ;1113
000156  f7fffffe          BL       TEXT_SetBkColor
00015a  2100              MOVS     r1,#0                 ;1114
00015c  4620              MOV      r0,r4                 ;1114
00015e  f7fffffe          BL       TEXT_SetTextColor
000162  f88b5000          STRB     r5,[r11,#0]           ;1116
000166  e785              B        |L6.116|
000168  f640019e          MOV      r1,#0x89e             ;1121
00016c  f7fffffe          BL       WM_GetDialogItem
000170  4604              MOV      r4,r0                 ;1121
000172  4641              MOV      r1,r8                 ;1122
000174  4620              MOV      r0,r4                 ;1122
000176  f7fffffe          BL       TEXT_SetBkColor
00017a  4639              MOV      r1,r7                 ;1123
00017c  4620              MOV      r0,r4                 ;1123
00017e  f7fffffe          BL       TEXT_SetTextColor
000182  4649              MOV      r1,r9                 ;1125
000184  f8db0018          LDR      r0,[r11,#0x18]        ;1125  ; hWinsysinfo
000188  f7fffffe          BL       WM_GetDialogItem
00018c  4604              MOV      r4,r0                 ;1125
00018e  4639              MOV      r1,r7                 ;1126
000190  4620              MOV      r0,r4                 ;1126
000192  f7fffffe          BL       TEXT_SetBkColor
000196  2100              MOVS     r1,#0                 ;1127
000198  4620              MOV      r0,r4                 ;1127
00019a  f7fffffe          BL       TEXT_SetTextColor
00019e  f88b5000          STRB     r5,[r11,#0]           ;1129
0001a2  e767              B        |L6.116|
0001a4  f44f6130          MOV      r1,#0xb00             ;1134
0001a8  f7fffffe          BL       WM_GetDialogItem
0001ac  4604              MOV      r4,r0                 ;1134
0001ae  4641              MOV      r1,r8                 ;1135
0001b0  4620              MOV      r0,r4                 ;1135
0001b2  f7fffffe          BL       TEXT_SetBkColor
0001b6  4639              MOV      r1,r7                 ;1136
0001b8  4620              MOV      r0,r4                 ;1136
0001ba  f7fffffe          BL       TEXT_SetTextColor
0001be  4649              MOV      r1,r9                 ;1138
0001c0  f8db0018          LDR      r0,[r11,#0x18]        ;1138  ; hWinsysinfo
0001c4  f7fffffe          BL       WM_GetDialogItem
0001c8  4604              MOV      r4,r0                 ;1138
0001ca  4639              MOV      r1,r7                 ;1139
0001cc  4620              MOV      r0,r4                 ;1139
0001ce  f7fffffe          BL       TEXT_SetBkColor
0001d2  2100              MOVS     r1,#0                 ;1140
0001d4  4620              MOV      r0,r4                 ;1140
0001d6  f7fffffe          BL       TEXT_SetTextColor
0001da  f88b5000          STRB     r5,[r11,#0]           ;1142
0001de  e749              B        |L6.116|
0001e0  f6403101          MOV      r1,#0xb01             ;1147
0001e4  f7fffffe          BL       WM_GetDialogItem
0001e8  4604              MOV      r4,r0                 ;1147
0001ea  4641              MOV      r1,r8                 ;1148
0001ec  4620              MOV      r0,r4                 ;1148
0001ee  f7fffffe          BL       TEXT_SetBkColor
0001f2  4639              MOV      r1,r7                 ;1149
0001f4  4620              MOV      r0,r4                 ;1149
0001f6  f7fffffe          BL       TEXT_SetTextColor
0001fa  4649              MOV      r1,r9                 ;1151
0001fc  f8db0018          LDR      r0,[r11,#0x18]        ;1151  ; hWinsysinfo
000200  f7fffffe          BL       WM_GetDialogItem
000204  4604              MOV      r4,r0                 ;1151
000206  4639              MOV      r1,r7                 ;1152
000208  4620              MOV      r0,r4                 ;1152
00020a  f7fffffe          BL       TEXT_SetBkColor
00020e  2100              MOVS     r1,#0                 ;1153
000210  4620              MOV      r0,r4                 ;1153
000212  f7fffffe          BL       TEXT_SetTextColor
000216  e007              B        |L6.552|
000218  e026              B        |L6.616|
00021a  e008              B        |L6.558|
00021c  e0d8              B        |L6.976|
00021e  e0b9              B        |L6.916|
000220  e09a              B        |L6.856|
000222  e07b              B        |L6.796|
000224  e05c              B        |L6.736|
000226  e03d              B        |L6.676|
                  |L6.552|
000228  f88b5000          STRB     r5,[r11,#0]           ;1155
00022c  e722              B        |L6.116|
                  |L6.558|
00022e  4649              MOV      r1,r9                 ;1160
000230  f7fffffe          BL       WM_GetDialogItem
000234  4604              MOV      r4,r0                 ;1160
000236  4641              MOV      r1,r8                 ;1161
000238  4620              MOV      r0,r4                 ;1161
00023a  f7fffffe          BL       TEXT_SetBkColor
00023e  4639              MOV      r1,r7                 ;1162
000240  4620              MOV      r0,r4                 ;1162
000242  f7fffffe          BL       TEXT_SetTextColor
000246  4651              MOV      r1,r10                ;1164
000248  f8db0018          LDR      r0,[r11,#0x18]        ;1164  ; hWinsysinfo
00024c  f7fffffe          BL       WM_GetDialogItem
000250  4604              MOV      r4,r0                 ;1164
000252  4639              MOV      r1,r7                 ;1165
000254  4620              MOV      r0,r4                 ;1165
000256  f7fffffe          BL       TEXT_SetBkColor
00025a  2100              MOVS     r1,#0                 ;1166
00025c  4620              MOV      r0,r4                 ;1166
00025e  f7fffffe          BL       TEXT_SetTextColor
000262  f88b6000          STRB     r6,[r11,#0]           ;1168
000266  e705              B        |L6.116|
                  |L6.616|
000268  f6403109          MOV      r1,#0xb09             ;1173
00026c  f7fffffe          BL       WM_GetDialogItem
000270  4604              MOV      r4,r0                 ;1173
000272  4641              MOV      r1,r8                 ;1174
000274  4620              MOV      r0,r4                 ;1174
000276  f7fffffe          BL       TEXT_SetBkColor
00027a  4639              MOV      r1,r7                 ;1175
00027c  4620              MOV      r0,r4                 ;1175
00027e  f7fffffe          BL       TEXT_SetTextColor
000282  4651              MOV      r1,r10                ;1177
000284  f8db0018          LDR      r0,[r11,#0x18]        ;1177  ; hWinsysinfo
000288  f7fffffe          BL       WM_GetDialogItem
00028c  4604              MOV      r4,r0                 ;1177
00028e  4639              MOV      r1,r7                 ;1178
000290  4620              MOV      r0,r4                 ;1178
000292  f7fffffe          BL       TEXT_SetBkColor
000296  2100              MOVS     r1,#0                 ;1179
000298  4620              MOV      r0,r4                 ;1179
00029a  f7fffffe          BL       TEXT_SetTextColor
00029e  f88b6000          STRB     r6,[r11,#0]           ;1181
0002a2  e6e7              B        |L6.116|
                  |L6.676|
0002a4  f6403102          MOV      r1,#0xb02             ;1186
0002a8  f7fffffe          BL       WM_GetDialogItem
0002ac  4604              MOV      r4,r0                 ;1186
0002ae  4641              MOV      r1,r8                 ;1187
0002b0  4620              MOV      r0,r4                 ;1187
0002b2  f7fffffe          BL       TEXT_SetBkColor
0002b6  4639              MOV      r1,r7                 ;1188
0002b8  4620              MOV      r0,r4                 ;1188
0002ba  f7fffffe          BL       TEXT_SetTextColor
0002be  4651              MOV      r1,r10                ;1190
0002c0  f8db0018          LDR      r0,[r11,#0x18]        ;1190  ; hWinsysinfo
0002c4  f7fffffe          BL       WM_GetDialogItem
0002c8  4604              MOV      r4,r0                 ;1190
0002ca  4639              MOV      r1,r7                 ;1191
0002cc  4620              MOV      r0,r4                 ;1191
0002ce  f7fffffe          BL       TEXT_SetBkColor
0002d2  2100              MOVS     r1,#0                 ;1192
0002d4  4620              MOV      r0,r4                 ;1192
0002d6  f7fffffe          BL       TEXT_SetTextColor
0002da  f88b6000          STRB     r6,[r11,#0]           ;1194
0002de  e6c9              B        |L6.116|
                  |L6.736|
0002e0  f6403103          MOV      r1,#0xb03             ;1199
0002e4  f7fffffe          BL       WM_GetDialogItem
0002e8  4604              MOV      r4,r0                 ;1199
0002ea  4641              MOV      r1,r8                 ;1200
0002ec  4620              MOV      r0,r4                 ;1200
0002ee  f7fffffe          BL       TEXT_SetBkColor
0002f2  4639              MOV      r1,r7                 ;1201
0002f4  4620              MOV      r0,r4                 ;1201
0002f6  f7fffffe          BL       TEXT_SetTextColor
0002fa  4651              MOV      r1,r10                ;1203
0002fc  f8db0018          LDR      r0,[r11,#0x18]        ;1203  ; hWinsysinfo
000300  f7fffffe          BL       WM_GetDialogItem
000304  4604              MOV      r4,r0                 ;1203
000306  4639              MOV      r1,r7                 ;1204
000308  4620              MOV      r0,r4                 ;1204
00030a  f7fffffe          BL       TEXT_SetBkColor
00030e  2100              MOVS     r1,#0                 ;1205
000310  4620              MOV      r0,r4                 ;1205
000312  f7fffffe          BL       TEXT_SetTextColor
000316  f88b6000          STRB     r6,[r11,#0]           ;1207
00031a  e6ab              B        |L6.116|
                  |L6.796|
00031c  f6403104          MOV      r1,#0xb04             ;1212
000320  f7fffffe          BL       WM_GetDialogItem
000324  4604              MOV      r4,r0                 ;1212
000326  4641              MOV      r1,r8                 ;1213
000328  4620              MOV      r0,r4                 ;1213
00032a  f7fffffe          BL       TEXT_SetBkColor
00032e  4639              MOV      r1,r7                 ;1214
000330  4620              MOV      r0,r4                 ;1214
000332  f7fffffe          BL       TEXT_SetTextColor
000336  4651              MOV      r1,r10                ;1216
000338  f8db0018          LDR      r0,[r11,#0x18]        ;1216  ; hWinsysinfo
00033c  f7fffffe          BL       WM_GetDialogItem
000340  4604              MOV      r4,r0                 ;1216
000342  4639              MOV      r1,r7                 ;1217
000344  4620              MOV      r0,r4                 ;1217
000346  f7fffffe          BL       TEXT_SetBkColor
00034a  2100              MOVS     r1,#0                 ;1218
00034c  4620              MOV      r0,r4                 ;1218
00034e  f7fffffe          BL       TEXT_SetTextColor
000352  f88b6000          STRB     r6,[r11,#0]           ;1220
000356  e68d              B        |L6.116|
                  |L6.856|
000358  f6403105          MOV      r1,#0xb05             ;1225
00035c  f7fffffe          BL       WM_GetDialogItem
000360  4604              MOV      r4,r0                 ;1225
000362  4641              MOV      r1,r8                 ;1226
000364  4620              MOV      r0,r4                 ;1226
000366  f7fffffe          BL       TEXT_SetBkColor
00036a  4639              MOV      r1,r7                 ;1227
00036c  4620              MOV      r0,r4                 ;1227
00036e  f7fffffe          BL       TEXT_SetTextColor
000372  4651              MOV      r1,r10                ;1229
000374  f8db0018          LDR      r0,[r11,#0x18]        ;1229  ; hWinsysinfo
000378  f7fffffe          BL       WM_GetDialogItem
00037c  4604              MOV      r4,r0                 ;1229
00037e  4639              MOV      r1,r7                 ;1230
000380  4620              MOV      r0,r4                 ;1230
000382  f7fffffe          BL       TEXT_SetBkColor
000386  2100              MOVS     r1,#0                 ;1231
000388  4620              MOV      r0,r4                 ;1231
00038a  f7fffffe          BL       TEXT_SetTextColor
00038e  f88b6000          STRB     r6,[r11,#0]           ;1233
000392  e66f              B        |L6.116|
                  |L6.916|
000394  f6403106          MOV      r1,#0xb06             ;1238
000398  f7fffffe          BL       WM_GetDialogItem
00039c  4604              MOV      r4,r0                 ;1238
00039e  4641              MOV      r1,r8                 ;1239
0003a0  4620              MOV      r0,r4                 ;1239
0003a2  f7fffffe          BL       TEXT_SetBkColor
0003a6  4639              MOV      r1,r7                 ;1240
0003a8  4620              MOV      r0,r4                 ;1240
0003aa  f7fffffe          BL       TEXT_SetTextColor
0003ae  4651              MOV      r1,r10                ;1242
0003b0  f8db0018          LDR      r0,[r11,#0x18]        ;1242  ; hWinsysinfo
0003b4  f7fffffe          BL       WM_GetDialogItem
0003b8  4604              MOV      r4,r0                 ;1242
0003ba  4639              MOV      r1,r7                 ;1243
0003bc  4620              MOV      r0,r4                 ;1243
0003be  f7fffffe          BL       TEXT_SetBkColor
0003c2  2100              MOVS     r1,#0                 ;1244
0003c4  4620              MOV      r0,r4                 ;1244
0003c6  f7fffffe          BL       TEXT_SetTextColor
0003ca  f88b6000          STRB     r6,[r11,#0]           ;1246
0003ce  e651              B        |L6.116|
                  |L6.976|
0003d0  f6403107          MOV      r1,#0xb07             ;1251
0003d4  f7fffffe          BL       WM_GetDialogItem
0003d8  4604              MOV      r4,r0                 ;1251
0003da  4641              MOV      r1,r8                 ;1252
0003dc  4620              MOV      r0,r4                 ;1252
0003de  f7fffffe          BL       TEXT_SetBkColor
0003e2  4639              MOV      r1,r7                 ;1253
0003e4  4620              MOV      r0,r4                 ;1253
0003e6  f7fffffe          BL       TEXT_SetTextColor
0003ea  4651              MOV      r1,r10                ;1255
0003ec  f8db0018          LDR      r0,[r11,#0x18]        ;1255  ; hWinsysinfo
0003f0  f7fffffe          BL       WM_GetDialogItem
0003f4  4604              MOV      r4,r0                 ;1255
0003f6  4639              MOV      r1,r7                 ;1256
0003f8  4620              MOV      r0,r4                 ;1256
0003fa  f7fffffe          BL       TEXT_SetBkColor
0003fe  2100              MOVS     r1,#0                 ;1257
000400  4620              MOV      r0,r4                 ;1257
000402  f7fffffe          BL       TEXT_SetTextColor
000406  f88b6000          STRB     r6,[r11,#0]           ;1259
00040a  e633              B        |L6.116|
                  |L6.1036|
                          DCD      ||.data||
                  |L6.1040|
                          DCD      0x00bfffff
                          ENDP


                          AREA ||i.SYS_INFO_LEFT||, CODE, READONLY, ALIGN=2

                  SYS_INFO_LEFT PROC
;;;610    void SYS_INFO_LEFT(void);
;;;611    void SYS_INFO_LEFT(void)
000000  e92d5ff0          PUSH     {r4-r12,lr}
;;;612    {
;;;613        WM_HWIN hItem;
;;;614        switch(info_set)
000004  48fc              LDR      r0,|L7.1016|
000006  7801              LDRB     r1,[r0,#0]  ; info_set
;;;615        {
;;;616            case set_48:
;;;617            {
;;;618                hItem = WM_GetDialogItem(hWinsysinfo, ID_TEXT_99);
000008  f6400699          MOV      r6,#0x899
00000c  392f              SUBS     r1,r1,#0x2f           ;614
;;;619                TEXT_SetBkColor(hItem,GUI_INVALID_COLOR);
;;;620                TEXT_SetTextColor(hItem, 0x00BFFFFF);
00000e  4dfb              LDR      r5,|L7.1020|
;;;621                
;;;622                hItem = WM_GetDialogItem(hWinsysinfo, ID_TEXT_106);
;;;623                TEXT_SetBkColor(hItem,0x00BFFFFF);
;;;624                TEXT_SetTextColor(hItem, GUI_BLACK);
;;;625                
;;;626                info_set = set_55;
;;;627                break;
;;;628            }
;;;629            case set_49:
;;;630            {
;;;631                hItem = WM_GetDialogItem(hWinsysinfo, ID_TEXT_100);
000010  1c77              ADDS     r7,r6,#1
;;;632                TEXT_SetBkColor(hItem,GUI_INVALID_COLOR);
;;;633                TEXT_SetTextColor(hItem, 0x00BFFFFF);
;;;634                
;;;635                hItem = WM_GetDialogItem(hWinsysinfo, ID_TEXT_99);
;;;636                TEXT_SetBkColor(hItem,0x00BFFFFF);
;;;637                TEXT_SetTextColor(hItem, GUI_BLACK);
;;;638                
;;;639                info_set = set_48;
;;;640                break;
;;;641            }
;;;642            case set_50:
;;;643            {
;;;644                hItem = WM_GetDialogItem(hWinsysinfo, ID_TEXT_101);
;;;645                TEXT_SetBkColor(hItem,GUI_INVALID_COLOR);
;;;646                TEXT_SetTextColor(hItem, 0x00BFFFFF);
;;;647                
;;;648                hItem = WM_GetDialogItem(hWinsysinfo, ID_TEXT_100);
;;;649                TEXT_SetBkColor(hItem,0x00BFFFFF);
;;;650                TEXT_SetTextColor(hItem, GUI_BLACK);
;;;651                
;;;652                info_set = set_49;
;;;653                break;
;;;654            }
;;;655            case set_51:
;;;656            {
;;;657                hItem = WM_GetDialogItem(hWinsysinfo, ID_TEXT_102);
;;;658                TEXT_SetBkColor(hItem,GUI_INVALID_COLOR);
;;;659                TEXT_SetTextColor(hItem, 0x00BFFFFF);
;;;660                
;;;661                hItem = WM_GetDialogItem(hWinsysinfo, ID_TEXT_101);
;;;662                TEXT_SetBkColor(hItem,0x00BFFFFF);
;;;663                TEXT_SetTextColor(hItem, GUI_BLACK);
;;;664                
;;;665                info_set = set_50;
;;;666                break;
;;;667            }
;;;668            case set_52:
;;;669            {
;;;670                hItem = WM_GetDialogItem(hWinsysinfo, ID_TEXT_103);
000012  1d34              ADDS     r4,r6,#4
000014  6980              LDR      r0,[r0,#0x18]         ;618
000016  f640089b          MOV      r8,#0x89b             ;644
00001a  f640099c          MOV      r9,#0x89c             ;657
;;;671                TEXT_SetBkColor(hItem,GUI_INVALID_COLOR);
;;;672                TEXT_SetTextColor(hItem, 0x00BFFFFF);
;;;673                
;;;674                hItem = WM_GetDialogItem(hWinsysinfo, ID_TEXT_102);
;;;675                TEXT_SetBkColor(hItem,0x00BFFFFF);
;;;676                TEXT_SetTextColor(hItem, GUI_BLACK);
;;;677                
;;;678                info_set = set_51;
;;;679                break;
;;;680            }
;;;681            case set_53:
;;;682            {
;;;683                hItem = WM_GetDialogItem(hWinsysinfo, ID_TEXT_104);
00001e  f6400a9e          MOV      r10,#0x89e
;;;684                TEXT_SetBkColor(hItem,GUI_INVALID_COLOR);
;;;685                TEXT_SetTextColor(hItem, 0x00BFFFFF);
;;;686                
;;;687                hItem = WM_GetDialogItem(hWinsysinfo, ID_TEXT_103);
;;;688                TEXT_SetBkColor(hItem,0x00BFFFFF);
;;;689                TEXT_SetTextColor(hItem, GUI_BLACK);
;;;690                
;;;691                info_set = set_52;
;;;692                break;
;;;693            }
;;;694            case set_54:
;;;695            {
;;;696                hItem = WM_GetDialogItem(hWinsysinfo, ID_TEXT_105);
000022  f44f6b30          MOV      r11,#0xb00
000026  2910              CMP      r1,#0x10              ;614
000028  d227              BCS      |L7.122|
00002a  e8dff001          TBB      [pc,r1]               ;614
00002e  0828              DCB      0x08,0x28
000030  466482a0          DCB      0x46,0x64,0x82,0xa0
000034  bedcfefd          DCB      0xbe,0xdc,0xfe,0xfd
000038  fcfbfaf9          DCB      0xfc,0xfb,0xfa,0xf9
00003c  f8f7              DCB      0xf8,0xf7
00003e  4631              MOV      r1,r6                 ;618
000040  4eed              LDR      r6,|L7.1016|
000042  f7fffffe          BL       WM_GetDialogItem
000046  4604              MOV      r4,r0                 ;618
000048  f06f4170          MVN      r1,#0xf0000000        ;619
00004c  4620              MOV      r0,r4                 ;619
00004e  f7fffffe          BL       TEXT_SetBkColor
000052  4629              MOV      r1,r5                 ;620
000054  4620              MOV      r0,r4                 ;620
000056  f7fffffe          BL       TEXT_SetTextColor
00005a  f6403101          MOV      r1,#0xb01             ;622
00005e  69b0              LDR      r0,[r6,#0x18]         ;622  ; hWinsysinfo
000060  f7fffffe          BL       WM_GetDialogItem
000064  4604              MOV      r4,r0                 ;622
000066  4629              MOV      r1,r5                 ;623
000068  4620              MOV      r0,r4                 ;623
00006a  f7fffffe          BL       TEXT_SetBkColor
00006e  2100              MOVS     r1,#0                 ;624
000070  4620              MOV      r0,r4                 ;624
000072  f7fffffe          BL       TEXT_SetTextColor
000076  2036              MOVS     r0,#0x36              ;626
000078  7030              STRB     r0,[r6,#0]            ;626
                  |L7.122|
;;;697                TEXT_SetBkColor(hItem,GUI_INVALID_COLOR);
;;;698                TEXT_SetTextColor(hItem, 0x00BFFFFF);
;;;699                
;;;700                hItem = WM_GetDialogItem(hWinsysinfo, ID_TEXT_104);
;;;701                TEXT_SetBkColor(hItem,0x00BFFFFF);
;;;702                TEXT_SetTextColor(hItem, GUI_BLACK);
;;;703                
;;;704                info_set = set_53;
;;;705                break;
;;;706            }
;;;707            case set_55:
;;;708            {
;;;709                hItem = WM_GetDialogItem(hWinsysinfo, ID_TEXT_106);
;;;710                TEXT_SetBkColor(hItem,GUI_INVALID_COLOR);
;;;711                TEXT_SetTextColor(hItem, 0x00BFFFFF);
;;;712                
;;;713                hItem = WM_GetDialogItem(hWinsysinfo, ID_TEXT_105);
;;;714                TEXT_SetBkColor(hItem,0x00BFFFFF);
;;;715                TEXT_SetTextColor(hItem, GUI_BLACK);
;;;716                
;;;717                info_set = set_54;
;;;718                break;
;;;719            }
;;;720            case set_62:
;;;721            {
;;;722                hItem = WM_GetDialogItem(hWinsysinfo, ID_TEXT_113);
;;;723                TEXT_SetBkColor(hItem,GUI_INVALID_COLOR);
;;;724                TEXT_SetTextColor(hItem, 0x00BFFFFF);
;;;725                
;;;726                hItem = WM_GetDialogItem(hWinsysinfo, ID_TEXT_112);
;;;727                TEXT_SetBkColor(hItem,0x00BFFFFF);
;;;728                TEXT_SetTextColor(hItem, GUI_BLACK);
;;;729                
;;;730                info_set = set_61;
;;;731                break;
;;;732            }
;;;733            case set_63:
;;;734            {
;;;735                hItem = WM_GetDialogItem(hWinsysinfo, ID_TEXT_114);
;;;736                TEXT_SetBkColor(hItem,GUI_INVALID_COLOR);
;;;737                TEXT_SetTextColor(hItem, 0x00BFFFFF);
;;;738                
;;;739                hItem = WM_GetDialogItem(hWinsysinfo, ID_TEXT_113);
;;;740                TEXT_SetBkColor(hItem,0x00BFFFFF);
;;;741                TEXT_SetTextColor(hItem, GUI_BLACK);
;;;742                
;;;743                info_set = set_62;
;;;744                break;
;;;745            }
;;;746            case set_56:
;;;747            {
;;;748                hItem = WM_GetDialogItem(hWinsysinfo, ID_TEXT_107);
;;;749                TEXT_SetBkColor(hItem,GUI_INVALID_COLOR);
;;;750                TEXT_SetTextColor(hItem, 0x00BFFFFF);
;;;751                
;;;752                hItem = WM_GetDialogItem(hWinsysinfo, ID_TEXT_114);
;;;753                TEXT_SetBkColor(hItem,0x00BFFFFF);
;;;754                TEXT_SetTextColor(hItem, GUI_BLACK);
;;;755                
;;;756                info_set = set_63;
;;;757                break;
;;;758            }
;;;759            case set_57:
;;;760            {
;;;761                hItem = WM_GetDialogItem(hWinsysinfo, ID_TEXT_108);
;;;762                TEXT_SetBkColor(hItem,GUI_INVALID_COLOR);
;;;763                TEXT_SetTextColor(hItem, 0x00BFFFFF);
;;;764                
;;;765                hItem = WM_GetDialogItem(hWinsysinfo, ID_TEXT_107);
;;;766                TEXT_SetBkColor(hItem,0x00BFFFFF);
;;;767                TEXT_SetTextColor(hItem, GUI_BLACK);
;;;768                
;;;769                info_set = set_56;
;;;770                break;
;;;771            }
;;;772            case set_58:
;;;773            {
;;;774                hItem = WM_GetDialogItem(hWinsysinfo, ID_TEXT_109);
;;;775                TEXT_SetBkColor(hItem,GUI_INVALID_COLOR);
;;;776                TEXT_SetTextColor(hItem, 0x00BFFFFF);
;;;777                
;;;778                hItem = WM_GetDialogItem(hWinsysinfo, ID_TEXT_108);
;;;779                TEXT_SetBkColor(hItem,0x00BFFFFF);
;;;780                TEXT_SetTextColor(hItem, GUI_BLACK);
;;;781                
;;;782                info_set = set_57;
;;;783                break;
;;;784            }
;;;785            case set_59:
;;;786            {
;;;787                hItem = WM_GetDialogItem(hWinsysinfo, ID_TEXT_110);
;;;788                TEXT_SetBkColor(hItem,GUI_INVALID_COLOR);
;;;789                TEXT_SetTextColor(hItem, 0x00BFFFFF);
;;;790                
;;;791                hItem = WM_GetDialogItem(hWinsysinfo, ID_TEXT_109);
;;;792                TEXT_SetBkColor(hItem,0x00BFFFFF);
;;;793                TEXT_SetTextColor(hItem, GUI_BLACK);
;;;794                
;;;795                info_set = set_58;
;;;796                break;
;;;797            }
;;;798            case set_60:
;;;799            {
;;;800                hItem = WM_GetDialogItem(hWinsysinfo, ID_TEXT_111);
;;;801                TEXT_SetBkColor(hItem,GUI_INVALID_COLOR);
;;;802                TEXT_SetTextColor(hItem, 0x00BFFFFF);
;;;803                
;;;804                hItem = WM_GetDialogItem(hWinsysinfo, ID_TEXT_110);
;;;805                TEXT_SetBkColor(hItem,0x00BFFFFF);
;;;806                TEXT_SetTextColor(hItem, GUI_BLACK);
;;;807                
;;;808                info_set = set_59;
;;;809                break;
;;;810            }
;;;811            case set_61:
;;;812            {
;;;813                hItem = WM_GetDialogItem(hWinsysinfo, ID_TEXT_112);
;;;814                TEXT_SetBkColor(hItem,GUI_INVALID_COLOR);
;;;815                TEXT_SetTextColor(hItem, 0x00BFFFFF);
;;;816                
;;;817                hItem = WM_GetDialogItem(hWinsysinfo, ID_TEXT_111);
;;;818                TEXT_SetBkColor(hItem,0x00BFFFFF);
;;;819                TEXT_SetTextColor(hItem, GUI_BLACK);
;;;820                
;;;821                info_set = set_60;
;;;822                break;
;;;823            }
;;;824        }
;;;825        
;;;826    }
00007a  e8bd9ff0          POP      {r4-r12,pc}
00007e  4639              MOV      r1,r7                 ;631
000080  4fdd              LDR      r7,|L7.1016|
000082  f7fffffe          BL       WM_GetDialogItem
000086  4604              MOV      r4,r0                 ;631
000088  f06f4170          MVN      r1,#0xf0000000        ;632
00008c  4620              MOV      r0,r4                 ;632
00008e  f7fffffe          BL       TEXT_SetBkColor
000092  4629              MOV      r1,r5                 ;633
000094  4620              MOV      r0,r4                 ;633
000096  f7fffffe          BL       TEXT_SetTextColor
00009a  4631              MOV      r1,r6                 ;635
00009c  69b8              LDR      r0,[r7,#0x18]         ;635  ; hWinsysinfo
00009e  f7fffffe          BL       WM_GetDialogItem
0000a2  4604              MOV      r4,r0                 ;635
0000a4  4629              MOV      r1,r5                 ;636
0000a6  4620              MOV      r0,r4                 ;636
0000a8  f7fffffe          BL       TEXT_SetBkColor
0000ac  2100              MOVS     r1,#0                 ;637
0000ae  4620              MOV      r0,r4                 ;637
0000b0  f7fffffe          BL       TEXT_SetTextColor
0000b4  202f              MOVS     r0,#0x2f              ;639
0000b6  7038              STRB     r0,[r7,#0]            ;639
0000b8  e7df              B        |L7.122|
0000ba  4641              MOV      r1,r8                 ;644
0000bc  4ece              LDR      r6,|L7.1016|
0000be  f7fffffe          BL       WM_GetDialogItem
0000c2  4604              MOV      r4,r0                 ;644
0000c4  f06f4170          MVN      r1,#0xf0000000        ;645
0000c8  4620              MOV      r0,r4                 ;645
0000ca  f7fffffe          BL       TEXT_SetBkColor
0000ce  4629              MOV      r1,r5                 ;646
0000d0  4620              MOV      r0,r4                 ;646
0000d2  f7fffffe          BL       TEXT_SetTextColor
0000d6  4639              MOV      r1,r7                 ;648
0000d8  69b0              LDR      r0,[r6,#0x18]         ;648  ; hWinsysinfo
0000da  f7fffffe          BL       WM_GetDialogItem
0000de  4604              MOV      r4,r0                 ;648
0000e0  4629              MOV      r1,r5                 ;649
0000e2  4620              MOV      r0,r4                 ;649
0000e4  f7fffffe          BL       TEXT_SetBkColor
0000e8  2100              MOVS     r1,#0                 ;650
0000ea  4620              MOV      r0,r4                 ;650
0000ec  f7fffffe          BL       TEXT_SetTextColor
0000f0  2030              MOVS     r0,#0x30              ;652
0000f2  7030              STRB     r0,[r6,#0]            ;652
0000f4  e7c1              B        |L7.122|
0000f6  4649              MOV      r1,r9                 ;657
0000f8  4ebf              LDR      r6,|L7.1016|
0000fa  f7fffffe          BL       WM_GetDialogItem
0000fe  4604              MOV      r4,r0                 ;657
000100  f06f4170          MVN      r1,#0xf0000000        ;658
000104  4620              MOV      r0,r4                 ;658
000106  f7fffffe          BL       TEXT_SetBkColor
00010a  4629              MOV      r1,r5                 ;659
00010c  4620              MOV      r0,r4                 ;659
00010e  f7fffffe          BL       TEXT_SetTextColor
000112  4641              MOV      r1,r8                 ;661
000114  69b0              LDR      r0,[r6,#0x18]         ;661  ; hWinsysinfo
000116  f7fffffe          BL       WM_GetDialogItem
00011a  4604              MOV      r4,r0                 ;661
00011c  4629              MOV      r1,r5                 ;662
00011e  4620              MOV      r0,r4                 ;662
000120  f7fffffe          BL       TEXT_SetBkColor
000124  2100              MOVS     r1,#0                 ;663
000126  4620              MOV      r0,r4                 ;663
000128  f7fffffe          BL       TEXT_SetTextColor
00012c  2031              MOVS     r0,#0x31              ;665
00012e  7030              STRB     r0,[r6,#0]            ;665
000130  e7a3              B        |L7.122|
000132  4621              MOV      r1,r4                 ;670
000134  4eb0              LDR      r6,|L7.1016|
000136  f7fffffe          BL       WM_GetDialogItem
00013a  4604              MOV      r4,r0                 ;670
00013c  f06f4170          MVN      r1,#0xf0000000        ;671
000140  4620              MOV      r0,r4                 ;671
000142  f7fffffe          BL       TEXT_SetBkColor
000146  4629              MOV      r1,r5                 ;672
000148  4620              MOV      r0,r4                 ;672
00014a  f7fffffe          BL       TEXT_SetTextColor
00014e  4649              MOV      r1,r9                 ;674
000150  69b0              LDR      r0,[r6,#0x18]         ;674  ; hWinsysinfo
000152  f7fffffe          BL       WM_GetDialogItem
000156  4604              MOV      r4,r0                 ;674
000158  4629              MOV      r1,r5                 ;675
00015a  4620              MOV      r0,r4                 ;675
00015c  f7fffffe          BL       TEXT_SetBkColor
000160  2100              MOVS     r1,#0                 ;676
000162  4620              MOV      r0,r4                 ;676
000164  f7fffffe          BL       TEXT_SetTextColor
000168  2032              MOVS     r0,#0x32              ;678
00016a  7030              STRB     r0,[r6,#0]            ;678
00016c  e785              B        |L7.122|
00016e  4651              MOV      r1,r10                ;683
000170  4fa1              LDR      r7,|L7.1016|
000172  f7fffffe          BL       WM_GetDialogItem
000176  4606              MOV      r6,r0                 ;683
000178  f06f4170          MVN      r1,#0xf0000000        ;684
00017c  4630              MOV      r0,r6                 ;684
00017e  f7fffffe          BL       TEXT_SetBkColor
000182  4629              MOV      r1,r5                 ;685
000184  4630              MOV      r0,r6                 ;685
000186  f7fffffe          BL       TEXT_SetTextColor
00018a  4621              MOV      r1,r4                 ;687
00018c  69b8              LDR      r0,[r7,#0x18]         ;687  ; hWinsysinfo
00018e  f7fffffe          BL       WM_GetDialogItem
000192  4604              MOV      r4,r0                 ;687
000194  4629              MOV      r1,r5                 ;688
000196  4620              MOV      r0,r4                 ;688
000198  f7fffffe          BL       TEXT_SetBkColor
00019c  2100              MOVS     r1,#0                 ;689
00019e  4620              MOV      r0,r4                 ;689
0001a0  f7fffffe          BL       TEXT_SetTextColor
0001a4  2033              MOVS     r0,#0x33              ;691
0001a6  7038              STRB     r0,[r7,#0]            ;691
0001a8  e767              B        |L7.122|
0001aa  4659              MOV      r1,r11                ;696
0001ac  4e92              LDR      r6,|L7.1016|
0001ae  f7fffffe          BL       WM_GetDialogItem
0001b2  4604              MOV      r4,r0                 ;696
0001b4  f06f4170          MVN      r1,#0xf0000000        ;697
0001b8  4620              MOV      r0,r4                 ;697
0001ba  f7fffffe          BL       TEXT_SetBkColor
0001be  4629              MOV      r1,r5                 ;698
0001c0  4620              MOV      r0,r4                 ;698
0001c2  f7fffffe          BL       TEXT_SetTextColor
0001c6  4651              MOV      r1,r10                ;700
0001c8  69b0              LDR      r0,[r6,#0x18]         ;700  ; hWinsysinfo
0001ca  f7fffffe          BL       WM_GetDialogItem
0001ce  4604              MOV      r4,r0                 ;700
0001d0  4629              MOV      r1,r5                 ;701
0001d2  4620              MOV      r0,r4                 ;701
0001d4  f7fffffe          BL       TEXT_SetBkColor
0001d8  2100              MOVS     r1,#0                 ;702
0001da  4620              MOV      r0,r4                 ;702
0001dc  f7fffffe          BL       TEXT_SetTextColor
0001e0  2034              MOVS     r0,#0x34              ;704
0001e2  7030              STRB     r0,[r6,#0]            ;704
0001e4  e749              B        |L7.122|
0001e6  f6403101          MOV      r1,#0xb01             ;709
0001ea  4e83              LDR      r6,|L7.1016|
0001ec  f7fffffe          BL       WM_GetDialogItem
0001f0  4604              MOV      r4,r0                 ;709
0001f2  f06f4170          MVN      r1,#0xf0000000        ;710
0001f6  4620              MOV      r0,r4                 ;710
0001f8  f7fffffe          BL       TEXT_SetBkColor
0001fc  4629              MOV      r1,r5                 ;711
0001fe  4620              MOV      r0,r4                 ;711
000200  f7fffffe          BL       TEXT_SetTextColor
000204  4659              MOV      r1,r11                ;713
000206  69b0              LDR      r0,[r6,#0x18]         ;713  ; hWinsysinfo
000208  f7fffffe          BL       WM_GetDialogItem
00020c  4604              MOV      r4,r0                 ;713
00020e  4629              MOV      r1,r5                 ;714
000210  4620              MOV      r0,r4                 ;714
000212  f7fffffe          BL       TEXT_SetBkColor
000216  2100              MOVS     r1,#0                 ;715
000218  4620              MOV      r0,r4                 ;715
00021a  e007              B        |L7.556|
00021c  e02b              B        |L7.630|
00021e  e00a              B        |L7.566|
000220  e0ee              B        |L7.1024|
000222  e0c8              B        |L7.950|
000224  e0a7              B        |L7.886|
000226  e086              B        |L7.822|
000228  e065              B        |L7.758|
00022a  e044              B        |L7.694|
                  |L7.556|
00022c  f7fffffe          BL       TEXT_SetTextColor
000230  2035              MOVS     r0,#0x35              ;717
000232  7030              STRB     r0,[r6,#0]            ;717
000234  e721              B        |L7.122|
                  |L7.566|
000236  f6403108          MOV      r1,#0xb08             ;722
00023a  4e6f              LDR      r6,|L7.1016|
00023c  f7fffffe          BL       WM_GetDialogItem
000240  4604              MOV      r4,r0                 ;722
000242  f06f4170          MVN      r1,#0xf0000000        ;723
000246  4620              MOV      r0,r4                 ;723
000248  f7fffffe          BL       TEXT_SetBkColor
00024c  4629              MOV      r1,r5                 ;724
00024e  4620              MOV      r0,r4                 ;724
000250  f7fffffe          BL       TEXT_SetTextColor
000254  f6403107          MOV      r1,#0xb07             ;726
000258  69b0              LDR      r0,[r6,#0x18]         ;726  ; hWinsysinfo
00025a  f7fffffe          BL       WM_GetDialogItem
00025e  4604              MOV      r4,r0                 ;726
000260  4629              MOV      r1,r5                 ;727
000262  4620              MOV      r0,r4                 ;727
000264  f7fffffe          BL       TEXT_SetBkColor
000268  2100              MOVS     r1,#0                 ;728
00026a  4620              MOV      r0,r4                 ;728
00026c  f7fffffe          BL       TEXT_SetTextColor
000270  203c              MOVS     r0,#0x3c              ;730
000272  7030              STRB     r0,[r6,#0]            ;730
000274  e701              B        |L7.122|
                  |L7.630|
000276  f6403109          MOV      r1,#0xb09             ;735
00027a  4e5f              LDR      r6,|L7.1016|
00027c  f7fffffe          BL       WM_GetDialogItem
000280  4604              MOV      r4,r0                 ;735
000282  f06f4170          MVN      r1,#0xf0000000        ;736
000286  4620              MOV      r0,r4                 ;736
000288  f7fffffe          BL       TEXT_SetBkColor
00028c  4629              MOV      r1,r5                 ;737
00028e  4620              MOV      r0,r4                 ;737
000290  f7fffffe          BL       TEXT_SetTextColor
000294  f6403108          MOV      r1,#0xb08             ;739
000298  69b0              LDR      r0,[r6,#0x18]         ;739  ; hWinsysinfo
00029a  f7fffffe          BL       WM_GetDialogItem
00029e  4604              MOV      r4,r0                 ;739
0002a0  4629              MOV      r1,r5                 ;740
0002a2  4620              MOV      r0,r4                 ;740
0002a4  f7fffffe          BL       TEXT_SetBkColor
0002a8  2100              MOVS     r1,#0                 ;741
0002aa  4620              MOV      r0,r4                 ;741
0002ac  f7fffffe          BL       TEXT_SetTextColor
0002b0  203d              MOVS     r0,#0x3d              ;743
0002b2  7030              STRB     r0,[r6,#0]            ;743
0002b4  e6e1              B        |L7.122|
                  |L7.694|
0002b6  f6403102          MOV      r1,#0xb02             ;748
0002ba  4e4f              LDR      r6,|L7.1016|
0002bc  f7fffffe          BL       WM_GetDialogItem
0002c0  4604              MOV      r4,r0                 ;748
0002c2  f06f4170          MVN      r1,#0xf0000000        ;749
0002c6  4620              MOV      r0,r4                 ;749
0002c8  f7fffffe          BL       TEXT_SetBkColor
0002cc  4629              MOV      r1,r5                 ;750
0002ce  4620              MOV      r0,r4                 ;750
0002d0  f7fffffe          BL       TEXT_SetTextColor
0002d4  f6403109          MOV      r1,#0xb09             ;752
0002d8  69b0              LDR      r0,[r6,#0x18]         ;752  ; hWinsysinfo
0002da  f7fffffe          BL       WM_GetDialogItem
0002de  4604              MOV      r4,r0                 ;752
0002e0  4629              MOV      r1,r5                 ;753
0002e2  4620              MOV      r0,r4                 ;753
0002e4  f7fffffe          BL       TEXT_SetBkColor
0002e8  2100              MOVS     r1,#0                 ;754
0002ea  4620              MOV      r0,r4                 ;754
0002ec  f7fffffe          BL       TEXT_SetTextColor
0002f0  203e              MOVS     r0,#0x3e              ;756
0002f2  7030              STRB     r0,[r6,#0]            ;756
0002f4  e6c1              B        |L7.122|
                  |L7.758|
0002f6  f6403103          MOV      r1,#0xb03             ;761
0002fa  4e3f              LDR      r6,|L7.1016|
0002fc  f7fffffe          BL       WM_GetDialogItem
000300  4604              MOV      r4,r0                 ;761
000302  f06f4170          MVN      r1,#0xf0000000        ;762
000306  4620              MOV      r0,r4                 ;762
000308  f7fffffe          BL       TEXT_SetBkColor
00030c  4629              MOV      r1,r5                 ;763
00030e  4620              MOV      r0,r4                 ;763
000310  f7fffffe          BL       TEXT_SetTextColor
000314  f6403102          MOV      r1,#0xb02             ;765
000318  69b0              LDR      r0,[r6,#0x18]         ;765  ; hWinsysinfo
00031a  f7fffffe          BL       WM_GetDialogItem
00031e  4604              MOV      r4,r0                 ;765
000320  4629              MOV      r1,r5                 ;766
000322  4620              MOV      r0,r4                 ;766
000324  f7fffffe          BL       TEXT_SetBkColor
000328  2100              MOVS     r1,#0                 ;767
00032a  4620              MOV      r0,r4                 ;767
00032c  f7fffffe          BL       TEXT_SetTextColor
000330  2037              MOVS     r0,#0x37              ;769
000332  7030              STRB     r0,[r6,#0]            ;769
000334  e6a1              B        |L7.122|
                  |L7.822|
000336  f6403104          MOV      r1,#0xb04             ;774
00033a  4e2f              LDR      r6,|L7.1016|
00033c  f7fffffe          BL       WM_GetDialogItem
000340  4604              MOV      r4,r0                 ;774
000342  f06f4170          MVN      r1,#0xf0000000        ;775
000346  4620              MOV      r0,r4                 ;775
000348  f7fffffe          BL       TEXT_SetBkColor
00034c  4629              MOV      r1,r5                 ;776
00034e  4620              MOV      r0,r4                 ;776
000350  f7fffffe          BL       TEXT_SetTextColor
000354  f6403103          MOV      r1,#0xb03             ;778
000358  69b0              LDR      r0,[r6,#0x18]         ;778  ; hWinsysinfo
00035a  f7fffffe          BL       WM_GetDialogItem
00035e  4604              MOV      r4,r0                 ;778
000360  4629              MOV      r1,r5                 ;779
000362  4620              MOV      r0,r4                 ;779
000364  f7fffffe          BL       TEXT_SetBkColor
000368  2100              MOVS     r1,#0                 ;780
00036a  4620              MOV      r0,r4                 ;780
00036c  f7fffffe          BL       TEXT_SetTextColor
000370  2038              MOVS     r0,#0x38              ;782
000372  7030              STRB     r0,[r6,#0]            ;782
000374  e681              B        |L7.122|
                  |L7.886|
000376  f6403105          MOV      r1,#0xb05             ;787
00037a  4e1f              LDR      r6,|L7.1016|
00037c  f7fffffe          BL       WM_GetDialogItem
000380  4604              MOV      r4,r0                 ;787
000382  f06f4170          MVN      r1,#0xf0000000        ;788
000386  4620              MOV      r0,r4                 ;788
000388  f7fffffe          BL       TEXT_SetBkColor
00038c  4629              MOV      r1,r5                 ;789
00038e  4620              MOV      r0,r4                 ;789
000390  f7fffffe          BL       TEXT_SetTextColor
000394  f6403104          MOV      r1,#0xb04             ;791
000398  69b0              LDR      r0,[r6,#0x18]         ;791  ; hWinsysinfo
00039a  f7fffffe          BL       WM_GetDialogItem
00039e  4604              MOV      r4,r0                 ;791
0003a0  4629              MOV      r1,r5                 ;792
0003a2  4620              MOV      r0,r4                 ;792
0003a4  f7fffffe          BL       TEXT_SetBkColor
0003a8  2100              MOVS     r1,#0                 ;793
0003aa  4620              MOV      r0,r4                 ;793
0003ac  f7fffffe          BL       TEXT_SetTextColor
0003b0  2039              MOVS     r0,#0x39              ;795
0003b2  7030              STRB     r0,[r6,#0]            ;795
0003b4  e661              B        |L7.122|
                  |L7.950|
0003b6  f6403106          MOV      r1,#0xb06             ;800
0003ba  4e0f              LDR      r6,|L7.1016|
0003bc  f7fffffe          BL       WM_GetDialogItem
0003c0  4604              MOV      r4,r0                 ;800
0003c2  f06f4170          MVN      r1,#0xf0000000        ;801
0003c6  4620              MOV      r0,r4                 ;801
0003c8  f7fffffe          BL       TEXT_SetBkColor
0003cc  4629              MOV      r1,r5                 ;802
0003ce  4620              MOV      r0,r4                 ;802
0003d0  f7fffffe          BL       TEXT_SetTextColor
0003d4  f6403105          MOV      r1,#0xb05             ;804
0003d8  69b0              LDR      r0,[r6,#0x18]         ;804  ; hWinsysinfo
0003da  f7fffffe          BL       WM_GetDialogItem
0003de  4604              MOV      r4,r0                 ;804
0003e0  4629              MOV      r1,r5                 ;805
0003e2  4620              MOV      r0,r4                 ;805
0003e4  f7fffffe          BL       TEXT_SetBkColor
0003e8  2100              MOVS     r1,#0                 ;806
0003ea  4620              MOV      r0,r4                 ;806
0003ec  f7fffffe          BL       TEXT_SetTextColor
0003f0  203a              MOVS     r0,#0x3a              ;808
0003f2  7030              STRB     r0,[r6,#0]            ;808
0003f4  e641              B        |L7.122|
0003f6  0000              DCW      0x0000
                  |L7.1016|
                          DCD      ||.data||
                  |L7.1020|
                          DCD      0x00bfffff
                  |L7.1024|
000400  f6403107          MOV      r1,#0xb07             ;813
000404  4e0e              LDR      r6,|L7.1088|
000406  f7fffffe          BL       WM_GetDialogItem
00040a  4604              MOV      r4,r0                 ;813
00040c  f06f4170          MVN      r1,#0xf0000000        ;814
000410  4620              MOV      r0,r4                 ;814
000412  f7fffffe          BL       TEXT_SetBkColor
000416  4629              MOV      r1,r5                 ;815
000418  4620              MOV      r0,r4                 ;815
00041a  f7fffffe          BL       TEXT_SetTextColor
00041e  f6403106          MOV      r1,#0xb06             ;817
000422  69b0              LDR      r0,[r6,#0x18]         ;817  ; hWinsysinfo
000424  f7fffffe          BL       WM_GetDialogItem
000428  4604              MOV      r4,r0                 ;817
00042a  4629              MOV      r1,r5                 ;818
00042c  4620              MOV      r0,r4                 ;818
00042e  f7fffffe          BL       TEXT_SetBkColor
000432  2100              MOVS     r1,#0                 ;819
000434  4620              MOV      r0,r4                 ;819
000436  f7fffffe          BL       TEXT_SetTextColor
00043a  203b              MOVS     r0,#0x3b              ;821
00043c  7030              STRB     r0,[r6,#0]            ;821
00043e  e61c              B        |L7.122|
;;;827    
                          ENDP

                  |L7.1088|
                          DCD      ||.data||

                          AREA ||i.SYS_INFO_RIGHT||, CODE, READONLY, ALIGN=2

                  SYS_INFO_RIGHT PROC
;;;391    void SYS_INFO_RIGHT(void);
;;;392    void SYS_INFO_RIGHT(void)
000000  e92d5ff0          PUSH     {r4-r12,lr}
;;;393    {
;;;394        WM_HWIN hItem;
;;;395        switch(info_set)
000004  48f8              LDR      r0,|L8.1000|
000006  7801              LDRB     r1,[r0,#0]  ; info_set
;;;396        {
;;;397            case set_48:
;;;398            {
;;;399                hItem = WM_GetDialogItem(hWinsysinfo, ID_TEXT_99);
;;;400                TEXT_SetBkColor(hItem,GUI_INVALID_COLOR);
;;;401                TEXT_SetTextColor(hItem, 0x00BFFFFF);
000008  4df8              LDR      r5,|L8.1004|
00000a  392f              SUBS     r1,r1,#0x2f           ;395
00000c  6980              LDR      r0,[r0,#0x18]         ;399
00000e  f6400799          MOV      r7,#0x899             ;399
000012  f06f4670          MVN      r6,#0xf0000000        ;400
;;;402                
;;;403                hItem = WM_GetDialogItem(hWinsysinfo, ID_TEXT_100);
000016  f640089a          MOV      r8,#0x89a
;;;404                TEXT_SetBkColor(hItem,0x00BFFFFF);
;;;405                TEXT_SetTextColor(hItem, GUI_BLACK);
;;;406                
;;;407                info_set = set_49;
;;;408                break;
;;;409            }
;;;410            case set_49:
;;;411            {
;;;412                hItem = WM_GetDialogItem(hWinsysinfo, ID_TEXT_100);
;;;413                TEXT_SetBkColor(hItem,GUI_INVALID_COLOR);
;;;414                TEXT_SetTextColor(hItem, 0x00BFFFFF);
;;;415                
;;;416                hItem = WM_GetDialogItem(hWinsysinfo, ID_TEXT_101);
00001a  f640099b          MOV      r9,#0x89b
;;;417                TEXT_SetBkColor(hItem,0x00BFFFFF);
;;;418                TEXT_SetTextColor(hItem, GUI_BLACK);
;;;419                
;;;420                info_set = set_50;
;;;421                break;
;;;422            }
;;;423            case set_50:
;;;424            {
;;;425                hItem = WM_GetDialogItem(hWinsysinfo, ID_TEXT_101);
;;;426                TEXT_SetBkColor(hItem,GUI_INVALID_COLOR);
;;;427                TEXT_SetTextColor(hItem, 0x00BFFFFF);
;;;428                
;;;429                hItem = WM_GetDialogItem(hWinsysinfo, ID_TEXT_102);
00001e  f6400a9c          MOV      r10,#0x89c
;;;430                TEXT_SetBkColor(hItem,0x00BFFFFF);
;;;431                TEXT_SetTextColor(hItem, GUI_BLACK);
;;;432                
;;;433                info_set = set_51;
;;;434                break;
;;;435            }
;;;436            case set_51:
;;;437            {
;;;438                hItem = WM_GetDialogItem(hWinsysinfo, ID_TEXT_102);
;;;439                TEXT_SetBkColor(hItem,GUI_INVALID_COLOR);
;;;440                TEXT_SetTextColor(hItem, 0x00BFFFFF);
;;;441                
;;;442                hItem = WM_GetDialogItem(hWinsysinfo, ID_TEXT_103);
000022  f6400b9d          MOV      r11,#0x89d
;;;443                TEXT_SetBkColor(hItem,0x00BFFFFF);
;;;444                TEXT_SetTextColor(hItem, GUI_BLACK);
;;;445                
;;;446                info_set = set_52;
;;;447                break;
;;;448            }
;;;449            case set_52:
;;;450            {
;;;451                hItem = WM_GetDialogItem(hWinsysinfo, ID_TEXT_103);
;;;452                TEXT_SetBkColor(hItem,GUI_INVALID_COLOR);
;;;453                TEXT_SetTextColor(hItem, 0x00BFFFFF);
;;;454                
;;;455                hItem = WM_GetDialogItem(hWinsysinfo, ID_TEXT_104);
;;;456                TEXT_SetBkColor(hItem,0x00BFFFFF);
;;;457                TEXT_SetTextColor(hItem, GUI_BLACK);
;;;458                
;;;459                info_set = set_53;
;;;460                break;
;;;461            }
;;;462            case set_53:
;;;463            {
;;;464                hItem = WM_GetDialogItem(hWinsysinfo, ID_TEXT_104);
;;;465                TEXT_SetBkColor(hItem,GUI_INVALID_COLOR);
;;;466                TEXT_SetTextColor(hItem, 0x00BFFFFF);
;;;467                
;;;468                hItem = WM_GetDialogItem(hWinsysinfo, ID_TEXT_105);
;;;469                TEXT_SetBkColor(hItem,0x00BFFFFF);
;;;470                TEXT_SetTextColor(hItem, GUI_BLACK);
;;;471                
;;;472                info_set = set_54;
;;;473                break;
;;;474            }
;;;475            case set_54:
;;;476            {
;;;477                hItem = WM_GetDialogItem(hWinsysinfo, ID_TEXT_105);
;;;478                TEXT_SetBkColor(hItem,GUI_INVALID_COLOR);
;;;479                TEXT_SetTextColor(hItem, 0x00BFFFFF);
;;;480                
;;;481                hItem = WM_GetDialogItem(hWinsysinfo, ID_TEXT_106);
;;;482                TEXT_SetBkColor(hItem,0x00BFFFFF);
;;;483                TEXT_SetTextColor(hItem, GUI_BLACK);
;;;484                
;;;485                info_set = set_55;
;;;486                break;
;;;487            }
;;;488            case set_55:
;;;489            {
;;;490                hItem = WM_GetDialogItem(hWinsysinfo, ID_TEXT_106);
;;;491                TEXT_SetBkColor(hItem,GUI_INVALID_COLOR);
;;;492                TEXT_SetTextColor(hItem, 0x00BFFFFF);
;;;493                
;;;494                hItem = WM_GetDialogItem(hWinsysinfo, ID_TEXT_99);
;;;495                TEXT_SetBkColor(hItem,0x00BFFFFF);
;;;496                TEXT_SetTextColor(hItem, GUI_BLACK);
;;;497                
;;;498                info_set = set_48;
;;;499                break;
;;;500            }
;;;501            case set_62:
;;;502            {
;;;503                hItem = WM_GetDialogItem(hWinsysinfo, ID_TEXT_113);
000026  f6403408          MOV      r4,#0xb08
00002a  2910              CMP      r1,#0x10              ;395
00002c  d225              BCS      |L8.122|
00002e  e8dff001          TBB      [pc,r1]               ;395
000032  0826              DCB      0x08,0x26
000034  43607d9b          DCB      0x43,0x60,0x7d,0x9b
000038  bad9fefd          DCB      0xba,0xd9,0xfe,0xfd
00003c  fcfbfaf9          DCB      0xfc,0xfb,0xfa,0xf9
000040  f8f7              DCB      0xf8,0xf7
000042  4639              MOV      r1,r7                 ;399
000044  4fe8              LDR      r7,|L8.1000|
000046  f7fffffe          BL       WM_GetDialogItem
00004a  4604              MOV      r4,r0                 ;399
00004c  4631              MOV      r1,r6                 ;400
00004e  4620              MOV      r0,r4                 ;400
000050  f7fffffe          BL       TEXT_SetBkColor
000054  4629              MOV      r1,r5                 ;401
000056  4620              MOV      r0,r4                 ;401
000058  f7fffffe          BL       TEXT_SetTextColor
00005c  4641              MOV      r1,r8                 ;403
00005e  69b8              LDR      r0,[r7,#0x18]         ;403  ; hWinsysinfo
000060  f7fffffe          BL       WM_GetDialogItem
000064  4604              MOV      r4,r0                 ;403
000066  4629              MOV      r1,r5                 ;404
000068  4620              MOV      r0,r4                 ;404
00006a  f7fffffe          BL       TEXT_SetBkColor
00006e  2100              MOVS     r1,#0                 ;405
000070  4620              MOV      r0,r4                 ;405
000072  f7fffffe          BL       TEXT_SetTextColor
000076  2030              MOVS     r0,#0x30              ;407
000078  7038              STRB     r0,[r7,#0]            ;407
                  |L8.122|
;;;504                TEXT_SetBkColor(hItem,GUI_INVALID_COLOR);
;;;505                TEXT_SetTextColor(hItem, 0x00BFFFFF);
;;;506                
;;;507                hItem = WM_GetDialogItem(hWinsysinfo, ID_TEXT_114);
;;;508                TEXT_SetBkColor(hItem,0x00BFFFFF);
;;;509                TEXT_SetTextColor(hItem, GUI_BLACK);
;;;510                
;;;511                info_set = set_63;
;;;512                break;
;;;513            }
;;;514            case set_63:
;;;515            {
;;;516                hItem = WM_GetDialogItem(hWinsysinfo, ID_TEXT_114);
;;;517                TEXT_SetBkColor(hItem,GUI_INVALID_COLOR);
;;;518                TEXT_SetTextColor(hItem, 0x00BFFFFF);
;;;519                
;;;520                hItem = WM_GetDialogItem(hWinsysinfo, ID_TEXT_107);
;;;521                TEXT_SetBkColor(hItem,0x00BFFFFF);
;;;522                TEXT_SetTextColor(hItem, GUI_BLACK);
;;;523                
;;;524                info_set = set_56;
;;;525                break;
;;;526            }
;;;527            case set_56:
;;;528            {
;;;529                hItem = WM_GetDialogItem(hWinsysinfo, ID_TEXT_107);
;;;530                TEXT_SetBkColor(hItem,GUI_INVALID_COLOR);
;;;531                TEXT_SetTextColor(hItem, 0x00BFFFFF);
;;;532                
;;;533                hItem = WM_GetDialogItem(hWinsysinfo, ID_TEXT_108);
;;;534                TEXT_SetBkColor(hItem,0x00BFFFFF);
;;;535                TEXT_SetTextColor(hItem, GUI_BLACK);
;;;536                
;;;537                info_set = set_57;
;;;538                break;
;;;539            }
;;;540            case set_57:
;;;541            {
;;;542                hItem = WM_GetDialogItem(hWinsysinfo, ID_TEXT_108);
;;;543                TEXT_SetBkColor(hItem,GUI_INVALID_COLOR);
;;;544                TEXT_SetTextColor(hItem, 0x00BFFFFF);
;;;545                
;;;546                hItem = WM_GetDialogItem(hWinsysinfo, ID_TEXT_109);
;;;547                TEXT_SetBkColor(hItem,0x00BFFFFF);
;;;548                TEXT_SetTextColor(hItem, GUI_BLACK);
;;;549                
;;;550                info_set = set_58;
;;;551                break;
;;;552            }
;;;553            case set_58:
;;;554            {
;;;555                hItem = WM_GetDialogItem(hWinsysinfo, ID_TEXT_109);
;;;556                TEXT_SetBkColor(hItem,GUI_INVALID_COLOR);
;;;557                TEXT_SetTextColor(hItem, 0x00BFFFFF);
;;;558                
;;;559                hItem = WM_GetDialogItem(hWinsysinfo, ID_TEXT_110);
;;;560                TEXT_SetBkColor(hItem,0x00BFFFFF);
;;;561                TEXT_SetTextColor(hItem, GUI_BLACK);
;;;562                
;;;563                info_set = set_59;
;;;564                break;
;;;565            }
;;;566            case set_59:
;;;567            {
;;;568                hItem = WM_GetDialogItem(hWinsysinfo, ID_TEXT_110);
;;;569                TEXT_SetBkColor(hItem,GUI_INVALID_COLOR);
;;;570                TEXT_SetTextColor(hItem, 0x00BFFFFF);
;;;571                
;;;572                hItem = WM_GetDialogItem(hWinsysinfo, ID_TEXT_111);
;;;573                TEXT_SetBkColor(hItem,0x00BFFFFF);
;;;574                TEXT_SetTextColor(hItem, GUI_BLACK);
;;;575                
;;;576                info_set = set_60;
;;;577                break;
;;;578            }
;;;579            case set_60:
;;;580            {
;;;581                hItem = WM_GetDialogItem(hWinsysinfo, ID_TEXT_111);
;;;582                TEXT_SetBkColor(hItem,GUI_INVALID_COLOR);
;;;583                TEXT_SetTextColor(hItem, 0x00BFFFFF);
;;;584                
;;;585                hItem = WM_GetDialogItem(hWinsysinfo, ID_TEXT_112);
;;;586                TEXT_SetBkColor(hItem,0x00BFFFFF);
;;;587                TEXT_SetTextColor(hItem, GUI_BLACK);
;;;588                
;;;589                info_set = set_61;
;;;590                break;
;;;591            }
;;;592            case set_61:
;;;593            {
;;;594                hItem = WM_GetDialogItem(hWinsysinfo, ID_TEXT_112);
;;;595                TEXT_SetBkColor(hItem,GUI_INVALID_COLOR);
;;;596                TEXT_SetTextColor(hItem, 0x00BFFFFF);
;;;597                
;;;598                hItem = WM_GetDialogItem(hWinsysinfo, ID_TEXT_113);
;;;599                TEXT_SetBkColor(hItem,0x00BFFFFF);
;;;600                TEXT_SetTextColor(hItem, GUI_BLACK);
;;;601                
;;;602                info_set = set_62;
;;;603                break;
;;;604            }
;;;605        }
;;;606        
;;;607    }
00007a  e8bd9ff0          POP      {r4-r12,pc}
00007e  4641              MOV      r1,r8                 ;412
000080  4fd9              LDR      r7,|L8.1000|
000082  f7fffffe          BL       WM_GetDialogItem
000086  4604              MOV      r4,r0                 ;412
000088  4631              MOV      r1,r6                 ;413
00008a  4620              MOV      r0,r4                 ;413
00008c  f7fffffe          BL       TEXT_SetBkColor
000090  4629              MOV      r1,r5                 ;414
000092  4620              MOV      r0,r4                 ;414
000094  f7fffffe          BL       TEXT_SetTextColor
000098  4649              MOV      r1,r9                 ;416
00009a  69b8              LDR      r0,[r7,#0x18]         ;416  ; hWinsysinfo
00009c  f7fffffe          BL       WM_GetDialogItem
0000a0  4604              MOV      r4,r0                 ;416
0000a2  4629              MOV      r1,r5                 ;417
0000a4  4620              MOV      r0,r4                 ;417
0000a6  f7fffffe          BL       TEXT_SetBkColor
0000aa  2100              MOVS     r1,#0                 ;418
0000ac  4620              MOV      r0,r4                 ;418
0000ae  f7fffffe          BL       TEXT_SetTextColor
0000b2  2031              MOVS     r0,#0x31              ;420
0000b4  7038              STRB     r0,[r7,#0]            ;420
0000b6  e7e0              B        |L8.122|
0000b8  4649              MOV      r1,r9                 ;425
0000ba  4fcb              LDR      r7,|L8.1000|
0000bc  f7fffffe          BL       WM_GetDialogItem
0000c0  4604              MOV      r4,r0                 ;425
0000c2  4631              MOV      r1,r6                 ;426
0000c4  4620              MOV      r0,r4                 ;426
0000c6  f7fffffe          BL       TEXT_SetBkColor
0000ca  4629              MOV      r1,r5                 ;427
0000cc  4620              MOV      r0,r4                 ;427
0000ce  f7fffffe          BL       TEXT_SetTextColor
0000d2  4651              MOV      r1,r10                ;429
0000d4  69b8              LDR      r0,[r7,#0x18]         ;429  ; hWinsysinfo
0000d6  f7fffffe          BL       WM_GetDialogItem
0000da  4604              MOV      r4,r0                 ;429
0000dc  4629              MOV      r1,r5                 ;430
0000de  4620              MOV      r0,r4                 ;430
0000e0  f7fffffe          BL       TEXT_SetBkColor
0000e4  2100              MOVS     r1,#0                 ;431
0000e6  4620              MOV      r0,r4                 ;431
0000e8  f7fffffe          BL       TEXT_SetTextColor
0000ec  2032              MOVS     r0,#0x32              ;433
0000ee  7038              STRB     r0,[r7,#0]            ;433
0000f0  e7c3              B        |L8.122|
0000f2  4651              MOV      r1,r10                ;438
0000f4  4fbc              LDR      r7,|L8.1000|
0000f6  f7fffffe          BL       WM_GetDialogItem
0000fa  4604              MOV      r4,r0                 ;438
0000fc  4631              MOV      r1,r6                 ;439
0000fe  4620              MOV      r0,r4                 ;439
000100  f7fffffe          BL       TEXT_SetBkColor
000104  4629              MOV      r1,r5                 ;440
000106  4620              MOV      r0,r4                 ;440
000108  f7fffffe          BL       TEXT_SetTextColor
00010c  4659              MOV      r1,r11                ;442
00010e  69b8              LDR      r0,[r7,#0x18]         ;442  ; hWinsysinfo
000110  f7fffffe          BL       WM_GetDialogItem
000114  4604              MOV      r4,r0                 ;442
000116  4629              MOV      r1,r5                 ;443
000118  4620              MOV      r0,r4                 ;443
00011a  f7fffffe          BL       TEXT_SetBkColor
00011e  2100              MOVS     r1,#0                 ;444
000120  4620              MOV      r0,r4                 ;444
000122  f7fffffe          BL       TEXT_SetTextColor
000126  2033              MOVS     r0,#0x33              ;446
000128  7038              STRB     r0,[r7,#0]            ;446
00012a  e7a6              B        |L8.122|
00012c  4659              MOV      r1,r11                ;451
00012e  4fae              LDR      r7,|L8.1000|
000130  f7fffffe          BL       WM_GetDialogItem
000134  4604              MOV      r4,r0                 ;451
000136  4631              MOV      r1,r6                 ;452
000138  4620              MOV      r0,r4                 ;452
00013a  f7fffffe          BL       TEXT_SetBkColor
00013e  4629              MOV      r1,r5                 ;453
000140  4620              MOV      r0,r4                 ;453
000142  f7fffffe          BL       TEXT_SetTextColor
000146  f640019e          MOV      r1,#0x89e             ;455
00014a  69b8              LDR      r0,[r7,#0x18]         ;455  ; hWinsysinfo
00014c  f7fffffe          BL       WM_GetDialogItem
000150  4604              MOV      r4,r0                 ;455
000152  4629              MOV      r1,r5                 ;456
000154  4620              MOV      r0,r4                 ;456
000156  f7fffffe          BL       TEXT_SetBkColor
00015a  2100              MOVS     r1,#0                 ;457
00015c  4620              MOV      r0,r4                 ;457
00015e  f7fffffe          BL       TEXT_SetTextColor
000162  2034              MOVS     r0,#0x34              ;459
000164  7038              STRB     r0,[r7,#0]            ;459
000166  e788              B        |L8.122|
000168  f640019e          MOV      r1,#0x89e             ;464
00016c  4f9e              LDR      r7,|L8.1000|
00016e  f7fffffe          BL       WM_GetDialogItem
000172  4604              MOV      r4,r0                 ;464
000174  4631              MOV      r1,r6                 ;465
000176  4620              MOV      r0,r4                 ;465
000178  f7fffffe          BL       TEXT_SetBkColor
00017c  4629              MOV      r1,r5                 ;466
00017e  4620              MOV      r0,r4                 ;466
000180  f7fffffe          BL       TEXT_SetTextColor
000184  f44f6130          MOV      r1,#0xb00             ;468
000188  69b8              LDR      r0,[r7,#0x18]         ;468  ; hWinsysinfo
00018a  f7fffffe          BL       WM_GetDialogItem
00018e  4604              MOV      r4,r0                 ;468
000190  4629              MOV      r1,r5                 ;469
000192  4620              MOV      r0,r4                 ;469
000194  f7fffffe          BL       TEXT_SetBkColor
000198  2100              MOVS     r1,#0                 ;470
00019a  4620              MOV      r0,r4                 ;470
00019c  f7fffffe          BL       TEXT_SetTextColor
0001a0  2035              MOVS     r0,#0x35              ;472
0001a2  7038              STRB     r0,[r7,#0]            ;472
0001a4  e769              B        |L8.122|
0001a6  f44f6130          MOV      r1,#0xb00             ;477
0001aa  4f8f              LDR      r7,|L8.1000|
0001ac  f7fffffe          BL       WM_GetDialogItem
0001b0  4604              MOV      r4,r0                 ;477
0001b2  4631              MOV      r1,r6                 ;478
0001b4  4620              MOV      r0,r4                 ;478
0001b6  f7fffffe          BL       TEXT_SetBkColor
0001ba  4629              MOV      r1,r5                 ;479
0001bc  4620              MOV      r0,r4                 ;479
0001be  f7fffffe          BL       TEXT_SetTextColor
0001c2  f6403101          MOV      r1,#0xb01             ;481
0001c6  69b8              LDR      r0,[r7,#0x18]         ;481  ; hWinsysinfo
0001c8  f7fffffe          BL       WM_GetDialogItem
0001cc  4604              MOV      r4,r0                 ;481
0001ce  4629              MOV      r1,r5                 ;482
0001d0  4620              MOV      r0,r4                 ;482
0001d2  f7fffffe          BL       TEXT_SetBkColor
0001d6  2100              MOVS     r1,#0                 ;483
0001d8  4620              MOV      r0,r4                 ;483
0001da  f7fffffe          BL       TEXT_SetTextColor
0001de  2036              MOVS     r0,#0x36              ;485
0001e0  7038              STRB     r0,[r7,#0]            ;485
0001e2  e74a              B        |L8.122|
0001e4  f6403101          MOV      r1,#0xb01             ;490
0001e8  f8df81fc          LDR      r8,|L8.1000|
0001ec  f7fffffe          BL       WM_GetDialogItem
0001f0  4604              MOV      r4,r0                 ;490
0001f2  4631              MOV      r1,r6                 ;491
0001f4  4620              MOV      r0,r4                 ;491
0001f6  f7fffffe          BL       TEXT_SetBkColor
0001fa  4629              MOV      r1,r5                 ;492
0001fc  4620              MOV      r0,r4                 ;492
0001fe  f7fffffe          BL       TEXT_SetTextColor
000202  4639              MOV      r1,r7                 ;494
000204  f8d80018          LDR      r0,[r8,#0x18]         ;494  ; hWinsysinfo
000208  f7fffffe          BL       WM_GetDialogItem
00020c  4604              MOV      r4,r0                 ;494
00020e  4629              MOV      r1,r5                 ;495
000210  4620              MOV      r0,r4                 ;495
000212  f7fffffe          BL       TEXT_SetBkColor
000216  2100              MOVS     r1,#0                 ;496
000218  4620              MOV      r0,r4                 ;496
00021a  f7fffffe          BL       TEXT_SetTextColor
00021e  e007              B        |L8.560|
000220  e028              B        |L8.628|
000222  e009              B        |L8.568|
000224  e0e4              B        |L8.1008|
000226  e0c0              B        |L8.938|
000228  e0a0              B        |L8.876|
00022a  e080              B        |L8.814|
00022c  e060              B        |L8.752|
00022e  e040              B        |L8.690|
                  |L8.560|
000230  202f              MOVS     r0,#0x2f              ;498
000232  f8880000          STRB     r0,[r8,#0]            ;498
000236  e720              B        |L8.122|
                  |L8.568|
000238  4621              MOV      r1,r4                 ;503
00023a  4f6b              LDR      r7,|L8.1000|
00023c  f7fffffe          BL       WM_GetDialogItem
000240  4604              MOV      r4,r0                 ;503
000242  4631              MOV      r1,r6                 ;504
000244  4620              MOV      r0,r4                 ;504
000246  f7fffffe          BL       TEXT_SetBkColor
00024a  4629              MOV      r1,r5                 ;505
00024c  4620              MOV      r0,r4                 ;505
00024e  f7fffffe          BL       TEXT_SetTextColor
000252  f6403109          MOV      r1,#0xb09             ;507
000256  69b8              LDR      r0,[r7,#0x18]         ;507  ; hWinsysinfo
000258  f7fffffe          BL       WM_GetDialogItem
00025c  4604              MOV      r4,r0                 ;507
00025e  4629              MOV      r1,r5                 ;508
000260  4620              MOV      r0,r4                 ;508
000262  f7fffffe          BL       TEXT_SetBkColor
000266  2100              MOVS     r1,#0                 ;509
000268  4620              MOV      r0,r4                 ;509
00026a  f7fffffe          BL       TEXT_SetTextColor
00026e  203e              MOVS     r0,#0x3e              ;511
000270  7038              STRB     r0,[r7,#0]            ;511
000272  e702              B        |L8.122|
                  |L8.628|
000274  f6403109          MOV      r1,#0xb09             ;516
000278  4f5b              LDR      r7,|L8.1000|
00027a  f7fffffe          BL       WM_GetDialogItem
00027e  4604              MOV      r4,r0                 ;516
000280  4631              MOV      r1,r6                 ;517
000282  4620              MOV      r0,r4                 ;517
000284  f7fffffe          BL       TEXT_SetBkColor
000288  4629              MOV      r1,r5                 ;518
00028a  4620              MOV      r0,r4                 ;518
00028c  f7fffffe          BL       TEXT_SetTextColor
000290  f6403102          MOV      r1,#0xb02             ;520
000294  69b8              LDR      r0,[r7,#0x18]         ;520  ; hWinsysinfo
000296  f7fffffe          BL       WM_GetDialogItem
00029a  4604              MOV      r4,r0                 ;520
00029c  4629              MOV      r1,r5                 ;521
00029e  4620              MOV      r0,r4                 ;521
0002a0  f7fffffe          BL       TEXT_SetBkColor
0002a4  2100              MOVS     r1,#0                 ;522
0002a6  4620              MOV      r0,r4                 ;522
0002a8  f7fffffe          BL       TEXT_SetTextColor
0002ac  2037              MOVS     r0,#0x37              ;524
0002ae  7038              STRB     r0,[r7,#0]            ;524
0002b0  e6e3              B        |L8.122|
                  |L8.690|
0002b2  f6403102          MOV      r1,#0xb02             ;529
0002b6  4f4c              LDR      r7,|L8.1000|
0002b8  f7fffffe          BL       WM_GetDialogItem
0002bc  4604              MOV      r4,r0                 ;529
0002be  4631              MOV      r1,r6                 ;530
0002c0  4620              MOV      r0,r4                 ;530
0002c2  f7fffffe          BL       TEXT_SetBkColor
0002c6  4629              MOV      r1,r5                 ;531
0002c8  4620              MOV      r0,r4                 ;531
0002ca  f7fffffe          BL       TEXT_SetTextColor
0002ce  f6403103          MOV      r1,#0xb03             ;533
0002d2  69b8              LDR      r0,[r7,#0x18]         ;533  ; hWinsysinfo
0002d4  f7fffffe          BL       WM_GetDialogItem
0002d8  4604              MOV      r4,r0                 ;533
0002da  4629              MOV      r1,r5                 ;534
0002dc  4620              MOV      r0,r4                 ;534
0002de  f7fffffe          BL       TEXT_SetBkColor
0002e2  2100              MOVS     r1,#0                 ;535
0002e4  4620              MOV      r0,r4                 ;535
0002e6  f7fffffe          BL       TEXT_SetTextColor
0002ea  2038              MOVS     r0,#0x38              ;537
0002ec  7038              STRB     r0,[r7,#0]            ;537
0002ee  e6c4              B        |L8.122|
                  |L8.752|
0002f0  f6403103          MOV      r1,#0xb03             ;542
0002f4  4f3c              LDR      r7,|L8.1000|
0002f6  f7fffffe          BL       WM_GetDialogItem
0002fa  4604              MOV      r4,r0                 ;542
0002fc  4631              MOV      r1,r6                 ;543
0002fe  4620              MOV      r0,r4                 ;543
000300  f7fffffe          BL       TEXT_SetBkColor
000304  4629              MOV      r1,r5                 ;544
000306  4620              MOV      r0,r4                 ;544
000308  f7fffffe          BL       TEXT_SetTextColor
00030c  f6403104          MOV      r1,#0xb04             ;546
000310  69b8              LDR      r0,[r7,#0x18]         ;546  ; hWinsysinfo
000312  f7fffffe          BL       WM_GetDialogItem
000316  4604              MOV      r4,r0                 ;546
000318  4629              MOV      r1,r5                 ;547
00031a  4620              MOV      r0,r4                 ;547
00031c  f7fffffe          BL       TEXT_SetBkColor
000320  2100              MOVS     r1,#0                 ;548
000322  4620              MOV      r0,r4                 ;548
000324  f7fffffe          BL       TEXT_SetTextColor
000328  2039              MOVS     r0,#0x39              ;550
00032a  7038              STRB     r0,[r7,#0]            ;550
00032c  e6a5              B        |L8.122|
                  |L8.814|
00032e  f6403104          MOV      r1,#0xb04             ;555
000332  4f2d              LDR      r7,|L8.1000|
000334  f7fffffe          BL       WM_GetDialogItem
000338  4604              MOV      r4,r0                 ;555
00033a  4631              MOV      r1,r6                 ;556
00033c  4620              MOV      r0,r4                 ;556
00033e  f7fffffe          BL       TEXT_SetBkColor
000342  4629              MOV      r1,r5                 ;557
000344  4620              MOV      r0,r4                 ;557
000346  f7fffffe          BL       TEXT_SetTextColor
00034a  f6403105          MOV      r1,#0xb05             ;559
00034e  69b8              LDR      r0,[r7,#0x18]         ;559  ; hWinsysinfo
000350  f7fffffe          BL       WM_GetDialogItem
000354  4604              MOV      r4,r0                 ;559
000356  4629              MOV      r1,r5                 ;560
000358  4620              MOV      r0,r4                 ;560
00035a  f7fffffe          BL       TEXT_SetBkColor
00035e  2100              MOVS     r1,#0                 ;561
000360  4620              MOV      r0,r4                 ;561
000362  f7fffffe          BL       TEXT_SetTextColor
000366  203a              MOVS     r0,#0x3a              ;563
000368  7038              STRB     r0,[r7,#0]            ;563
00036a  e686              B        |L8.122|
                  |L8.876|
00036c  f6403105          MOV      r1,#0xb05             ;568
000370  4f1d              LDR      r7,|L8.1000|
000372  f7fffffe          BL       WM_GetDialogItem
000376  4604              MOV      r4,r0                 ;568
000378  4631              MOV      r1,r6                 ;569
00037a  4620              MOV      r0,r4                 ;569
00037c  f7fffffe          BL       TEXT_SetBkColor
000380  4629              MOV      r1,r5                 ;570
000382  4620              MOV      r0,r4                 ;570
000384  f7fffffe          BL       TEXT_SetTextColor
000388  f6403106          MOV      r1,#0xb06             ;572
00038c  69b8              LDR      r0,[r7,#0x18]         ;572  ; hWinsysinfo
00038e  f7fffffe          BL       WM_GetDialogItem
000392  4604              MOV      r4,r0                 ;572
000394  4629              MOV      r1,r5                 ;573
000396  4620              MOV      r0,r4                 ;573
000398  f7fffffe          BL       TEXT_SetBkColor
00039c  2100              MOVS     r1,#0                 ;574
00039e  4620              MOV      r0,r4                 ;574
0003a0  f7fffffe          BL       TEXT_SetTextColor
0003a4  203b              MOVS     r0,#0x3b              ;576
0003a6  7038              STRB     r0,[r7,#0]            ;576
0003a8  e667              B        |L8.122|
                  |L8.938|
0003aa  f6403106          MOV      r1,#0xb06             ;581
0003ae  4f0e              LDR      r7,|L8.1000|
0003b0  f7fffffe          BL       WM_GetDialogItem
0003b4  4604              MOV      r4,r0                 ;581
0003b6  4631              MOV      r1,r6                 ;582
0003b8  4620              MOV      r0,r4                 ;582
0003ba  f7fffffe          BL       TEXT_SetBkColor
0003be  4629              MOV      r1,r5                 ;583
0003c0  4620              MOV      r0,r4                 ;583
0003c2  f7fffffe          BL       TEXT_SetTextColor
0003c6  f6403107          MOV      r1,#0xb07             ;585
0003ca  69b8              LDR      r0,[r7,#0x18]         ;585  ; hWinsysinfo
0003cc  f7fffffe          BL       WM_GetDialogItem
0003d0  4604              MOV      r4,r0                 ;585
0003d2  4629              MOV      r1,r5                 ;586
0003d4  4620              MOV      r0,r4                 ;586
0003d6  f7fffffe          BL       TEXT_SetBkColor
0003da  2100              MOVS     r1,#0                 ;587
0003dc  4620              MOV      r0,r4                 ;587
0003de  f7fffffe          BL       TEXT_SetTextColor
0003e2  203c              MOVS     r0,#0x3c              ;589
0003e4  7038              STRB     r0,[r7,#0]            ;589
0003e6  e648              B        |L8.122|
                  |L8.1000|
                          DCD      ||.data||
                  |L8.1004|
                          DCD      0x00bfffff
                  |L8.1008|
0003f0  f6403107          MOV      r1,#0xb07             ;594
0003f4  f8df803c          LDR      r8,|L8.1076|
0003f8  f7fffffe          BL       WM_GetDialogItem
0003fc  4607              MOV      r7,r0                 ;594
0003fe  4631              MOV      r1,r6                 ;595
000400  4638              MOV      r0,r7                 ;595
000402  f7fffffe          BL       TEXT_SetBkColor
000406  4629              MOV      r1,r5                 ;596
000408  4638              MOV      r0,r7                 ;596
00040a  f7fffffe          BL       TEXT_SetTextColor
00040e  4621              MOV      r1,r4                 ;598
000410  f8d80018          LDR      r0,[r8,#0x18]         ;598  ; hWinsysinfo
000414  f7fffffe          BL       WM_GetDialogItem
000418  4604              MOV      r4,r0                 ;598
00041a  4629              MOV      r1,r5                 ;599
00041c  4620              MOV      r0,r4                 ;599
00041e  f7fffffe          BL       TEXT_SetBkColor
000422  2100              MOVS     r1,#0                 ;600
000424  4620              MOV      r0,r4                 ;600
000426  f7fffffe          BL       TEXT_SetTextColor
00042a  203d              MOVS     r0,#0x3d              ;602
00042c  f8880000          STRB     r0,[r8,#0]            ;602
000430  e623              B        |L8.122|
;;;608    
                          ENDP

000432  0000              DCW      0x0000
                  |L8.1076|
                          DCD      ||.data||

                          AREA ||i.SYS_INFO_UP||, CODE, READONLY, ALIGN=2

                  SYS_INFO_UP PROC
;;;829    void SYS_INFO_UP(void);
;;;830    void SYS_INFO_UP(void)
000000  e92d5ff0          PUSH     {r4-r12,lr}
;;;831    {
;;;832        WM_HWIN hItem;
;;;833        switch(info_set)
000004  f8dfb404          LDR      r11,|L9.1036|
000008  f89b1000          LDRB     r1,[r11,#0]  ; info_set
00000c  4658              MOV      r0,r11
00000e  392f              SUBS     r1,r1,#0x2f
;;;834        {
;;;835            case set_48:
;;;836            {
;;;837                hItem = WM_GetDialogItem(hWinsysinfo, ID_TEXT_99);
;;;838                TEXT_SetBkColor(hItem,GUI_INVALID_COLOR);
;;;839                TEXT_SetTextColor(hItem, 0x00BFFFFF);
000010  4fff              LDR      r7,|L9.1040|
;;;840                
;;;841                hItem = WM_GetDialogItem(hWinsysinfo, ID_TEXT_113);
;;;842                TEXT_SetBkColor(hItem,0x00BFFFFF);
;;;843                TEXT_SetTextColor(hItem, GUI_BLACK);
;;;844                
;;;845                info_set = set_62;
000012  253d              MOVS     r5,#0x3d
;;;846                break;
;;;847            }
;;;848            case set_49:
;;;849            {
;;;850                hItem = WM_GetDialogItem(hWinsysinfo, ID_TEXT_100);
;;;851                TEXT_SetBkColor(hItem,GUI_INVALID_COLOR);
;;;852                TEXT_SetTextColor(hItem, 0x00BFFFFF);
;;;853                
;;;854                hItem = WM_GetDialogItem(hWinsysinfo, ID_TEXT_113);
;;;855                TEXT_SetBkColor(hItem,0x00BFFFFF);
;;;856                TEXT_SetTextColor(hItem, GUI_BLACK);
;;;857                
;;;858                info_set = set_62;
;;;859                break;
;;;860            }
;;;861            case set_50:
;;;862            {
;;;863                hItem = WM_GetDialogItem(hWinsysinfo, ID_TEXT_101);
;;;864                TEXT_SetBkColor(hItem,GUI_INVALID_COLOR);
;;;865                TEXT_SetTextColor(hItem, 0x00BFFFFF);
;;;866                
;;;867                hItem = WM_GetDialogItem(hWinsysinfo, ID_TEXT_113);
;;;868                TEXT_SetBkColor(hItem,0x00BFFFFF);
;;;869                TEXT_SetTextColor(hItem, GUI_BLACK);
;;;870                
;;;871                info_set = set_62;
;;;872                break;
;;;873            }
;;;874            case set_51:
;;;875            {
;;;876                hItem = WM_GetDialogItem(hWinsysinfo, ID_TEXT_102);
;;;877                TEXT_SetBkColor(hItem,GUI_INVALID_COLOR);
;;;878                TEXT_SetTextColor(hItem, 0x00BFFFFF);
;;;879                
;;;880                hItem = WM_GetDialogItem(hWinsysinfo, ID_TEXT_113);
;;;881                TEXT_SetBkColor(hItem,0x00BFFFFF);
;;;882                TEXT_SetTextColor(hItem, GUI_BLACK);
;;;883                
;;;884                info_set = set_62;
;;;885                break;
;;;886            }
;;;887            case set_52:
;;;888            {
;;;889                hItem = WM_GetDialogItem(hWinsysinfo, ID_TEXT_103);
;;;890                TEXT_SetBkColor(hItem,GUI_INVALID_COLOR);
;;;891                TEXT_SetTextColor(hItem, 0x00BFFFFF);
;;;892                
;;;893                hItem = WM_GetDialogItem(hWinsysinfo, ID_TEXT_113);
;;;894                TEXT_SetBkColor(hItem,0x00BFFFFF);
;;;895                TEXT_SetTextColor(hItem, GUI_BLACK);
;;;896                
;;;897                info_set = set_62;
;;;898                break;
;;;899            }
;;;900            case set_53:
;;;901            {
;;;902                hItem = WM_GetDialogItem(hWinsysinfo, ID_TEXT_104);
;;;903                TEXT_SetBkColor(hItem,GUI_INVALID_COLOR);
;;;904                TEXT_SetTextColor(hItem, 0x00BFFFFF);
;;;905                
;;;906                hItem = WM_GetDialogItem(hWinsysinfo, ID_TEXT_113);
;;;907                TEXT_SetBkColor(hItem,0x00BFFFFF);
;;;908                TEXT_SetTextColor(hItem, GUI_BLACK);
;;;909                
;;;910                info_set = set_62;
;;;911                break;
;;;912            }
;;;913            case set_54:
;;;914            {
;;;915                hItem = WM_GetDialogItem(hWinsysinfo, ID_TEXT_105);
;;;916                TEXT_SetBkColor(hItem,GUI_INVALID_COLOR);
;;;917                TEXT_SetTextColor(hItem, 0x00BFFFFF);
;;;918                
;;;919                hItem = WM_GetDialogItem(hWinsysinfo, ID_TEXT_113);
;;;920                TEXT_SetBkColor(hItem,0x00BFFFFF);
;;;921                TEXT_SetTextColor(hItem, GUI_BLACK);
;;;922                
;;;923                info_set = set_62;
;;;924                break;
;;;925            }
;;;926            case set_55:
;;;927            {
;;;928                hItem = WM_GetDialogItem(hWinsysinfo, ID_TEXT_106);
;;;929                TEXT_SetBkColor(hItem,GUI_INVALID_COLOR);
;;;930                TEXT_SetTextColor(hItem, 0x00BFFFFF);
;;;931                
;;;932                hItem = WM_GetDialogItem(hWinsysinfo, ID_TEXT_113);
;;;933                TEXT_SetBkColor(hItem,0x00BFFFFF);
;;;934                TEXT_SetTextColor(hItem, GUI_BLACK);
;;;935                
;;;936                info_set = set_62;
;;;937                break;
;;;938            }
;;;939            case set_56:
;;;940            {
;;;941                hItem = WM_GetDialogItem(hWinsysinfo, ID_TEXT_107);
;;;942                TEXT_SetBkColor(hItem,GUI_INVALID_COLOR);
;;;943                TEXT_SetTextColor(hItem, 0x00BFFFFF);
;;;944                
;;;945                hItem = WM_GetDialogItem(hWinsysinfo, ID_TEXT_99);
;;;946                TEXT_SetBkColor(hItem,0x00BFFFFF);
;;;947                TEXT_SetTextColor(hItem, GUI_BLACK);
;;;948                
;;;949                info_set = set_48;
000014  262f              MOVS     r6,#0x2f
000016  6980              LDR      r0,[r0,#0x18]         ;837
000018  f6400a99          MOV      r10,#0x899            ;837
00001c  f06f4870          MVN      r8,#0xf0000000        ;838
000020  f6403908          MOV      r9,#0xb08             ;841
000024  2910              CMP      r1,#0x10              ;833
000026  d225              BCS      |L9.116|
000028  e8dff001          TBB      [pc,r1]               ;833
00002c  08264462          DCB      0x08,0x26,0x44,0x62
000030  809ebcda          DCB      0x80,0x9e,0xbc,0xda
000034  fdfcfbfa          DCB      0xfd,0xfc,0xfb,0xfa
000038  f9f8f7f6          DCB      0xf9,0xf8,0xf7,0xf6
00003c  4651              MOV      r1,r10                ;837
00003e  f7fffffe          BL       WM_GetDialogItem
000042  4604              MOV      r4,r0                 ;837
000044  4641              MOV      r1,r8                 ;838
000046  4620              MOV      r0,r4                 ;838
000048  f7fffffe          BL       TEXT_SetBkColor
00004c  4639              MOV      r1,r7                 ;839
00004e  4620              MOV      r0,r4                 ;839
000050  f7fffffe          BL       TEXT_SetTextColor
000054  4649              MOV      r1,r9                 ;841
000056  f8db0018          LDR      r0,[r11,#0x18]        ;841  ; hWinsysinfo
00005a  f7fffffe          BL       WM_GetDialogItem
00005e  4604              MOV      r4,r0                 ;841
000060  4639              MOV      r1,r7                 ;842
000062  4620              MOV      r0,r4                 ;842
000064  f7fffffe          BL       TEXT_SetBkColor
000068  2100              MOVS     r1,#0                 ;843
00006a  4620              MOV      r0,r4                 ;843
00006c  f7fffffe          BL       TEXT_SetTextColor
000070  f88b5000          STRB     r5,[r11,#0]           ;845
                  |L9.116|
;;;950                break;
;;;951            }
;;;952            case set_62:
;;;953            {
;;;954                hItem = WM_GetDialogItem(hWinsysinfo, ID_TEXT_113);
;;;955                TEXT_SetBkColor(hItem,GUI_INVALID_COLOR);
;;;956                TEXT_SetTextColor(hItem, 0x00BFFFFF);
;;;957                
;;;958                hItem = WM_GetDialogItem(hWinsysinfo, ID_TEXT_99);
;;;959                TEXT_SetBkColor(hItem,0x00BFFFFF);
;;;960                TEXT_SetTextColor(hItem, GUI_BLACK);
;;;961                
;;;962                info_set = set_48;
;;;963                break;
;;;964            }
;;;965            case set_63:
;;;966            {
;;;967                hItem = WM_GetDialogItem(hWinsysinfo, ID_TEXT_114);
;;;968                TEXT_SetBkColor(hItem,GUI_INVALID_COLOR);
;;;969                TEXT_SetTextColor(hItem, 0x00BFFFFF);
;;;970                
;;;971                hItem = WM_GetDialogItem(hWinsysinfo, ID_TEXT_99);
;;;972                TEXT_SetBkColor(hItem,0x00BFFFFF);
;;;973                TEXT_SetTextColor(hItem, GUI_BLACK);
;;;974                
;;;975                info_set = set_48;
;;;976                break;
;;;977            }
;;;978            case set_57:
;;;979            {
;;;980                hItem = WM_GetDialogItem(hWinsysinfo, ID_TEXT_108);
;;;981                TEXT_SetBkColor(hItem,GUI_INVALID_COLOR);
;;;982                TEXT_SetTextColor(hItem, 0x00BFFFFF);
;;;983                
;;;984                hItem = WM_GetDialogItem(hWinsysinfo, ID_TEXT_99);
;;;985                TEXT_SetBkColor(hItem,0x00BFFFFF);
;;;986                TEXT_SetTextColor(hItem, GUI_BLACK);
;;;987                
;;;988                info_set = set_48;
;;;989                break;
;;;990            }
;;;991            case set_58:
;;;992            {
;;;993                hItem = WM_GetDialogItem(hWinsysinfo, ID_TEXT_109);
;;;994                TEXT_SetBkColor(hItem,GUI_INVALID_COLOR);
;;;995                TEXT_SetTextColor(hItem, 0x00BFFFFF);
;;;996                
;;;997                hItem = WM_GetDialogItem(hWinsysinfo, ID_TEXT_99);
;;;998                TEXT_SetBkColor(hItem,0x00BFFFFF);
;;;999                TEXT_SetTextColor(hItem, GUI_BLACK);
;;;1000               
;;;1001               info_set = set_48;
;;;1002               break;
;;;1003           }
;;;1004           case set_59:
;;;1005           {
;;;1006               hItem = WM_GetDialogItem(hWinsysinfo, ID_TEXT_110);
;;;1007               TEXT_SetBkColor(hItem,GUI_INVALID_COLOR);
;;;1008               TEXT_SetTextColor(hItem, 0x00BFFFFF);
;;;1009               
;;;1010               hItem = WM_GetDialogItem(hWinsysinfo, ID_TEXT_99);
;;;1011               TEXT_SetBkColor(hItem,0x00BFFFFF);
;;;1012               TEXT_SetTextColor(hItem, GUI_BLACK);
;;;1013               
;;;1014               info_set = set_48;
;;;1015               break;
;;;1016           }
;;;1017           case set_60:
;;;1018           {
;;;1019               hItem = WM_GetDialogItem(hWinsysinfo, ID_TEXT_111);
;;;1020               TEXT_SetBkColor(hItem,GUI_INVALID_COLOR);
;;;1021               TEXT_SetTextColor(hItem, 0x00BFFFFF);
;;;1022               
;;;1023               hItem = WM_GetDialogItem(hWinsysinfo, ID_TEXT_99);
;;;1024               TEXT_SetBkColor(hItem,0x00BFFFFF);
;;;1025               TEXT_SetTextColor(hItem, GUI_BLACK);
;;;1026               
;;;1027               info_set = set_48;
;;;1028               break;
;;;1029           }
;;;1030           case set_61:
;;;1031           {
;;;1032               hItem = WM_GetDialogItem(hWinsysinfo, ID_TEXT_112);
;;;1033               TEXT_SetBkColor(hItem,GUI_INVALID_COLOR);
;;;1034               TEXT_SetTextColor(hItem, 0x00BFFFFF);
;;;1035               
;;;1036               hItem = WM_GetDialogItem(hWinsysinfo, ID_TEXT_99);
;;;1037               TEXT_SetBkColor(hItem,0x00BFFFFF);
;;;1038               TEXT_SetTextColor(hItem, GUI_BLACK);
;;;1039               
;;;1040               info_set = set_48;
;;;1041               break;
;;;1042           }
;;;1043       }
;;;1044       
;;;1045   }
000074  e8bd9ff0          POP      {r4-r12,pc}
000078  f640019a          MOV      r1,#0x89a             ;850
00007c  f7fffffe          BL       WM_GetDialogItem
000080  4604              MOV      r4,r0                 ;850
000082  4641              MOV      r1,r8                 ;851
000084  4620              MOV      r0,r4                 ;851
000086  f7fffffe          BL       TEXT_SetBkColor
00008a  4639              MOV      r1,r7                 ;852
00008c  4620              MOV      r0,r4                 ;852
00008e  f7fffffe          BL       TEXT_SetTextColor
000092  4649              MOV      r1,r9                 ;854
000094  f8db0018          LDR      r0,[r11,#0x18]        ;854  ; hWinsysinfo
000098  f7fffffe          BL       WM_GetDialogItem
00009c  4604              MOV      r4,r0                 ;854
00009e  4639              MOV      r1,r7                 ;855
0000a0  4620              MOV      r0,r4                 ;855
0000a2  f7fffffe          BL       TEXT_SetBkColor
0000a6  2100              MOVS     r1,#0                 ;856
0000a8  4620              MOV      r0,r4                 ;856
0000aa  f7fffffe          BL       TEXT_SetTextColor
0000ae  f88b5000          STRB     r5,[r11,#0]           ;858
0000b2  e7df              B        |L9.116|
0000b4  f640019b          MOV      r1,#0x89b             ;863
0000b8  f7fffffe          BL       WM_GetDialogItem
0000bc  4604              MOV      r4,r0                 ;863
0000be  4641              MOV      r1,r8                 ;864
0000c0  4620              MOV      r0,r4                 ;864
0000c2  f7fffffe          BL       TEXT_SetBkColor
0000c6  4639              MOV      r1,r7                 ;865
0000c8  4620              MOV      r0,r4                 ;865
0000ca  f7fffffe          BL       TEXT_SetTextColor
0000ce  4649              MOV      r1,r9                 ;867
0000d0  f8db0018          LDR      r0,[r11,#0x18]        ;867  ; hWinsysinfo
0000d4  f7fffffe          BL       WM_GetDialogItem
0000d8  4604              MOV      r4,r0                 ;867
0000da  4639              MOV      r1,r7                 ;868
0000dc  4620              MOV      r0,r4                 ;868
0000de  f7fffffe          BL       TEXT_SetBkColor
0000e2  2100              MOVS     r1,#0                 ;869
0000e4  4620              MOV      r0,r4                 ;869
0000e6  f7fffffe          BL       TEXT_SetTextColor
0000ea  f88b5000          STRB     r5,[r11,#0]           ;871
0000ee  e7c1              B        |L9.116|
0000f0  f640019c          MOV      r1,#0x89c             ;876
0000f4  f7fffffe          BL       WM_GetDialogItem
0000f8  4604              MOV      r4,r0                 ;876
0000fa  4641              MOV      r1,r8                 ;877
0000fc  4620              MOV      r0,r4                 ;877
0000fe  f7fffffe          BL       TEXT_SetBkColor
000102  4639              MOV      r1,r7                 ;878
000104  4620              MOV      r0,r4                 ;878
000106  f7fffffe          BL       TEXT_SetTextColor
00010a  4649              MOV      r1,r9                 ;880
00010c  f8db0018          LDR      r0,[r11,#0x18]        ;880  ; hWinsysinfo
000110  f7fffffe          BL       WM_GetDialogItem
000114  4604              MOV      r4,r0                 ;880
000116  4639              MOV      r1,r7                 ;881
000118  4620              MOV      r0,r4                 ;881
00011a  f7fffffe          BL       TEXT_SetBkColor
00011e  2100              MOVS     r1,#0                 ;882
000120  4620              MOV      r0,r4                 ;882
000122  f7fffffe          BL       TEXT_SetTextColor
000126  f88b5000          STRB     r5,[r11,#0]           ;884
00012a  e7a3              B        |L9.116|
00012c  f640019d          MOV      r1,#0x89d             ;889
000130  f7fffffe          BL       WM_GetDialogItem
000134  4604              MOV      r4,r0                 ;889
000136  4641              MOV      r1,r8                 ;890
000138  4620              MOV      r0,r4                 ;890
00013a  f7fffffe          BL       TEXT_SetBkColor
00013e  4639              MOV      r1,r7                 ;891
000140  4620              MOV      r0,r4                 ;891
000142  f7fffffe          BL       TEXT_SetTextColor
000146  4649              MOV      r1,r9                 ;893
000148  f8db0018          LDR      r0,[r11,#0x18]        ;893  ; hWinsysinfo
00014c  f7fffffe          BL       WM_GetDialogItem
000150  4604              MOV      r4,r0                 ;893
000152  4639              MOV      r1,r7                 ;894
000154  4620              MOV      r0,r4                 ;894
000156  f7fffffe          BL       TEXT_SetBkColor
00015a  2100              MOVS     r1,#0                 ;895
00015c  4620              MOV      r0,r4                 ;895
00015e  f7fffffe          BL       TEXT_SetTextColor
000162  f88b5000          STRB     r5,[r11,#0]           ;897
000166  e785              B        |L9.116|
000168  f640019e          MOV      r1,#0x89e             ;902
00016c  f7fffffe          BL       WM_GetDialogItem
000170  4604              MOV      r4,r0                 ;902
000172  4641              MOV      r1,r8                 ;903
000174  4620              MOV      r0,r4                 ;903
000176  f7fffffe          BL       TEXT_SetBkColor
00017a  4639              MOV      r1,r7                 ;904
00017c  4620              MOV      r0,r4                 ;904
00017e  f7fffffe          BL       TEXT_SetTextColor
000182  4649              MOV      r1,r9                 ;906
000184  f8db0018          LDR      r0,[r11,#0x18]        ;906  ; hWinsysinfo
000188  f7fffffe          BL       WM_GetDialogItem
00018c  4604              MOV      r4,r0                 ;906
00018e  4639              MOV      r1,r7                 ;907
000190  4620              MOV      r0,r4                 ;907
000192  f7fffffe          BL       TEXT_SetBkColor
000196  2100              MOVS     r1,#0                 ;908
000198  4620              MOV      r0,r4                 ;908
00019a  f7fffffe          BL       TEXT_SetTextColor
00019e  f88b5000          STRB     r5,[r11,#0]           ;910
0001a2  e767              B        |L9.116|
0001a4  f44f6130          MOV      r1,#0xb00             ;915
0001a8  f7fffffe          BL       WM_GetDialogItem
0001ac  4604              MOV      r4,r0                 ;915
0001ae  4641              MOV      r1,r8                 ;916
0001b0  4620              MOV      r0,r4                 ;916
0001b2  f7fffffe          BL       TEXT_SetBkColor
0001b6  4639              MOV      r1,r7                 ;917
0001b8  4620              MOV      r0,r4                 ;917
0001ba  f7fffffe          BL       TEXT_SetTextColor
0001be  4649              MOV      r1,r9                 ;919
0001c0  f8db0018          LDR      r0,[r11,#0x18]        ;919  ; hWinsysinfo
0001c4  f7fffffe          BL       WM_GetDialogItem
0001c8  4604              MOV      r4,r0                 ;919
0001ca  4639              MOV      r1,r7                 ;920
0001cc  4620              MOV      r0,r4                 ;920
0001ce  f7fffffe          BL       TEXT_SetBkColor
0001d2  2100              MOVS     r1,#0                 ;921
0001d4  4620              MOV      r0,r4                 ;921
0001d6  f7fffffe          BL       TEXT_SetTextColor
0001da  f88b5000          STRB     r5,[r11,#0]           ;923
0001de  e749              B        |L9.116|
0001e0  f6403101          MOV      r1,#0xb01             ;928
0001e4  f7fffffe          BL       WM_GetDialogItem
0001e8  4604              MOV      r4,r0                 ;928
0001ea  4641              MOV      r1,r8                 ;929
0001ec  4620              MOV      r0,r4                 ;929
0001ee  f7fffffe          BL       TEXT_SetBkColor
0001f2  4639              MOV      r1,r7                 ;930
0001f4  4620              MOV      r0,r4                 ;930
0001f6  f7fffffe          BL       TEXT_SetTextColor
0001fa  4649              MOV      r1,r9                 ;932
0001fc  f8db0018          LDR      r0,[r11,#0x18]        ;932  ; hWinsysinfo
000200  f7fffffe          BL       WM_GetDialogItem
000204  4604              MOV      r4,r0                 ;932
000206  4639              MOV      r1,r7                 ;933
000208  4620              MOV      r0,r4                 ;933
00020a  f7fffffe          BL       TEXT_SetBkColor
00020e  2100              MOVS     r1,#0                 ;934
000210  4620              MOV      r0,r4                 ;934
000212  f7fffffe          BL       TEXT_SetTextColor
000216  e007              B        |L9.552|
000218  e044              B        |L9.676|
00021a  e026              B        |L9.618|
00021c  e0d8              B        |L9.976|
00021e  e0b9              B        |L9.916|
000220  e09a              B        |L9.856|
000222  e07b              B        |L9.796|
000224  e05c              B        |L9.736|
000226  e002              B        |L9.558|
                  |L9.552|
000228  f88b5000          STRB     r5,[r11,#0]           ;936
00022c  e722              B        |L9.116|
                  |L9.558|
00022e  f6403102          MOV      r1,#0xb02             ;941
000232  f7fffffe          BL       WM_GetDialogItem
000236  4604              MOV      r4,r0                 ;941
000238  4641              MOV      r1,r8                 ;942
00023a  4620              MOV      r0,r4                 ;942
00023c  f7fffffe          BL       TEXT_SetBkColor
000240  4639              MOV      r1,r7                 ;943
000242  4620              MOV      r0,r4                 ;943
000244  f7fffffe          BL       TEXT_SetTextColor
000248  4651              MOV      r1,r10                ;945
00024a  f8db0018          LDR      r0,[r11,#0x18]        ;945  ; hWinsysinfo
00024e  f7fffffe          BL       WM_GetDialogItem
000252  4604              MOV      r4,r0                 ;945
000254  4639              MOV      r1,r7                 ;946
000256  4620              MOV      r0,r4                 ;946
000258  f7fffffe          BL       TEXT_SetBkColor
00025c  2100              MOVS     r1,#0                 ;947
00025e  4620              MOV      r0,r4                 ;947
000260  f7fffffe          BL       TEXT_SetTextColor
000264  f88b6000          STRB     r6,[r11,#0]           ;949
000268  e704              B        |L9.116|
                  |L9.618|
00026a  4649              MOV      r1,r9                 ;954
00026c  f7fffffe          BL       WM_GetDialogItem
000270  4604              MOV      r4,r0                 ;954
000272  4641              MOV      r1,r8                 ;955
000274  4620              MOV      r0,r4                 ;955
000276  f7fffffe          BL       TEXT_SetBkColor
00027a  4639              MOV      r1,r7                 ;956
00027c  4620              MOV      r0,r4                 ;956
00027e  f7fffffe          BL       TEXT_SetTextColor
000282  4651              MOV      r1,r10                ;958
000284  f8db0018          LDR      r0,[r11,#0x18]        ;958  ; hWinsysinfo
000288  f7fffffe          BL       WM_GetDialogItem
00028c  4604              MOV      r4,r0                 ;958
00028e  4639              MOV      r1,r7                 ;959
000290  4620              MOV      r0,r4                 ;959
000292  f7fffffe          BL       TEXT_SetBkColor
000296  2100              MOVS     r1,#0                 ;960
000298  4620              MOV      r0,r4                 ;960
00029a  f7fffffe          BL       TEXT_SetTextColor
00029e  f88b6000          STRB     r6,[r11,#0]           ;962
0002a2  e6e7              B        |L9.116|
                  |L9.676|
0002a4  f6403109          MOV      r1,#0xb09             ;967
0002a8  f7fffffe          BL       WM_GetDialogItem
0002ac  4604              MOV      r4,r0                 ;967
0002ae  4641              MOV      r1,r8                 ;968
0002b0  4620              MOV      r0,r4                 ;968
0002b2  f7fffffe          BL       TEXT_SetBkColor
0002b6  4639              MOV      r1,r7                 ;969
0002b8  4620              MOV      r0,r4                 ;969
0002ba  f7fffffe          BL       TEXT_SetTextColor
0002be  4651              MOV      r1,r10                ;971
0002c0  f8db0018          LDR      r0,[r11,#0x18]        ;971  ; hWinsysinfo
0002c4  f7fffffe          BL       WM_GetDialogItem
0002c8  4604              MOV      r4,r0                 ;971
0002ca  4639              MOV      r1,r7                 ;972
0002cc  4620              MOV      r0,r4                 ;972
0002ce  f7fffffe          BL       TEXT_SetBkColor
0002d2  2100              MOVS     r1,#0                 ;973
0002d4  4620              MOV      r0,r4                 ;973
0002d6  f7fffffe          BL       TEXT_SetTextColor
0002da  f88b6000          STRB     r6,[r11,#0]           ;975
0002de  e6c9              B        |L9.116|
                  |L9.736|
0002e0  f6403103          MOV      r1,#0xb03             ;980
0002e4  f7fffffe          BL       WM_GetDialogItem
0002e8  4604              MOV      r4,r0                 ;980
0002ea  4641              MOV      r1,r8                 ;981
0002ec  4620              MOV      r0,r4                 ;981
0002ee  f7fffffe          BL       TEXT_SetBkColor
0002f2  4639              MOV      r1,r7                 ;982
0002f4  4620              MOV      r0,r4                 ;982
0002f6  f7fffffe          BL       TEXT_SetTextColor
0002fa  4651              MOV      r1,r10                ;984
0002fc  f8db0018          LDR      r0,[r11,#0x18]        ;984  ; hWinsysinfo
000300  f7fffffe          BL       WM_GetDialogItem
000304  4604              MOV      r4,r0                 ;984
000306  4639              MOV      r1,r7                 ;985
000308  4620              MOV      r0,r4                 ;985
00030a  f7fffffe          BL       TEXT_SetBkColor
00030e  2100              MOVS     r1,#0                 ;986
000310  4620              MOV      r0,r4                 ;986
000312  f7fffffe          BL       TEXT_SetTextColor
000316  f88b6000          STRB     r6,[r11,#0]           ;988
00031a  e6ab              B        |L9.116|
                  |L9.796|
00031c  f6403104          MOV      r1,#0xb04             ;993
000320  f7fffffe          BL       WM_GetDialogItem
000324  4604              MOV      r4,r0                 ;993
000326  4641              MOV      r1,r8                 ;994
000328  4620              MOV      r0,r4                 ;994
00032a  f7fffffe          BL       TEXT_SetBkColor
00032e  4639              MOV      r1,r7                 ;995
000330  4620              MOV      r0,r4                 ;995
000332  f7fffffe          BL       TEXT_SetTextColor
000336  4651              MOV      r1,r10                ;997
000338  f8db0018          LDR      r0,[r11,#0x18]        ;997  ; hWinsysinfo
00033c  f7fffffe          BL       WM_GetDialogItem
000340  4604              MOV      r4,r0                 ;997
000342  4639              MOV      r1,r7                 ;998
000344  4620              MOV      r0,r4                 ;998
000346  f7fffffe          BL       TEXT_SetBkColor
00034a  2100              MOVS     r1,#0                 ;999
00034c  4620              MOV      r0,r4                 ;999
00034e  f7fffffe          BL       TEXT_SetTextColor
000352  f88b6000          STRB     r6,[r11,#0]           ;1001
000356  e68d              B        |L9.116|
                  |L9.856|
000358  f6403105          MOV      r1,#0xb05             ;1006
00035c  f7fffffe          BL       WM_GetDialogItem
000360  4604              MOV      r4,r0                 ;1006
000362  4641              MOV      r1,r8                 ;1007
000364  4620              MOV      r0,r4                 ;1007
000366  f7fffffe          BL       TEXT_SetBkColor
00036a  4639              MOV      r1,r7                 ;1008
00036c  4620              MOV      r0,r4                 ;1008
00036e  f7fffffe          BL       TEXT_SetTextColor
000372  4651              MOV      r1,r10                ;1010
000374  f8db0018          LDR      r0,[r11,#0x18]        ;1010  ; hWinsysinfo
000378  f7fffffe          BL       WM_GetDialogItem
00037c  4604              MOV      r4,r0                 ;1010
00037e  4639              MOV      r1,r7                 ;1011
000380  4620              MOV      r0,r4                 ;1011
000382  f7fffffe          BL       TEXT_SetBkColor
000386  2100              MOVS     r1,#0                 ;1012
000388  4620              MOV      r0,r4                 ;1012
00038a  f7fffffe          BL       TEXT_SetTextColor
00038e  f88b6000          STRB     r6,[r11,#0]           ;1014
000392  e66f              B        |L9.116|
                  |L9.916|
000394  f6403106          MOV      r1,#0xb06             ;1019
000398  f7fffffe          BL       WM_GetDialogItem
00039c  4604              MOV      r4,r0                 ;1019
00039e  4641              MOV      r1,r8                 ;1020
0003a0  4620              MOV      r0,r4                 ;1020
0003a2  f7fffffe          BL       TEXT_SetBkColor
0003a6  4639              MOV      r1,r7                 ;1021
0003a8  4620              MOV      r0,r4                 ;1021
0003aa  f7fffffe          BL       TEXT_SetTextColor
0003ae  4651              MOV      r1,r10                ;1023
0003b0  f8db0018          LDR      r0,[r11,#0x18]        ;1023  ; hWinsysinfo
0003b4  f7fffffe          BL       WM_GetDialogItem
0003b8  4604              MOV      r4,r0                 ;1023
0003ba  4639              MOV      r1,r7                 ;1024
0003bc  4620              MOV      r0,r4                 ;1024
0003be  f7fffffe          BL       TEXT_SetBkColor
0003c2  2100              MOVS     r1,#0                 ;1025
0003c4  4620              MOV      r0,r4                 ;1025
0003c6  f7fffffe          BL       TEXT_SetTextColor
0003ca  f88b6000          STRB     r6,[r11,#0]           ;1027
0003ce  e651              B        |L9.116|
                  |L9.976|
0003d0  f6403107          MOV      r1,#0xb07             ;1032
0003d4  f7fffffe          BL       WM_GetDialogItem
0003d8  4604              MOV      r4,r0                 ;1032
0003da  4641              MOV      r1,r8                 ;1033
0003dc  4620              MOV      r0,r4                 ;1033
0003de  f7fffffe          BL       TEXT_SetBkColor
0003e2  4639              MOV      r1,r7                 ;1034
0003e4  4620              MOV      r0,r4                 ;1034
0003e6  f7fffffe          BL       TEXT_SetTextColor
0003ea  4651              MOV      r1,r10                ;1036
0003ec  f8db0018          LDR      r0,[r11,#0x18]        ;1036  ; hWinsysinfo
0003f0  f7fffffe          BL       WM_GetDialogItem
0003f4  4604              MOV      r4,r0                 ;1036
0003f6  4639              MOV      r1,r7                 ;1037
0003f8  4620              MOV      r0,r4                 ;1037
0003fa  f7fffffe          BL       TEXT_SetBkColor
0003fe  2100              MOVS     r1,#0                 ;1038
000400  4620              MOV      r0,r4                 ;1038
000402  f7fffffe          BL       TEXT_SetTextColor
000406  f88b6000          STRB     r6,[r11,#0]           ;1040
00040a  e633              B        |L9.116|
                  |L9.1036|
                          DCD      ||.data||
                  |L9.1040|
                          DCD      0x00bfffff
                          ENDP


                          AREA ||i._cbDialog||, CODE, READONLY, ALIGN=2

                          REQUIRE _printf_pre_padding
                          REQUIRE _printf_percent
                          REQUIRE _printf_widthprec
                          REQUIRE _printf_d
                          REQUIRE _printf_int_dec
                  _cbDialog PROC
;;;142    */
;;;143    static void _cbDialog(WM_MESSAGE * pMsg) {
000000  e92d41f0          PUSH     {r4-r8,lr}
000004  4604              MOV      r4,r0
;;;144        WM_HWIN hItem;
;;;145        static char buf[5];
;;;146    
;;;147    
;;;148        
;;;149      
;;;150      // USER START (Optionally insert additional variables)
;;;151      // USER END
;;;152    
;;;153      switch (pMsg->MsgId) {
;;;154    		
;;;155    	case WM_PAINT:
;;;156            GUI_SetColor(GUI_WHITE);//ʨ׃ۭҊҕɫ
;;;157            GUI_FillRect(0,25,480,26);//ۭһ͵ʵП
;;;158            GUI_SetColor(GUI_ORANGE);
;;;159            GUI_SetFont(&GUI_Fontsymbol);
;;;160            GUI_UC_SetEncodeUTF8();
;;;161            GUI_SetTextMode(GUI_TM_TRANS);//ʨ׃τѾģʽΪ֗ɫ͸ķ
;;;162            GUI_DispStringAt("Jinko", 5, 1);//SET
;;;163            if(lang == 0)
;;;164            {  
;;;165                GUI_SetColor(GUI_WHITE);
;;;166                GUI_SetFont(&GUI_FontHZ20S);
;;;167                GUI_UC_SetEncodeUTF8();
;;;168                GUI_SetTextMode(GUI_TM_TRANS);//ʨ׃τѾģʽΪ֗ɫ͸ķ
;;;169                GUI_DispStringAt("系统信息", 130, 3);//SET
;;;170                GUI_SetColor(GUI_LIGHTBLUE);
;;;171                GUI_SetFont(&GUI_Fontset_font);
;;;172                GUI_DispStringAt("仪器型号", 30, 50);
;;;173                GUI_DispStringAt("软件版本", 30, 75);
;;;174                GUI_DispStringAt("硬件版本", 30, 100);
;;;175                GUI_DispStringAt("生产日期", 30, 125);
;;;176                GUI_DispStringAt("仪器编号", 30, 150);
;;;177            }else{
;;;178                GUI_SetColor(GUI_WHITE);
;;;179                GUI_SetFont(&GUI_Font20_ASCII);
;;;180                GUI_UC_SetEncodeUTF8();
;;;181                GUI_SetTextMode(GUI_TM_TRANS);//ʨ׃τѾģʽΪ֗ɫ͸ķ
;;;182                GUI_DispStringAt("System Information", 130, 3);//SET
;;;183                GUI_SetColor(GUI_LIGHTBLUE);
;;;184                GUI_SetFont(&GUI_Font20_ASCII);
;;;185                GUI_DispStringAt("Instrument Model", 30, 50);
;;;186                GUI_DispStringAt("Software Version", 30, 75);
;;;187                GUI_DispStringAt("Hardware Version", 30, 100);
;;;188                GUI_DispStringAt("Production Date", 30, 125);
;;;189                GUI_DispStringAt("Serial NO.", 30, 150);
;;;190            }
;;;191            GUI_SetColor(0x00BFFFFF);
000006  4fff              LDR      r7,|L10.1028|
000008  6820              LDR      r0,[r4,#0]            ;153
00000a  f06f487f          MVN      r8,#0xff000000        ;156
00000e  280f              CMP      r0,#0xf               ;153
000010  d00b              BEQ      |L10.42|
;;;192            GUI_SetFont(&GUI_Font24_1);
;;;193            GUI_DispStringAt("JK5530", 180, 50);
;;;194            GUI_DispStringAt("Ver:2.5", 180, 75);
;;;195            //1.7版本修改内阻测试判断测试结束与下一次测试开始的逻辑
;;;196            //1.8版本修正内阻测试短路后激活电池问题，添加手动测试功能，修正内阻显示不稳定问题
;;;197            //2.0版本添加英文
;;;198            //2.1版本添加步进时间设置
;;;199            GUI_DispStringAt("Ver:1.0", 180, 100);
;;;200            GUI_DispStringAt("-", 231, 125);
;;;201            GUI_DispStringAt("-", 267, 125);
;;;202            GUI_DispStringAt("A", 204, 150);
;;;203    	break;
;;;204    	case WM_TIMER:
;;;205    	if(WM_GetTimerId(pMsg->Data.v) == ID_TimerTime7)
;;;206    	{
;;;207            if(pass == 14)
;;;208            {
;;;209                admin = 1;
000012  4efd              LDR      r6,|L10.1032|
000014  281d              CMP      r0,#0x1d              ;153
000016  d07d              BEQ      |L10.276|
000018  f5a07080          SUB      r0,r0,#0x100          ;153
00001c  3813              SUBS     r0,r0,#0x13           ;153
00001e  d07a              BEQ      |L10.278|
;;;210            }else if(pass == 10){
;;;211                cal = 1;
;;;212            }else{
;;;213                admin = 0;
;;;214                cal = 0;
;;;215            }
;;;216            
;;;217            if(cal ==  1)
;;;218            {
;;;219                hItem = WM_GetDialogItem(pMsg->hWin, ID_TEXT_123);
;;;220                TEXT_SetTextColor(hItem, GUI_WHITE);//设置字体颜色
;;;221                sprintf(buf,"%4d",R_VLUE);
;;;222                TEXT_SetFont(hItem,&GUI_Font24_1);//设定文本字体
;;;223                GUI_UC_SetEncodeUTF8();        
;;;224                TEXT_SetText(hItem,buf);
;;;225            }else{
;;;226                hItem = WM_GetDialogItem(pMsg->hWin, ID_TEXT_123);
;;;227                TEXT_SetText(hItem, "");
;;;228                TEXT_SetTextColor(hItem, GUI_INVALID_COLOR);
;;;229            }
;;;230    		WM_RestartTimer(pMsg->Data.v,500);//شλ֨ʱǷ˽ֵԽճˢтʱݤԽ׌                
;;;231    	}
;;;232    	break;
;;;233        
;;;234    		
;;;235      case WM_INIT_DIALOG:
;;;236          hItem = pMsg->hWin;
;;;237          WINDOW_SetBkColor(hItem, GUI_BLACK);
;;;238          WM_CreateTimer(hItem,ID_TimerTime7,20,0);
;;;239      
;;;240          hItem = WM_GetDialogItem(pMsg->hWin, ID_TEXT_99);
;;;241          GUI_UC_SetEncodeUTF8();
;;;242          sprintf(buf,"%d",year1);
;;;243          TEXT_SetText(hItem,buf);
;;;244          TEXT_SetTextColor(hItem, 0x00BFFFFF);
;;;245          TEXT_SetFont(hItem, &GUI_Font24_1);
;;;246    	
;;;247    	  hItem = WM_GetDialogItem(pMsg->hWin, ID_TEXT_100);
;;;248          GUI_UC_SetEncodeUTF8();
;;;249          sprintf(buf,"%d",year2);
;;;250          TEXT_SetText(hItem,buf);
;;;251          TEXT_SetTextColor(hItem, 0x00BFFFFF);
;;;252          TEXT_SetFont(hItem, &GUI_Font24_1);
;;;253    		
;;;254    	  hItem = WM_GetDialogItem(pMsg->hWin, ID_TEXT_101);
;;;255          GUI_UC_SetEncodeUTF8();
;;;256          sprintf(buf,"%d",year3);
;;;257          TEXT_SetText(hItem,buf);
;;;258          TEXT_SetTextColor(hItem, 0x00BFFFFF);
;;;259          TEXT_SetFont(hItem, &GUI_Font24_1);
;;;260    		
;;;261    	  hItem = WM_GetDialogItem(pMsg->hWin, ID_TEXT_102);
;;;262          GUI_UC_SetEncodeUTF8();
;;;263          sprintf(buf,"%d",year4);
;;;264          TEXT_SetText(hItem,buf);
;;;265          TEXT_SetTextColor(hItem, 0x00BFFFFF);
;;;266          TEXT_SetFont(hItem, &GUI_Font24_1);
;;;267          
;;;268          hItem = WM_GetDialogItem(pMsg->hWin, ID_TEXT_103);
;;;269          GUI_UC_SetEncodeUTF8();
;;;270          sprintf(buf,"%d",month1);
;;;271          TEXT_SetText(hItem,buf);
;;;272          TEXT_SetTextColor(hItem, 0x00BFFFFF);
;;;273          TEXT_SetFont(hItem, &GUI_Font24_1);
;;;274    	
;;;275    	  hItem = WM_GetDialogItem(pMsg->hWin, ID_TEXT_104);
;;;276          GUI_UC_SetEncodeUTF8();
;;;277          sprintf(buf,"%d",month2);
;;;278          TEXT_SetText(hItem,buf);
;;;279          TEXT_SetTextColor(hItem, 0x00BFFFFF);
;;;280          TEXT_SetFont(hItem, &GUI_Font24_1);
;;;281    		
;;;282    	  hItem = WM_GetDialogItem(pMsg->hWin, ID_TEXT_105);
;;;283          GUI_UC_SetEncodeUTF8();
;;;284          sprintf(buf,"%d",day1);
;;;285          TEXT_SetText(hItem,buf);
;;;286          TEXT_SetTextColor(hItem, 0x00BFFFFF);
;;;287          TEXT_SetFont(hItem, &GUI_Font24_1);
;;;288    		
;;;289    	  hItem = WM_GetDialogItem(pMsg->hWin, ID_TEXT_106);
;;;290          GUI_UC_SetEncodeUTF8();
;;;291          sprintf(buf,"%d",day2);
;;;292          TEXT_SetText(hItem,buf);
;;;293          TEXT_SetTextColor(hItem, 0x00BFFFFF);
;;;294          TEXT_SetFont(hItem, &GUI_Font24_1);
;;;295    	
;;;296          hItem = WM_GetDialogItem(pMsg->hWin, ID_TEXT_107);
;;;297          GUI_UC_SetEncodeUTF8();
;;;298          sprintf(buf,"%d",code3);
;;;299          TEXT_SetText(hItem,buf);
;;;300          TEXT_SetTextColor(hItem, 0x00BFFFFF);
;;;301          TEXT_SetFont(hItem, &GUI_Font24_1);
;;;302    		
;;;303    	  hItem = WM_GetDialogItem(pMsg->hWin, ID_TEXT_108);
;;;304          GUI_UC_SetEncodeUTF8();
;;;305          sprintf(buf,"%d",code4);
;;;306          TEXT_SetText(hItem,buf);
;;;307          TEXT_SetTextColor(hItem, 0x00BFFFFF);
;;;308          TEXT_SetFont(hItem, &GUI_Font24_1);
;;;309          
;;;310          hItem = WM_GetDialogItem(pMsg->hWin, ID_TEXT_109);
;;;311          GUI_UC_SetEncodeUTF8();
;;;312          sprintf(buf,"%d",code5);
;;;313          TEXT_SetText(hItem,buf);
;;;314          TEXT_SetTextColor(hItem, 0x00BFFFFF);
;;;315          TEXT_SetFont(hItem, &GUI_Font24_1);
;;;316    		
;;;317    	  hItem = WM_GetDialogItem(pMsg->hWin, ID_TEXT_110);
;;;318          GUI_UC_SetEncodeUTF8();
;;;319          sprintf(buf,"%d",code6);
;;;320          TEXT_SetText(hItem,buf);
;;;321          TEXT_SetTextColor(hItem, 0x00BFFFFF);
;;;322          TEXT_SetFont(hItem, &GUI_Font24_1);
;;;323          
;;;324          hItem = WM_GetDialogItem(pMsg->hWin, ID_TEXT_111);
;;;325          GUI_UC_SetEncodeUTF8();
;;;326          sprintf(buf,"%d",code7);
;;;327          TEXT_SetText(hItem,buf);
;;;328          TEXT_SetTextColor(hItem, 0x00BFFFFF);
;;;329          TEXT_SetFont(hItem, &GUI_Font24_1);
;;;330    		
;;;331    	  hItem = WM_GetDialogItem(pMsg->hWin, ID_TEXT_112);
;;;332          GUI_UC_SetEncodeUTF8();
;;;333          sprintf(buf,"%d",code8);
;;;334          TEXT_SetText(hItem,buf);
;;;335          TEXT_SetTextColor(hItem, 0x00BFFFFF);
;;;336          TEXT_SetFont(hItem, &GUI_Font24_1);
;;;337          
;;;338          hItem = WM_GetDialogItem(pMsg->hWin, ID_TEXT_113);
;;;339          GUI_UC_SetEncodeUTF8();
;;;340          sprintf(buf,"%d",code1);
;;;341          TEXT_SetText(hItem,buf);
;;;342          TEXT_SetTextColor(hItem, 0x00BFFFFF);
;;;343          TEXT_SetFont(hItem, &GUI_Font24_1);
;;;344    		
;;;345    	  hItem = WM_GetDialogItem(pMsg->hWin, ID_TEXT_114);
;;;346          GUI_UC_SetEncodeUTF8();
;;;347          sprintf(buf,"%d",code2);
;;;348          TEXT_SetText(hItem,buf);
;;;349          TEXT_SetTextColor(hItem, 0x00BFFFFF);
;;;350          TEXT_SetFont(hItem, &GUI_Font24_1);
;;;351          
;;;352    
;;;353    
;;;354        // USER START (Optionally insert additional code for further widget initialization)
;;;355        // USER END
;;;356            break;
;;;357      // USER START (Optionally insert additional message handling)
;;;358      // USER END
;;;359        default:
;;;360            WM_DefaultProc(pMsg);
000020  4620              MOV      r0,r4
000022  e8bd41f0          POP      {r4-r8,lr}
000026  f7ffbffe          B.W      WM_DefaultProc
                  |L10.42|
00002a  4640              MOV      r0,r8                 ;156
00002c  f7fffffe          BL       GUI_SetColor
000030  231a              MOVS     r3,#0x1a              ;157
000032  f44f72f0          MOV      r2,#0x1e0             ;157
000036  2119              MOVS     r1,#0x19              ;157
000038  2000              MOVS     r0,#0                 ;157
00003a  f7fffffe          BL       GUI_FillRect
00003e  f24a50ff          MOV      r0,#0xa5ff            ;158
000042  f7fffffe          BL       GUI_SetColor
000046  48f1              LDR      r0,|L10.1036|
000048  f7fffffe          BL       GUI_SetFont
00004c  f7fffffe          BL       GUI_UC_SetEncodeUTF8
000050  2002              MOVS     r0,#2                 ;161
000052  f7fffffe          BL       GUI_SetTextMode
000056  2201              MOVS     r2,#1                 ;162
000058  2105              MOVS     r1,#5                 ;162
00005a  a0ed              ADR      r0,|L10.1040|
00005c  f7fffffe          BL       GUI_DispStringAt
000060  48ed              LDR      r0,|L10.1048|
000062  7800              LDRB     r0,[r0,#0]            ;163  ; lang
000064  4ced              LDR      r4,|L10.1052|
000066  2800              CMP      r0,#0                 ;163
000068  d058              BEQ      |L10.284|
00006a  4640              MOV      r0,r8                 ;178
00006c  f7fffffe          BL       GUI_SetColor
000070  48eb              LDR      r0,|L10.1056|
000072  f7fffffe          BL       GUI_SetFont
000076  f7fffffe          BL       GUI_UC_SetEncodeUTF8
00007a  2002              MOVS     r0,#2                 ;181
00007c  f7fffffe          BL       GUI_SetTextMode
000080  2203              MOVS     r2,#3                 ;182
000082  2182              MOVS     r1,#0x82              ;182
000084  a0e7              ADR      r0,|L10.1060|
000086  f7fffffe          BL       GUI_DispStringAt
00008a  4620              MOV      r0,r4                 ;183
00008c  f7fffffe          BL       GUI_SetColor
000090  48e3              LDR      r0,|L10.1056|
000092  f7fffffe          BL       GUI_SetFont
000096  2232              MOVS     r2,#0x32              ;185
000098  211e              MOVS     r1,#0x1e              ;185
00009a  a0e7              ADR      r0,|L10.1080|
00009c  f7fffffe          BL       GUI_DispStringAt
0000a0  224b              MOVS     r2,#0x4b              ;186
0000a2  211e              MOVS     r1,#0x1e              ;186
0000a4  a0e9              ADR      r0,|L10.1100|
0000a6  f7fffffe          BL       GUI_DispStringAt
0000aa  2264              MOVS     r2,#0x64              ;187
0000ac  211e              MOVS     r1,#0x1e              ;187
0000ae  a0ec              ADR      r0,|L10.1120|
0000b0  f7fffffe          BL       GUI_DispStringAt
0000b4  227d              MOVS     r2,#0x7d              ;188
0000b6  211e              MOVS     r1,#0x1e              ;188
0000b8  a0ee              ADR      r0,|L10.1140|
0000ba  f7fffffe          BL       GUI_DispStringAt
0000be  2296              MOVS     r2,#0x96              ;189
0000c0  211e              MOVS     r1,#0x1e              ;189
0000c2  a0f0              ADR      r0,|L10.1156|
0000c4  f7fffffe          BL       GUI_DispStringAt
                  |L10.200|
0000c8  4638              MOV      r0,r7                 ;191
0000ca  f7fffffe          BL       GUI_SetColor
0000ce  48f0              LDR      r0,|L10.1168|
0000d0  f7fffffe          BL       GUI_SetFont
0000d4  2232              MOVS     r2,#0x32              ;193
0000d6  21b4              MOVS     r1,#0xb4              ;193
0000d8  a0ee              ADR      r0,|L10.1172|
0000da  f7fffffe          BL       GUI_DispStringAt
0000de  224b              MOVS     r2,#0x4b              ;194
0000e0  21b4              MOVS     r1,#0xb4              ;194
0000e2  a0ee              ADR      r0,|L10.1180|
0000e4  f7fffffe          BL       GUI_DispStringAt
0000e8  2264              MOVS     r2,#0x64              ;199
0000ea  21b4              MOVS     r1,#0xb4              ;199
0000ec  a0ed              ADR      r0,|L10.1188|
0000ee  f7fffffe          BL       GUI_DispStringAt
0000f2  227d              MOVS     r2,#0x7d              ;200
0000f4  21e7              MOVS     r1,#0xe7              ;200
0000f6  a0ed              ADR      r0,|L10.1196|
0000f8  f7fffffe          BL       GUI_DispStringAt
0000fc  227d              MOVS     r2,#0x7d              ;201
0000fe  f240110b          MOV      r1,#0x10b             ;201
000102  a0ea              ADR      r0,|L10.1196|
000104  f7fffffe          BL       GUI_DispStringAt
000108  e8bd41f0          POP      {r4-r8,lr}            ;202
00010c  2296              MOVS     r2,#0x96              ;202
00010e  21cc              MOVS     r1,#0xcc              ;202
000110  a0e7              ADR      r0,|L10.1200|
000112  e001              B        |L10.280|
                  |L10.276|
000114  e07a              B        |L10.524|
                  |L10.278|
000116  e031              B        |L10.380|
                  |L10.280|
000118  f7ffbffe          B.W      GUI_DispStringAt
                  |L10.284|
00011c  4640              MOV      r0,r8                 ;165
00011e  f7fffffe          BL       GUI_SetColor
000122  48e4              LDR      r0,|L10.1204|
000124  f7fffffe          BL       GUI_SetFont
000128  f7fffffe          BL       GUI_UC_SetEncodeUTF8
00012c  2002              MOVS     r0,#2                 ;168
00012e  f7fffffe          BL       GUI_SetTextMode
000132  2203              MOVS     r2,#3                 ;169
000134  2182              MOVS     r1,#0x82              ;169
000136  a0e0              ADR      r0,|L10.1208|
000138  f7fffffe          BL       GUI_DispStringAt
00013c  4620              MOV      r0,r4                 ;170
00013e  f7fffffe          BL       GUI_SetColor
000142  48e1              LDR      r0,|L10.1224|
000144  f7fffffe          BL       GUI_SetFont
000148  2232              MOVS     r2,#0x32              ;172
00014a  211e              MOVS     r1,#0x1e              ;172
00014c  a0df              ADR      r0,|L10.1228|
00014e  f7fffffe          BL       GUI_DispStringAt
000152  224b              MOVS     r2,#0x4b              ;173
000154  211e              MOVS     r1,#0x1e              ;173
000156  a0e1              ADR      r0,|L10.1244|
000158  f7fffffe          BL       GUI_DispStringAt
00015c  2264              MOVS     r2,#0x64              ;174
00015e  211e              MOVS     r1,#0x1e              ;174
000160  a0e2              ADR      r0,|L10.1260|
000162  f7fffffe          BL       GUI_DispStringAt
000166  227d              MOVS     r2,#0x7d              ;175
000168  211e              MOVS     r1,#0x1e              ;175
00016a  a0e4              ADR      r0,|L10.1276|
00016c  f7fffffe          BL       GUI_DispStringAt
000170  2296              MOVS     r2,#0x96              ;176
000172  211e              MOVS     r1,#0x1e              ;176
000174  a0e5              ADR      r0,|L10.1292|
000176  f7fffffe          BL       GUI_DispStringAt
00017a  e7a5              B        |L10.200|
                  |L10.380|
00017c  68e0              LDR      r0,[r4,#0xc]          ;205
00017e  f7fffffe          BL       WM_GetTimerId
000182  2808              CMP      r0,#8                 ;205
000184  d17e              BNE      |L10.644|
000186  48e5              LDR      r0,|L10.1308|
000188  7802              LDRB     r2,[r0,#0]            ;207  ; pass
00018a  2101              MOVS     r1,#1                 ;162
00018c  2a0e              CMP      r2,#0xe               ;207
00018e  d01e              BEQ      |L10.462|
000190  7800              LDRB     r0,[r0,#0]            ;210  ; pass
000192  280a              CMP      r0,#0xa               ;210
000194  d01d              BEQ      |L10.466|
000196  2000              MOVS     r0,#0                 ;213
000198  7170              STRB     r0,[r6,#5]            ;213
00019a  73b0              STRB     r0,[r6,#0xe]          ;214
                  |L10.412|
00019c  7bb0              LDRB     r0,[r6,#0xe]          ;217  ; cal
00019e  f6403112          MOV      r1,#0xb12             ;219
0001a2  2801              CMP      r0,#1                 ;217
0001a4  d017              BEQ      |L10.470|
0001a6  6860              LDR      r0,[r4,#4]            ;226
0001a8  f7fffffe          BL       WM_GetDialogItem
0001ac  4605              MOV      r5,r0                 ;226
0001ae  a1a6              ADR      r1,|L10.1096|
0001b0  4628              MOV      r0,r5                 ;227
0001b2  f7fffffe          BL       TEXT_SetText
0001b6  f06f4170          MVN      r1,#0xf0000000        ;228
0001ba  4628              MOV      r0,r5                 ;228
0001bc  f7fffffe          BL       TEXT_SetTextColor
                  |L10.448|
0001c0  68e0              LDR      r0,[r4,#0xc]          ;230
0001c2  e8bd41f0          POP      {r4-r8,lr}            ;230
0001c6  f44f71fa          MOV      r1,#0x1f4             ;230
0001ca  f7ffbffe          B.W      WM_RestartTimer
                  |L10.462|
0001ce  7171              STRB     r1,[r6,#5]            ;209
0001d0  e7e4              B        |L10.412|
                  |L10.466|
0001d2  73b1              STRB     r1,[r6,#0xe]          ;211
0001d4  e7e2              B        |L10.412|
                  |L10.470|
0001d6  6860              LDR      r0,[r4,#4]            ;219
0001d8  f7fffffe          BL       WM_GetDialogItem
0001dc  4605              MOV      r5,r0                 ;219
0001de  4641              MOV      r1,r8                 ;220
0001e0  4628              MOV      r0,r5                 ;220
0001e2  f7fffffe          BL       TEXT_SetTextColor
0001e6  48ce              LDR      r0,|L10.1312|
0001e8  8b42              LDRH     r2,[r0,#0x1a]         ;221  ; Run_Control
0001ea  4887              LDR      r0,|L10.1032|
0001ec  a1cd              ADR      r1,|L10.1316|
0001ee  301c              ADDS     r0,r0,#0x1c           ;221
0001f0  f7fffffe          BL       __2sprintf
0001f4  49a6              LDR      r1,|L10.1168|
0001f6  4628              MOV      r0,r5                 ;222
0001f8  f7fffffe          BL       TEXT_SetFont
0001fc  f7fffffe          BL       GUI_UC_SetEncodeUTF8
000200  4981              LDR      r1,|L10.1032|
000202  4628              MOV      r0,r5                 ;224
000204  311c              ADDS     r1,r1,#0x1c           ;224
000206  f7fffffe          BL       TEXT_SetText
00020a  e7d9              B        |L10.448|
                  |L10.524|
00020c  6865              LDR      r5,[r4,#4]            ;236
00020e  2100              MOVS     r1,#0                 ;237
000210  4628              MOV      r0,r5                 ;237
000212  f7fffffe          BL       WINDOW_SetBkColor
000216  2300              MOVS     r3,#0                 ;238
000218  2214              MOVS     r2,#0x14              ;238
00021a  2108              MOVS     r1,#8                 ;238
00021c  4628              MOV      r0,r5                 ;238
00021e  f7fffffe          BL       WM_CreateTimer
000222  f6400199          MOV      r1,#0x899             ;240
000226  6860              LDR      r0,[r4,#4]            ;240
000228  f7fffffe          BL       WM_GetDialogItem
00022c  4605              MOV      r5,r0                 ;240
00022e  f7fffffe          BL       GUI_UC_SetEncodeUTF8
000232  8a32              LDRH     r2,[r6,#0x10]         ;242  ; year1
000234  4874              LDR      r0,|L10.1032|
000236  a1bc              ADR      r1,|L10.1320|
000238  301c              ADDS     r0,r0,#0x1c           ;242
00023a  f7fffffe          BL       __2sprintf
00023e  4972              LDR      r1,|L10.1032|
000240  4628              MOV      r0,r5                 ;243
000242  311c              ADDS     r1,r1,#0x1c           ;243
000244  f7fffffe          BL       TEXT_SetText
000248  4639              MOV      r1,r7                 ;244
00024a  4628              MOV      r0,r5                 ;244
00024c  f7fffffe          BL       TEXT_SetTextColor
000250  498f              LDR      r1,|L10.1168|
000252  4628              MOV      r0,r5                 ;245
000254  f7fffffe          BL       TEXT_SetFont
000258  f640019a          MOV      r1,#0x89a             ;247
00025c  6860              LDR      r0,[r4,#4]            ;247
00025e  f7fffffe          BL       WM_GetDialogItem
000262  4605              MOV      r5,r0                 ;247
000264  f7fffffe          BL       GUI_UC_SetEncodeUTF8
000268  8a72              LDRH     r2,[r6,#0x12]         ;249  ; year2
00026a  4867              LDR      r0,|L10.1032|
00026c  a1ae              ADR      r1,|L10.1320|
00026e  301c              ADDS     r0,r0,#0x1c           ;249
000270  f7fffffe          BL       __2sprintf
000274  4964              LDR      r1,|L10.1032|
000276  4628              MOV      r0,r5                 ;250
000278  311c              ADDS     r1,r1,#0x1c           ;250
00027a  f7fffffe          BL       TEXT_SetText
00027e  4639              MOV      r1,r7                 ;251
000280  4628              MOV      r0,r5                 ;251
000282  e000              B        |L10.646|
                  |L10.644|
000284  e210              B        |L10.1704|
                  |L10.646|
000286  f7fffffe          BL       TEXT_SetTextColor
00028a  4981              LDR      r1,|L10.1168|
00028c  4628              MOV      r0,r5                 ;252
00028e  f7fffffe          BL       TEXT_SetFont
000292  f640019b          MOV      r1,#0x89b             ;254
000296  6860              LDR      r0,[r4,#4]            ;254
000298  f7fffffe          BL       WM_GetDialogItem
00029c  4605              MOV      r5,r0                 ;254
00029e  f7fffffe          BL       GUI_UC_SetEncodeUTF8
0002a2  8ab2              LDRH     r2,[r6,#0x14]         ;256  ; year3
0002a4  4858              LDR      r0,|L10.1032|
0002a6  a1a0              ADR      r1,|L10.1320|
0002a8  301c              ADDS     r0,r0,#0x1c           ;256
0002aa  f7fffffe          BL       __2sprintf
0002ae  4956              LDR      r1,|L10.1032|
0002b0  4628              MOV      r0,r5                 ;257
0002b2  311c              ADDS     r1,r1,#0x1c           ;257
0002b4  f7fffffe          BL       TEXT_SetText
0002b8  4639              MOV      r1,r7                 ;258
0002ba  4628              MOV      r0,r5                 ;258
0002bc  f7fffffe          BL       TEXT_SetTextColor
0002c0  4973              LDR      r1,|L10.1168|
0002c2  4628              MOV      r0,r5                 ;259
0002c4  f7fffffe          BL       TEXT_SetFont
0002c8  f640019c          MOV      r1,#0x89c             ;261
0002cc  6860              LDR      r0,[r4,#4]            ;261
0002ce  f7fffffe          BL       WM_GetDialogItem
0002d2  4605              MOV      r5,r0                 ;261
0002d4  f7fffffe          BL       GUI_UC_SetEncodeUTF8
0002d8  8af2              LDRH     r2,[r6,#0x16]         ;263  ; year4
0002da  484b              LDR      r0,|L10.1032|
0002dc  a192              ADR      r1,|L10.1320|
0002de  301c              ADDS     r0,r0,#0x1c           ;263
0002e0  f7fffffe          BL       __2sprintf
0002e4  4948              LDR      r1,|L10.1032|
0002e6  4628              MOV      r0,r5                 ;264
0002e8  311c              ADDS     r1,r1,#0x1c           ;264
0002ea  f7fffffe          BL       TEXT_SetText
0002ee  4639              MOV      r1,r7                 ;265
0002f0  4628              MOV      r0,r5                 ;265
0002f2  f7fffffe          BL       TEXT_SetTextColor
0002f6  4966              LDR      r1,|L10.1168|
0002f8  4628              MOV      r0,r5                 ;266
0002fa  f7fffffe          BL       TEXT_SetFont
0002fe  f640019d          MOV      r1,#0x89d             ;268
000302  6860              LDR      r0,[r4,#4]            ;268
000304  f7fffffe          BL       WM_GetDialogItem
000308  4605              MOV      r5,r0                 ;268
00030a  f7fffffe          BL       GUI_UC_SetEncodeUTF8
00030e  7872              LDRB     r2,[r6,#1]            ;270  ; month1
000310  483d              LDR      r0,|L10.1032|
000312  a185              ADR      r1,|L10.1320|
000314  301c              ADDS     r0,r0,#0x1c           ;270
000316  f7fffffe          BL       __2sprintf
00031a  493b              LDR      r1,|L10.1032|
00031c  4628              MOV      r0,r5                 ;271
00031e  311c              ADDS     r1,r1,#0x1c           ;271
000320  f7fffffe          BL       TEXT_SetText
000324  4639              MOV      r1,r7                 ;272
000326  4628              MOV      r0,r5                 ;272
000328  f7fffffe          BL       TEXT_SetTextColor
00032c  4958              LDR      r1,|L10.1168|
00032e  4628              MOV      r0,r5                 ;273
000330  f7fffffe          BL       TEXT_SetFont
000334  f640019e          MOV      r1,#0x89e             ;275
000338  6860              LDR      r0,[r4,#4]            ;275
00033a  f7fffffe          BL       WM_GetDialogItem
00033e  4605              MOV      r5,r0                 ;275
000340  f7fffffe          BL       GUI_UC_SetEncodeUTF8
000344  78b2              LDRB     r2,[r6,#2]            ;277  ; month2
000346  4830              LDR      r0,|L10.1032|
000348  a177              ADR      r1,|L10.1320|
00034a  301c              ADDS     r0,r0,#0x1c           ;277
00034c  f7fffffe          BL       __2sprintf
000350  492d              LDR      r1,|L10.1032|
000352  4628              MOV      r0,r5                 ;278
000354  311c              ADDS     r1,r1,#0x1c           ;278
000356  f7fffffe          BL       TEXT_SetText
00035a  4639              MOV      r1,r7                 ;279
00035c  4628              MOV      r0,r5                 ;279
00035e  f7fffffe          BL       TEXT_SetTextColor
000362  494b              LDR      r1,|L10.1168|
000364  4628              MOV      r0,r5                 ;280
000366  f7fffffe          BL       TEXT_SetFont
00036a  f44f6130          MOV      r1,#0xb00             ;282
00036e  6860              LDR      r0,[r4,#4]            ;282
000370  f7fffffe          BL       WM_GetDialogItem
000374  4605              MOV      r5,r0                 ;282
000376  f7fffffe          BL       GUI_UC_SetEncodeUTF8
00037a  78f2              LDRB     r2,[r6,#3]            ;284  ; day1
00037c  4822              LDR      r0,|L10.1032|
00037e  a16a              ADR      r1,|L10.1320|
000380  301c              ADDS     r0,r0,#0x1c           ;284
000382  f7fffffe          BL       __2sprintf
000386  4920              LDR      r1,|L10.1032|
000388  4628              MOV      r0,r5                 ;285
00038a  311c              ADDS     r1,r1,#0x1c           ;285
00038c  f7fffffe          BL       TEXT_SetText
000390  4639              MOV      r1,r7                 ;286
000392  4628              MOV      r0,r5                 ;286
000394  f7fffffe          BL       TEXT_SetTextColor
000398  493d              LDR      r1,|L10.1168|
00039a  4628              MOV      r0,r5                 ;287
00039c  f7fffffe          BL       TEXT_SetFont
0003a0  f6403101          MOV      r1,#0xb01             ;289
0003a4  6860              LDR      r0,[r4,#4]            ;289
0003a6  f7fffffe          BL       WM_GetDialogItem
0003aa  4605              MOV      r5,r0                 ;289
0003ac  f7fffffe          BL       GUI_UC_SetEncodeUTF8
0003b0  7932              LDRB     r2,[r6,#4]            ;291  ; day2
0003b2  4815              LDR      r0,|L10.1032|
0003b4  a15c              ADR      r1,|L10.1320|
0003b6  301c              ADDS     r0,r0,#0x1c           ;291
0003b8  f7fffffe          BL       __2sprintf
0003bc  4912              LDR      r1,|L10.1032|
0003be  4628              MOV      r0,r5                 ;292
0003c0  311c              ADDS     r1,r1,#0x1c           ;292
0003c2  f7fffffe          BL       TEXT_SetText
0003c6  4639              MOV      r1,r7                 ;293
0003c8  4628              MOV      r0,r5                 ;293
0003ca  f7fffffe          BL       TEXT_SetTextColor
0003ce  4930              LDR      r1,|L10.1168|
0003d0  4628              MOV      r0,r5                 ;294
0003d2  f7fffffe          BL       TEXT_SetFont
0003d6  f6403102          MOV      r1,#0xb02             ;296
0003da  6860              LDR      r0,[r4,#4]            ;296
0003dc  f7fffffe          BL       WM_GetDialogItem
0003e0  4605              MOV      r5,r0                 ;296
0003e2  f7fffffe          BL       GUI_UC_SetEncodeUTF8
0003e6  7a32              LDRB     r2,[r6,#8]            ;298  ; code3
0003e8  4807              LDR      r0,|L10.1032|
0003ea  a14f              ADR      r1,|L10.1320|
0003ec  301c              ADDS     r0,r0,#0x1c           ;298
0003ee  f7fffffe          BL       __2sprintf
0003f2  4905              LDR      r1,|L10.1032|
0003f4  4628              MOV      r0,r5                 ;299
0003f6  311c              ADDS     r1,r1,#0x1c           ;299
0003f8  f7fffffe          BL       TEXT_SetText
0003fc  4639              MOV      r1,r7                 ;300
0003fe  4628              MOV      r0,r5                 ;300
000400  e094              B        |L10.1324|
000402  0000              DCW      0x0000
                  |L10.1028|
                          DCD      0x00bfffff
                  |L10.1032|
                          DCD      ||.data||
                  |L10.1036|
                          DCD      GUI_Fontsymbol
                  |L10.1040|
000410  4a696e6b          DCB      "Jinko",0
000414  6f00    
000416  00                DCB      0
000417  00                DCB      0
                  |L10.1048|
                          DCD      lang
                  |L10.1052|
                          DCD      0x00ff8080
                  |L10.1056|
                          DCD      GUI_Font20_ASCII
                  |L10.1060|
000424  53797374          DCB      "System Information",0
000428  656d2049
00042c  6e666f72
000430  6d617469
000434  6f6e00  
000437  00                DCB      0
                  |L10.1080|
000438  496e7374          DCB      "Instrument Model"
00043c  72756d65
000440  6e74204d
000444  6f64656c
                  |L10.1096|
000448  00                DCB      0
000449  00                DCB      0
00044a  00                DCB      0
00044b  00                DCB      0
                  |L10.1100|
00044c  536f6674          DCB      "Software Version",0
000450  77617265
000454  20566572
000458  73696f6e
00045c  00      
00045d  00                DCB      0
00045e  00                DCB      0
00045f  00                DCB      0
                  |L10.1120|
000460  48617264          DCB      "Hardware Version",0
000464  77617265
000468  20566572
00046c  73696f6e
000470  00      
000471  00                DCB      0
000472  00                DCB      0
000473  00                DCB      0
                  |L10.1140|
000474  50726f64          DCB      "Production Date",0
000478  75637469
00047c  6f6e2044
000480  61746500
                  |L10.1156|
000484  53657269          DCB      "Serial NO.",0
000488  616c204e
00048c  4f2e00  
00048f  00                DCB      0
                  |L10.1168|
                          DCD      GUI_Font24_1
                  |L10.1172|
000494  4a4b3535          DCB      "JK5530",0
000498  333000  
00049b  00                DCB      0
                  |L10.1180|
00049c  5665723a          DCB      "Ver:2.5",0
0004a0  322e3500
                  |L10.1188|
0004a4  5665723a          DCB      "Ver:1.0",0
0004a8  312e3000
                  |L10.1196|
0004ac  2d00              DCB      "-",0
0004ae  00                DCB      0
0004af  00                DCB      0
                  |L10.1200|
0004b0  4100              DCB      "A",0
0004b2  00                DCB      0
0004b3  00                DCB      0
                  |L10.1204|
                          DCD      GUI_FontHZ20S
                  |L10.1208|
0004b8  e7b3bbe7          DCB      231,179,187,231,187,159,228,191,161,230,129,175,0
0004bc  bb9fe4bf
0004c0  a1e681af
0004c4  00      
0004c5  00                DCB      0
0004c6  00                DCB      0
0004c7  00                DCB      0
                  |L10.1224|
                          DCD      GUI_Fontset_font
                  |L10.1228|
0004cc  e4bbaae5          DCB      228,187,170,229,153,168,229,158,139,229,143,183,0
0004d0  99a8e59e
0004d4  8be58fb7
0004d8  00      
0004d9  00                DCB      0
0004da  00                DCB      0
0004db  00                DCB      0
                  |L10.1244|
0004dc  e8bdafe4          DCB      232,189,175,228,187,182,231,137,136,230,156,172,0
0004e0  bbb6e789
0004e4  88e69cac
0004e8  00      
0004e9  00                DCB      0
0004ea  00                DCB      0
0004eb  00                DCB      0
                  |L10.1260|
0004ec  e7a1ace4          DCB      231,161,172,228,187,182,231,137,136,230,156,172,0
0004f0  bbb6e789
0004f4  88e69cac
0004f8  00      
0004f9  00                DCB      0
0004fa  00                DCB      0
0004fb  00                DCB      0
                  |L10.1276|
0004fc  e7949fe4          DCB      231,148,159,228,186,167,230,151,165,230,156,159,0
000500  baa7e697
000504  a5e69c9f
000508  00      
000509  00                DCB      0
00050a  00                DCB      0
00050b  00                DCB      0
                  |L10.1292|
00050c  e4bbaae5          DCB      228,187,170,229,153,168,231,188,150,229,143,183,0
000510  99a8e7bc
000514  96e58fb7
000518  00      
000519  00                DCB      0
00051a  00                DCB      0
00051b  00                DCB      0
                  |L10.1308|
                          DCD      pass
                  |L10.1312|
                          DCD      Run_Control
                  |L10.1316|
000524  25346400          DCB      "%4d",0
                  |L10.1320|
000528  256400            DCB      "%d",0
00052b  00                DCB      0
                  |L10.1324|
00052c  f7fffffe          BL       TEXT_SetTextColor
000530  495e              LDR      r1,|L10.1708|
000532  4628              MOV      r0,r5                 ;301
000534  f7fffffe          BL       TEXT_SetFont
000538  f6403103          MOV      r1,#0xb03             ;303
00053c  6860              LDR      r0,[r4,#4]            ;303
00053e  f7fffffe          BL       WM_GetDialogItem
000542  4605              MOV      r5,r0                 ;303
000544  f7fffffe          BL       GUI_UC_SetEncodeUTF8
000548  7a72              LDRB     r2,[r6,#9]            ;305  ; code4
00054a  f2af0124          ADR      r1,|L10.1320|
00054e  4858              LDR      r0,|L10.1712|
000550  f7fffffe          BL       __2sprintf
000554  4956              LDR      r1,|L10.1712|
000556  4628              MOV      r0,r5                 ;306
000558  f7fffffe          BL       TEXT_SetText
00055c  4639              MOV      r1,r7                 ;307
00055e  4628              MOV      r0,r5                 ;307
000560  f7fffffe          BL       TEXT_SetTextColor
000564  4951              LDR      r1,|L10.1708|
000566  4628              MOV      r0,r5                 ;308
000568  f7fffffe          BL       TEXT_SetFont
00056c  f6403104          MOV      r1,#0xb04             ;310
000570  6860              LDR      r0,[r4,#4]            ;310
000572  f7fffffe          BL       WM_GetDialogItem
000576  4605              MOV      r5,r0                 ;310
000578  f7fffffe          BL       GUI_UC_SetEncodeUTF8
00057c  7ab2              LDRB     r2,[r6,#0xa]          ;312  ; code5
00057e  f2af0158          ADR      r1,|L10.1320|
000582  484b              LDR      r0,|L10.1712|
000584  f7fffffe          BL       __2sprintf
000588  4949              LDR      r1,|L10.1712|
00058a  4628              MOV      r0,r5                 ;313
00058c  f7fffffe          BL       TEXT_SetText
000590  4639              MOV      r1,r7                 ;314
000592  4628              MOV      r0,r5                 ;314
000594  f7fffffe          BL       TEXT_SetTextColor
000598  4944              LDR      r1,|L10.1708|
00059a  4628              MOV      r0,r5                 ;315
00059c  f7fffffe          BL       TEXT_SetFont
0005a0  f6403105          MOV      r1,#0xb05             ;317
0005a4  6860              LDR      r0,[r4,#4]            ;317
0005a6  f7fffffe          BL       WM_GetDialogItem
0005aa  4605              MOV      r5,r0                 ;317
0005ac  f7fffffe          BL       GUI_UC_SetEncodeUTF8
0005b0  7af2              LDRB     r2,[r6,#0xb]          ;319  ; code6
0005b2  f2af018c          ADR      r1,|L10.1320|
0005b6  483e              LDR      r0,|L10.1712|
0005b8  f7fffffe          BL       __2sprintf
0005bc  493c              LDR      r1,|L10.1712|
0005be  4628              MOV      r0,r5                 ;320
0005c0  f7fffffe          BL       TEXT_SetText
0005c4  4639              MOV      r1,r7                 ;321
0005c6  4628              MOV      r0,r5                 ;321
0005c8  f7fffffe          BL       TEXT_SetTextColor
0005cc  4937              LDR      r1,|L10.1708|
0005ce  4628              MOV      r0,r5                 ;322
0005d0  f7fffffe          BL       TEXT_SetFont
0005d4  f6403106          MOV      r1,#0xb06             ;324
0005d8  6860              LDR      r0,[r4,#4]            ;324
0005da  f7fffffe          BL       WM_GetDialogItem
0005de  4605              MOV      r5,r0                 ;324
0005e0  f7fffffe          BL       GUI_UC_SetEncodeUTF8
0005e4  7b32              LDRB     r2,[r6,#0xc]          ;326  ; code7
0005e6  f2af01c0          ADR      r1,|L10.1320|
0005ea  4831              LDR      r0,|L10.1712|
0005ec  f7fffffe          BL       __2sprintf
0005f0  492f              LDR      r1,|L10.1712|
0005f2  4628              MOV      r0,r5                 ;327
0005f4  f7fffffe          BL       TEXT_SetText
0005f8  4639              MOV      r1,r7                 ;328
0005fa  4628              MOV      r0,r5                 ;328
0005fc  f7fffffe          BL       TEXT_SetTextColor
000600  492a              LDR      r1,|L10.1708|
000602  4628              MOV      r0,r5                 ;329
000604  f7fffffe          BL       TEXT_SetFont
000608  f6403107          MOV      r1,#0xb07             ;331
00060c  6860              LDR      r0,[r4,#4]            ;331
00060e  f7fffffe          BL       WM_GetDialogItem
000612  4605              MOV      r5,r0                 ;331
000614  f7fffffe          BL       GUI_UC_SetEncodeUTF8
000618  7b72              LDRB     r2,[r6,#0xd]          ;333  ; code8
00061a  f2af01f4          ADR      r1,|L10.1320|
00061e  4824              LDR      r0,|L10.1712|
000620  f7fffffe          BL       __2sprintf
000624  4922              LDR      r1,|L10.1712|
000626  4628              MOV      r0,r5                 ;334
000628  f7fffffe          BL       TEXT_SetText
00062c  4639              MOV      r1,r7                 ;335
00062e  4628              MOV      r0,r5                 ;335
000630  f7fffffe          BL       TEXT_SetTextColor
000634  491d              LDR      r1,|L10.1708|
000636  4628              MOV      r0,r5                 ;336
000638  f7fffffe          BL       TEXT_SetFont
00063c  f6403108          MOV      r1,#0xb08             ;338
000640  6860              LDR      r0,[r4,#4]            ;338
000642  f7fffffe          BL       WM_GetDialogItem
000646  4605              MOV      r5,r0                 ;338
000648  f7fffffe          BL       GUI_UC_SetEncodeUTF8
00064c  79b2              LDRB     r2,[r6,#6]            ;340  ; code1
00064e  f2af1128          ADR      r1,|L10.1320|
000652  4817              LDR      r0,|L10.1712|
000654  f7fffffe          BL       __2sprintf
000658  4915              LDR      r1,|L10.1712|
00065a  4628              MOV      r0,r5                 ;341
00065c  f7fffffe          BL       TEXT_SetText
000660  4639              MOV      r1,r7                 ;342
000662  4628              MOV      r0,r5                 ;342
000664  f7fffffe          BL       TEXT_SetTextColor
000668  4910              LDR      r1,|L10.1708|
00066a  4628              MOV      r0,r5                 ;343
00066c  f7fffffe          BL       TEXT_SetFont
000670  f6403109          MOV      r1,#0xb09             ;345
000674  6860              LDR      r0,[r4,#4]            ;345
000676  f7fffffe          BL       WM_GetDialogItem
00067a  4604              MOV      r4,r0                 ;345
00067c  f7fffffe          BL       GUI_UC_SetEncodeUTF8
000680  79f2              LDRB     r2,[r6,#7]            ;347  ; code2
000682  f2af115c          ADR      r1,|L10.1320|
000686  480a              LDR      r0,|L10.1712|
000688  f7fffffe          BL       __2sprintf
00068c  4908              LDR      r1,|L10.1712|
00068e  4620              MOV      r0,r4                 ;348
000690  f7fffffe          BL       TEXT_SetText
000694  4639              MOV      r1,r7                 ;349
000696  4620              MOV      r0,r4                 ;349
000698  f7fffffe          BL       TEXT_SetTextColor
00069c  4620              MOV      r0,r4                 ;350
00069e  e8bd41f0          POP      {r4-r8,lr}            ;350
0006a2  4902              LDR      r1,|L10.1708|
0006a4  f7ffbffe          B.W      TEXT_SetFont
                  |L10.1704|
;;;361            break;
;;;362      }
;;;363    }
0006a8  e8bd81f0          POP      {r4-r8,pc}
;;;364    
                          ENDP

                  |L10.1708|
                          DCD      GUI_Font24_1
                  |L10.1712|
                          DCD      ||.data||+0x1c

                          AREA ||.constdata||, DATA, READONLY, ALIGN=2

                  _aDialogCreate7
                          DCD      WINDOW_CreateIndirect
                          DCD      ||.conststring||
000008  08980000          DCW      0x0898,0x0000
00000c  000001e0          DCW      0x0000,0x01e0
000010  01100000          DCW      0x0110,0x0000
                          DCD      0x00000000
                          DCD      0x00000000
                          DCD      TEXT_CreateIndirect
                          DCD      ||.conststring||+0x8
000024  089900b4          DCW      0x0899,0x00b4
000028  007d000c          DCW      0x007d,0x000c
00002c  00140000          DCW      0x0014,0x0000
                          DCD      0x00000000
                          DCD      0x00000000
                          DCD      TEXT_CreateIndirect
                          DCD      ||.conststring||+0x8
000040  089a00c0          DCW      0x089a,0x00c0
000044  007d000c          DCW      0x007d,0x000c
000048  00140000          DCW      0x0014,0x0000
                          DCD      0x00000000
                          DCD      0x00000000
                          DCD      TEXT_CreateIndirect
                          DCD      ||.conststring||+0x8
00005c  089b00cc          DCW      0x089b,0x00cc
000060  007d000c          DCW      0x007d,0x000c
000064  00140000          DCW      0x0014,0x0000
                          DCD      0x00000000
                          DCD      0x00000000
                          DCD      TEXT_CreateIndirect
                          DCD      ||.conststring||+0x8
000078  089c00d8          DCW      0x089c,0x00d8
00007c  007d000c          DCW      0x007d,0x000c
000080  00140000          DCW      0x0014,0x0000
                          DCD      0x00000000
                          DCD      0x00000000
                          DCD      TEXT_CreateIndirect
                          DCD      ||.conststring||+0x8
000094  089d00f0          DCW      0x089d,0x00f0
000098  007d000c          DCW      0x007d,0x000c
00009c  00140000          DCW      0x0014,0x0000
                          DCD      0x00000000
                          DCD      0x00000000
                          DCD      TEXT_CreateIndirect
                          DCD      ||.conststring||+0x8
0000b0  089e00fc          DCW      0x089e,0x00fc
0000b4  007d000c          DCW      0x007d,0x000c
0000b8  00140000          DCW      0x0014,0x0000
                          DCD      0x00000000
                          DCD      0x00000000
                          DCD      TEXT_CreateIndirect
                          DCD      ||.conststring||+0x8
0000cc  0b000114          DCW      0x0b00,0x0114
0000d0  007d000c          DCW      0x007d,0x000c
0000d4  00140000          DCW      0x0014,0x0000
                          DCD      0x00000000
                          DCD      0x00000000
                          DCD      TEXT_CreateIndirect
                          DCD      ||.conststring||+0x8
0000e8  0b010120          DCW      0x0b01,0x0120
0000ec  007d000c          DCW      0x007d,0x000c
0000f0  00140000          DCW      0x0014,0x0000
                          DCD      0x00000000
                          DCD      0x00000000
                          DCD      TEXT_CreateIndirect
                          DCD      ||.conststring||+0x8
000104  0b0200d8          DCW      0x0b02,0x00d8
000108  0096000c          DCW      0x0096,0x000c
00010c  00140000          DCW      0x0014,0x0000
                          DCD      0x00000000
                          DCD      0x00000000
                          DCD      TEXT_CreateIndirect
                          DCD      ||.conststring||+0x8
000120  0b0300e4          DCW      0x0b03,0x00e4
000124  0096000c          DCW      0x0096,0x000c
000128  00140000          DCW      0x0014,0x0000
                          DCD      0x00000000
                          DCD      0x00000000
                          DCD      TEXT_CreateIndirect
                          DCD      ||.conststring||+0x8
00013c  0b0400f0          DCW      0x0b04,0x00f0
000140  0096000c          DCW      0x0096,0x000c
000144  00140000          DCW      0x0014,0x0000
                          DCD      0x00000000
                          DCD      0x00000000
                          DCD      TEXT_CreateIndirect
                          DCD      ||.conststring||+0x8
000158  0b0500fc          DCW      0x0b05,0x00fc
00015c  0096000c          DCW      0x0096,0x000c
000160  00140000          DCW      0x0014,0x0000
                          DCD      0x00000000
                          DCD      0x00000000
                          DCD      TEXT_CreateIndirect
                          DCD      ||.conststring||+0x8
000174  0b060108          DCW      0x0b06,0x0108
000178  0096000c          DCW      0x0096,0x000c
00017c  00140000          DCW      0x0014,0x0000
                          DCD      0x00000000
                          DCD      0x00000000
                          DCD      TEXT_CreateIndirect
                          DCD      ||.conststring||+0x8
000190  0b070114          DCW      0x0b07,0x0114
000194  0096000c          DCW      0x0096,0x000c
000198  00140000          DCW      0x0014,0x0000
                          DCD      0x00000000
                          DCD      0x00000000
                          DCD      TEXT_CreateIndirect
                          DCD      ||.conststring||+0x8
0001ac  0b0800b4          DCW      0x0b08,0x00b4
0001b0  0096000c          DCW      0x0096,0x000c
0001b4  00140000          DCW      0x0014,0x0000
                          DCD      0x00000000
                          DCD      0x00000000
                          DCD      TEXT_CreateIndirect
                          DCD      ||.conststring||+0x8
0001c8  0b0900c0          DCW      0x0b09,0x00c0
0001cc  0096000c          DCW      0x0096,0x000c
0001d0  00140000          DCW      0x0014,0x0000
                          DCD      0x00000000
                          DCD      0x00000000
                          DCD      TEXT_CreateIndirect
                          DCD      ||.conststring||+0x8
0001e4  0b1200c0          DCW      0x0b12,0x00c0
0001e8  00c80050          DCW      0x00c8,0x0050
0001ec  00140000          DCW      0x0014,0x0000
                          DCD      0x00000000
                          DCD      0x00000000

                          AREA ||.conststring||, DATA, READONLY, MERGE=1, STRINGS, ALIGN=0

000000  53595349          DCB      "SYSINFO",0
000004  4e464f00
000008  54657874          DCB      "Text",0
00000c  00      

                          AREA ||.data||, DATA, ALIGN=2

                  info_set
000000  2f                DCB      0x2f
                  month1
000001  00                DCB      0x00
                  month2
000002  00                DCB      0x00
                  day1
000003  00                DCB      0x00
                  day2
000004  00                DCB      0x00
                  admin
000005  00                DCB      0x00
                  code1
000006  00                DCB      0x00
                  code2
000007  00                DCB      0x00
                  code3
000008  00                DCB      0x00
                  code4
000009  00                DCB      0x00
                  code5
00000a  00                DCB      0x00
                  code6
00000b  00                DCB      0x00
                  code7
00000c  00                DCB      0x00
                  code8
00000d  00                DCB      0x00
                  ||cal||
00000e  0000              DCB      0x00,0x00
                  year1
000010  0000              DCW      0x0000
                  year2
000012  0000              DCW      0x0000
                  year3
000014  0000              DCW      0x0000
                  year4
000016  0000              DCW      0x0000
                  hWinsysinfo
                          DCD      0x00000000
                  buf
                          DCD      0x00000000
000020  00                DCB      0x00
                  |symbol_number.54|
000021  000000            DCB      0x00,0x00,0x00
000024  0000              DCB      0x00,0x00

;*** Start embedded assembler ***

#line 1 "..\\APP\\sysinfo.c"
	AREA ||.rev16_text||, CODE, READONLY
	THUMB
	EXPORT |__asm___9_sysinfo_c_info_set____REV16|
#line 114 "D:\\Keil\\ARM\\CMSIS\\Include\\core_cmInstr.h"
|__asm___9_sysinfo_c_info_set____REV16| PROC
#line 115

 rev16 r0, r0
 bx lr
	ENDP
	AREA ||.revsh_text||, CODE, READONLY
	THUMB
	EXPORT |__asm___9_sysinfo_c_info_set____REVSH|
#line 128
|__asm___9_sysinfo_c_info_set____REVSH| PROC
#line 129

 revsh r0, r0
 bx lr
	ENDP

;*** End   embedded assembler ***
